
rv32ud-p-move:     file format elf32-littleriscv


Disassembly of section .text.init:

80000000 <_start>:
80000000:	aa0d                	j	80000132 <reset_vector>
80000002:	0001                	nop

80000004 <trap_vector>:
80000004:	34051073          	csrw	mscratch,a0
80000008:	00003517          	auipc	a0,0x3
8000000c:	ff850513          	addi	a0,a0,-8 # 80003000 <test_trap_data>
80000010:	01e52023          	sw	t5,0(a0)
80000014:	01f52223          	sw	t6,4(a0)
80000018:	34202f73          	csrr	t5,mcause
8000001c:	040f4163          	bltz	t5,8000005e <other_interrupts>
80000020:	4fa1                	li	t6,8
80000022:	07ff0263          	beq	t5,t6,80000086 <write_tohost>
80000026:	4fa5                	li	t6,9
80000028:	05ff0f63          	beq	t5,t6,80000086 <write_tohost>
8000002c:	4fad                	li	t6,11
8000002e:	05ff0c63          	beq	t5,t6,80000086 <write_tohost>
80000032:	4f85                	li	t6,1
80000034:	0bff0563          	beq	t5,t6,800000de <ifetch_error_handler>
80000038:	4f95                	li	t6,5
8000003a:	0dff0063          	beq	t5,t6,800000fa <load_error_handler>
8000003e:	4f9d                	li	t6,7
80000040:	0dff0b63          	beq	t5,t6,80000116 <store_error_handler>
80000044:	80000f17          	auipc	t5,0x80000
80000048:	fbcf0f13          	addi	t5,t5,-68 # 0 <_start-0x80000000>
8000004c:	000f0363          	beqz	t5,80000052 <trap_vector+0x4e>
80000050:	8f02                	jr	t5
80000052:	34202f73          	csrr	t5,mcause
80000056:	000f5363          	bgez	t5,8000005c <handle_exception>
8000005a:	a009                	j	8000005c <handle_exception>

8000005c <handle_exception>:
8000005c:	a01d                	j	80000082 <other_interrupts+0x24>

8000005e <other_interrupts>:
8000005e:	80000fb7          	lui	t6,0x80000
80000062:	003f8f93          	addi	t6,t6,3 # 80000003 <_end+0xffffcfe3>
80000066:	05ff0463          	beq	t5,t6,800000ae <sft_irq_handler>
8000006a:	80000fb7          	lui	t6,0x80000
8000006e:	007f8f93          	addi	t6,t6,7 # 80000007 <_end+0xffffcfe7>
80000072:	05ff0a63          	beq	t5,t6,800000c6 <tmr_irq_handler>
80000076:	80000fb7          	lui	t6,0x80000
8000007a:	00bf8f93          	addi	t6,t6,11 # 8000000b <_end+0xffffcfeb>
8000007e:	01ff0c63          	beq	t5,t6,80000096 <ext_irq_handler>
80000082:	5391e193          	ori	gp,gp,1337

80000086 <write_tohost>:
80000086:	4521                	li	a0,8
80000088:	30052073          	csrs	mstatus,a0
8000008c:	00002f17          	auipc	t5,0x2
80000090:	f63f2a23          	sw	gp,-140(t5) # 80002000 <tohost>
80000094:	bfcd                	j	80000086 <write_tohost>

80000096 <ext_irq_handler>:
80000096:	00003517          	auipc	a0,0x3
8000009a:	f6a50513          	addi	a0,a0,-150 # 80003000 <test_trap_data>
8000009e:	00052f03          	lw	t5,0(a0)
800000a2:	00452f83          	lw	t6,4(a0)
800000a6:	34002573          	csrr	a0,mscratch
800000aa:	30200073          	mret

800000ae <sft_irq_handler>:
800000ae:	00003517          	auipc	a0,0x3
800000b2:	f5250513          	addi	a0,a0,-174 # 80003000 <test_trap_data>
800000b6:	00052f03          	lw	t5,0(a0)
800000ba:	00452f83          	lw	t6,4(a0)
800000be:	34002573          	csrr	a0,mscratch
800000c2:	30200073          	mret

800000c6 <tmr_irq_handler>:
800000c6:	00003517          	auipc	a0,0x3
800000ca:	f3a50513          	addi	a0,a0,-198 # 80003000 <test_trap_data>
800000ce:	00052f03          	lw	t5,0(a0)
800000d2:	00452f83          	lw	t6,4(a0)
800000d6:	34002573          	csrr	a0,mscratch
800000da:	30200073          	mret

800000de <ifetch_error_handler>:
800000de:	00003517          	auipc	a0,0x3
800000e2:	f2250513          	addi	a0,a0,-222 # 80003000 <test_trap_data>
800000e6:	00052f03          	lw	t5,0(a0)
800000ea:	00452f83          	lw	t6,4(a0)
800000ee:	34302573          	csrr	a0,mbadaddr
800000f2:	34002573          	csrr	a0,mscratch
800000f6:	30200073          	mret

800000fa <load_error_handler>:
800000fa:	00003517          	auipc	a0,0x3
800000fe:	f0650513          	addi	a0,a0,-250 # 80003000 <test_trap_data>
80000102:	00052f03          	lw	t5,0(a0)
80000106:	00452f83          	lw	t6,4(a0)
8000010a:	34302573          	csrr	a0,mbadaddr
8000010e:	34002573          	csrr	a0,mscratch
80000112:	30200073          	mret

80000116 <store_error_handler>:
80000116:	00003517          	auipc	a0,0x3
8000011a:	eea50513          	addi	a0,a0,-278 # 80003000 <test_trap_data>
8000011e:	00052f03          	lw	t5,0(a0)
80000122:	00452f83          	lw	t6,4(a0)
80000126:	34302573          	csrr	a0,mbadaddr
8000012a:	34002573          	csrr	a0,mscratch
8000012e:	30200073          	mret

80000132 <reset_vector>:
80000132:	00000f13          	li	t5,0
80000136:	00000f93          	li	t6,0
8000013a:	f1402573          	csrr	a0,mhartid
8000013e:	e101                	bnez	a0,8000013e <reset_vector+0xc>
80000140:	4181                	li	gp,0
80000142:	00000297          	auipc	t0,0x0
80000146:	ec228293          	addi	t0,t0,-318 # 80000004 <trap_vector>
8000014a:	4521                	li	a0,8
8000014c:	30052073          	csrs	mstatus,a0
80000150:	fff00513          	li	a0,-1
80000154:	30452073          	csrs	mie,a0
80000158:	30529073          	csrw	mtvec,t0

8000015c <post_mtvec>:
8000015c:	80000297          	auipc	t0,0x80000
80000160:	ea428293          	addi	t0,t0,-348 # 0 <_start-0x80000000>
80000164:	00028e63          	beqz	t0,80000180 <post_mtvec+0x24>
80000168:	10529073          	csrw	stvec,t0
8000016c:	0000b2b7          	lui	t0,0xb
80000170:	10928293          	addi	t0,t0,265 # b109 <_start-0x7fff4ef7>
80000174:	30229073          	csrw	medeleg,t0
80000178:	30202373          	csrr	t1,medeleg
8000017c:	ee6290e3          	bne	t0,t1,8000005c <handle_exception>
80000180:	30005073          	csrwi	mstatus,0
80000184:	08000513          	li	a0,128
80000188:	30052073          	csrs	mstatus,a0
8000018c:	4501                	li	a0,0
8000018e:	bfc51073          	csrw	0xbfc,a0
80000192:	0000100f          	fence.i
80000196:	000012b7          	lui	t0,0x1
8000019a:	a0028293          	addi	t0,t0,-1536 # a00 <_start-0x7ffff600>

8000019e <waitloop1>:
8000019e:	12fd                	addi	t0,t0,-1
800001a0:	fe029fe3          	bnez	t0,8000019e <waitloop1>
800001a4:	100083b7          	lui	t2,0x10008
800001a8:	00838393          	addi	t2,t2,8 # 10008008 <_start-0x6fff7ff8>
800001ac:	0003a283          	lw	t0,0(t2)
800001b0:	00040337          	lui	t1,0x40
800001b4:	fff34313          	not	t1,t1
800001b8:	0062f2b3          	and	t0,t0,t1
800001bc:	0053a023          	sw	t0,0(t2)
800001c0:	40000293          	li	t0,1024

800001c4 <waitloop2>:
800001c4:	12fd                	addi	t0,t0,-1
800001c6:	0003ae03          	lw	t3,0(t2)
800001ca:	fe029de3          	bnez	t0,800001c4 <waitloop2>
800001ce:	0003a283          	lw	t0,0(t2)
800001d2:	00040337          	lui	t1,0x40
800001d6:	0062e2b3          	or	t0,t0,t1
800001da:	0053a023          	sw	t0,0(t2)
800001de:	0003a283          	lw	t0,0(t2)
800001e2:	4305                	li	t1,1
800001e4:	0062e2b3          	or	t0,t0,t1
800001e8:	0053a023          	sw	t0,0(t2)
800001ec:	0003a283          	lw	t0,0(t2)
800001f0:	02000313          	li	t1,32
800001f4:	0062e2b3          	or	t0,t0,t1
800001f8:	0053a023          	sw	t0,0(t2)
800001fc:	000012b7          	lui	t0,0x1
80000200:	a0028293          	addi	t0,t0,-1536 # a00 <_start-0x7ffff600>

80000204 <waitloop3>:
80000204:	12fd                	addi	t0,t0,-1
80000206:	fe029fe3          	bnez	t0,80000204 <waitloop3>
8000020a:	0003a283          	lw	t0,0(t2)
8000020e:	00040337          	lui	t1,0x40
80000212:	fff34313          	not	t1,t1
80000216:	0062f2b3          	and	t0,t0,t1
8000021a:	0053a023          	sw	t0,0(t2)
8000021e:	10000293          	li	t0,256

80000222 <waitloop4>:
80000222:	12fd                	addi	t0,t0,-1
80000224:	fe029fe3          	bnez	t0,80000222 <waitloop4>
80000228:	100083b7          	lui	t2,0x10008
8000022c:	00c38393          	addi	t2,t2,12 # 1000800c <_start-0x6fff7ff4>
80000230:	0003a283          	lw	t0,0(t2)
80000234:	10000313          	li	t1,256
80000238:	fff34313          	not	t1,t1
8000023c:	0062f2b3          	and	t0,t0,t1
80000240:	4309                	li	t1,2
80000242:	0062e2b3          	or	t0,t0,t1
80000246:	0053a023          	sw	t0,0(t2)
8000024a:	40000293          	li	t0,1024
8000024e:	6509                	lui	a0,0x2
80000250:	30052073          	csrs	mstatus,a0
80000254:	00305073          	csrwi	fcsr,0
80000258:	00000297          	auipc	t0,0x0
8000025c:	01428293          	addi	t0,t0,20 # 8000026c <waitloop4+0x4a>
80000260:	34129073          	csrw	mepc,t0
80000264:	f1402573          	csrr	a0,mhartid
80000268:	30200073          	mret
8000026c:	00003897          	auipc	a7,0x3
80000270:	da488893          	addi	a7,a7,-604 # 80003010 <begin_signature>

80000274 <test_10>:
80000274:	123455b7          	lui	a1,0x12345
80000278:	67858593          	addi	a1,a1,1656 # 12345678 <_start-0x6dcba988>
8000027c:	9abce637          	lui	a2,0x9abce
80000280:	ef060613          	addi	a2,a2,-272 # 9abcdef0 <_end+0x1abcaed0>
80000284:	00c8a023          	sw	a2,0(a7)
80000288:	00b8a223          	sw	a1,4(a7)
8000028c:	0008b087          	fld	ft1,0(a7)
80000290:	376875b7          	lui	a1,0x37687
80000294:	68758593          	addi	a1,a1,1671 # 37687687 <_start-0x48978979>
80000298:	12312637          	lui	a2,0x12312
8000029c:	31260613          	addi	a2,a2,786 # 12312312 <_start-0x6dcedcee>
800002a0:	00c8a023          	sw	a2,0(a7)
800002a4:	00b8a223          	sw	a1,4(a7)
800002a8:	0008b107          	fld	ft2,0(a7)
800002ac:	22208053          	fsgnj.d	ft0,ft1,ft2
800002b0:	0008b027          	fsd	ft0,0(a7)
800002b4:	0008a683          	lw	a3,0(a7)
800002b8:	0048a703          	lw	a4,4(a7)
800002bc:	12345837          	lui	a6,0x12345
800002c0:	67880813          	addi	a6,a6,1656 # 12345678 <_start-0x6dcba988>
800002c4:	9abce7b7          	lui	a5,0x9abce
800002c8:	ef078793          	addi	a5,a5,-272 # 9abcdef0 <_end+0x1abcaed0>
800002cc:	41a9                	li	gp,10
800002ce:	00f68463          	beq	a3,a5,800002d6 <test_10+0x62>
800002d2:	0960106f          	j	80001368 <fail>
800002d6:	01070463          	beq	a4,a6,800002de <test_11>
800002da:	08e0106f          	j	80001368 <fail>

800002de <test_11>:
800002de:	123455b7          	lui	a1,0x12345
800002e2:	67858593          	addi	a1,a1,1656 # 12345678 <_start-0x6dcba988>
800002e6:	9abce637          	lui	a2,0x9abce
800002ea:	ef060613          	addi	a2,a2,-272 # 9abcdef0 <_end+0x1abcaed0>
800002ee:	00c8a023          	sw	a2,0(a7)
800002f2:	00b8a223          	sw	a1,4(a7)
800002f6:	0008b087          	fld	ft1,0(a7)
800002fa:	b76875b7          	lui	a1,0xb7687
800002fe:	68758593          	addi	a1,a1,1671 # b7687687 <_end+0x37684667>
80000302:	12312637          	lui	a2,0x12312
80000306:	31260613          	addi	a2,a2,786 # 12312312 <_start-0x6dcedcee>
8000030a:	00c8a023          	sw	a2,0(a7)
8000030e:	00b8a223          	sw	a1,4(a7)
80000312:	0008b107          	fld	ft2,0(a7)
80000316:	22208053          	fsgnj.d	ft0,ft1,ft2
8000031a:	0008b027          	fsd	ft0,0(a7)
8000031e:	0008a683          	lw	a3,0(a7)
80000322:	0048a703          	lw	a4,4(a7)
80000326:	92345837          	lui	a6,0x92345
8000032a:	67880813          	addi	a6,a6,1656 # 92345678 <_end+0x12342658>
8000032e:	9abce7b7          	lui	a5,0x9abce
80000332:	ef078793          	addi	a5,a5,-272 # 9abcdef0 <_end+0x1abcaed0>
80000336:	41ad                	li	gp,11
80000338:	00f68463          	beq	a3,a5,80000340 <test_11+0x62>
8000033c:	02c0106f          	j	80001368 <fail>
80000340:	01070463          	beq	a4,a6,80000348 <test_12>
80000344:	0240106f          	j	80001368 <fail>

80000348 <test_12>:
80000348:	923455b7          	lui	a1,0x92345
8000034c:	67858593          	addi	a1,a1,1656 # 92345678 <_end+0x12342658>
80000350:	9abce637          	lui	a2,0x9abce
80000354:	ef060613          	addi	a2,a2,-272 # 9abcdef0 <_end+0x1abcaed0>
80000358:	00c8a023          	sw	a2,0(a7)
8000035c:	00b8a223          	sw	a1,4(a7)
80000360:	0008b087          	fld	ft1,0(a7)
80000364:	376875b7          	lui	a1,0x37687
80000368:	68758593          	addi	a1,a1,1671 # 37687687 <_start-0x48978979>
8000036c:	12312637          	lui	a2,0x12312
80000370:	31260613          	addi	a2,a2,786 # 12312312 <_start-0x6dcedcee>
80000374:	00c8a023          	sw	a2,0(a7)
80000378:	00b8a223          	sw	a1,4(a7)
8000037c:	0008b107          	fld	ft2,0(a7)
80000380:	22208053          	fsgnj.d	ft0,ft1,ft2
80000384:	0008b027          	fsd	ft0,0(a7)
80000388:	0008a683          	lw	a3,0(a7)
8000038c:	0048a703          	lw	a4,4(a7)
80000390:	12345837          	lui	a6,0x12345
80000394:	67880813          	addi	a6,a6,1656 # 12345678 <_start-0x6dcba988>
80000398:	9abce7b7          	lui	a5,0x9abce
8000039c:	ef078793          	addi	a5,a5,-272 # 9abcdef0 <_end+0x1abcaed0>
800003a0:	41b1                	li	gp,12
800003a2:	7cf693e3          	bne	a3,a5,80001368 <fail>
800003a6:	7d0711e3          	bne	a4,a6,80001368 <fail>

800003aa <test_13>:
800003aa:	923455b7          	lui	a1,0x92345
800003ae:	67858593          	addi	a1,a1,1656 # 92345678 <_end+0x12342658>
800003b2:	9abce637          	lui	a2,0x9abce
800003b6:	ef060613          	addi	a2,a2,-272 # 9abcdef0 <_end+0x1abcaed0>
800003ba:	00c8a023          	sw	a2,0(a7)
800003be:	00b8a223          	sw	a1,4(a7)
800003c2:	0008b087          	fld	ft1,0(a7)
800003c6:	b76875b7          	lui	a1,0xb7687
800003ca:	68758593          	addi	a1,a1,1671 # b7687687 <_end+0x37684667>
800003ce:	12312637          	lui	a2,0x12312
800003d2:	31260613          	addi	a2,a2,786 # 12312312 <_start-0x6dcedcee>
800003d6:	00c8a023          	sw	a2,0(a7)
800003da:	00b8a223          	sw	a1,4(a7)
800003de:	0008b107          	fld	ft2,0(a7)
800003e2:	22208053          	fsgnj.d	ft0,ft1,ft2
800003e6:	0008b027          	fsd	ft0,0(a7)
800003ea:	0008a683          	lw	a3,0(a7)
800003ee:	0048a703          	lw	a4,4(a7)
800003f2:	92345837          	lui	a6,0x92345
800003f6:	67880813          	addi	a6,a6,1656 # 92345678 <_end+0x12342658>
800003fa:	9abce7b7          	lui	a5,0x9abce
800003fe:	ef078793          	addi	a5,a5,-272 # 9abcdef0 <_end+0x1abcaed0>
80000402:	41b5                	li	gp,13
80000404:	76f692e3          	bne	a3,a5,80001368 <fail>
80000408:	770710e3          	bne	a4,a6,80001368 <fail>

8000040c <test_20>:
8000040c:	123455b7          	lui	a1,0x12345
80000410:	67858593          	addi	a1,a1,1656 # 12345678 <_start-0x6dcba988>
80000414:	9abce637          	lui	a2,0x9abce
80000418:	ef060613          	addi	a2,a2,-272 # 9abcdef0 <_end+0x1abcaed0>
8000041c:	00c8a023          	sw	a2,0(a7)
80000420:	00b8a223          	sw	a1,4(a7)
80000424:	0008b087          	fld	ft1,0(a7)
80000428:	376875b7          	lui	a1,0x37687
8000042c:	68758593          	addi	a1,a1,1671 # 37687687 <_start-0x48978979>
80000430:	12312637          	lui	a2,0x12312
80000434:	31260613          	addi	a2,a2,786 # 12312312 <_start-0x6dcedcee>
80000438:	00c8a023          	sw	a2,0(a7)
8000043c:	00b8a223          	sw	a1,4(a7)
80000440:	0008b107          	fld	ft2,0(a7)
80000444:	22209053          	fsgnjn.d	ft0,ft1,ft2
80000448:	0008b027          	fsd	ft0,0(a7)
8000044c:	0008a683          	lw	a3,0(a7)
80000450:	0048a703          	lw	a4,4(a7)
80000454:	92345837          	lui	a6,0x92345
80000458:	67880813          	addi	a6,a6,1656 # 92345678 <_end+0x12342658>
8000045c:	9abce7b7          	lui	a5,0x9abce
80000460:	ef078793          	addi	a5,a5,-272 # 9abcdef0 <_end+0x1abcaed0>
80000464:	41d1                	li	gp,20
80000466:	70f691e3          	bne	a3,a5,80001368 <fail>
8000046a:	6f071fe3          	bne	a4,a6,80001368 <fail>

8000046e <test_21>:
8000046e:	123455b7          	lui	a1,0x12345
80000472:	67858593          	addi	a1,a1,1656 # 12345678 <_start-0x6dcba988>
80000476:	9abce637          	lui	a2,0x9abce
8000047a:	ef060613          	addi	a2,a2,-272 # 9abcdef0 <_end+0x1abcaed0>
8000047e:	00c8a023          	sw	a2,0(a7)
80000482:	00b8a223          	sw	a1,4(a7)
80000486:	0008b087          	fld	ft1,0(a7)
8000048a:	b76875b7          	lui	a1,0xb7687
8000048e:	68758593          	addi	a1,a1,1671 # b7687687 <_end+0x37684667>
80000492:	12312637          	lui	a2,0x12312
80000496:	31260613          	addi	a2,a2,786 # 12312312 <_start-0x6dcedcee>
8000049a:	00c8a023          	sw	a2,0(a7)
8000049e:	00b8a223          	sw	a1,4(a7)
800004a2:	0008b107          	fld	ft2,0(a7)
800004a6:	22209053          	fsgnjn.d	ft0,ft1,ft2
800004aa:	0008b027          	fsd	ft0,0(a7)
800004ae:	0008a683          	lw	a3,0(a7)
800004b2:	0048a703          	lw	a4,4(a7)
800004b6:	12345837          	lui	a6,0x12345
800004ba:	67880813          	addi	a6,a6,1656 # 12345678 <_start-0x6dcba988>
800004be:	9abce7b7          	lui	a5,0x9abce
800004c2:	ef078793          	addi	a5,a5,-272 # 9abcdef0 <_end+0x1abcaed0>
800004c6:	41d5                	li	gp,21
800004c8:	6af690e3          	bne	a3,a5,80001368 <fail>
800004cc:	69071ee3          	bne	a4,a6,80001368 <fail>

800004d0 <test_22>:
800004d0:	923455b7          	lui	a1,0x92345
800004d4:	67858593          	addi	a1,a1,1656 # 92345678 <_end+0x12342658>
800004d8:	9abce637          	lui	a2,0x9abce
800004dc:	ef060613          	addi	a2,a2,-272 # 9abcdef0 <_end+0x1abcaed0>
800004e0:	00c8a023          	sw	a2,0(a7)
800004e4:	00b8a223          	sw	a1,4(a7)
800004e8:	0008b087          	fld	ft1,0(a7)
800004ec:	376875b7          	lui	a1,0x37687
800004f0:	68758593          	addi	a1,a1,1671 # 37687687 <_start-0x48978979>
800004f4:	12312637          	lui	a2,0x12312
800004f8:	31260613          	addi	a2,a2,786 # 12312312 <_start-0x6dcedcee>
800004fc:	00c8a023          	sw	a2,0(a7)
80000500:	00b8a223          	sw	a1,4(a7)
80000504:	0008b107          	fld	ft2,0(a7)
80000508:	22209053          	fsgnjn.d	ft0,ft1,ft2
8000050c:	0008b027          	fsd	ft0,0(a7)
80000510:	0008a683          	lw	a3,0(a7)
80000514:	0048a703          	lw	a4,4(a7)
80000518:	92345837          	lui	a6,0x92345
8000051c:	67880813          	addi	a6,a6,1656 # 92345678 <_end+0x12342658>
80000520:	9abce7b7          	lui	a5,0x9abce
80000524:	ef078793          	addi	a5,a5,-272 # 9abcdef0 <_end+0x1abcaed0>
80000528:	41d9                	li	gp,22
8000052a:	62f69fe3          	bne	a3,a5,80001368 <fail>
8000052e:	63071de3          	bne	a4,a6,80001368 <fail>

80000532 <test_23>:
80000532:	923455b7          	lui	a1,0x92345
80000536:	67858593          	addi	a1,a1,1656 # 92345678 <_end+0x12342658>
8000053a:	9abce637          	lui	a2,0x9abce
8000053e:	ef060613          	addi	a2,a2,-272 # 9abcdef0 <_end+0x1abcaed0>
80000542:	00c8a023          	sw	a2,0(a7)
80000546:	00b8a223          	sw	a1,4(a7)
8000054a:	0008b087          	fld	ft1,0(a7)
8000054e:	b76875b7          	lui	a1,0xb7687
80000552:	68758593          	addi	a1,a1,1671 # b7687687 <_end+0x37684667>
80000556:	12312637          	lui	a2,0x12312
8000055a:	31260613          	addi	a2,a2,786 # 12312312 <_start-0x6dcedcee>
8000055e:	00c8a023          	sw	a2,0(a7)
80000562:	00b8a223          	sw	a1,4(a7)
80000566:	0008b107          	fld	ft2,0(a7)
8000056a:	22209053          	fsgnjn.d	ft0,ft1,ft2
8000056e:	0008b027          	fsd	ft0,0(a7)
80000572:	0008a683          	lw	a3,0(a7)
80000576:	0048a703          	lw	a4,4(a7)
8000057a:	12345837          	lui	a6,0x12345
8000057e:	67880813          	addi	a6,a6,1656 # 12345678 <_start-0x6dcba988>
80000582:	9abce7b7          	lui	a5,0x9abce
80000586:	ef078793          	addi	a5,a5,-272 # 9abcdef0 <_end+0x1abcaed0>
8000058a:	41dd                	li	gp,23
8000058c:	5cf69ee3          	bne	a3,a5,80001368 <fail>
80000590:	5d071ce3          	bne	a4,a6,80001368 <fail>

80000594 <test_30>:
80000594:	123455b7          	lui	a1,0x12345
80000598:	67858593          	addi	a1,a1,1656 # 12345678 <_start-0x6dcba988>
8000059c:	9abce637          	lui	a2,0x9abce
800005a0:	ef060613          	addi	a2,a2,-272 # 9abcdef0 <_end+0x1abcaed0>
800005a4:	00c8a023          	sw	a2,0(a7)
800005a8:	00b8a223          	sw	a1,4(a7)
800005ac:	0008b087          	fld	ft1,0(a7)
800005b0:	376875b7          	lui	a1,0x37687
800005b4:	68758593          	addi	a1,a1,1671 # 37687687 <_start-0x48978979>
800005b8:	12312637          	lui	a2,0x12312
800005bc:	31260613          	addi	a2,a2,786 # 12312312 <_start-0x6dcedcee>
800005c0:	00c8a023          	sw	a2,0(a7)
800005c4:	00b8a223          	sw	a1,4(a7)
800005c8:	0008b107          	fld	ft2,0(a7)
800005cc:	2220a053          	fsgnjx.d	ft0,ft1,ft2
800005d0:	0008b027          	fsd	ft0,0(a7)
800005d4:	0008a683          	lw	a3,0(a7)
800005d8:	0048a703          	lw	a4,4(a7)
800005dc:	12345837          	lui	a6,0x12345
800005e0:	67880813          	addi	a6,a6,1656 # 12345678 <_start-0x6dcba988>
800005e4:	9abce7b7          	lui	a5,0x9abce
800005e8:	ef078793          	addi	a5,a5,-272 # 9abcdef0 <_end+0x1abcaed0>
800005ec:	41f9                	li	gp,30
800005ee:	56f69de3          	bne	a3,a5,80001368 <fail>
800005f2:	57071be3          	bne	a4,a6,80001368 <fail>

800005f6 <test_31>:
800005f6:	123455b7          	lui	a1,0x12345
800005fa:	67858593          	addi	a1,a1,1656 # 12345678 <_start-0x6dcba988>
800005fe:	9abce637          	lui	a2,0x9abce
80000602:	ef060613          	addi	a2,a2,-272 # 9abcdef0 <_end+0x1abcaed0>
80000606:	00c8a023          	sw	a2,0(a7)
8000060a:	00b8a223          	sw	a1,4(a7)
8000060e:	0008b087          	fld	ft1,0(a7)
80000612:	b76875b7          	lui	a1,0xb7687
80000616:	68758593          	addi	a1,a1,1671 # b7687687 <_end+0x37684667>
8000061a:	12312637          	lui	a2,0x12312
8000061e:	31260613          	addi	a2,a2,786 # 12312312 <_start-0x6dcedcee>
80000622:	00c8a023          	sw	a2,0(a7)
80000626:	00b8a223          	sw	a1,4(a7)
8000062a:	0008b107          	fld	ft2,0(a7)
8000062e:	2220a053          	fsgnjx.d	ft0,ft1,ft2
80000632:	0008b027          	fsd	ft0,0(a7)
80000636:	0008a683          	lw	a3,0(a7)
8000063a:	0048a703          	lw	a4,4(a7)
8000063e:	92345837          	lui	a6,0x92345
80000642:	67880813          	addi	a6,a6,1656 # 92345678 <_end+0x12342658>
80000646:	9abce7b7          	lui	a5,0x9abce
8000064a:	ef078793          	addi	a5,a5,-272 # 9abcdef0 <_end+0x1abcaed0>
8000064e:	41fd                	li	gp,31
80000650:	50f69ce3          	bne	a3,a5,80001368 <fail>
80000654:	51071ae3          	bne	a4,a6,80001368 <fail>

80000658 <test_32>:
80000658:	923455b7          	lui	a1,0x92345
8000065c:	67858593          	addi	a1,a1,1656 # 92345678 <_end+0x12342658>
80000660:	9abce637          	lui	a2,0x9abce
80000664:	ef060613          	addi	a2,a2,-272 # 9abcdef0 <_end+0x1abcaed0>
80000668:	00c8a023          	sw	a2,0(a7)
8000066c:	00b8a223          	sw	a1,4(a7)
80000670:	0008b087          	fld	ft1,0(a7)
80000674:	376875b7          	lui	a1,0x37687
80000678:	68758593          	addi	a1,a1,1671 # 37687687 <_start-0x48978979>
8000067c:	12312637          	lui	a2,0x12312
80000680:	31260613          	addi	a2,a2,786 # 12312312 <_start-0x6dcedcee>
80000684:	00c8a023          	sw	a2,0(a7)
80000688:	00b8a223          	sw	a1,4(a7)
8000068c:	0008b107          	fld	ft2,0(a7)
80000690:	2220a053          	fsgnjx.d	ft0,ft1,ft2
80000694:	0008b027          	fsd	ft0,0(a7)
80000698:	0008a683          	lw	a3,0(a7)
8000069c:	0048a703          	lw	a4,4(a7)
800006a0:	92345837          	lui	a6,0x92345
800006a4:	67880813          	addi	a6,a6,1656 # 92345678 <_end+0x12342658>
800006a8:	9abce7b7          	lui	a5,0x9abce
800006ac:	ef078793          	addi	a5,a5,-272 # 9abcdef0 <_end+0x1abcaed0>
800006b0:	02000193          	li	gp,32
800006b4:	4af69ae3          	bne	a3,a5,80001368 <fail>
800006b8:	4b0718e3          	bne	a4,a6,80001368 <fail>

800006bc <test_33>:
800006bc:	923455b7          	lui	a1,0x92345
800006c0:	67858593          	addi	a1,a1,1656 # 92345678 <_end+0x12342658>
800006c4:	9abce637          	lui	a2,0x9abce
800006c8:	ef060613          	addi	a2,a2,-272 # 9abcdef0 <_end+0x1abcaed0>
800006cc:	00c8a023          	sw	a2,0(a7)
800006d0:	00b8a223          	sw	a1,4(a7)
800006d4:	0008b087          	fld	ft1,0(a7)
800006d8:	b76875b7          	lui	a1,0xb7687
800006dc:	68758593          	addi	a1,a1,1671 # b7687687 <_end+0x37684667>
800006e0:	12312637          	lui	a2,0x12312
800006e4:	31260613          	addi	a2,a2,786 # 12312312 <_start-0x6dcedcee>
800006e8:	00c8a023          	sw	a2,0(a7)
800006ec:	00b8a223          	sw	a1,4(a7)
800006f0:	0008b107          	fld	ft2,0(a7)
800006f4:	2220a053          	fsgnjx.d	ft0,ft1,ft2
800006f8:	0008b027          	fsd	ft0,0(a7)
800006fc:	0008a683          	lw	a3,0(a7)
80000700:	0048a703          	lw	a4,4(a7)
80000704:	12345837          	lui	a6,0x12345
80000708:	67880813          	addi	a6,a6,1656 # 12345678 <_start-0x6dcba988>
8000070c:	9abce7b7          	lui	a5,0x9abce
80000710:	ef078793          	addi	a5,a5,-272 # 9abcdef0 <_end+0x1abcaed0>
80000714:	02100193          	li	gp,33
80000718:	44f698e3          	bne	a3,a5,80001368 <fail>
8000071c:	450716e3          	bne	a4,a6,80001368 <fail>

80000720 <test_40>:
80000720:	123455b7          	lui	a1,0x12345
80000724:	67858593          	addi	a1,a1,1656 # 12345678 <_start-0x6dcba988>
80000728:	00b8a023          	sw	a1,0(a7)
8000072c:	800005b7          	lui	a1,0x80000
80000730:	ffe58593          	addi	a1,a1,-2 # 7ffffffe <_end+0xffffcfde>
80000734:	00b8a223          	sw	a1,4(a7)
80000738:	0008b087          	fld	ft1,0(a7)
8000073c:	4581                	li	a1,0
8000073e:	00b8a023          	sw	a1,0(a7)
80000742:	4581                	li	a1,0
80000744:	00b8a223          	sw	a1,4(a7)
80000748:	0008b107          	fld	ft2,0(a7)
8000074c:	20208053          	fsgnj.s	ft0,ft1,ft2
80000750:	e0000553          	fmv.x.w	a0,ft0
80000754:	7fc00eb7          	lui	t4,0x7fc00
80000758:	02800193          	li	gp,40
8000075c:	41d516e3          	bne	a0,t4,80001368 <fail>

80000760 <test_140>:
80000760:	123455b7          	lui	a1,0x12345
80000764:	67858593          	addi	a1,a1,1656 # 12345678 <_start-0x6dcba988>
80000768:	00b8a023          	sw	a1,0(a7)
8000076c:	800005b7          	lui	a1,0x80000
80000770:	ffe58593          	addi	a1,a1,-2 # 7ffffffe <_end+0xffffcfde>
80000774:	00b8a223          	sw	a1,4(a7)
80000778:	0008b087          	fld	ft1,0(a7)
8000077c:	4581                	li	a1,0
8000077e:	00b8a023          	sw	a1,0(a7)
80000782:	4581                	li	a1,0
80000784:	00b8a223          	sw	a1,4(a7)
80000788:	0008b107          	fld	ft2,0(a7)
8000078c:	20208053          	fsgnj.s	ft0,ft1,ft2
80000790:	0008b027          	fsd	ft0,0(a7)
80000794:	0008a683          	lw	a3,0(a7)
80000798:	0048a703          	lw	a4,4(a7)
8000079c:	fff00813          	li	a6,-1
800007a0:	7fc007b7          	lui	a5,0x7fc00
800007a4:	08c00193          	li	gp,140
800007a8:	3cf690e3          	bne	a3,a5,80001368 <fail>
800007ac:	3b071ee3          	bne	a4,a6,80001368 <fail>

800007b0 <test_41>:
800007b0:	123455b7          	lui	a1,0x12345
800007b4:	67858593          	addi	a1,a1,1656 # 12345678 <_start-0x6dcba988>
800007b8:	00b8a023          	sw	a1,0(a7)
800007bc:	ffe00593          	li	a1,-2
800007c0:	00b8a223          	sw	a1,4(a7)
800007c4:	0008b087          	fld	ft1,0(a7)
800007c8:	4581                	li	a1,0
800007ca:	00b8a023          	sw	a1,0(a7)
800007ce:	4581                	li	a1,0
800007d0:	00b8a223          	sw	a1,4(a7)
800007d4:	0008b107          	fld	ft2,0(a7)
800007d8:	20208053          	fsgnj.s	ft0,ft1,ft2
800007dc:	e0000553          	fmv.x.w	a0,ft0
800007e0:	7fc00eb7          	lui	t4,0x7fc00
800007e4:	02900193          	li	gp,41
800007e8:	39d510e3          	bne	a0,t4,80001368 <fail>

800007ec <test_141>:
800007ec:	123455b7          	lui	a1,0x12345
800007f0:	67858593          	addi	a1,a1,1656 # 12345678 <_start-0x6dcba988>
800007f4:	00b8a023          	sw	a1,0(a7)
800007f8:	ffe00593          	li	a1,-2
800007fc:	00b8a223          	sw	a1,4(a7)
80000800:	0008b087          	fld	ft1,0(a7)
80000804:	4581                	li	a1,0
80000806:	00b8a023          	sw	a1,0(a7)
8000080a:	4581                	li	a1,0
8000080c:	00b8a223          	sw	a1,4(a7)
80000810:	0008b107          	fld	ft2,0(a7)
80000814:	20208053          	fsgnj.s	ft0,ft1,ft2
80000818:	0008b027          	fsd	ft0,0(a7)
8000081c:	0008a683          	lw	a3,0(a7)
80000820:	0048a703          	lw	a4,4(a7)
80000824:	fff00813          	li	a6,-1
80000828:	7fc007b7          	lui	a5,0x7fc00
8000082c:	08d00193          	li	gp,141
80000830:	32f69ce3          	bne	a3,a5,80001368 <fail>
80000834:	33071ae3          	bne	a4,a6,80001368 <fail>

80000838 <test_42>:
80000838:	123455b7          	lui	a1,0x12345
8000083c:	67858593          	addi	a1,a1,1656 # 12345678 <_start-0x6dcba988>
80000840:	00b8a023          	sw	a1,0(a7)
80000844:	800005b7          	lui	a1,0x80000
80000848:	fff58593          	addi	a1,a1,-1 # 7fffffff <_end+0xffffcfdf>
8000084c:	00b8a223          	sw	a1,4(a7)
80000850:	0008b087          	fld	ft1,0(a7)
80000854:	4581                	li	a1,0
80000856:	00b8a023          	sw	a1,0(a7)
8000085a:	4581                	li	a1,0
8000085c:	00b8a223          	sw	a1,4(a7)
80000860:	0008b107          	fld	ft2,0(a7)
80000864:	20208053          	fsgnj.s	ft0,ft1,ft2
80000868:	e0000553          	fmv.x.w	a0,ft0
8000086c:	7fc00eb7          	lui	t4,0x7fc00
80000870:	02a00193          	li	gp,42
80000874:	2fd51ae3          	bne	a0,t4,80001368 <fail>

80000878 <test_142>:
80000878:	123455b7          	lui	a1,0x12345
8000087c:	67858593          	addi	a1,a1,1656 # 12345678 <_start-0x6dcba988>
80000880:	00b8a023          	sw	a1,0(a7)
80000884:	800005b7          	lui	a1,0x80000
80000888:	fff58593          	addi	a1,a1,-1 # 7fffffff <_end+0xffffcfdf>
8000088c:	00b8a223          	sw	a1,4(a7)
80000890:	0008b087          	fld	ft1,0(a7)
80000894:	4581                	li	a1,0
80000896:	00b8a023          	sw	a1,0(a7)
8000089a:	4581                	li	a1,0
8000089c:	00b8a223          	sw	a1,4(a7)
800008a0:	0008b107          	fld	ft2,0(a7)
800008a4:	20208053          	fsgnj.s	ft0,ft1,ft2
800008a8:	0008b027          	fsd	ft0,0(a7)
800008ac:	0008a683          	lw	a3,0(a7)
800008b0:	0048a703          	lw	a4,4(a7)
800008b4:	fff00813          	li	a6,-1
800008b8:	7fc007b7          	lui	a5,0x7fc00
800008bc:	08e00193          	li	gp,142
800008c0:	2af694e3          	bne	a3,a5,80001368 <fail>
800008c4:	2b0712e3          	bne	a4,a6,80001368 <fail>

800008c8 <test_43>:
800008c8:	123455b7          	lui	a1,0x12345
800008cc:	67858593          	addi	a1,a1,1656 # 12345678 <_start-0x6dcba988>
800008d0:	00b8a023          	sw	a1,0(a7)
800008d4:	fff00593          	li	a1,-1
800008d8:	00b8a223          	sw	a1,4(a7)
800008dc:	0008b087          	fld	ft1,0(a7)
800008e0:	4581                	li	a1,0
800008e2:	00b8a023          	sw	a1,0(a7)
800008e6:	4581                	li	a1,0
800008e8:	00b8a223          	sw	a1,4(a7)
800008ec:	0008b107          	fld	ft2,0(a7)
800008f0:	20208053          	fsgnj.s	ft0,ft1,ft2
800008f4:	e0000553          	fmv.x.w	a0,ft0
800008f8:	12345eb7          	lui	t4,0x12345
800008fc:	678e8e93          	addi	t4,t4,1656 # 12345678 <_start-0x6dcba988>
80000900:	02b00193          	li	gp,43
80000904:	27d512e3          	bne	a0,t4,80001368 <fail>

80000908 <test_143>:
80000908:	123455b7          	lui	a1,0x12345
8000090c:	67858593          	addi	a1,a1,1656 # 12345678 <_start-0x6dcba988>
80000910:	00b8a023          	sw	a1,0(a7)
80000914:	fff00593          	li	a1,-1
80000918:	00b8a223          	sw	a1,4(a7)
8000091c:	0008b087          	fld	ft1,0(a7)
80000920:	4581                	li	a1,0
80000922:	00b8a023          	sw	a1,0(a7)
80000926:	4581                	li	a1,0
80000928:	00b8a223          	sw	a1,4(a7)
8000092c:	0008b107          	fld	ft2,0(a7)
80000930:	20208053          	fsgnj.s	ft0,ft1,ft2
80000934:	0008b027          	fsd	ft0,0(a7)
80000938:	0008a683          	lw	a3,0(a7)
8000093c:	0048a703          	lw	a4,4(a7)
80000940:	fff00813          	li	a6,-1
80000944:	123457b7          	lui	a5,0x12345
80000948:	67878793          	addi	a5,a5,1656 # 12345678 <_start-0x6dcba988>
8000094c:	08f00193          	li	gp,143
80000950:	20f69ce3          	bne	a3,a5,80001368 <fail>
80000954:	21071ae3          	bne	a4,a6,80001368 <fail>

80000958 <test_50>:
80000958:	123455b7          	lui	a1,0x12345
8000095c:	67858593          	addi	a1,a1,1656 # 12345678 <_start-0x6dcba988>
80000960:	00b8a023          	sw	a1,0(a7)
80000964:	800005b7          	lui	a1,0x80000
80000968:	ffe58593          	addi	a1,a1,-2 # 7ffffffe <_end+0xffffcfde>
8000096c:	00b8a223          	sw	a1,4(a7)
80000970:	0008b087          	fld	ft1,0(a7)
80000974:	800005b7          	lui	a1,0x80000
80000978:	00b8a023          	sw	a1,0(a7)
8000097c:	4581                	li	a1,0
8000097e:	00b8a223          	sw	a1,4(a7)
80000982:	0008b107          	fld	ft2,0(a7)
80000986:	20208053          	fsgnj.s	ft0,ft1,ft2
8000098a:	e0000553          	fmv.x.w	a0,ft0
8000098e:	7fc00eb7          	lui	t4,0x7fc00
80000992:	03200193          	li	gp,50
80000996:	1dd519e3          	bne	a0,t4,80001368 <fail>

8000099a <test_150>:
8000099a:	123455b7          	lui	a1,0x12345
8000099e:	67858593          	addi	a1,a1,1656 # 12345678 <_start-0x6dcba988>
800009a2:	00b8a023          	sw	a1,0(a7)
800009a6:	800005b7          	lui	a1,0x80000
800009aa:	ffe58593          	addi	a1,a1,-2 # 7ffffffe <_end+0xffffcfde>
800009ae:	00b8a223          	sw	a1,4(a7)
800009b2:	0008b087          	fld	ft1,0(a7)
800009b6:	800005b7          	lui	a1,0x80000
800009ba:	00b8a023          	sw	a1,0(a7)
800009be:	4581                	li	a1,0
800009c0:	00b8a223          	sw	a1,4(a7)
800009c4:	0008b107          	fld	ft2,0(a7)
800009c8:	20208053          	fsgnj.s	ft0,ft1,ft2
800009cc:	0008b027          	fsd	ft0,0(a7)
800009d0:	0008a683          	lw	a3,0(a7)
800009d4:	0048a703          	lw	a4,4(a7)
800009d8:	fff00813          	li	a6,-1
800009dc:	7fc007b7          	lui	a5,0x7fc00
800009e0:	09600193          	li	gp,150
800009e4:	18f692e3          	bne	a3,a5,80001368 <fail>
800009e8:	190710e3          	bne	a4,a6,80001368 <fail>

800009ec <test_51>:
800009ec:	123455b7          	lui	a1,0x12345
800009f0:	67858593          	addi	a1,a1,1656 # 12345678 <_start-0x6dcba988>
800009f4:	00b8a023          	sw	a1,0(a7)
800009f8:	ffe00593          	li	a1,-2
800009fc:	00b8a223          	sw	a1,4(a7)
80000a00:	0008b087          	fld	ft1,0(a7)
80000a04:	800005b7          	lui	a1,0x80000
80000a08:	00b8a023          	sw	a1,0(a7)
80000a0c:	4581                	li	a1,0
80000a0e:	00b8a223          	sw	a1,4(a7)
80000a12:	0008b107          	fld	ft2,0(a7)
80000a16:	20208053          	fsgnj.s	ft0,ft1,ft2
80000a1a:	e0000553          	fmv.x.w	a0,ft0
80000a1e:	7fc00eb7          	lui	t4,0x7fc00
80000a22:	03300193          	li	gp,51
80000a26:	15d511e3          	bne	a0,t4,80001368 <fail>

80000a2a <test_151>:
80000a2a:	123455b7          	lui	a1,0x12345
80000a2e:	67858593          	addi	a1,a1,1656 # 12345678 <_start-0x6dcba988>
80000a32:	00b8a023          	sw	a1,0(a7)
80000a36:	ffe00593          	li	a1,-2
80000a3a:	00b8a223          	sw	a1,4(a7)
80000a3e:	0008b087          	fld	ft1,0(a7)
80000a42:	800005b7          	lui	a1,0x80000
80000a46:	00b8a023          	sw	a1,0(a7)
80000a4a:	4581                	li	a1,0
80000a4c:	00b8a223          	sw	a1,4(a7)
80000a50:	0008b107          	fld	ft2,0(a7)
80000a54:	20208053          	fsgnj.s	ft0,ft1,ft2
80000a58:	0008b027          	fsd	ft0,0(a7)
80000a5c:	0008a683          	lw	a3,0(a7)
80000a60:	0048a703          	lw	a4,4(a7)
80000a64:	fff00813          	li	a6,-1
80000a68:	7fc007b7          	lui	a5,0x7fc00
80000a6c:	09700193          	li	gp,151
80000a70:	0ef69ce3          	bne	a3,a5,80001368 <fail>
80000a74:	0f071ae3          	bne	a4,a6,80001368 <fail>

80000a78 <test_52>:
80000a78:	123455b7          	lui	a1,0x12345
80000a7c:	67858593          	addi	a1,a1,1656 # 12345678 <_start-0x6dcba988>
80000a80:	00b8a023          	sw	a1,0(a7)
80000a84:	800005b7          	lui	a1,0x80000
80000a88:	fff58593          	addi	a1,a1,-1 # 7fffffff <_end+0xffffcfdf>
80000a8c:	00b8a223          	sw	a1,4(a7)
80000a90:	0008b087          	fld	ft1,0(a7)
80000a94:	800005b7          	lui	a1,0x80000
80000a98:	00b8a023          	sw	a1,0(a7)
80000a9c:	4581                	li	a1,0
80000a9e:	00b8a223          	sw	a1,4(a7)
80000aa2:	0008b107          	fld	ft2,0(a7)
80000aa6:	20208053          	fsgnj.s	ft0,ft1,ft2
80000aaa:	e0000553          	fmv.x.w	a0,ft0
80000aae:	7fc00eb7          	lui	t4,0x7fc00
80000ab2:	03400193          	li	gp,52
80000ab6:	0bd519e3          	bne	a0,t4,80001368 <fail>

80000aba <test_152>:
80000aba:	123455b7          	lui	a1,0x12345
80000abe:	67858593          	addi	a1,a1,1656 # 12345678 <_start-0x6dcba988>
80000ac2:	00b8a023          	sw	a1,0(a7)
80000ac6:	800005b7          	lui	a1,0x80000
80000aca:	fff58593          	addi	a1,a1,-1 # 7fffffff <_end+0xffffcfdf>
80000ace:	00b8a223          	sw	a1,4(a7)
80000ad2:	0008b087          	fld	ft1,0(a7)
80000ad6:	800005b7          	lui	a1,0x80000
80000ada:	00b8a023          	sw	a1,0(a7)
80000ade:	4581                	li	a1,0
80000ae0:	00b8a223          	sw	a1,4(a7)
80000ae4:	0008b107          	fld	ft2,0(a7)
80000ae8:	20208053          	fsgnj.s	ft0,ft1,ft2
80000aec:	0008b027          	fsd	ft0,0(a7)
80000af0:	0008a683          	lw	a3,0(a7)
80000af4:	0048a703          	lw	a4,4(a7)
80000af8:	fff00813          	li	a6,-1
80000afc:	7fc007b7          	lui	a5,0x7fc00
80000b00:	09800193          	li	gp,152
80000b04:	06f692e3          	bne	a3,a5,80001368 <fail>
80000b08:	070710e3          	bne	a4,a6,80001368 <fail>

80000b0c <test_53>:
80000b0c:	123455b7          	lui	a1,0x12345
80000b10:	67858593          	addi	a1,a1,1656 # 12345678 <_start-0x6dcba988>
80000b14:	00b8a023          	sw	a1,0(a7)
80000b18:	fff00593          	li	a1,-1
80000b1c:	00b8a223          	sw	a1,4(a7)
80000b20:	0008b087          	fld	ft1,0(a7)
80000b24:	800005b7          	lui	a1,0x80000
80000b28:	00b8a023          	sw	a1,0(a7)
80000b2c:	4581                	li	a1,0
80000b2e:	00b8a223          	sw	a1,4(a7)
80000b32:	0008b107          	fld	ft2,0(a7)
80000b36:	20208053          	fsgnj.s	ft0,ft1,ft2
80000b3a:	e0000553          	fmv.x.w	a0,ft0
80000b3e:	12345eb7          	lui	t4,0x12345
80000b42:	678e8e93          	addi	t4,t4,1656 # 12345678 <_start-0x6dcba988>
80000b46:	03500193          	li	gp,53
80000b4a:	01d51fe3          	bne	a0,t4,80001368 <fail>

80000b4e <test_153>:
80000b4e:	123455b7          	lui	a1,0x12345
80000b52:	67858593          	addi	a1,a1,1656 # 12345678 <_start-0x6dcba988>
80000b56:	00b8a023          	sw	a1,0(a7)
80000b5a:	fff00593          	li	a1,-1
80000b5e:	00b8a223          	sw	a1,4(a7)
80000b62:	0008b087          	fld	ft1,0(a7)
80000b66:	800005b7          	lui	a1,0x80000
80000b6a:	00b8a023          	sw	a1,0(a7)
80000b6e:	4581                	li	a1,0
80000b70:	00b8a223          	sw	a1,4(a7)
80000b74:	0008b107          	fld	ft2,0(a7)
80000b78:	20208053          	fsgnj.s	ft0,ft1,ft2
80000b7c:	0008b027          	fsd	ft0,0(a7)
80000b80:	0008a683          	lw	a3,0(a7)
80000b84:	0048a703          	lw	a4,4(a7)
80000b88:	fff00813          	li	a6,-1
80000b8c:	123457b7          	lui	a5,0x12345
80000b90:	67878793          	addi	a5,a5,1656 # 12345678 <_start-0x6dcba988>
80000b94:	09900193          	li	gp,153
80000b98:	7cf69863          	bne	a3,a5,80001368 <fail>
80000b9c:	7d071663          	bne	a4,a6,80001368 <fail>

80000ba0 <test_60>:
80000ba0:	123455b7          	lui	a1,0x12345
80000ba4:	67858593          	addi	a1,a1,1656 # 12345678 <_start-0x6dcba988>
80000ba8:	00b8a023          	sw	a1,0(a7)
80000bac:	800005b7          	lui	a1,0x80000
80000bb0:	ffe58593          	addi	a1,a1,-2 # 7ffffffe <_end+0xffffcfde>
80000bb4:	00b8a223          	sw	a1,4(a7)
80000bb8:	0008b087          	fld	ft1,0(a7)
80000bbc:	800005b7          	lui	a1,0x80000
80000bc0:	00b8a023          	sw	a1,0(a7)
80000bc4:	fff00593          	li	a1,-1
80000bc8:	00b8a223          	sw	a1,4(a7)
80000bcc:	0008b107          	fld	ft2,0(a7)
80000bd0:	20208053          	fsgnj.s	ft0,ft1,ft2
80000bd4:	e0000553          	fmv.x.w	a0,ft0
80000bd8:	ffc00eb7          	lui	t4,0xffc00
80000bdc:	03c00193          	li	gp,60
80000be0:	79d51463          	bne	a0,t4,80001368 <fail>

80000be4 <test_160>:
80000be4:	123455b7          	lui	a1,0x12345
80000be8:	67858593          	addi	a1,a1,1656 # 12345678 <_start-0x6dcba988>
80000bec:	00b8a023          	sw	a1,0(a7)
80000bf0:	800005b7          	lui	a1,0x80000
80000bf4:	ffe58593          	addi	a1,a1,-2 # 7ffffffe <_end+0xffffcfde>
80000bf8:	00b8a223          	sw	a1,4(a7)
80000bfc:	0008b087          	fld	ft1,0(a7)
80000c00:	800005b7          	lui	a1,0x80000
80000c04:	00b8a023          	sw	a1,0(a7)
80000c08:	fff00593          	li	a1,-1
80000c0c:	00b8a223          	sw	a1,4(a7)
80000c10:	0008b107          	fld	ft2,0(a7)
80000c14:	20208053          	fsgnj.s	ft0,ft1,ft2
80000c18:	0008b027          	fsd	ft0,0(a7)
80000c1c:	0008a683          	lw	a3,0(a7)
80000c20:	0048a703          	lw	a4,4(a7)
80000c24:	fff00813          	li	a6,-1
80000c28:	ffc007b7          	lui	a5,0xffc00
80000c2c:	0a000193          	li	gp,160
80000c30:	72f69c63          	bne	a3,a5,80001368 <fail>
80000c34:	73071a63          	bne	a4,a6,80001368 <fail>

80000c38 <test_61>:
80000c38:	123455b7          	lui	a1,0x12345
80000c3c:	67858593          	addi	a1,a1,1656 # 12345678 <_start-0x6dcba988>
80000c40:	00b8a023          	sw	a1,0(a7)
80000c44:	ffe00593          	li	a1,-2
80000c48:	00b8a223          	sw	a1,4(a7)
80000c4c:	0008b087          	fld	ft1,0(a7)
80000c50:	800005b7          	lui	a1,0x80000
80000c54:	00b8a023          	sw	a1,0(a7)
80000c58:	fff00593          	li	a1,-1
80000c5c:	00b8a223          	sw	a1,4(a7)
80000c60:	0008b107          	fld	ft2,0(a7)
80000c64:	20208053          	fsgnj.s	ft0,ft1,ft2
80000c68:	e0000553          	fmv.x.w	a0,ft0
80000c6c:	ffc00eb7          	lui	t4,0xffc00
80000c70:	03d00193          	li	gp,61
80000c74:	6fd51a63          	bne	a0,t4,80001368 <fail>

80000c78 <test_161>:
80000c78:	123455b7          	lui	a1,0x12345
80000c7c:	67858593          	addi	a1,a1,1656 # 12345678 <_start-0x6dcba988>
80000c80:	00b8a023          	sw	a1,0(a7)
80000c84:	ffe00593          	li	a1,-2
80000c88:	00b8a223          	sw	a1,4(a7)
80000c8c:	0008b087          	fld	ft1,0(a7)
80000c90:	800005b7          	lui	a1,0x80000
80000c94:	00b8a023          	sw	a1,0(a7)
80000c98:	fff00593          	li	a1,-1
80000c9c:	00b8a223          	sw	a1,4(a7)
80000ca0:	0008b107          	fld	ft2,0(a7)
80000ca4:	20208053          	fsgnj.s	ft0,ft1,ft2
80000ca8:	0008b027          	fsd	ft0,0(a7)
80000cac:	0008a683          	lw	a3,0(a7)
80000cb0:	0048a703          	lw	a4,4(a7)
80000cb4:	fff00813          	li	a6,-1
80000cb8:	ffc007b7          	lui	a5,0xffc00
80000cbc:	0a100193          	li	gp,161
80000cc0:	6af69463          	bne	a3,a5,80001368 <fail>
80000cc4:	6b071263          	bne	a4,a6,80001368 <fail>

80000cc8 <test_62>:
80000cc8:	123455b7          	lui	a1,0x12345
80000ccc:	67858593          	addi	a1,a1,1656 # 12345678 <_start-0x6dcba988>
80000cd0:	00b8a023          	sw	a1,0(a7)
80000cd4:	fff00593          	li	a1,-1
80000cd8:	00b8a223          	sw	a1,4(a7)
80000cdc:	0008b087          	fld	ft1,0(a7)
80000ce0:	800005b7          	lui	a1,0x80000
80000ce4:	00b8a023          	sw	a1,0(a7)
80000ce8:	fff00593          	li	a1,-1
80000cec:	00b8a223          	sw	a1,4(a7)
80000cf0:	0008b107          	fld	ft2,0(a7)
80000cf4:	20208053          	fsgnj.s	ft0,ft1,ft2
80000cf8:	e0000553          	fmv.x.w	a0,ft0
80000cfc:	92345eb7          	lui	t4,0x92345
80000d00:	678e8e93          	addi	t4,t4,1656 # 92345678 <_end+0x12342658>
80000d04:	03e00193          	li	gp,62
80000d08:	67d51063          	bne	a0,t4,80001368 <fail>

80000d0c <test_162>:
80000d0c:	123455b7          	lui	a1,0x12345
80000d10:	67858593          	addi	a1,a1,1656 # 12345678 <_start-0x6dcba988>
80000d14:	00b8a023          	sw	a1,0(a7)
80000d18:	fff00593          	li	a1,-1
80000d1c:	00b8a223          	sw	a1,4(a7)
80000d20:	0008b087          	fld	ft1,0(a7)
80000d24:	800005b7          	lui	a1,0x80000
80000d28:	00b8a023          	sw	a1,0(a7)
80000d2c:	fff00593          	li	a1,-1
80000d30:	00b8a223          	sw	a1,4(a7)
80000d34:	0008b107          	fld	ft2,0(a7)
80000d38:	20208053          	fsgnj.s	ft0,ft1,ft2
80000d3c:	0008b027          	fsd	ft0,0(a7)
80000d40:	0008a683          	lw	a3,0(a7)
80000d44:	0048a703          	lw	a4,4(a7)
80000d48:	fff00813          	li	a6,-1
80000d4c:	923457b7          	lui	a5,0x92345
80000d50:	67878793          	addi	a5,a5,1656 # 92345678 <_end+0x12342658>
80000d54:	0a200193          	li	gp,162
80000d58:	60f69863          	bne	a3,a5,80001368 <fail>
80000d5c:	61071663          	bne	a4,a6,80001368 <fail>

80000d60 <test_63>:
80000d60:	123455b7          	lui	a1,0x12345
80000d64:	67858593          	addi	a1,a1,1656 # 12345678 <_start-0x6dcba988>
80000d68:	00b8a023          	sw	a1,0(a7)
80000d6c:	fff00593          	li	a1,-1
80000d70:	00b8a223          	sw	a1,4(a7)
80000d74:	0008b087          	fld	ft1,0(a7)
80000d78:	800005b7          	lui	a1,0x80000
80000d7c:	00b8a023          	sw	a1,0(a7)
80000d80:	800005b7          	lui	a1,0x80000
80000d84:	fff58593          	addi	a1,a1,-1 # 7fffffff <_end+0xffffcfdf>
80000d88:	00b8a223          	sw	a1,4(a7)
80000d8c:	0008b107          	fld	ft2,0(a7)
80000d90:	20208053          	fsgnj.s	ft0,ft1,ft2
80000d94:	e0000553          	fmv.x.w	a0,ft0
80000d98:	12345eb7          	lui	t4,0x12345
80000d9c:	678e8e93          	addi	t4,t4,1656 # 12345678 <_start-0x6dcba988>
80000da0:	03f00193          	li	gp,63
80000da4:	5dd51263          	bne	a0,t4,80001368 <fail>

80000da8 <test_163>:
80000da8:	123455b7          	lui	a1,0x12345
80000dac:	67858593          	addi	a1,a1,1656 # 12345678 <_start-0x6dcba988>
80000db0:	00b8a023          	sw	a1,0(a7)
80000db4:	fff00593          	li	a1,-1
80000db8:	00b8a223          	sw	a1,4(a7)
80000dbc:	0008b087          	fld	ft1,0(a7)
80000dc0:	800005b7          	lui	a1,0x80000
80000dc4:	00b8a023          	sw	a1,0(a7)
80000dc8:	800005b7          	lui	a1,0x80000
80000dcc:	fff58593          	addi	a1,a1,-1 # 7fffffff <_end+0xffffcfdf>
80000dd0:	00b8a223          	sw	a1,4(a7)
80000dd4:	0008b107          	fld	ft2,0(a7)
80000dd8:	20208053          	fsgnj.s	ft0,ft1,ft2
80000ddc:	0008b027          	fsd	ft0,0(a7)
80000de0:	0008a683          	lw	a3,0(a7)
80000de4:	0048a703          	lw	a4,4(a7)
80000de8:	fff00813          	li	a6,-1
80000dec:	123457b7          	lui	a5,0x12345
80000df0:	67878793          	addi	a5,a5,1656 # 12345678 <_start-0x6dcba988>
80000df4:	0a300193          	li	gp,163
80000df8:	56f69863          	bne	a3,a5,80001368 <fail>
80000dfc:	57071663          	bne	a4,a6,80001368 <fail>

80000e00 <test_70>:
80000e00:	111115b7          	lui	a1,0x11111
80000e04:	11158593          	addi	a1,a1,273 # 11111111 <_start-0x6eeeeeef>
80000e08:	00b8a023          	sw	a1,0(a7)
80000e0c:	fff00593          	li	a1,-1
80000e10:	00b8a223          	sw	a1,4(a7)
80000e14:	0008b087          	fld	ft1,0(a7)
80000e18:	111115b7          	lui	a1,0x11111
80000e1c:	11158593          	addi	a1,a1,273 # 11111111 <_start-0x6eeeeeef>
80000e20:	00b8a023          	sw	a1,0(a7)
80000e24:	fff00593          	li	a1,-1
80000e28:	00b8a223          	sw	a1,4(a7)
80000e2c:	0008b107          	fld	ft2,0(a7)
80000e30:	22208053          	fsgnj.d	ft0,ft1,ft2
80000e34:	a0002553          	feq.s	a0,ft0,ft0
80000e38:	157d                	addi	a0,a0,-1
80000e3a:	e119                	bnez	a0,80000e40 <test_70+0x40>
80000e3c:	e0000553          	fmv.x.w	a0,ft0
80000e40:	11111eb7          	lui	t4,0x11111
80000e44:	111e8e93          	addi	t4,t4,273 # 11111111 <_start-0x6eeeeeef>
80000e48:	04600193          	li	gp,70
80000e4c:	51d51e63          	bne	a0,t4,80001368 <fail>

80000e50 <test_170>:
80000e50:	111115b7          	lui	a1,0x11111
80000e54:	11158593          	addi	a1,a1,273 # 11111111 <_start-0x6eeeeeef>
80000e58:	00b8a023          	sw	a1,0(a7)
80000e5c:	fff00593          	li	a1,-1
80000e60:	00b8a223          	sw	a1,4(a7)
80000e64:	0008b087          	fld	ft1,0(a7)
80000e68:	111115b7          	lui	a1,0x11111
80000e6c:	11158593          	addi	a1,a1,273 # 11111111 <_start-0x6eeeeeef>
80000e70:	00b8a023          	sw	a1,0(a7)
80000e74:	fff00593          	li	a1,-1
80000e78:	00b8a223          	sw	a1,4(a7)
80000e7c:	0008b107          	fld	ft2,0(a7)
80000e80:	22208053          	fsgnj.d	ft0,ft1,ft2
80000e84:	0008b027          	fsd	ft0,0(a7)
80000e88:	0008a683          	lw	a3,0(a7)
80000e8c:	0048a703          	lw	a4,4(a7)
80000e90:	fff00813          	li	a6,-1
80000e94:	111117b7          	lui	a5,0x11111
80000e98:	11178793          	addi	a5,a5,273 # 11111111 <_start-0x6eeeeeef>
80000e9c:	0aa00193          	li	gp,170
80000ea0:	4cf69463          	bne	a3,a5,80001368 <fail>
80000ea4:	4d071263          	bne	a4,a6,80001368 <fail>

80000ea8 <test_71>:
80000ea8:	111115b7          	lui	a1,0x11111
80000eac:	11158593          	addi	a1,a1,273 # 11111111 <_start-0x6eeeeeef>
80000eb0:	00b8a023          	sw	a1,0(a7)
80000eb4:	fff00593          	li	a1,-1
80000eb8:	00b8a223          	sw	a1,4(a7)
80000ebc:	0008b087          	fld	ft1,0(a7)
80000ec0:	111115b7          	lui	a1,0x11111
80000ec4:	11158593          	addi	a1,a1,273 # 11111111 <_start-0x6eeeeeef>
80000ec8:	00b8a023          	sw	a1,0(a7)
80000ecc:	800005b7          	lui	a1,0x80000
80000ed0:	fff58593          	addi	a1,a1,-1 # 7fffffff <_end+0xffffcfdf>
80000ed4:	00b8a223          	sw	a1,4(a7)
80000ed8:	0008b107          	fld	ft2,0(a7)
80000edc:	22208053          	fsgnj.d	ft0,ft1,ft2
80000ee0:	a0002553          	feq.s	a0,ft0,ft0
80000ee4:	00050513          	mv	a0,a0
80000ee8:	e119                	bnez	a0,80000eee <test_71+0x46>
80000eea:	e0000553          	fmv.x.w	a0,ft0
80000eee:	11111eb7          	lui	t4,0x11111
80000ef2:	111e8e93          	addi	t4,t4,273 # 11111111 <_start-0x6eeeeeef>
80000ef6:	04700193          	li	gp,71
80000efa:	47d51763          	bne	a0,t4,80001368 <fail>

80000efe <test_171>:
80000efe:	111115b7          	lui	a1,0x11111
80000f02:	11158593          	addi	a1,a1,273 # 11111111 <_start-0x6eeeeeef>
80000f06:	00b8a023          	sw	a1,0(a7)
80000f0a:	fff00593          	li	a1,-1
80000f0e:	00b8a223          	sw	a1,4(a7)
80000f12:	0008b087          	fld	ft1,0(a7)
80000f16:	111115b7          	lui	a1,0x11111
80000f1a:	11158593          	addi	a1,a1,273 # 11111111 <_start-0x6eeeeeef>
80000f1e:	00b8a023          	sw	a1,0(a7)
80000f22:	800005b7          	lui	a1,0x80000
80000f26:	fff58593          	addi	a1,a1,-1 # 7fffffff <_end+0xffffcfdf>
80000f2a:	00b8a223          	sw	a1,4(a7)
80000f2e:	0008b107          	fld	ft2,0(a7)
80000f32:	22208053          	fsgnj.d	ft0,ft1,ft2
80000f36:	0008b027          	fsd	ft0,0(a7)
80000f3a:	0008a683          	lw	a3,0(a7)
80000f3e:	0048a703          	lw	a4,4(a7)
80000f42:	80000837          	lui	a6,0x80000
80000f46:	fff80813          	addi	a6,a6,-1 # 7fffffff <_end+0xffffcfdf>
80000f4a:	111117b7          	lui	a5,0x11111
80000f4e:	11178793          	addi	a5,a5,273 # 11111111 <_start-0x6eeeeeef>
80000f52:	0ab00193          	li	gp,171
80000f56:	40f69963          	bne	a3,a5,80001368 <fail>
80000f5a:	41071763          	bne	a4,a6,80001368 <fail>

80000f5e <test_72>:
80000f5e:	111115b7          	lui	a1,0x11111
80000f62:	11158593          	addi	a1,a1,273 # 11111111 <_start-0x6eeeeeef>
80000f66:	00b8a023          	sw	a1,0(a7)
80000f6a:	fff00593          	li	a1,-1
80000f6e:	00b8a223          	sw	a1,4(a7)
80000f72:	0008b087          	fld	ft1,0(a7)
80000f76:	911115b7          	lui	a1,0x91111
80000f7a:	11158593          	addi	a1,a1,273 # 91111111 <_end+0x1110e0f1>
80000f7e:	00b8a023          	sw	a1,0(a7)
80000f82:	fff00593          	li	a1,-1
80000f86:	00b8a223          	sw	a1,4(a7)
80000f8a:	0008b107          	fld	ft2,0(a7)
80000f8e:	22208053          	fsgnj.d	ft0,ft1,ft2
80000f92:	a0002553          	feq.s	a0,ft0,ft0
80000f96:	157d                	addi	a0,a0,-1
80000f98:	e119                	bnez	a0,80000f9e <test_72+0x40>
80000f9a:	e0000553          	fmv.x.w	a0,ft0
80000f9e:	11111eb7          	lui	t4,0x11111
80000fa2:	111e8e93          	addi	t4,t4,273 # 11111111 <_start-0x6eeeeeef>
80000fa6:	04800193          	li	gp,72
80000faa:	3bd51f63          	bne	a0,t4,80001368 <fail>

80000fae <test_172>:
80000fae:	111115b7          	lui	a1,0x11111
80000fb2:	11158593          	addi	a1,a1,273 # 11111111 <_start-0x6eeeeeef>
80000fb6:	00b8a023          	sw	a1,0(a7)
80000fba:	fff00593          	li	a1,-1
80000fbe:	00b8a223          	sw	a1,4(a7)
80000fc2:	0008b087          	fld	ft1,0(a7)
80000fc6:	911115b7          	lui	a1,0x91111
80000fca:	11158593          	addi	a1,a1,273 # 91111111 <_end+0x1110e0f1>
80000fce:	00b8a023          	sw	a1,0(a7)
80000fd2:	fff00593          	li	a1,-1
80000fd6:	00b8a223          	sw	a1,4(a7)
80000fda:	0008b107          	fld	ft2,0(a7)
80000fde:	22208053          	fsgnj.d	ft0,ft1,ft2
80000fe2:	0008b027          	fsd	ft0,0(a7)
80000fe6:	0008a683          	lw	a3,0(a7)
80000fea:	0048a703          	lw	a4,4(a7)
80000fee:	fff00813          	li	a6,-1
80000ff2:	111117b7          	lui	a5,0x11111
80000ff6:	11178793          	addi	a5,a5,273 # 11111111 <_start-0x6eeeeeef>
80000ffa:	0ac00193          	li	gp,172
80000ffe:	36f69563          	bne	a3,a5,80001368 <fail>
80001002:	37071363          	bne	a4,a6,80001368 <fail>

80001006 <test_73>:
80001006:	111115b7          	lui	a1,0x11111
8000100a:	11158593          	addi	a1,a1,273 # 11111111 <_start-0x6eeeeeef>
8000100e:	00b8a023          	sw	a1,0(a7)
80001012:	fff00593          	li	a1,-1
80001016:	00b8a223          	sw	a1,4(a7)
8000101a:	0008b087          	fld	ft1,0(a7)
8000101e:	4581                	li	a1,0
80001020:	00b8a023          	sw	a1,0(a7)
80001024:	800005b7          	lui	a1,0x80000
80001028:	00b8a223          	sw	a1,4(a7)
8000102c:	0008b107          	fld	ft2,0(a7)
80001030:	22208053          	fsgnj.d	ft0,ft1,ft2
80001034:	a0002553          	feq.s	a0,ft0,ft0
80001038:	157d                	addi	a0,a0,-1
8000103a:	e119                	bnez	a0,80001040 <test_73+0x3a>
8000103c:	e0000553          	fmv.x.w	a0,ft0
80001040:	11111eb7          	lui	t4,0x11111
80001044:	111e8e93          	addi	t4,t4,273 # 11111111 <_start-0x6eeeeeef>
80001048:	04900193          	li	gp,73
8000104c:	31d51e63          	bne	a0,t4,80001368 <fail>

80001050 <test_173>:
80001050:	111115b7          	lui	a1,0x11111
80001054:	11158593          	addi	a1,a1,273 # 11111111 <_start-0x6eeeeeef>
80001058:	00b8a023          	sw	a1,0(a7)
8000105c:	fff00593          	li	a1,-1
80001060:	00b8a223          	sw	a1,4(a7)
80001064:	0008b087          	fld	ft1,0(a7)
80001068:	4581                	li	a1,0
8000106a:	00b8a023          	sw	a1,0(a7)
8000106e:	800005b7          	lui	a1,0x80000
80001072:	00b8a223          	sw	a1,4(a7)
80001076:	0008b107          	fld	ft2,0(a7)
8000107a:	22208053          	fsgnj.d	ft0,ft1,ft2
8000107e:	0008b027          	fsd	ft0,0(a7)
80001082:	0008a683          	lw	a3,0(a7)
80001086:	0048a703          	lw	a4,4(a7)
8000108a:	fff00813          	li	a6,-1
8000108e:	111117b7          	lui	a5,0x11111
80001092:	11178793          	addi	a5,a5,273 # 11111111 <_start-0x6eeeeeef>
80001096:	0ad00193          	li	gp,173
8000109a:	2cf69763          	bne	a3,a5,80001368 <fail>
8000109e:	2d071563          	bne	a4,a6,80001368 <fail>

800010a2 <test_74>:
800010a2:	111115b7          	lui	a1,0x11111
800010a6:	11158593          	addi	a1,a1,273 # 11111111 <_start-0x6eeeeeef>
800010aa:	00b8a023          	sw	a1,0(a7)
800010ae:	800005b7          	lui	a1,0x80000
800010b2:	fff58593          	addi	a1,a1,-1 # 7fffffff <_end+0xffffcfdf>
800010b6:	00b8a223          	sw	a1,4(a7)
800010ba:	0008b087          	fld	ft1,0(a7)
800010be:	111115b7          	lui	a1,0x11111
800010c2:	11158593          	addi	a1,a1,273 # 11111111 <_start-0x6eeeeeef>
800010c6:	00b8a023          	sw	a1,0(a7)
800010ca:	fff00593          	li	a1,-1
800010ce:	00b8a223          	sw	a1,4(a7)
800010d2:	0008b107          	fld	ft2,0(a7)
800010d6:	22208053          	fsgnj.d	ft0,ft1,ft2
800010da:	a0002553          	feq.s	a0,ft0,ft0
800010de:	157d                	addi	a0,a0,-1
800010e0:	e119                	bnez	a0,800010e6 <test_74+0x44>
800010e2:	e0000553          	fmv.x.w	a0,ft0
800010e6:	11111eb7          	lui	t4,0x11111
800010ea:	111e8e93          	addi	t4,t4,273 # 11111111 <_start-0x6eeeeeef>
800010ee:	04a00193          	li	gp,74
800010f2:	27d51b63          	bne	a0,t4,80001368 <fail>

800010f6 <test_174>:
800010f6:	111115b7          	lui	a1,0x11111
800010fa:	11158593          	addi	a1,a1,273 # 11111111 <_start-0x6eeeeeef>
800010fe:	00b8a023          	sw	a1,0(a7)
80001102:	800005b7          	lui	a1,0x80000
80001106:	fff58593          	addi	a1,a1,-1 # 7fffffff <_end+0xffffcfdf>
8000110a:	00b8a223          	sw	a1,4(a7)
8000110e:	0008b087          	fld	ft1,0(a7)
80001112:	111115b7          	lui	a1,0x11111
80001116:	11158593          	addi	a1,a1,273 # 11111111 <_start-0x6eeeeeef>
8000111a:	00b8a023          	sw	a1,0(a7)
8000111e:	fff00593          	li	a1,-1
80001122:	00b8a223          	sw	a1,4(a7)
80001126:	0008b107          	fld	ft2,0(a7)
8000112a:	22208053          	fsgnj.d	ft0,ft1,ft2
8000112e:	0008b027          	fsd	ft0,0(a7)
80001132:	0008a683          	lw	a3,0(a7)
80001136:	0048a703          	lw	a4,4(a7)
8000113a:	fff00813          	li	a6,-1
8000113e:	111117b7          	lui	a5,0x11111
80001142:	11178793          	addi	a5,a5,273 # 11111111 <_start-0x6eeeeeef>
80001146:	0ae00193          	li	gp,174
8000114a:	20f69f63          	bne	a3,a5,80001368 <fail>
8000114e:	21071d63          	bne	a4,a6,80001368 <fail>

80001152 <test_75>:
80001152:	111115b7          	lui	a1,0x11111
80001156:	11158593          	addi	a1,a1,273 # 11111111 <_start-0x6eeeeeef>
8000115a:	00b8a023          	sw	a1,0(a7)
8000115e:	800005b7          	lui	a1,0x80000
80001162:	fff58593          	addi	a1,a1,-1 # 7fffffff <_end+0xffffcfdf>
80001166:	00b8a223          	sw	a1,4(a7)
8000116a:	0008b087          	fld	ft1,0(a7)
8000116e:	111115b7          	lui	a1,0x11111
80001172:	11158593          	addi	a1,a1,273 # 11111111 <_start-0x6eeeeeef>
80001176:	00b8a023          	sw	a1,0(a7)
8000117a:	800005b7          	lui	a1,0x80000
8000117e:	fff58593          	addi	a1,a1,-1 # 7fffffff <_end+0xffffcfdf>
80001182:	00b8a223          	sw	a1,4(a7)
80001186:	0008b107          	fld	ft2,0(a7)
8000118a:	22208053          	fsgnj.d	ft0,ft1,ft2
8000118e:	a0002553          	feq.s	a0,ft0,ft0
80001192:	00050513          	mv	a0,a0
80001196:	e119                	bnez	a0,8000119c <test_75+0x4a>
80001198:	e0000553          	fmv.x.w	a0,ft0
8000119c:	11111eb7          	lui	t4,0x11111
800011a0:	111e8e93          	addi	t4,t4,273 # 11111111 <_start-0x6eeeeeef>
800011a4:	04b00193          	li	gp,75
800011a8:	1dd51063          	bne	a0,t4,80001368 <fail>

800011ac <test_175>:
800011ac:	111115b7          	lui	a1,0x11111
800011b0:	11158593          	addi	a1,a1,273 # 11111111 <_start-0x6eeeeeef>
800011b4:	00b8a023          	sw	a1,0(a7)
800011b8:	800005b7          	lui	a1,0x80000
800011bc:	fff58593          	addi	a1,a1,-1 # 7fffffff <_end+0xffffcfdf>
800011c0:	00b8a223          	sw	a1,4(a7)
800011c4:	0008b087          	fld	ft1,0(a7)
800011c8:	111115b7          	lui	a1,0x11111
800011cc:	11158593          	addi	a1,a1,273 # 11111111 <_start-0x6eeeeeef>
800011d0:	00b8a023          	sw	a1,0(a7)
800011d4:	800005b7          	lui	a1,0x80000
800011d8:	fff58593          	addi	a1,a1,-1 # 7fffffff <_end+0xffffcfdf>
800011dc:	00b8a223          	sw	a1,4(a7)
800011e0:	0008b107          	fld	ft2,0(a7)
800011e4:	22208053          	fsgnj.d	ft0,ft1,ft2
800011e8:	0008b027          	fsd	ft0,0(a7)
800011ec:	0008a683          	lw	a3,0(a7)
800011f0:	0048a703          	lw	a4,4(a7)
800011f4:	80000837          	lui	a6,0x80000
800011f8:	fff80813          	addi	a6,a6,-1 # 7fffffff <_end+0xffffcfdf>
800011fc:	111117b7          	lui	a5,0x11111
80001200:	11178793          	addi	a5,a5,273 # 11111111 <_start-0x6eeeeeef>
80001204:	0af00193          	li	gp,175
80001208:	16f69063          	bne	a3,a5,80001368 <fail>
8000120c:	15071e63          	bne	a4,a6,80001368 <fail>

80001210 <test_76>:
80001210:	111115b7          	lui	a1,0x11111
80001214:	11158593          	addi	a1,a1,273 # 11111111 <_start-0x6eeeeeef>
80001218:	00b8a023          	sw	a1,0(a7)
8000121c:	800005b7          	lui	a1,0x80000
80001220:	fff58593          	addi	a1,a1,-1 # 7fffffff <_end+0xffffcfdf>
80001224:	00b8a223          	sw	a1,4(a7)
80001228:	0008b087          	fld	ft1,0(a7)
8000122c:	911115b7          	lui	a1,0x91111
80001230:	11158593          	addi	a1,a1,273 # 91111111 <_end+0x1110e0f1>
80001234:	00b8a023          	sw	a1,0(a7)
80001238:	fff00593          	li	a1,-1
8000123c:	00b8a223          	sw	a1,4(a7)
80001240:	0008b107          	fld	ft2,0(a7)
80001244:	22208053          	fsgnj.d	ft0,ft1,ft2
80001248:	a0002553          	feq.s	a0,ft0,ft0
8000124c:	157d                	addi	a0,a0,-1
8000124e:	e119                	bnez	a0,80001254 <test_76+0x44>
80001250:	e0000553          	fmv.x.w	a0,ft0
80001254:	11111eb7          	lui	t4,0x11111
80001258:	111e8e93          	addi	t4,t4,273 # 11111111 <_start-0x6eeeeeef>
8000125c:	04c00193          	li	gp,76
80001260:	11d51463          	bne	a0,t4,80001368 <fail>

80001264 <test_176>:
80001264:	111115b7          	lui	a1,0x11111
80001268:	11158593          	addi	a1,a1,273 # 11111111 <_start-0x6eeeeeef>
8000126c:	00b8a023          	sw	a1,0(a7)
80001270:	800005b7          	lui	a1,0x80000
80001274:	fff58593          	addi	a1,a1,-1 # 7fffffff <_end+0xffffcfdf>
80001278:	00b8a223          	sw	a1,4(a7)
8000127c:	0008b087          	fld	ft1,0(a7)
80001280:	911115b7          	lui	a1,0x91111
80001284:	11158593          	addi	a1,a1,273 # 91111111 <_end+0x1110e0f1>
80001288:	00b8a023          	sw	a1,0(a7)
8000128c:	fff00593          	li	a1,-1
80001290:	00b8a223          	sw	a1,4(a7)
80001294:	0008b107          	fld	ft2,0(a7)
80001298:	22208053          	fsgnj.d	ft0,ft1,ft2
8000129c:	0008b027          	fsd	ft0,0(a7)
800012a0:	0008a683          	lw	a3,0(a7)
800012a4:	0048a703          	lw	a4,4(a7)
800012a8:	fff00813          	li	a6,-1
800012ac:	111117b7          	lui	a5,0x11111
800012b0:	11178793          	addi	a5,a5,273 # 11111111 <_start-0x6eeeeeef>
800012b4:	0b000193          	li	gp,176
800012b8:	0af69863          	bne	a3,a5,80001368 <fail>
800012bc:	0b071663          	bne	a4,a6,80001368 <fail>

800012c0 <test_77>:
800012c0:	111115b7          	lui	a1,0x11111
800012c4:	11158593          	addi	a1,a1,273 # 11111111 <_start-0x6eeeeeef>
800012c8:	00b8a023          	sw	a1,0(a7)
800012cc:	800005b7          	lui	a1,0x80000
800012d0:	fff58593          	addi	a1,a1,-1 # 7fffffff <_end+0xffffcfdf>
800012d4:	00b8a223          	sw	a1,4(a7)
800012d8:	0008b087          	fld	ft1,0(a7)
800012dc:	4581                	li	a1,0
800012de:	00b8a023          	sw	a1,0(a7)
800012e2:	800005b7          	lui	a1,0x80000
800012e6:	00b8a223          	sw	a1,4(a7)
800012ea:	0008b107          	fld	ft2,0(a7)
800012ee:	22208053          	fsgnj.d	ft0,ft1,ft2
800012f2:	a0002553          	feq.s	a0,ft0,ft0
800012f6:	157d                	addi	a0,a0,-1
800012f8:	e119                	bnez	a0,800012fe <test_77+0x3e>
800012fa:	e0000553          	fmv.x.w	a0,ft0
800012fe:	11111eb7          	lui	t4,0x11111
80001302:	111e8e93          	addi	t4,t4,273 # 11111111 <_start-0x6eeeeeef>
80001306:	04d00193          	li	gp,77
8000130a:	05d51f63          	bne	a0,t4,80001368 <fail>

8000130e <test_177>:
8000130e:	111115b7          	lui	a1,0x11111
80001312:	11158593          	addi	a1,a1,273 # 11111111 <_start-0x6eeeeeef>
80001316:	00b8a023          	sw	a1,0(a7)
8000131a:	800005b7          	lui	a1,0x80000
8000131e:	fff58593          	addi	a1,a1,-1 # 7fffffff <_end+0xffffcfdf>
80001322:	00b8a223          	sw	a1,4(a7)
80001326:	0008b087          	fld	ft1,0(a7)
8000132a:	4581                	li	a1,0
8000132c:	00b8a023          	sw	a1,0(a7)
80001330:	800005b7          	lui	a1,0x80000
80001334:	00b8a223          	sw	a1,4(a7)
80001338:	0008b107          	fld	ft2,0(a7)
8000133c:	22208053          	fsgnj.d	ft0,ft1,ft2
80001340:	0008b027          	fsd	ft0,0(a7)
80001344:	0008a683          	lw	a3,0(a7)
80001348:	0048a703          	lw	a4,4(a7)
8000134c:	fff00813          	li	a6,-1
80001350:	111117b7          	lui	a5,0x11111
80001354:	11178793          	addi	a5,a5,273 # 11111111 <_start-0x6eeeeeef>
80001358:	0b100193          	li	gp,177
8000135c:	00f69663          	bne	a3,a5,80001368 <fail>
80001360:	01071463          	bne	a4,a6,80001368 <fail>
80001364:	00301b63          	bne	zero,gp,8000137a <pass>

80001368 <fail>:
80001368:	0ff0000f          	fence
8000136c:	00018063          	beqz	gp,8000136c <fail+0x4>
80001370:	0186                	slli	gp,gp,0x1
80001372:	0011e193          	ori	gp,gp,1
80001376:	00000073          	ecall

8000137a <pass>:
8000137a:	0ff0000f          	fence
8000137e:	4185                	li	gp,1
80001380:	00000073          	ecall
	...

Disassembly of section .tohost:

80002000 <tohost>:
	...

80002040 <fromhost>:
	...

Disassembly of section .data:

80003000 <test_trap_data>:
	...

80003010 <begin_signature>:
	...
80003018:	8004                	0x8004
8000301a:	ffff                	0xffff
8000301c:	ffff                	0xffff
8000301e:	7ffc                	flw	fa5,124(a5)
