
rv32ui-p-xori:     file format elf32-littleriscv


Disassembly of section .text.init:

80000000 <_start>:
80000000:	a21d                	j	80000126 <reset_vector>
80000002:	0001                	nop

80000004 <trap_vector>:
80000004:	34051073          	csrw	mscratch,a0
80000008:	00002517          	auipc	a0,0x2
8000000c:	ff850513          	addi	a0,a0,-8 # 80002000 <test_trap_data>
80000010:	01e52023          	sw	t5,0(a0)
80000014:	01f52223          	sw	t6,4(a0)
80000018:	34202f73          	csrr	t5,mcause
8000001c:	040f4163          	bltz	t5,8000005e <other_interrupts>
80000020:	4fa1                	li	t6,8
80000022:	07ff0263          	beq	t5,t6,80000086 <write_tohost>
80000026:	4fa5                	li	t6,9
80000028:	05ff0f63          	beq	t5,t6,80000086 <write_tohost>
8000002c:	4fad                	li	t6,11
8000002e:	05ff0c63          	beq	t5,t6,80000086 <write_tohost>
80000032:	4f85                	li	t6,1
80000034:	0bff0563          	beq	t5,t6,800000de <ifetch_error_handler>
80000038:	4f95                	li	t6,5
8000003a:	0bff0e63          	beq	t5,t6,800000f6 <load_error_handler>
8000003e:	4f9d                	li	t6,7
80000040:	0dff0763          	beq	t5,t6,8000010e <store_error_handler>
80000044:	80000f17          	auipc	t5,0x80000
80000048:	fbcf0f13          	addi	t5,t5,-68 # 0 <_start-0x80000000>
8000004c:	000f0363          	beqz	t5,80000052 <trap_vector+0x4e>
80000050:	8f02                	jr	t5
80000052:	34202f73          	csrr	t5,mcause
80000056:	000f5363          	bgez	t5,8000005c <handle_exception>
8000005a:	a009                	j	8000005c <handle_exception>

8000005c <handle_exception>:
8000005c:	a01d                	j	80000082 <other_interrupts+0x24>

8000005e <other_interrupts>:
8000005e:	80000fb7          	lui	t6,0x80000
80000062:	003f8f93          	addi	t6,t6,3 # 80000003 <_end+0xffffdff3>
80000066:	05ff0463          	beq	t5,t6,800000ae <sft_irq_handler>
8000006a:	80000fb7          	lui	t6,0x80000
8000006e:	007f8f93          	addi	t6,t6,7 # 80000007 <_end+0xffffdff7>
80000072:	05ff0a63          	beq	t5,t6,800000c6 <tmr_irq_handler>
80000076:	80000fb7          	lui	t6,0x80000
8000007a:	00bf8f93          	addi	t6,t6,11 # 8000000b <_end+0xffffdffb>
8000007e:	01ff0c63          	beq	t5,t6,80000096 <ext_irq_handler>
80000082:	5391e193          	ori	gp,gp,1337

80000086 <write_tohost>:
80000086:	4521                	li	a0,8
80000088:	30052073          	csrs	mstatus,a0
8000008c:	00001f17          	auipc	t5,0x1
80000090:	f63f2a23          	sw	gp,-140(t5) # 80001000 <tohost>
80000094:	bfcd                	j	80000086 <write_tohost>

80000096 <ext_irq_handler>:
80000096:	00002517          	auipc	a0,0x2
8000009a:	f6a50513          	addi	a0,a0,-150 # 80002000 <test_trap_data>
8000009e:	00052f03          	lw	t5,0(a0)
800000a2:	00452f83          	lw	t6,4(a0)
800000a6:	34002573          	csrr	a0,mscratch
800000aa:	30200073          	mret

800000ae <sft_irq_handler>:
800000ae:	00002517          	auipc	a0,0x2
800000b2:	f5250513          	addi	a0,a0,-174 # 80002000 <test_trap_data>
800000b6:	00052f03          	lw	t5,0(a0)
800000ba:	00452f83          	lw	t6,4(a0)
800000be:	34002573          	csrr	a0,mscratch
800000c2:	30200073          	mret

800000c6 <tmr_irq_handler>:
800000c6:	00002517          	auipc	a0,0x2
800000ca:	f3a50513          	addi	a0,a0,-198 # 80002000 <test_trap_data>
800000ce:	00052f03          	lw	t5,0(a0)
800000d2:	00452f83          	lw	t6,4(a0)
800000d6:	34002573          	csrr	a0,mscratch
800000da:	30200073          	mret

800000de <ifetch_error_handler>:
800000de:	00002517          	auipc	a0,0x2
800000e2:	f2250513          	addi	a0,a0,-222 # 80002000 <test_trap_data>
800000e6:	00052f03          	lw	t5,0(a0)
800000ea:	00452f83          	lw	t6,4(a0)
800000ee:	34002573          	csrr	a0,mscratch
800000f2:	30200073          	mret

800000f6 <load_error_handler>:
800000f6:	00002517          	auipc	a0,0x2
800000fa:	f0a50513          	addi	a0,a0,-246 # 80002000 <test_trap_data>
800000fe:	00052f03          	lw	t5,0(a0)
80000102:	00452f83          	lw	t6,4(a0)
80000106:	34002573          	csrr	a0,mscratch
8000010a:	30200073          	mret

8000010e <store_error_handler>:
8000010e:	00002517          	auipc	a0,0x2
80000112:	ef250513          	addi	a0,a0,-270 # 80002000 <test_trap_data>
80000116:	00052f03          	lw	t5,0(a0)
8000011a:	00452f83          	lw	t6,4(a0)
8000011e:	34002573          	csrr	a0,mscratch
80000122:	30200073          	mret

80000126 <reset_vector>:
80000126:	f1402573          	csrr	a0,mhartid
8000012a:	e101                	bnez	a0,8000012a <reset_vector+0x4>
8000012c:	4181                	li	gp,0
8000012e:	00000297          	auipc	t0,0x0
80000132:	ed628293          	addi	t0,t0,-298 # 80000004 <trap_vector>
80000136:	4521                	li	a0,8
80000138:	30052073          	csrs	mstatus,a0
8000013c:	fff00513          	li	a0,-1
80000140:	30452073          	csrs	mie,a0
80000144:	30529073          	csrw	mtvec,t0
80000148:	80000297          	auipc	t0,0x80000
8000014c:	eb828293          	addi	t0,t0,-328 # 0 <_start-0x80000000>
80000150:	00028e63          	beqz	t0,8000016c <reset_vector+0x46>
80000154:	10529073          	csrw	stvec,t0
80000158:	0000b2b7          	lui	t0,0xb
8000015c:	10928293          	addi	t0,t0,265 # b109 <_start-0x7fff4ef7>
80000160:	30229073          	csrw	medeleg,t0
80000164:	30202373          	csrr	t1,medeleg
80000168:	ee629ae3          	bne	t0,t1,8000005c <handle_exception>
8000016c:	30005073          	csrwi	mstatus,0
80000170:	08000513          	li	a0,128
80000174:	30052073          	csrs	mstatus,a0
80000178:	00000297          	auipc	t0,0x0
8000017c:	01428293          	addi	t0,t0,20 # 8000018c <test_2>
80000180:	34129073          	csrw	mepc,t0
80000184:	f1402573          	csrr	a0,mhartid
80000188:	30200073          	mret

8000018c <test_2>:
8000018c:	00ff10b7          	lui	ra,0xff1
80000190:	f0008093          	addi	ra,ra,-256 # ff0f00 <_start-0x7f00f100>
80000194:	f0f0cf13          	xori	t5,ra,-241
80000198:	ff00feb7          	lui	t4,0xff00f
8000019c:	00fe8e93          	addi	t4,t4,15 # ff00f00f <_end+0x7f00cfff>
800001a0:	4189                	li	gp,2
800001a2:	19df1163          	bne	t5,t4,80000324 <fail>

800001a6 <test_3>:
800001a6:	0ff010b7          	lui	ra,0xff01
800001aa:	ff008093          	addi	ra,ra,-16 # ff00ff0 <_start-0x700ff010>
800001ae:	0f00cf13          	xori	t5,ra,240
800001b2:	0ff01eb7          	lui	t4,0xff01
800001b6:	f00e8e93          	addi	t4,t4,-256 # ff00f00 <_start-0x700ff100>
800001ba:	418d                	li	gp,3
800001bc:	17df1463          	bne	t5,t4,80000324 <fail>

800001c0 <test_4>:
800001c0:	00ff10b7          	lui	ra,0xff1
800001c4:	8ff08093          	addi	ra,ra,-1793 # ff08ff <_start-0x7f00f701>
800001c8:	70f0cf13          	xori	t5,ra,1807
800001cc:	00ff1eb7          	lui	t4,0xff1
800001d0:	ff0e8e93          	addi	t4,t4,-16 # ff0ff0 <_start-0x7f00f010>
800001d4:	4191                	li	gp,4
800001d6:	15df1763          	bne	t5,t4,80000324 <fail>

800001da <test_5>:
800001da:	f00ff0b7          	lui	ra,0xf00ff
800001de:	00f08093          	addi	ra,ra,15 # f00ff00f <_end+0x700fcfff>
800001e2:	0f00cf13          	xori	t5,ra,240
800001e6:	f00ffeb7          	lui	t4,0xf00ff
800001ea:	0ffe8e93          	addi	t4,t4,255 # f00ff0ff <_end+0x700fd0ef>
800001ee:	4195                	li	gp,5
800001f0:	13df1a63          	bne	t5,t4,80000324 <fail>

800001f4 <test_6>:
800001f4:	ff00f0b7          	lui	ra,0xff00f
800001f8:	70008093          	addi	ra,ra,1792 # ff00f700 <_end+0x7f00d6f0>
800001fc:	70f0c093          	xori	ra,ra,1807
80000200:	ff00feb7          	lui	t4,0xff00f
80000204:	00fe8e93          	addi	t4,t4,15 # ff00f00f <_end+0x7f00cfff>
80000208:	4199                	li	gp,6
8000020a:	11d09d63          	bne	ra,t4,80000324 <fail>

8000020e <test_7>:
8000020e:	4201                	li	tp,0
80000210:	0ff010b7          	lui	ra,0xff01
80000214:	ff008093          	addi	ra,ra,-16 # ff00ff0 <_start-0x700ff010>
80000218:	0f00cf13          	xori	t5,ra,240
8000021c:	000f0313          	mv	t1,t5
80000220:	0205                	addi	tp,tp,1
80000222:	4289                	li	t0,2
80000224:	fe5216e3          	bne	tp,t0,80000210 <test_7+0x2>
80000228:	0ff01eb7          	lui	t4,0xff01
8000022c:	f00e8e93          	addi	t4,t4,-256 # ff00f00 <_start-0x700ff100>
80000230:	419d                	li	gp,7
80000232:	0fd31963          	bne	t1,t4,80000324 <fail>

80000236 <test_8>:
80000236:	4201                	li	tp,0
80000238:	00ff10b7          	lui	ra,0xff1
8000023c:	8ff08093          	addi	ra,ra,-1793 # ff08ff <_start-0x7f00f701>
80000240:	70f0cf13          	xori	t5,ra,1807
80000244:	0001                	nop
80000246:	000f0313          	mv	t1,t5
8000024a:	0205                	addi	tp,tp,1
8000024c:	4289                	li	t0,2
8000024e:	fe5215e3          	bne	tp,t0,80000238 <test_8+0x2>
80000252:	00ff1eb7          	lui	t4,0xff1
80000256:	ff0e8e93          	addi	t4,t4,-16 # ff0ff0 <_start-0x7f00f010>
8000025a:	41a1                	li	gp,8
8000025c:	0dd31463          	bne	t1,t4,80000324 <fail>

80000260 <test_9>:
80000260:	4201                	li	tp,0
80000262:	f00ff0b7          	lui	ra,0xf00ff
80000266:	00f08093          	addi	ra,ra,15 # f00ff00f <_end+0x700fcfff>
8000026a:	0f00cf13          	xori	t5,ra,240
8000026e:	0001                	nop
80000270:	0001                	nop
80000272:	000f0313          	mv	t1,t5
80000276:	0205                	addi	tp,tp,1
80000278:	4289                	li	t0,2
8000027a:	fe5214e3          	bne	tp,t0,80000262 <test_9+0x2>
8000027e:	f00ffeb7          	lui	t4,0xf00ff
80000282:	0ffe8e93          	addi	t4,t4,255 # f00ff0ff <_end+0x700fd0ef>
80000286:	41a5                	li	gp,9
80000288:	09d31e63          	bne	t1,t4,80000324 <fail>

8000028c <test_10>:
8000028c:	4201                	li	tp,0
8000028e:	0ff010b7          	lui	ra,0xff01
80000292:	ff008093          	addi	ra,ra,-16 # ff00ff0 <_start-0x700ff010>
80000296:	0f00cf13          	xori	t5,ra,240
8000029a:	0205                	addi	tp,tp,1
8000029c:	4289                	li	t0,2
8000029e:	fe5218e3          	bne	tp,t0,8000028e <test_10+0x2>
800002a2:	0ff01eb7          	lui	t4,0xff01
800002a6:	f00e8e93          	addi	t4,t4,-256 # ff00f00 <_start-0x700ff100>
800002aa:	41a9                	li	gp,10
800002ac:	07df1c63          	bne	t5,t4,80000324 <fail>

800002b0 <test_11>:
800002b0:	4201                	li	tp,0
800002b2:	00ff10b7          	lui	ra,0xff1
800002b6:	fff08093          	addi	ra,ra,-1 # ff0fff <_start-0x7f00f001>
800002ba:	0001                	nop
800002bc:	00f0cf13          	xori	t5,ra,15
800002c0:	0205                	addi	tp,tp,1
800002c2:	4289                	li	t0,2
800002c4:	fe5217e3          	bne	tp,t0,800002b2 <test_11+0x2>
800002c8:	00ff1eb7          	lui	t4,0xff1
800002cc:	ff0e8e93          	addi	t4,t4,-16 # ff0ff0 <_start-0x7f00f010>
800002d0:	41ad                	li	gp,11
800002d2:	05df1963          	bne	t5,t4,80000324 <fail>

800002d6 <test_12>:
800002d6:	4201                	li	tp,0
800002d8:	f00ff0b7          	lui	ra,0xf00ff
800002dc:	00f08093          	addi	ra,ra,15 # f00ff00f <_end+0x700fcfff>
800002e0:	0001                	nop
800002e2:	0001                	nop
800002e4:	0f00cf13          	xori	t5,ra,240
800002e8:	0205                	addi	tp,tp,1
800002ea:	4289                	li	t0,2
800002ec:	fe5216e3          	bne	tp,t0,800002d8 <test_12+0x2>
800002f0:	f00ffeb7          	lui	t4,0xf00ff
800002f4:	0ffe8e93          	addi	t4,t4,255 # f00ff0ff <_end+0x700fd0ef>
800002f8:	41b1                	li	gp,12
800002fa:	03df1563          	bne	t5,t4,80000324 <fail>

800002fe <test_13>:
800002fe:	0f004093          	xori	ra,zero,240
80000302:	0f000e93          	li	t4,240
80000306:	41b5                	li	gp,13
80000308:	01d09e63          	bne	ra,t4,80000324 <fail>

8000030c <test_14>:
8000030c:	00ff00b7          	lui	ra,0xff0
80000310:	0ff08093          	addi	ra,ra,255 # ff00ff <_start-0x7f00ff01>
80000314:	70f0c013          	xori	zero,ra,1807
80000318:	4e81                	li	t4,0
8000031a:	41b9                	li	gp,14
8000031c:	01d01463          	bne	zero,t4,80000324 <fail>
80000320:	00301b63          	bne	zero,gp,80000336 <pass>

80000324 <fail>:
80000324:	0ff0000f          	fence
80000328:	00018063          	beqz	gp,80000328 <fail+0x4>
8000032c:	0186                	slli	gp,gp,0x1
8000032e:	0011e193          	ori	gp,gp,1
80000332:	00000073          	ecall

80000336 <pass>:
80000336:	0ff0000f          	fence
8000033a:	4185                	li	gp,1
8000033c:	00000073          	ecall
	...

Disassembly of section .tohost:

80001000 <tohost>:
	...

80001040 <fromhost>:
	...

Disassembly of section .data:

80002000 <test_trap_data>:
	...
