
rv32um-p-mul:     file format elf32-littleriscv


Disassembly of section .text.init:

80000000 <_start>:
80000000:	aa0d                	j	80000132 <reset_vector>
80000002:	0001                	nop

80000004 <trap_vector>:
80000004:	34051073          	csrw	mscratch,a0
80000008:	00002517          	auipc	a0,0x2
8000000c:	ff850513          	addi	a0,a0,-8 # 80002000 <test_trap_data>
80000010:	01e52023          	sw	t5,0(a0)
80000014:	01f52223          	sw	t6,4(a0)
80000018:	34202f73          	csrr	t5,mcause
8000001c:	040f4163          	bltz	t5,8000005e <other_interrupts>
80000020:	4fa1                	li	t6,8
80000022:	07ff0263          	beq	t5,t6,80000086 <write_tohost>
80000026:	4fa5                	li	t6,9
80000028:	05ff0f63          	beq	t5,t6,80000086 <write_tohost>
8000002c:	4fad                	li	t6,11
8000002e:	05ff0c63          	beq	t5,t6,80000086 <write_tohost>
80000032:	4f85                	li	t6,1
80000034:	0bff0563          	beq	t5,t6,800000de <ifetch_error_handler>
80000038:	4f95                	li	t6,5
8000003a:	0dff0063          	beq	t5,t6,800000fa <load_error_handler>
8000003e:	4f9d                	li	t6,7
80000040:	0dff0b63          	beq	t5,t6,80000116 <store_error_handler>
80000044:	80000f17          	auipc	t5,0x80000
80000048:	fbcf0f13          	addi	t5,t5,-68 # 0 <_start-0x80000000>
8000004c:	000f0363          	beqz	t5,80000052 <trap_vector+0x4e>
80000050:	8f02                	jr	t5
80000052:	34202f73          	csrr	t5,mcause
80000056:	000f5363          	bgez	t5,8000005c <handle_exception>
8000005a:	a009                	j	8000005c <handle_exception>

8000005c <handle_exception>:
8000005c:	a01d                	j	80000082 <other_interrupts+0x24>

8000005e <other_interrupts>:
8000005e:	80000fb7          	lui	t6,0x80000
80000062:	003f8f93          	addi	t6,t6,3 # 80000003 <_end+0xffffdff3>
80000066:	05ff0463          	beq	t5,t6,800000ae <sft_irq_handler>
8000006a:	80000fb7          	lui	t6,0x80000
8000006e:	007f8f93          	addi	t6,t6,7 # 80000007 <_end+0xffffdff7>
80000072:	05ff0a63          	beq	t5,t6,800000c6 <tmr_irq_handler>
80000076:	80000fb7          	lui	t6,0x80000
8000007a:	00bf8f93          	addi	t6,t6,11 # 8000000b <_end+0xffffdffb>
8000007e:	01ff0c63          	beq	t5,t6,80000096 <ext_irq_handler>
80000082:	5391e193          	ori	gp,gp,1337

80000086 <write_tohost>:
80000086:	4521                	li	a0,8
80000088:	30052073          	csrs	mstatus,a0
8000008c:	00001f17          	auipc	t5,0x1
80000090:	f63f2a23          	sw	gp,-140(t5) # 80001000 <tohost>
80000094:	bfcd                	j	80000086 <write_tohost>

80000096 <ext_irq_handler>:
80000096:	00002517          	auipc	a0,0x2
8000009a:	f6a50513          	addi	a0,a0,-150 # 80002000 <test_trap_data>
8000009e:	00052f03          	lw	t5,0(a0)
800000a2:	00452f83          	lw	t6,4(a0)
800000a6:	34002573          	csrr	a0,mscratch
800000aa:	30200073          	mret

800000ae <sft_irq_handler>:
800000ae:	00002517          	auipc	a0,0x2
800000b2:	f5250513          	addi	a0,a0,-174 # 80002000 <test_trap_data>
800000b6:	00052f03          	lw	t5,0(a0)
800000ba:	00452f83          	lw	t6,4(a0)
800000be:	34002573          	csrr	a0,mscratch
800000c2:	30200073          	mret

800000c6 <tmr_irq_handler>:
800000c6:	00002517          	auipc	a0,0x2
800000ca:	f3a50513          	addi	a0,a0,-198 # 80002000 <test_trap_data>
800000ce:	00052f03          	lw	t5,0(a0)
800000d2:	00452f83          	lw	t6,4(a0)
800000d6:	34002573          	csrr	a0,mscratch
800000da:	30200073          	mret

800000de <ifetch_error_handler>:
800000de:	00002517          	auipc	a0,0x2
800000e2:	f2250513          	addi	a0,a0,-222 # 80002000 <test_trap_data>
800000e6:	00052f03          	lw	t5,0(a0)
800000ea:	00452f83          	lw	t6,4(a0)
800000ee:	34302573          	csrr	a0,mbadaddr
800000f2:	34002573          	csrr	a0,mscratch
800000f6:	30200073          	mret

800000fa <load_error_handler>:
800000fa:	00002517          	auipc	a0,0x2
800000fe:	f0650513          	addi	a0,a0,-250 # 80002000 <test_trap_data>
80000102:	00052f03          	lw	t5,0(a0)
80000106:	00452f83          	lw	t6,4(a0)
8000010a:	34302573          	csrr	a0,mbadaddr
8000010e:	34002573          	csrr	a0,mscratch
80000112:	30200073          	mret

80000116 <store_error_handler>:
80000116:	00002517          	auipc	a0,0x2
8000011a:	eea50513          	addi	a0,a0,-278 # 80002000 <test_trap_data>
8000011e:	00052f03          	lw	t5,0(a0)
80000122:	00452f83          	lw	t6,4(a0)
80000126:	34302573          	csrr	a0,mbadaddr
8000012a:	34002573          	csrr	a0,mscratch
8000012e:	30200073          	mret

80000132 <reset_vector>:
80000132:	00000f13          	li	t5,0
80000136:	00000f93          	li	t6,0
8000013a:	f1402573          	csrr	a0,mhartid
8000013e:	e101                	bnez	a0,8000013e <reset_vector+0xc>
80000140:	4181                	li	gp,0
80000142:	00000297          	auipc	t0,0x0
80000146:	ec228293          	addi	t0,t0,-318 # 80000004 <trap_vector>
8000014a:	4521                	li	a0,8
8000014c:	30052073          	csrs	mstatus,a0
80000150:	fff00513          	li	a0,-1
80000154:	30452073          	csrs	mie,a0
80000158:	30529073          	csrw	mtvec,t0

8000015c <post_mtvec>:
8000015c:	80000297          	auipc	t0,0x80000
80000160:	ea428293          	addi	t0,t0,-348 # 0 <_start-0x80000000>
80000164:	00028e63          	beqz	t0,80000180 <post_mtvec+0x24>
80000168:	10529073          	csrw	stvec,t0
8000016c:	0000b2b7          	lui	t0,0xb
80000170:	10928293          	addi	t0,t0,265 # b109 <_start-0x7fff4ef7>
80000174:	30229073          	csrw	medeleg,t0
80000178:	30202373          	csrr	t1,medeleg
8000017c:	ee6290e3          	bne	t0,t1,8000005c <handle_exception>
80000180:	30005073          	csrwi	mstatus,0
80000184:	08000513          	li	a0,128
80000188:	30052073          	csrs	mstatus,a0
8000018c:	4501                	li	a0,0
8000018e:	bfc51073          	csrw	0xbfc,a0
80000192:	0000100f          	fence.i
80000196:	000012b7          	lui	t0,0x1
8000019a:	a0028293          	addi	t0,t0,-1536 # a00 <_start-0x7ffff600>

8000019e <waitloop1>:
8000019e:	12fd                	addi	t0,t0,-1
800001a0:	fe029fe3          	bnez	t0,8000019e <waitloop1>
800001a4:	100083b7          	lui	t2,0x10008
800001a8:	00838393          	addi	t2,t2,8 # 10008008 <_start-0x6fff7ff8>
800001ac:	0003a283          	lw	t0,0(t2)
800001b0:	00040337          	lui	t1,0x40
800001b4:	fff34313          	not	t1,t1
800001b8:	0062f2b3          	and	t0,t0,t1
800001bc:	0053a023          	sw	t0,0(t2)
800001c0:	40000293          	li	t0,1024

800001c4 <waitloop2>:
800001c4:	12fd                	addi	t0,t0,-1
800001c6:	0003ae03          	lw	t3,0(t2)
800001ca:	fe029de3          	bnez	t0,800001c4 <waitloop2>
800001ce:	0003a283          	lw	t0,0(t2)
800001d2:	00040337          	lui	t1,0x40
800001d6:	0062e2b3          	or	t0,t0,t1
800001da:	0053a023          	sw	t0,0(t2)
800001de:	0003a283          	lw	t0,0(t2)
800001e2:	4305                	li	t1,1
800001e4:	0062e2b3          	or	t0,t0,t1
800001e8:	0053a023          	sw	t0,0(t2)
800001ec:	0003a283          	lw	t0,0(t2)
800001f0:	02000313          	li	t1,32
800001f4:	0062e2b3          	or	t0,t0,t1
800001f8:	0053a023          	sw	t0,0(t2)
800001fc:	000012b7          	lui	t0,0x1
80000200:	a0028293          	addi	t0,t0,-1536 # a00 <_start-0x7ffff600>

80000204 <waitloop3>:
80000204:	12fd                	addi	t0,t0,-1
80000206:	fe029fe3          	bnez	t0,80000204 <waitloop3>
8000020a:	0003a283          	lw	t0,0(t2)
8000020e:	00040337          	lui	t1,0x40
80000212:	fff34313          	not	t1,t1
80000216:	0062f2b3          	and	t0,t0,t1
8000021a:	0053a023          	sw	t0,0(t2)
8000021e:	10000293          	li	t0,256

80000222 <waitloop4>:
80000222:	12fd                	addi	t0,t0,-1
80000224:	fe029fe3          	bnez	t0,80000222 <waitloop4>
80000228:	100083b7          	lui	t2,0x10008
8000022c:	00c38393          	addi	t2,t2,12 # 1000800c <_start-0x6fff7ff4>
80000230:	0003a283          	lw	t0,0(t2)
80000234:	10000313          	li	t1,256
80000238:	fff34313          	not	t1,t1
8000023c:	0062f2b3          	and	t0,t0,t1
80000240:	4309                	li	t1,2
80000242:	0062e2b3          	or	t0,t0,t1
80000246:	0053a023          	sw	t0,0(t2)
8000024a:	40000293          	li	t0,1024
8000024e:	00000297          	auipc	t0,0x0
80000252:	01428293          	addi	t0,t0,20 # 80000262 <test_32>
80000256:	34129073          	csrw	mepc,t0
8000025a:	f1402573          	csrr	a0,mhartid
8000025e:	30200073          	mret

80000262 <test_32>:
80000262:	000080b7          	lui	ra,0x8
80000266:	e0008093          	addi	ra,ra,-512 # 7e00 <_start-0x7fff8200>
8000026a:	b6db7137          	lui	sp,0xb6db7
8000026e:	db710113          	addi	sp,sp,-585 # b6db6db7 <_end+0x36db4da7>
80000272:	02208f33          	mul	t5,ra,sp
80000276:	00001eb7          	lui	t4,0x1
8000027a:	200e8e93          	addi	t4,t4,512 # 1200 <_start-0x7fffee00>
8000027e:	02000193          	li	gp,32
80000282:	37df1c63          	bne	t5,t4,800005fa <fail>

80000286 <test_33>:
80000286:	000080b7          	lui	ra,0x8
8000028a:	fc008093          	addi	ra,ra,-64 # 7fc0 <_start-0x7fff8040>
8000028e:	b6db7137          	lui	sp,0xb6db7
80000292:	db710113          	addi	sp,sp,-585 # b6db6db7 <_end+0x36db4da7>
80000296:	02208f33          	mul	t5,ra,sp
8000029a:	00001eb7          	lui	t4,0x1
8000029e:	240e8e93          	addi	t4,t4,576 # 1240 <_start-0x7fffedc0>
800002a2:	02100193          	li	gp,33
800002a6:	35df1a63          	bne	t5,t4,800005fa <fail>

800002aa <test_2>:
800002aa:	4081                	li	ra,0
800002ac:	4101                	li	sp,0
800002ae:	02208f33          	mul	t5,ra,sp
800002b2:	4e81                	li	t4,0
800002b4:	4189                	li	gp,2
800002b6:	35df1263          	bne	t5,t4,800005fa <fail>

800002ba <test_3>:
800002ba:	4085                	li	ra,1
800002bc:	4105                	li	sp,1
800002be:	02208f33          	mul	t5,ra,sp
800002c2:	4e85                	li	t4,1
800002c4:	418d                	li	gp,3
800002c6:	33df1a63          	bne	t5,t4,800005fa <fail>

800002ca <test_4>:
800002ca:	408d                	li	ra,3
800002cc:	411d                	li	sp,7
800002ce:	02208f33          	mul	t5,ra,sp
800002d2:	4ed5                	li	t4,21
800002d4:	4191                	li	gp,4
800002d6:	33df1263          	bne	t5,t4,800005fa <fail>

800002da <test_5>:
800002da:	4081                	li	ra,0
800002dc:	ffff8137          	lui	sp,0xffff8
800002e0:	02208f33          	mul	t5,ra,sp
800002e4:	4e81                	li	t4,0
800002e6:	4195                	li	gp,5
800002e8:	31df1963          	bne	t5,t4,800005fa <fail>

800002ec <test_6>:
800002ec:	800000b7          	lui	ra,0x80000
800002f0:	4101                	li	sp,0
800002f2:	02208f33          	mul	t5,ra,sp
800002f6:	4e81                	li	t4,0
800002f8:	4199                	li	gp,6
800002fa:	31df1063          	bne	t5,t4,800005fa <fail>

800002fe <test_7>:
800002fe:	800000b7          	lui	ra,0x80000
80000302:	ffff8137          	lui	sp,0xffff8
80000306:	02208f33          	mul	t5,ra,sp
8000030a:	4e81                	li	t4,0
8000030c:	419d                	li	gp,7
8000030e:	2fdf1663          	bne	t5,t4,800005fa <fail>

80000312 <test_30>:
80000312:	aaaab0b7          	lui	ra,0xaaaab
80000316:	aab08093          	addi	ra,ra,-1365 # aaaaaaab <_end+0x2aaa8a9b>
8000031a:	00030137          	lui	sp,0x30
8000031e:	e7d10113          	addi	sp,sp,-387 # 2fe7d <_start-0x7ffd0183>
80000322:	02208f33          	mul	t5,ra,sp
80000326:	00010eb7          	lui	t4,0x10
8000032a:	f7fe8e93          	addi	t4,t4,-129 # ff7f <_start-0x7fff0081>
8000032e:	41f9                	li	gp,30
80000330:	2ddf1563          	bne	t5,t4,800005fa <fail>

80000334 <test_31>:
80000334:	000300b7          	lui	ra,0x30
80000338:	e7d08093          	addi	ra,ra,-387 # 2fe7d <_start-0x7ffd0183>
8000033c:	aaaab137          	lui	sp,0xaaaab
80000340:	aab10113          	addi	sp,sp,-1365 # aaaaaaab <_end+0x2aaa8a9b>
80000344:	02208f33          	mul	t5,ra,sp
80000348:	00010eb7          	lui	t4,0x10
8000034c:	f7fe8e93          	addi	t4,t4,-129 # ff7f <_start-0x7fff0081>
80000350:	41fd                	li	gp,31
80000352:	2bdf1463          	bne	t5,t4,800005fa <fail>

80000356 <test_34>:
80000356:	ff0000b7          	lui	ra,0xff000
8000035a:	ff000137          	lui	sp,0xff000
8000035e:	02208f33          	mul	t5,ra,sp
80000362:	4e81                	li	t4,0
80000364:	02200193          	li	gp,34
80000368:	29df1963          	bne	t5,t4,800005fa <fail>

8000036c <test_35>:
8000036c:	fff00093          	li	ra,-1
80000370:	fff00113          	li	sp,-1
80000374:	02208f33          	mul	t5,ra,sp
80000378:	4e85                	li	t4,1
8000037a:	02300193          	li	gp,35
8000037e:	27df1e63          	bne	t5,t4,800005fa <fail>

80000382 <test_36>:
80000382:	fff00093          	li	ra,-1
80000386:	4105                	li	sp,1
80000388:	02208f33          	mul	t5,ra,sp
8000038c:	fff00e93          	li	t4,-1
80000390:	02400193          	li	gp,36
80000394:	27df1363          	bne	t5,t4,800005fa <fail>

80000398 <test_37>:
80000398:	4085                	li	ra,1
8000039a:	fff00113          	li	sp,-1
8000039e:	02208f33          	mul	t5,ra,sp
800003a2:	fff00e93          	li	t4,-1
800003a6:	02500193          	li	gp,37
800003aa:	25df1863          	bne	t5,t4,800005fa <fail>

800003ae <test_8>:
800003ae:	40b5                	li	ra,13
800003b0:	412d                	li	sp,11
800003b2:	022080b3          	mul	ra,ra,sp
800003b6:	08f00e93          	li	t4,143
800003ba:	41a1                	li	gp,8
800003bc:	23d09f63          	bne	ra,t4,800005fa <fail>

800003c0 <test_9>:
800003c0:	40b9                	li	ra,14
800003c2:	412d                	li	sp,11
800003c4:	02208133          	mul	sp,ra,sp
800003c8:	09a00e93          	li	t4,154
800003cc:	41a5                	li	gp,9
800003ce:	23d11663          	bne	sp,t4,800005fa <fail>

800003d2 <test_10>:
800003d2:	40b5                	li	ra,13
800003d4:	021080b3          	mul	ra,ra,ra
800003d8:	0a900e93          	li	t4,169
800003dc:	41a9                	li	gp,10
800003de:	21d09e63          	bne	ra,t4,800005fa <fail>

800003e2 <test_11>:
800003e2:	4201                	li	tp,0
800003e4:	40b5                	li	ra,13
800003e6:	412d                	li	sp,11
800003e8:	02208f33          	mul	t5,ra,sp
800003ec:	000f0313          	mv	t1,t5
800003f0:	0205                	addi	tp,tp,1
800003f2:	4289                	li	t0,2
800003f4:	fe5218e3          	bne	tp,t0,800003e4 <test_11+0x2>
800003f8:	08f00e93          	li	t4,143
800003fc:	41ad                	li	gp,11
800003fe:	1fd31e63          	bne	t1,t4,800005fa <fail>

80000402 <test_12>:
80000402:	4201                	li	tp,0
80000404:	40b9                	li	ra,14
80000406:	412d                	li	sp,11
80000408:	02208f33          	mul	t5,ra,sp
8000040c:	0001                	nop
8000040e:	000f0313          	mv	t1,t5
80000412:	0205                	addi	tp,tp,1
80000414:	4289                	li	t0,2
80000416:	fe5217e3          	bne	tp,t0,80000404 <test_12+0x2>
8000041a:	09a00e93          	li	t4,154
8000041e:	41b1                	li	gp,12
80000420:	1dd31d63          	bne	t1,t4,800005fa <fail>

80000424 <test_13>:
80000424:	4201                	li	tp,0
80000426:	40bd                	li	ra,15
80000428:	412d                	li	sp,11
8000042a:	02208f33          	mul	t5,ra,sp
8000042e:	0001                	nop
80000430:	0001                	nop
80000432:	000f0313          	mv	t1,t5
80000436:	0205                	addi	tp,tp,1
80000438:	4289                	li	t0,2
8000043a:	fe5216e3          	bne	tp,t0,80000426 <test_13+0x2>
8000043e:	0a500e93          	li	t4,165
80000442:	41b5                	li	gp,13
80000444:	1bd31b63          	bne	t1,t4,800005fa <fail>

80000448 <test_14>:
80000448:	4201                	li	tp,0
8000044a:	40b5                	li	ra,13
8000044c:	412d                	li	sp,11
8000044e:	02208f33          	mul	t5,ra,sp
80000452:	0205                	addi	tp,tp,1
80000454:	4289                	li	t0,2
80000456:	fe521ae3          	bne	tp,t0,8000044a <test_14+0x2>
8000045a:	08f00e93          	li	t4,143
8000045e:	41b9                	li	gp,14
80000460:	19df1d63          	bne	t5,t4,800005fa <fail>

80000464 <test_15>:
80000464:	4201                	li	tp,0
80000466:	40b9                	li	ra,14
80000468:	412d                	li	sp,11
8000046a:	0001                	nop
8000046c:	02208f33          	mul	t5,ra,sp
80000470:	0205                	addi	tp,tp,1
80000472:	4289                	li	t0,2
80000474:	fe5219e3          	bne	tp,t0,80000466 <test_15+0x2>
80000478:	09a00e93          	li	t4,154
8000047c:	41bd                	li	gp,15
8000047e:	17df1e63          	bne	t5,t4,800005fa <fail>

80000482 <test_16>:
80000482:	4201                	li	tp,0
80000484:	40bd                	li	ra,15
80000486:	412d                	li	sp,11
80000488:	0001                	nop
8000048a:	0001                	nop
8000048c:	02208f33          	mul	t5,ra,sp
80000490:	0205                	addi	tp,tp,1
80000492:	4289                	li	t0,2
80000494:	fe5218e3          	bne	tp,t0,80000484 <test_16+0x2>
80000498:	0a500e93          	li	t4,165
8000049c:	41c1                	li	gp,16
8000049e:	15df1e63          	bne	t5,t4,800005fa <fail>

800004a2 <test_17>:
800004a2:	4201                	li	tp,0
800004a4:	40b5                	li	ra,13
800004a6:	0001                	nop
800004a8:	412d                	li	sp,11
800004aa:	02208f33          	mul	t5,ra,sp
800004ae:	0205                	addi	tp,tp,1
800004b0:	4289                	li	t0,2
800004b2:	fe5219e3          	bne	tp,t0,800004a4 <test_17+0x2>
800004b6:	08f00e93          	li	t4,143
800004ba:	41c5                	li	gp,17
800004bc:	13df1f63          	bne	t5,t4,800005fa <fail>

800004c0 <test_18>:
800004c0:	4201                	li	tp,0
800004c2:	40b9                	li	ra,14
800004c4:	0001                	nop
800004c6:	412d                	li	sp,11
800004c8:	0001                	nop
800004ca:	02208f33          	mul	t5,ra,sp
800004ce:	0205                	addi	tp,tp,1
800004d0:	4289                	li	t0,2
800004d2:	fe5218e3          	bne	tp,t0,800004c2 <test_18+0x2>
800004d6:	09a00e93          	li	t4,154
800004da:	41c9                	li	gp,18
800004dc:	11df1f63          	bne	t5,t4,800005fa <fail>

800004e0 <test_19>:
800004e0:	4201                	li	tp,0
800004e2:	40bd                	li	ra,15
800004e4:	0001                	nop
800004e6:	0001                	nop
800004e8:	412d                	li	sp,11
800004ea:	02208f33          	mul	t5,ra,sp
800004ee:	0205                	addi	tp,tp,1
800004f0:	4289                	li	t0,2
800004f2:	fe5218e3          	bne	tp,t0,800004e2 <test_19+0x2>
800004f6:	0a500e93          	li	t4,165
800004fa:	41cd                	li	gp,19
800004fc:	0fdf1f63          	bne	t5,t4,800005fa <fail>

80000500 <test_20>:
80000500:	4201                	li	tp,0
80000502:	412d                	li	sp,11
80000504:	40b5                	li	ra,13
80000506:	02208f33          	mul	t5,ra,sp
8000050a:	0205                	addi	tp,tp,1
8000050c:	4289                	li	t0,2
8000050e:	fe521ae3          	bne	tp,t0,80000502 <test_20+0x2>
80000512:	08f00e93          	li	t4,143
80000516:	41d1                	li	gp,20
80000518:	0fdf1163          	bne	t5,t4,800005fa <fail>

8000051c <test_21>:
8000051c:	4201                	li	tp,0
8000051e:	412d                	li	sp,11
80000520:	40b9                	li	ra,14
80000522:	0001                	nop
80000524:	02208f33          	mul	t5,ra,sp
80000528:	0205                	addi	tp,tp,1
8000052a:	4289                	li	t0,2
8000052c:	fe5219e3          	bne	tp,t0,8000051e <test_21+0x2>
80000530:	09a00e93          	li	t4,154
80000534:	41d5                	li	gp,21
80000536:	0ddf1263          	bne	t5,t4,800005fa <fail>

8000053a <test_22>:
8000053a:	4201                	li	tp,0
8000053c:	412d                	li	sp,11
8000053e:	40bd                	li	ra,15
80000540:	0001                	nop
80000542:	0001                	nop
80000544:	02208f33          	mul	t5,ra,sp
80000548:	0205                	addi	tp,tp,1
8000054a:	4289                	li	t0,2
8000054c:	fe5218e3          	bne	tp,t0,8000053c <test_22+0x2>
80000550:	0a500e93          	li	t4,165
80000554:	41d9                	li	gp,22
80000556:	0bdf1263          	bne	t5,t4,800005fa <fail>

8000055a <test_23>:
8000055a:	4201                	li	tp,0
8000055c:	412d                	li	sp,11
8000055e:	0001                	nop
80000560:	40b5                	li	ra,13
80000562:	02208f33          	mul	t5,ra,sp
80000566:	0205                	addi	tp,tp,1
80000568:	4289                	li	t0,2
8000056a:	fe5219e3          	bne	tp,t0,8000055c <test_23+0x2>
8000056e:	08f00e93          	li	t4,143
80000572:	41dd                	li	gp,23
80000574:	09df1363          	bne	t5,t4,800005fa <fail>

80000578 <test_24>:
80000578:	4201                	li	tp,0
8000057a:	412d                	li	sp,11
8000057c:	0001                	nop
8000057e:	40b9                	li	ra,14
80000580:	0001                	nop
80000582:	02208f33          	mul	t5,ra,sp
80000586:	0205                	addi	tp,tp,1
80000588:	4289                	li	t0,2
8000058a:	fe5218e3          	bne	tp,t0,8000057a <test_24+0x2>
8000058e:	09a00e93          	li	t4,154
80000592:	41e1                	li	gp,24
80000594:	07df1363          	bne	t5,t4,800005fa <fail>

80000598 <test_25>:
80000598:	4201                	li	tp,0
8000059a:	412d                	li	sp,11
8000059c:	0001                	nop
8000059e:	0001                	nop
800005a0:	40bd                	li	ra,15
800005a2:	02208f33          	mul	t5,ra,sp
800005a6:	0205                	addi	tp,tp,1
800005a8:	4289                	li	t0,2
800005aa:	fe5218e3          	bne	tp,t0,8000059a <test_25+0x2>
800005ae:	0a500e93          	li	t4,165
800005b2:	41e5                	li	gp,25
800005b4:	05df1363          	bne	t5,t4,800005fa <fail>

800005b8 <test_26>:
800005b8:	40fd                	li	ra,31
800005ba:	02100133          	mul	sp,zero,ra
800005be:	4e81                	li	t4,0
800005c0:	41e9                	li	gp,26
800005c2:	03d11c63          	bne	sp,t4,800005fa <fail>

800005c6 <test_27>:
800005c6:	02000093          	li	ra,32
800005ca:	02008133          	mul	sp,ra,zero
800005ce:	4e81                	li	t4,0
800005d0:	41ed                	li	gp,27
800005d2:	03d11463          	bne	sp,t4,800005fa <fail>

800005d6 <test_28>:
800005d6:	020000b3          	mul	ra,zero,zero
800005da:	4e81                	li	t4,0
800005dc:	41f1                	li	gp,28
800005de:	01d09e63          	bne	ra,t4,800005fa <fail>

800005e2 <test_29>:
800005e2:	02100093          	li	ra,33
800005e6:	02200113          	li	sp,34
800005ea:	02208033          	mul	zero,ra,sp
800005ee:	4e81                	li	t4,0
800005f0:	41f5                	li	gp,29
800005f2:	01d01463          	bne	zero,t4,800005fa <fail>
800005f6:	00301b63          	bne	zero,gp,8000060c <pass>

800005fa <fail>:
800005fa:	0ff0000f          	fence
800005fe:	00018063          	beqz	gp,800005fe <fail+0x4>
80000602:	0186                	slli	gp,gp,0x1
80000604:	0011e193          	ori	gp,gp,1
80000608:	00000073          	ecall

8000060c <pass>:
8000060c:	0ff0000f          	fence
80000610:	4185                	li	gp,1
80000612:	00000073          	ecall
	...

Disassembly of section .tohost:

80001000 <tohost>:
	...

80001040 <fromhost>:
	...

Disassembly of section .data:

80002000 <test_trap_data>:
	...
