
rv32uf-p-bpu_wait:     file format elf32-littleriscv


Disassembly of section .text.init:

80000000 <_start>:
80000000:	a21d                	j	80000126 <reset_vector>
80000002:	0001                	nop

80000004 <trap_vector>:
80000004:	34051073          	csrw	mscratch,a0
80000008:	00002517          	auipc	a0,0x2
8000000c:	ff850513          	addi	a0,a0,-8 # 80002000 <test_trap_data>
80000010:	01e52023          	sw	t5,0(a0)
80000014:	01f52223          	sw	t6,4(a0)
80000018:	34202f73          	csrr	t5,mcause
8000001c:	040f4163          	bltz	t5,8000005e <other_interrupts>
80000020:	4fa1                	li	t6,8
80000022:	07ff0263          	beq	t5,t6,80000086 <write_tohost>
80000026:	4fa5                	li	t6,9
80000028:	05ff0f63          	beq	t5,t6,80000086 <write_tohost>
8000002c:	4fad                	li	t6,11
8000002e:	05ff0c63          	beq	t5,t6,80000086 <write_tohost>
80000032:	4f85                	li	t6,1
80000034:	0bff0563          	beq	t5,t6,800000de <ifetch_error_handler>
80000038:	4f95                	li	t6,5
8000003a:	0bff0e63          	beq	t5,t6,800000f6 <load_error_handler>
8000003e:	4f9d                	li	t6,7
80000040:	0dff0763          	beq	t5,t6,8000010e <store_error_handler>
80000044:	80000f17          	auipc	t5,0x80000
80000048:	fbcf0f13          	addi	t5,t5,-68 # 0 <_start-0x80000000>
8000004c:	000f0363          	beqz	t5,80000052 <trap_vector+0x4e>
80000050:	8f02                	jr	t5
80000052:	34202f73          	csrr	t5,mcause
80000056:	000f5363          	bgez	t5,8000005c <handle_exception>
8000005a:	a009                	j	8000005c <handle_exception>

8000005c <handle_exception>:
8000005c:	a01d                	j	80000082 <other_interrupts+0x24>

8000005e <other_interrupts>:
8000005e:	80000fb7          	lui	t6,0x80000
80000062:	003f8f93          	addi	t6,t6,3 # 80000003 <_end+0xffffdfe3>
80000066:	05ff0463          	beq	t5,t6,800000ae <sft_irq_handler>
8000006a:	80000fb7          	lui	t6,0x80000
8000006e:	007f8f93          	addi	t6,t6,7 # 80000007 <_end+0xffffdfe7>
80000072:	05ff0a63          	beq	t5,t6,800000c6 <tmr_irq_handler>
80000076:	80000fb7          	lui	t6,0x80000
8000007a:	00bf8f93          	addi	t6,t6,11 # 8000000b <_end+0xffffdfeb>
8000007e:	01ff0c63          	beq	t5,t6,80000096 <ext_irq_handler>
80000082:	5391e193          	ori	gp,gp,1337

80000086 <write_tohost>:
80000086:	4521                	li	a0,8
80000088:	30052073          	csrs	mstatus,a0
8000008c:	00001f17          	auipc	t5,0x1
80000090:	f63f2a23          	sw	gp,-140(t5) # 80001000 <tohost>
80000094:	bfcd                	j	80000086 <write_tohost>

80000096 <ext_irq_handler>:
80000096:	00002517          	auipc	a0,0x2
8000009a:	f6a50513          	addi	a0,a0,-150 # 80002000 <test_trap_data>
8000009e:	00052f03          	lw	t5,0(a0)
800000a2:	00452f83          	lw	t6,4(a0)
800000a6:	34002573          	csrr	a0,mscratch
800000aa:	30200073          	mret

800000ae <sft_irq_handler>:
800000ae:	00002517          	auipc	a0,0x2
800000b2:	f5250513          	addi	a0,a0,-174 # 80002000 <test_trap_data>
800000b6:	00052f03          	lw	t5,0(a0)
800000ba:	00452f83          	lw	t6,4(a0)
800000be:	34002573          	csrr	a0,mscratch
800000c2:	30200073          	mret

800000c6 <tmr_irq_handler>:
800000c6:	00002517          	auipc	a0,0x2
800000ca:	f3a50513          	addi	a0,a0,-198 # 80002000 <test_trap_data>
800000ce:	00052f03          	lw	t5,0(a0)
800000d2:	00452f83          	lw	t6,4(a0)
800000d6:	34002573          	csrr	a0,mscratch
800000da:	30200073          	mret

800000de <ifetch_error_handler>:
800000de:	00002517          	auipc	a0,0x2
800000e2:	f2250513          	addi	a0,a0,-222 # 80002000 <test_trap_data>
800000e6:	00052f03          	lw	t5,0(a0)
800000ea:	00452f83          	lw	t6,4(a0)
800000ee:	34002573          	csrr	a0,mscratch
800000f2:	30200073          	mret

800000f6 <load_error_handler>:
800000f6:	00002517          	auipc	a0,0x2
800000fa:	f0a50513          	addi	a0,a0,-246 # 80002000 <test_trap_data>
800000fe:	00052f03          	lw	t5,0(a0)
80000102:	00452f83          	lw	t6,4(a0)
80000106:	34002573          	csrr	a0,mscratch
8000010a:	30200073          	mret

8000010e <store_error_handler>:
8000010e:	00002517          	auipc	a0,0x2
80000112:	ef250513          	addi	a0,a0,-270 # 80002000 <test_trap_data>
80000116:	00052f03          	lw	t5,0(a0)
8000011a:	00452f83          	lw	t6,4(a0)
8000011e:	34002573          	csrr	a0,mscratch
80000122:	30200073          	mret

80000126 <reset_vector>:
80000126:	f1402573          	csrr	a0,mhartid
8000012a:	e101                	bnez	a0,8000012a <reset_vector+0x4>
8000012c:	4181                	li	gp,0
8000012e:	00000297          	auipc	t0,0x0
80000132:	ed628293          	addi	t0,t0,-298 # 80000004 <trap_vector>
80000136:	4521                	li	a0,8
80000138:	30052073          	csrs	mstatus,a0
8000013c:	fff00513          	li	a0,-1
80000140:	30452073          	csrs	mie,a0
80000144:	30529073          	csrw	mtvec,t0
80000148:	80000297          	auipc	t0,0x80000
8000014c:	eb828293          	addi	t0,t0,-328 # 0 <_start-0x80000000>
80000150:	00028e63          	beqz	t0,8000016c <reset_vector+0x46>
80000154:	10529073          	csrw	stvec,t0
80000158:	0000b2b7          	lui	t0,0xb
8000015c:	10928293          	addi	t0,t0,265 # b109 <_start-0x7fff4ef7>
80000160:	30229073          	csrw	medeleg,t0
80000164:	30202373          	csrr	t1,medeleg
80000168:	ee629ae3          	bne	t0,t1,8000005c <handle_exception>
8000016c:	30005073          	csrwi	mstatus,0
80000170:	08000513          	li	a0,128
80000174:	30052073          	csrs	mstatus,a0
80000178:	00002537          	lui	a0,0x2
8000017c:	80050513          	addi	a0,a0,-2048 # 1800 <_start-0x7fffe800>
80000180:	30052073          	csrs	mstatus,a0
80000184:	00000297          	auipc	t0,0x0
80000188:	01428293          	addi	t0,t0,20 # 80000198 <reset_vector+0x72>
8000018c:	34129073          	csrw	mepc,t0
80000190:	f1402573          	csrr	a0,mhartid
80000194:	30200073          	mret
80000198:	00002f17          	auipc	t5,0x2
8000019c:	e70f0f13          	addi	t5,t5,-400 # 80002008 <test_bpu_wait_data>
800001a0:	00002f97          	auipc	t6,0x2
800001a4:	e68f8f93          	addi	t6,t6,-408 # 80002008 <test_bpu_wait_data>
800001a8:	00002517          	auipc	a0,0x2
800001ac:	e6050513          	addi	a0,a0,-416 # 80002008 <test_bpu_wait_data>
800001b0:	00000597          	auipc	a1,0x0
800001b4:	01658593          	addi	a1,a1,22 # 800001c6 <reset_vector+0xa0>
800001b8:	c10c                	sw	a1,0(a0)
800001ba:	10500073          	wfi
800001be:	00052303          	lw	t1,0(a0)
800001c2:	000302e7          	jalr	t0,t1
800001c6:	00000597          	auipc	a1,0x0
800001ca:	01658593          	addi	a1,a1,22 # 800001dc <reset_vector+0xb6>
800001ce:	c10c                	sw	a1,0(a0)
800001d0:	00052303          	lw	t1,0(a0)
800001d4:	10500073          	wfi
800001d8:	000302e7          	jalr	t0,t1
800001dc:	00000597          	auipc	a1,0x0
800001e0:	01658593          	addi	a1,a1,22 # 800001f2 <reset_vector+0xcc>
800001e4:	c10c                	sw	a1,0(a0)
800001e6:	00052303          	lw	t1,0(a0)
800001ea:	000302e7          	jalr	t0,t1
800001ee:	10500073          	wfi
800001f2:	00000597          	auipc	a1,0x0
800001f6:	01658593          	addi	a1,a1,22 # 80000208 <reset_vector+0xe2>
800001fa:	c10c                	sw	a1,0(a0)
800001fc:	00052303          	lw	t1,0(a0)
80000200:	000302e7          	jalr	t0,t1
80000204:	10500073          	wfi
80000208:	00000597          	auipc	a1,0x0
8000020c:	01258593          	addi	a1,a1,18 # 8000021a <reset_vector+0xf4>
80000210:	c10c                	sw	a1,0(a0)
80000212:	00052303          	lw	t1,0(a0)
80000216:	000302e7          	jalr	t0,t1
8000021a:	00000597          	auipc	a1,0x0
8000021e:	01a58593          	addi	a1,a1,26 # 80000234 <reset_vector+0x10e>
80000222:	c10c                	sw	a1,0(a0)
80000224:	10500073          	wfi
80000228:	00052303          	lw	t1,0(a0)
8000022c:	000302e7          	jalr	t0,t1
80000230:	10500073          	wfi
80000234:	00000597          	auipc	a1,0x0
80000238:	01258593          	addi	a1,a1,18 # 80000246 <reset_vector+0x120>
8000023c:	c10c                	sw	a1,0(a0)
8000023e:	00052303          	lw	t1,0(a0)
80000242:	000302e7          	jalr	t0,t1
80000246:	00000597          	auipc	a1,0x0
8000024a:	01658593          	addi	a1,a1,22 # 8000025c <reset_vector+0x136>
8000024e:	c10c                	sw	a1,0(a0)
80000250:	10500073          	wfi
80000254:	00052303          	lw	t1,0(a0)
80000258:	000302e7          	jalr	t0,t1
8000025c:	30102673          	csrr	a2,misa
80000260:	8a05                	andi	a2,a2,1
80000262:	48060e63          	beqz	a2,800006fe <reset_vector+0x5d8>
80000266:	00000597          	auipc	a1,0x0
8000026a:	01258593          	addi	a1,a1,18 # 80000278 <reset_vector+0x152>
8000026e:	c10c                	sw	a1,0(a0)
80000270:	0055232f          	amoadd.w	t1,t0,(a0)
80000274:	000302e7          	jalr	t0,t1
80000278:	00000597          	auipc	a1,0x0
8000027c:	01258593          	addi	a1,a1,18 # 8000028a <reset_vector+0x164>
80000280:	c10c                	sw	a1,0(a0)
80000282:	0055232f          	amoadd.w	t1,t0,(a0)
80000286:	000302e7          	jalr	t0,t1
8000028a:	00000597          	auipc	a1,0x0
8000028e:	01258593          	addi	a1,a1,18 # 8000029c <reset_vector+0x176>
80000292:	c10c                	sw	a1,0(a0)
80000294:	0055232f          	amoadd.w	t1,t0,(a0)
80000298:	000302e7          	jalr	t0,t1
8000029c:	00000597          	auipc	a1,0x0
800002a0:	01258593          	addi	a1,a1,18 # 800002ae <reset_vector+0x188>
800002a4:	c10c                	sw	a1,0(a0)
800002a6:	0055232f          	amoadd.w	t1,t0,(a0)
800002aa:	000302e7          	jalr	t0,t1
800002ae:	00000597          	auipc	a1,0x0
800002b2:	01258593          	addi	a1,a1,18 # 800002c0 <reset_vector+0x19a>
800002b6:	c10c                	sw	a1,0(a0)
800002b8:	0055232f          	amoadd.w	t1,t0,(a0)
800002bc:	000302e7          	jalr	t0,t1
800002c0:	00000597          	auipc	a1,0x0
800002c4:	01258593          	addi	a1,a1,18 # 800002d2 <reset_vector+0x1ac>
800002c8:	c10c                	sw	a1,0(a0)
800002ca:	0055232f          	amoadd.w	t1,t0,(a0)
800002ce:	000302e7          	jalr	t0,t1
800002d2:	00000597          	auipc	a1,0x0
800002d6:	01258593          	addi	a1,a1,18 # 800002e4 <reset_vector+0x1be>
800002da:	c10c                	sw	a1,0(a0)
800002dc:	0055232f          	amoadd.w	t1,t0,(a0)
800002e0:	000302e7          	jalr	t0,t1
800002e4:	00000597          	auipc	a1,0x0
800002e8:	01258593          	addi	a1,a1,18 # 800002f6 <reset_vector+0x1d0>
800002ec:	c10c                	sw	a1,0(a0)
800002ee:	0055232f          	amoadd.w	t1,t0,(a0)
800002f2:	000302e7          	jalr	t0,t1
800002f6:	00000597          	auipc	a1,0x0
800002fa:	01258593          	addi	a1,a1,18 # 80000308 <reset_vector+0x1e2>
800002fe:	c10c                	sw	a1,0(a0)
80000300:	0055232f          	amoadd.w	t1,t0,(a0)
80000304:	000302e7          	jalr	t0,t1
80000308:	00000597          	auipc	a1,0x0
8000030c:	01258593          	addi	a1,a1,18 # 8000031a <reset_vector+0x1f4>
80000310:	c10c                	sw	a1,0(a0)
80000312:	0055232f          	amoadd.w	t1,t0,(a0)
80000316:	000302e7          	jalr	t0,t1
8000031a:	00000597          	auipc	a1,0x0
8000031e:	01658593          	addi	a1,a1,22 # 80000330 <reset_vector+0x20a>
80000322:	c10c                	sw	a1,0(a0)
80000324:	0055232f          	amoadd.w	t1,t0,(a0)
80000328:	000302e7          	jalr	t0,t1
8000032c:	10500073          	wfi
80000330:	00000597          	auipc	a1,0x0
80000334:	01258593          	addi	a1,a1,18 # 80000342 <reset_vector+0x21c>
80000338:	c10c                	sw	a1,0(a0)
8000033a:	0055232f          	amoadd.w	t1,t0,(a0)
8000033e:	000302e7          	jalr	t0,t1
80000342:	00000597          	auipc	a1,0x0
80000346:	01258593          	addi	a1,a1,18 # 80000354 <reset_vector+0x22e>
8000034a:	c10c                	sw	a1,0(a0)
8000034c:	0055232f          	amoadd.w	t1,t0,(a0)
80000350:	000302e7          	jalr	t0,t1
80000354:	00000597          	auipc	a1,0x0
80000358:	01258593          	addi	a1,a1,18 # 80000366 <reset_vector+0x240>
8000035c:	c10c                	sw	a1,0(a0)
8000035e:	0055232f          	amoadd.w	t1,t0,(a0)
80000362:	000302e7          	jalr	t0,t1
80000366:	00000597          	auipc	a1,0x0
8000036a:	01658593          	addi	a1,a1,22 # 8000037c <reset_vector+0x256>
8000036e:	10500073          	wfi
80000372:	c10c                	sw	a1,0(a0)
80000374:	0055232f          	amoadd.w	t1,t0,(a0)
80000378:	000302e7          	jalr	t0,t1
8000037c:	00000597          	auipc	a1,0x0
80000380:	01258593          	addi	a1,a1,18 # 8000038e <reset_vector+0x268>
80000384:	c10c                	sw	a1,0(a0)
80000386:	0055232f          	amoadd.w	t1,t0,(a0)
8000038a:	000302e7          	jalr	t0,t1
8000038e:	00000597          	auipc	a1,0x0
80000392:	01258593          	addi	a1,a1,18 # 800003a0 <reset_vector+0x27a>
80000396:	c10c                	sw	a1,0(a0)
80000398:	0055232f          	amoadd.w	t1,t0,(a0)
8000039c:	000302e7          	jalr	t0,t1
800003a0:	00000597          	auipc	a1,0x0
800003a4:	01658593          	addi	a1,a1,22 # 800003b6 <reset_vector+0x290>
800003a8:	c10c                	sw	a1,0(a0)
800003aa:	0055232f          	amoadd.w	t1,t0,(a0)
800003ae:	10500073          	wfi
800003b2:	000302e7          	jalr	t0,t1
800003b6:	00000597          	auipc	a1,0x0
800003ba:	01258593          	addi	a1,a1,18 # 800003c8 <reset_vector+0x2a2>
800003be:	c10c                	sw	a1,0(a0)
800003c0:	0055232f          	amoadd.w	t1,t0,(a0)
800003c4:	000302e7          	jalr	t0,t1
800003c8:	00000597          	auipc	a1,0x0
800003cc:	01a58593          	addi	a1,a1,26 # 800003e2 <reset_vector+0x2bc>
800003d0:	c10c                	sw	a1,0(a0)
800003d2:	10500073          	wfi
800003d6:	0055232f          	amoadd.w	t1,t0,(a0)
800003da:	10500073          	wfi
800003de:	000302e7          	jalr	t0,t1
800003e2:	00000597          	auipc	a1,0x0
800003e6:	01a58593          	addi	a1,a1,26 # 800003fc <reset_vector+0x2d6>
800003ea:	10500073          	wfi
800003ee:	c10c                	sw	a1,0(a0)
800003f0:	0055232f          	amoadd.w	t1,t0,(a0)
800003f4:	10500073          	wfi
800003f8:	000302e7          	jalr	t0,t1
800003fc:	10500073          	wfi
80000400:	00000597          	auipc	a1,0x0
80000404:	01258593          	addi	a1,a1,18 # 80000412 <reset_vector+0x2ec>
80000408:	c10c                	sw	a1,0(a0)
8000040a:	0055232f          	amoadd.w	t1,t0,(a0)
8000040e:	000302e7          	jalr	t0,t1
80000412:	10500073          	wfi
80000416:	00000597          	auipc	a1,0x0
8000041a:	01258593          	addi	a1,a1,18 # 80000428 <reset_vector+0x302>
8000041e:	c10c                	sw	a1,0(a0)
80000420:	0055232f          	amoadd.w	t1,t0,(a0)
80000424:	000302e7          	jalr	t0,t1
80000428:	00000597          	auipc	a1,0x0
8000042c:	01658593          	addi	a1,a1,22 # 8000043e <reset_vector+0x318>
80000430:	10500073          	wfi
80000434:	c10c                	sw	a1,0(a0)
80000436:	0055232f          	amoadd.w	t1,t0,(a0)
8000043a:	000302e7          	jalr	t0,t1
8000043e:	10500073          	wfi
80000442:	00000597          	auipc	a1,0x0
80000446:	01258593          	addi	a1,a1,18 # 80000454 <reset_vector+0x32e>
8000044a:	c10c                	sw	a1,0(a0)
8000044c:	0055232f          	amoadd.w	t1,t0,(a0)
80000450:	000302e7          	jalr	t0,t1
80000454:	10500073          	wfi
80000458:	00000597          	auipc	a1,0x0
8000045c:	01258593          	addi	a1,a1,18 # 8000046a <reset_vector+0x344>
80000460:	c10c                	sw	a1,0(a0)
80000462:	0055232f          	amoadd.w	t1,t0,(a0)
80000466:	000302e7          	jalr	t0,t1
8000046a:	10500073          	wfi
8000046e:	00000597          	auipc	a1,0x0
80000472:	01658593          	addi	a1,a1,22 # 80000484 <reset_vector+0x35e>
80000476:	c10c                	sw	a1,0(a0)
80000478:	10500073          	wfi
8000047c:	0055232f          	amoadd.w	t1,t0,(a0)
80000480:	000302e7          	jalr	t0,t1
80000484:	00000597          	auipc	a1,0x0
80000488:	01658593          	addi	a1,a1,22 # 8000049a <reset_vector+0x374>
8000048c:	c10c                	sw	a1,0(a0)
8000048e:	10500073          	wfi
80000492:	0055232f          	amoadd.w	t1,t0,(a0)
80000496:	000302e7          	jalr	t0,t1
8000049a:	00000597          	auipc	a1,0x0
8000049e:	01658593          	addi	a1,a1,22 # 800004b0 <reset_vector+0x38a>
800004a2:	c10c                	sw	a1,0(a0)
800004a4:	0055232f          	amoadd.w	t1,t0,(a0)
800004a8:	10500073          	wfi
800004ac:	000302e7          	jalr	t0,t1
800004b0:	00000597          	auipc	a1,0x0
800004b4:	01658593          	addi	a1,a1,22 # 800004c6 <reset_vector+0x3a0>
800004b8:	c10c                	sw	a1,0(a0)
800004ba:	10500073          	wfi
800004be:	0055232f          	amoadd.w	t1,t0,(a0)
800004c2:	000302e7          	jalr	t0,t1
800004c6:	00000597          	auipc	a1,0x0
800004ca:	01258593          	addi	a1,a1,18 # 800004d8 <reset_vector+0x3b2>
800004ce:	c10c                	sw	a1,0(a0)
800004d0:	0055232f          	amoadd.w	t1,t0,(a0)
800004d4:	000302e7          	jalr	t0,t1
800004d8:	00000597          	auipc	a1,0x0
800004dc:	01258593          	addi	a1,a1,18 # 800004ea <reset_vector+0x3c4>
800004e0:	c10c                	sw	a1,0(a0)
800004e2:	0055232f          	amoadd.w	t1,t0,(a0)
800004e6:	000302e7          	jalr	t0,t1
800004ea:	00000597          	auipc	a1,0x0
800004ee:	01258593          	addi	a1,a1,18 # 800004fc <reset_vector+0x3d6>
800004f2:	c10c                	sw	a1,0(a0)
800004f4:	0055232f          	amoadd.w	t1,t0,(a0)
800004f8:	000302e7          	jalr	t0,t1
800004fc:	00000597          	auipc	a1,0x0
80000500:	01258593          	addi	a1,a1,18 # 8000050e <reset_vector+0x3e8>
80000504:	c10c                	sw	a1,0(a0)
80000506:	0055232f          	amoadd.w	t1,t0,(a0)
8000050a:	000302e7          	jalr	t0,t1
8000050e:	00000597          	auipc	a1,0x0
80000512:	01258593          	addi	a1,a1,18 # 80000520 <reset_vector+0x3fa>
80000516:	c10c                	sw	a1,0(a0)
80000518:	0055232f          	amoadd.w	t1,t0,(a0)
8000051c:	000302e7          	jalr	t0,t1
80000520:	00000597          	auipc	a1,0x0
80000524:	01258593          	addi	a1,a1,18 # 80000532 <reset_vector+0x40c>
80000528:	c10c                	sw	a1,0(a0)
8000052a:	0055232f          	amoadd.w	t1,t0,(a0)
8000052e:	000302e7          	jalr	t0,t1
80000532:	00000597          	auipc	a1,0x0
80000536:	01258593          	addi	a1,a1,18 # 80000544 <reset_vector+0x41e>
8000053a:	c10c                	sw	a1,0(a0)
8000053c:	0055232f          	amoadd.w	t1,t0,(a0)
80000540:	000302e7          	jalr	t0,t1
80000544:	00000597          	auipc	a1,0x0
80000548:	01258593          	addi	a1,a1,18 # 80000556 <reset_vector+0x430>
8000054c:	c10c                	sw	a1,0(a0)
8000054e:	0055232f          	amoadd.w	t1,t0,(a0)
80000552:	000302e7          	jalr	t0,t1
80000556:	00000597          	auipc	a1,0x0
8000055a:	01258593          	addi	a1,a1,18 # 80000568 <reset_vector+0x442>
8000055e:	c10c                	sw	a1,0(a0)
80000560:	0055232f          	amoadd.w	t1,t0,(a0)
80000564:	000302e7          	jalr	t0,t1
80000568:	00000597          	auipc	a1,0x0
8000056c:	01258593          	addi	a1,a1,18 # 8000057a <reset_vector+0x454>
80000570:	c10c                	sw	a1,0(a0)
80000572:	0055232f          	amoadd.w	t1,t0,(a0)
80000576:	000302e7          	jalr	t0,t1
8000057a:	00000597          	auipc	a1,0x0
8000057e:	01258593          	addi	a1,a1,18 # 8000058c <reset_vector+0x466>
80000582:	c10c                	sw	a1,0(a0)
80000584:	0055232f          	amoadd.w	t1,t0,(a0)
80000588:	000302e7          	jalr	t0,t1
8000058c:	00000597          	auipc	a1,0x0
80000590:	01258593          	addi	a1,a1,18 # 8000059e <reset_vector+0x478>
80000594:	c10c                	sw	a1,0(a0)
80000596:	0055232f          	amoadd.w	t1,t0,(a0)
8000059a:	000302e7          	jalr	t0,t1
8000059e:	00000597          	auipc	a1,0x0
800005a2:	01258593          	addi	a1,a1,18 # 800005b0 <reset_vector+0x48a>
800005a6:	c10c                	sw	a1,0(a0)
800005a8:	0055232f          	amoadd.w	t1,t0,(a0)
800005ac:	000302e7          	jalr	t0,t1
800005b0:	00000597          	auipc	a1,0x0
800005b4:	01258593          	addi	a1,a1,18 # 800005c2 <reset_vector+0x49c>
800005b8:	c10c                	sw	a1,0(a0)
800005ba:	0055232f          	amoadd.w	t1,t0,(a0)
800005be:	000302e7          	jalr	t0,t1
800005c2:	00000597          	auipc	a1,0x0
800005c6:	01658593          	addi	a1,a1,22 # 800005d8 <reset_vector+0x4b2>
800005ca:	c10c                	sw	a1,0(a0)
800005cc:	10500073          	wfi
800005d0:	0055232f          	amoadd.w	t1,t0,(a0)
800005d4:	000302e7          	jalr	t0,t1
800005d8:	10500073          	wfi
800005dc:	00000597          	auipc	a1,0x0
800005e0:	01258593          	addi	a1,a1,18 # 800005ee <reset_vector+0x4c8>
800005e4:	c10c                	sw	a1,0(a0)
800005e6:	0055232f          	amoadd.w	t1,t0,(a0)
800005ea:	000302e7          	jalr	t0,t1
800005ee:	10500073          	wfi
800005f2:	0055232f          	amoadd.w	t1,t0,(a0)
800005f6:	10500073          	wfi
800005fa:	0055232f          	amoadd.w	t1,t0,(a0)
800005fe:	10500073          	wfi
80000602:	0055232f          	amoadd.w	t1,t0,(a0)
80000606:	10500073          	wfi
8000060a:	0055232f          	amoadd.w	t1,t0,(a0)
8000060e:	10500073          	wfi
80000612:	0055232f          	amoadd.w	t1,t0,(a0)
80000616:	10500073          	wfi
8000061a:	0055232f          	amoadd.w	t1,t0,(a0)
8000061e:	10500073          	wfi
80000622:	0055232f          	amoadd.w	t1,t0,(a0)
80000626:	10500073          	wfi
8000062a:	0055232f          	amoadd.w	t1,t0,(a0)
8000062e:	10500073          	wfi
80000632:	0055232f          	amoadd.w	t1,t0,(a0)
80000636:	10500073          	wfi
8000063a:	0055232f          	amoadd.w	t1,t0,(a0)
8000063e:	10500073          	wfi
80000642:	0055232f          	amoadd.w	t1,t0,(a0)
80000646:	10500073          	wfi
8000064a:	0055232f          	amoadd.w	t1,t0,(a0)
8000064e:	10500073          	wfi
80000652:	0055232f          	amoadd.w	t1,t0,(a0)
80000656:	10500073          	wfi
8000065a:	0055232f          	amoadd.w	t1,t0,(a0)
8000065e:	10500073          	wfi
80000662:	0055232f          	amoadd.w	t1,t0,(a0)
80000666:	10500073          	wfi
8000066a:	0055232f          	amoadd.w	t1,t0,(a0)
8000066e:	10500073          	wfi
80000672:	0055232f          	amoadd.w	t1,t0,(a0)
80000676:	10500073          	wfi
8000067a:	0055232f          	amoadd.w	t1,t0,(a0)
8000067e:	10500073          	wfi
80000682:	0055232f          	amoadd.w	t1,t0,(a0)
80000686:	10500073          	wfi
8000068a:	0055232f          	amoadd.w	t1,t0,(a0)
8000068e:	10500073          	wfi
80000692:	0055232f          	amoadd.w	t1,t0,(a0)
80000696:	10500073          	wfi
8000069a:	0055232f          	amoadd.w	t1,t0,(a0)
8000069e:	10500073          	wfi
800006a2:	0055232f          	amoadd.w	t1,t0,(a0)
800006a6:	10500073          	wfi
800006aa:	0055232f          	amoadd.w	t1,t0,(a0)
800006ae:	10500073          	wfi
800006b2:	0055232f          	amoadd.w	t1,t0,(a0)
800006b6:	10500073          	wfi
800006ba:	0055232f          	amoadd.w	t1,t0,(a0)
800006be:	10500073          	wfi
800006c2:	0055232f          	amoadd.w	t1,t0,(a0)
800006c6:	10500073          	wfi
800006ca:	0055232f          	amoadd.w	t1,t0,(a0)
800006ce:	10500073          	wfi
800006d2:	0055232f          	amoadd.w	t1,t0,(a0)
800006d6:	10500073          	wfi
800006da:	0055232f          	amoadd.w	t1,t0,(a0)
800006de:	10500073          	wfi
800006e2:	0055232f          	amoadd.w	t1,t0,(a0)
800006e6:	10500073          	wfi
800006ea:	0055232f          	amoadd.w	t1,t0,(a0)
800006ee:	10500073          	wfi
800006f2:	0055232f          	amoadd.w	t1,t0,(a0)
800006f6:	10500073          	wfi
800006fa:	0055232f          	amoadd.w	t1,t0,(a0)
800006fe:	00000317          	auipc	t1,0x0
80000702:	01630313          	addi	t1,t1,22 # 80000714 <reset_vector+0x5ee>
80000706:	4285                	li	t0,1
80000708:	10500073          	wfi
8000070c:	02530333          	mul	t1,t1,t0
80000710:	000302e7          	jalr	t0,t1
80000714:	00000317          	auipc	t1,0x0
80000718:	01230313          	addi	t1,t1,18 # 80000726 <reset_vector+0x600>
8000071c:	4285                	li	t0,1
8000071e:	02534333          	div	t1,t1,t0
80000722:	000302e7          	jalr	t0,t1
80000726:	10500073          	wfi
8000072a:	00000317          	auipc	t1,0x0
8000072e:	01230313          	addi	t1,t1,18 # 8000073c <reset_vector+0x616>
80000732:	4285                	li	t0,1
80000734:	02530333          	mul	t1,t1,t0
80000738:	000302e7          	jalr	t0,t1
8000073c:	00000317          	auipc	t1,0x0
80000740:	01630313          	addi	t1,t1,22 # 80000752 <reset_vector+0x62c>
80000744:	4285                	li	t0,1
80000746:	10500073          	wfi
8000074a:	02534333          	div	t1,t1,t0
8000074e:	000302e7          	jalr	t0,t1
80000752:	00000317          	auipc	t1,0x0
80000756:	01230313          	addi	t1,t1,18 # 80000764 <reset_vector+0x63e>
8000075a:	4285                	li	t0,1
8000075c:	02530333          	mul	t1,t1,t0
80000760:	000302e7          	jalr	t0,t1
80000764:	00000317          	auipc	t1,0x0
80000768:	01230313          	addi	t1,t1,18 # 80000776 <reset_vector+0x650>
8000076c:	4285                	li	t0,1
8000076e:	02534333          	div	t1,t1,t0
80000772:	000302e7          	jalr	t0,t1
80000776:	00000317          	auipc	t1,0x0
8000077a:	01630313          	addi	t1,t1,22 # 8000078c <reset_vector+0x666>
8000077e:	10500073          	wfi
80000782:	4285                	li	t0,1
80000784:	02530333          	mul	t1,t1,t0
80000788:	000302e7          	jalr	t0,t1
8000078c:	10500073          	wfi
80000790:	00000317          	auipc	t1,0x0
80000794:	01230313          	addi	t1,t1,18 # 800007a2 <reset_vector+0x67c>
80000798:	4285                	li	t0,1
8000079a:	02534333          	div	t1,t1,t0
8000079e:	000302e7          	jalr	t0,t1
800007a2:	4185                	li	gp,1
800007a4:	00301b63          	bne	zero,gp,800007ba <pass>

800007a8 <fail>:
800007a8:	0ff0000f          	fence
800007ac:	00018063          	beqz	gp,800007ac <fail+0x4>
800007b0:	0186                	slli	gp,gp,0x1
800007b2:	0011e193          	ori	gp,gp,1
800007b6:	00000073          	ecall

800007ba <pass>:
800007ba:	0ff0000f          	fence
800007be:	4185                	li	gp,1
800007c0:	00000073          	ecall
	...

Disassembly of section .tohost:

80001000 <tohost>:
	...

80001040 <fromhost>:
	...

Disassembly of section .data:

80002000 <test_trap_data>:
	...

80002008 <test_bpu_wait_data>:
	...

80002010 <begin_signature>:
80002010:	0000                	unimp
	...

80002014 <data2>:
	...
