
rv32ui-p-sw:     file format elf32-littleriscv


Disassembly of section .text.init:

80000000 <_start>:
80000000:	a21d                	j	80000126 <reset_vector>
80000002:	0001                	nop

80000004 <trap_vector>:
80000004:	34051073          	csrw	mscratch,a0
80000008:	00002517          	auipc	a0,0x2
8000000c:	ff850513          	addi	a0,a0,-8 # 80002000 <test_trap_data>
80000010:	01e52023          	sw	t5,0(a0)
80000014:	01f52223          	sw	t6,4(a0)
80000018:	34202f73          	csrr	t5,mcause
8000001c:	040f4163          	bltz	t5,8000005e <other_interrupts>
80000020:	4fa1                	li	t6,8
80000022:	07ff0263          	beq	t5,t6,80000086 <write_tohost>
80000026:	4fa5                	li	t6,9
80000028:	05ff0f63          	beq	t5,t6,80000086 <write_tohost>
8000002c:	4fad                	li	t6,11
8000002e:	05ff0c63          	beq	t5,t6,80000086 <write_tohost>
80000032:	4f85                	li	t6,1
80000034:	0bff0563          	beq	t5,t6,800000de <ifetch_error_handler>
80000038:	4f95                	li	t6,5
8000003a:	0bff0e63          	beq	t5,t6,800000f6 <load_error_handler>
8000003e:	4f9d                	li	t6,7
80000040:	0dff0763          	beq	t5,t6,8000010e <store_error_handler>
80000044:	80000f17          	auipc	t5,0x80000
80000048:	fbcf0f13          	addi	t5,t5,-68 # 0 <_start-0x80000000>
8000004c:	000f0363          	beqz	t5,80000052 <trap_vector+0x4e>
80000050:	8f02                	jr	t5
80000052:	34202f73          	csrr	t5,mcause
80000056:	000f5363          	bgez	t5,8000005c <handle_exception>
8000005a:	a009                	j	8000005c <handle_exception>

8000005c <handle_exception>:
8000005c:	a01d                	j	80000082 <other_interrupts+0x24>

8000005e <other_interrupts>:
8000005e:	80000fb7          	lui	t6,0x80000
80000062:	003f8f93          	addi	t6,t6,3 # 80000003 <_end+0xffffdfc3>
80000066:	05ff0463          	beq	t5,t6,800000ae <sft_irq_handler>
8000006a:	80000fb7          	lui	t6,0x80000
8000006e:	007f8f93          	addi	t6,t6,7 # 80000007 <_end+0xffffdfc7>
80000072:	05ff0a63          	beq	t5,t6,800000c6 <tmr_irq_handler>
80000076:	80000fb7          	lui	t6,0x80000
8000007a:	00bf8f93          	addi	t6,t6,11 # 8000000b <_end+0xffffdfcb>
8000007e:	01ff0c63          	beq	t5,t6,80000096 <ext_irq_handler>
80000082:	5391e193          	ori	gp,gp,1337

80000086 <write_tohost>:
80000086:	4521                	li	a0,8
80000088:	30052073          	csrs	mstatus,a0
8000008c:	00001f17          	auipc	t5,0x1
80000090:	f63f2a23          	sw	gp,-140(t5) # 80001000 <tohost>
80000094:	bfcd                	j	80000086 <write_tohost>

80000096 <ext_irq_handler>:
80000096:	00002517          	auipc	a0,0x2
8000009a:	f6a50513          	addi	a0,a0,-150 # 80002000 <test_trap_data>
8000009e:	00052f03          	lw	t5,0(a0)
800000a2:	00452f83          	lw	t6,4(a0)
800000a6:	34002573          	csrr	a0,mscratch
800000aa:	30200073          	mret

800000ae <sft_irq_handler>:
800000ae:	00002517          	auipc	a0,0x2
800000b2:	f5250513          	addi	a0,a0,-174 # 80002000 <test_trap_data>
800000b6:	00052f03          	lw	t5,0(a0)
800000ba:	00452f83          	lw	t6,4(a0)
800000be:	34002573          	csrr	a0,mscratch
800000c2:	30200073          	mret

800000c6 <tmr_irq_handler>:
800000c6:	00002517          	auipc	a0,0x2
800000ca:	f3a50513          	addi	a0,a0,-198 # 80002000 <test_trap_data>
800000ce:	00052f03          	lw	t5,0(a0)
800000d2:	00452f83          	lw	t6,4(a0)
800000d6:	34002573          	csrr	a0,mscratch
800000da:	30200073          	mret

800000de <ifetch_error_handler>:
800000de:	00002517          	auipc	a0,0x2
800000e2:	f2250513          	addi	a0,a0,-222 # 80002000 <test_trap_data>
800000e6:	00052f03          	lw	t5,0(a0)
800000ea:	00452f83          	lw	t6,4(a0)
800000ee:	34002573          	csrr	a0,mscratch
800000f2:	30200073          	mret

800000f6 <load_error_handler>:
800000f6:	00002517          	auipc	a0,0x2
800000fa:	f0a50513          	addi	a0,a0,-246 # 80002000 <test_trap_data>
800000fe:	00052f03          	lw	t5,0(a0)
80000102:	00452f83          	lw	t6,4(a0)
80000106:	34002573          	csrr	a0,mscratch
8000010a:	30200073          	mret

8000010e <store_error_handler>:
8000010e:	00002517          	auipc	a0,0x2
80000112:	ef250513          	addi	a0,a0,-270 # 80002000 <test_trap_data>
80000116:	00052f03          	lw	t5,0(a0)
8000011a:	00452f83          	lw	t6,4(a0)
8000011e:	34002573          	csrr	a0,mscratch
80000122:	30200073          	mret

80000126 <reset_vector>:
80000126:	f1402573          	csrr	a0,mhartid
8000012a:	e101                	bnez	a0,8000012a <reset_vector+0x4>
8000012c:	4181                	li	gp,0
8000012e:	00000297          	auipc	t0,0x0
80000132:	ed628293          	addi	t0,t0,-298 # 80000004 <trap_vector>
80000136:	4521                	li	a0,8
80000138:	30052073          	csrs	mstatus,a0
8000013c:	fff00513          	li	a0,-1
80000140:	30452073          	csrs	mie,a0
80000144:	30529073          	csrw	mtvec,t0
80000148:	80000297          	auipc	t0,0x80000
8000014c:	eb828293          	addi	t0,t0,-328 # 0 <_start-0x80000000>
80000150:	00028e63          	beqz	t0,8000016c <reset_vector+0x46>
80000154:	10529073          	csrw	stvec,t0
80000158:	0000b2b7          	lui	t0,0xb
8000015c:	10928293          	addi	t0,t0,265 # b109 <_start-0x7fff4ef7>
80000160:	30229073          	csrw	medeleg,t0
80000164:	30202373          	csrr	t1,medeleg
80000168:	ee629ae3          	bne	t0,t1,8000005c <handle_exception>
8000016c:	30005073          	csrwi	mstatus,0
80000170:	08000513          	li	a0,128
80000174:	30052073          	csrs	mstatus,a0
80000178:	00000297          	auipc	t0,0x0
8000017c:	01428293          	addi	t0,t0,20 # 8000018c <test_2>
80000180:	34129073          	csrw	mepc,t0
80000184:	f1402573          	csrr	a0,mhartid
80000188:	30200073          	mret

8000018c <test_2>:
8000018c:	00002097          	auipc	ra,0x2
80000190:	e8408093          	addi	ra,ra,-380 # 80002010 <begin_signature>
80000194:	00aa0137          	lui	sp,0xaa0
80000198:	0aa10113          	addi	sp,sp,170 # aa00aa <_start-0x7f55ff56>
8000019c:	0020a023          	sw	sp,0(ra)
800001a0:	0000af03          	lw	t5,0(ra)
800001a4:	00aa0eb7          	lui	t4,0xaa0
800001a8:	0aae8e93          	addi	t4,t4,170 # aa00aa <_start-0x7f55ff56>
800001ac:	4189                	li	gp,2
800001ae:	39df1e63          	bne	t5,t4,8000054a <fail>

800001b2 <test_3>:
800001b2:	00002097          	auipc	ra,0x2
800001b6:	e5e08093          	addi	ra,ra,-418 # 80002010 <begin_signature>
800001ba:	aa00b137          	lui	sp,0xaa00b
800001be:	a0010113          	addi	sp,sp,-1536 # aa00aa00 <_end+0x2a0089c0>
800001c2:	0020a223          	sw	sp,4(ra)
800001c6:	0040af03          	lw	t5,4(ra)
800001ca:	aa00beb7          	lui	t4,0xaa00b
800001ce:	a00e8e93          	addi	t4,t4,-1536 # aa00aa00 <_end+0x2a0089c0>
800001d2:	418d                	li	gp,3
800001d4:	37df1b63          	bne	t5,t4,8000054a <fail>

800001d8 <test_4>:
800001d8:	00002097          	auipc	ra,0x2
800001dc:	e3808093          	addi	ra,ra,-456 # 80002010 <begin_signature>
800001e0:	0aa01137          	lui	sp,0xaa01
800001e4:	aa010113          	addi	sp,sp,-1376 # aa00aa0 <_start-0x755ff560>
800001e8:	0020a423          	sw	sp,8(ra)
800001ec:	0080af03          	lw	t5,8(ra)
800001f0:	0aa01eb7          	lui	t4,0xaa01
800001f4:	aa0e8e93          	addi	t4,t4,-1376 # aa00aa0 <_start-0x755ff560>
800001f8:	4191                	li	gp,4
800001fa:	35df1863          	bne	t5,t4,8000054a <fail>

800001fe <test_5>:
800001fe:	00002097          	auipc	ra,0x2
80000202:	e1208093          	addi	ra,ra,-494 # 80002010 <begin_signature>
80000206:	a00aa137          	lui	sp,0xa00aa
8000020a:	00a10113          	addi	sp,sp,10 # a00aa00a <_end+0x200a7fca>
8000020e:	0020a623          	sw	sp,12(ra)
80000212:	00c0af03          	lw	t5,12(ra)
80000216:	a00aaeb7          	lui	t4,0xa00aa
8000021a:	00ae8e93          	addi	t4,t4,10 # a00aa00a <_end+0x200a7fca>
8000021e:	4195                	li	gp,5
80000220:	33df1563          	bne	t5,t4,8000054a <fail>

80000224 <test_6>:
80000224:	00002097          	auipc	ra,0x2
80000228:	e0808093          	addi	ra,ra,-504 # 8000202c <tdat8>
8000022c:	00aa0137          	lui	sp,0xaa0
80000230:	0aa10113          	addi	sp,sp,170 # aa00aa <_start-0x7f55ff56>
80000234:	fe20aa23          	sw	sp,-12(ra)
80000238:	ff40af03          	lw	t5,-12(ra)
8000023c:	00aa0eb7          	lui	t4,0xaa0
80000240:	0aae8e93          	addi	t4,t4,170 # aa00aa <_start-0x7f55ff56>
80000244:	4199                	li	gp,6
80000246:	31df1263          	bne	t5,t4,8000054a <fail>

8000024a <test_7>:
8000024a:	00002097          	auipc	ra,0x2
8000024e:	de208093          	addi	ra,ra,-542 # 8000202c <tdat8>
80000252:	aa00b137          	lui	sp,0xaa00b
80000256:	a0010113          	addi	sp,sp,-1536 # aa00aa00 <_end+0x2a0089c0>
8000025a:	fe20ac23          	sw	sp,-8(ra)
8000025e:	ff80af03          	lw	t5,-8(ra)
80000262:	aa00beb7          	lui	t4,0xaa00b
80000266:	a00e8e93          	addi	t4,t4,-1536 # aa00aa00 <_end+0x2a0089c0>
8000026a:	419d                	li	gp,7
8000026c:	2ddf1f63          	bne	t5,t4,8000054a <fail>

80000270 <test_8>:
80000270:	00002097          	auipc	ra,0x2
80000274:	dbc08093          	addi	ra,ra,-580 # 8000202c <tdat8>
80000278:	0aa01137          	lui	sp,0xaa01
8000027c:	aa010113          	addi	sp,sp,-1376 # aa00aa0 <_start-0x755ff560>
80000280:	fe20ae23          	sw	sp,-4(ra)
80000284:	ffc0af03          	lw	t5,-4(ra)
80000288:	0aa01eb7          	lui	t4,0xaa01
8000028c:	aa0e8e93          	addi	t4,t4,-1376 # aa00aa0 <_start-0x755ff560>
80000290:	41a1                	li	gp,8
80000292:	2bdf1c63          	bne	t5,t4,8000054a <fail>

80000296 <test_9>:
80000296:	00002097          	auipc	ra,0x2
8000029a:	d9608093          	addi	ra,ra,-618 # 8000202c <tdat8>
8000029e:	a00aa137          	lui	sp,0xa00aa
800002a2:	00a10113          	addi	sp,sp,10 # a00aa00a <_end+0x200a7fca>
800002a6:	0020a023          	sw	sp,0(ra)
800002aa:	0000af03          	lw	t5,0(ra)
800002ae:	a00aaeb7          	lui	t4,0xa00aa
800002b2:	00ae8e93          	addi	t4,t4,10 # a00aa00a <_end+0x200a7fca>
800002b6:	41a5                	li	gp,9
800002b8:	29df1963          	bne	t5,t4,8000054a <fail>

800002bc <test_10>:
800002bc:	00002097          	auipc	ra,0x2
800002c0:	d7408093          	addi	ra,ra,-652 # 80002030 <tdat9>
800002c4:	12345137          	lui	sp,0x12345
800002c8:	67810113          	addi	sp,sp,1656 # 12345678 <_start-0x6dcba988>
800002cc:	fe008213          	addi	tp,ra,-32
800002d0:	02222023          	sw	sp,32(tp) # 20 <_start-0x7fffffe0>
800002d4:	0000a283          	lw	t0,0(ra)
800002d8:	12345eb7          	lui	t4,0x12345
800002dc:	678e8e93          	addi	t4,t4,1656 # 12345678 <_start-0x6dcba988>
800002e0:	41a9                	li	gp,10
800002e2:	27d29463          	bne	t0,t4,8000054a <fail>

800002e6 <test_11>:
800002e6:	00002097          	auipc	ra,0x2
800002ea:	d4a08093          	addi	ra,ra,-694 # 80002030 <tdat9>
800002ee:	58213137          	lui	sp,0x58213
800002f2:	09810113          	addi	sp,sp,152 # 58213098 <_start-0x27decf68>
800002f6:	10f5                	addi	ra,ra,-3
800002f8:	0020a3a3          	sw	sp,7(ra)
800002fc:	00002217          	auipc	tp,0x2
80000300:	d3820213          	addi	tp,tp,-712 # 80002034 <tdat10>
80000304:	00022283          	lw	t0,0(tp) # 0 <_start-0x80000000>
80000308:	58213eb7          	lui	t4,0x58213
8000030c:	098e8e93          	addi	t4,t4,152 # 58213098 <_start-0x27decf68>
80000310:	41ad                	li	gp,11
80000312:	23d29c63          	bne	t0,t4,8000054a <fail>

80000316 <test_12>:
80000316:	41b1                	li	gp,12
80000318:	4201                	li	tp,0
8000031a:	aabbd0b7          	lui	ra,0xaabbd
8000031e:	cdd08093          	addi	ra,ra,-803 # aabbccdd <_end+0x2abbac9d>
80000322:	00002117          	auipc	sp,0x2
80000326:	cee10113          	addi	sp,sp,-786 # 80002010 <begin_signature>
8000032a:	c006                	sw	ra,0(sp)
8000032c:	4f02                	lw	t5,0(sp)
8000032e:	aabbdeb7          	lui	t4,0xaabbd
80000332:	cdde8e93          	addi	t4,t4,-803 # aabbccdd <_end+0x2abbac9d>
80000336:	21df1a63          	bne	t5,t4,8000054a <fail>
8000033a:	0205                	addi	tp,tp,1
8000033c:	4289                	li	t0,2
8000033e:	fc521ee3          	bne	tp,t0,8000031a <test_12+0x4>

80000342 <test_13>:
80000342:	41b5                	li	gp,13
80000344:	4201                	li	tp,0
80000346:	daabc0b7          	lui	ra,0xdaabc
8000034a:	ccd08093          	addi	ra,ra,-819 # daabbccd <_end+0x5aab9c8d>
8000034e:	00002117          	auipc	sp,0x2
80000352:	cc210113          	addi	sp,sp,-830 # 80002010 <begin_signature>
80000356:	0001                	nop
80000358:	c206                	sw	ra,4(sp)
8000035a:	4f12                	lw	t5,4(sp)
8000035c:	daabceb7          	lui	t4,0xdaabc
80000360:	ccde8e93          	addi	t4,t4,-819 # daabbccd <_end+0x5aab9c8d>
80000364:	1fdf1363          	bne	t5,t4,8000054a <fail>
80000368:	0205                	addi	tp,tp,1
8000036a:	4289                	li	t0,2
8000036c:	fc521de3          	bne	tp,t0,80000346 <test_13+0x4>

80000370 <test_14>:
80000370:	41b9                	li	gp,14
80000372:	4201                	li	tp,0
80000374:	ddaac0b7          	lui	ra,0xddaac
80000378:	bcc08093          	addi	ra,ra,-1076 # ddaabbcc <_end+0x5daa9b8c>
8000037c:	00002117          	auipc	sp,0x2
80000380:	c9410113          	addi	sp,sp,-876 # 80002010 <begin_signature>
80000384:	0001                	nop
80000386:	0001                	nop
80000388:	c406                	sw	ra,8(sp)
8000038a:	4f22                	lw	t5,8(sp)
8000038c:	ddaaceb7          	lui	t4,0xddaac
80000390:	bcce8e93          	addi	t4,t4,-1076 # ddaabbcc <_end+0x5daa9b8c>
80000394:	1bdf1b63          	bne	t5,t4,8000054a <fail>
80000398:	0205                	addi	tp,tp,1
8000039a:	4289                	li	t0,2
8000039c:	fc521ce3          	bne	tp,t0,80000374 <test_14+0x4>

800003a0 <test_15>:
800003a0:	41bd                	li	gp,15
800003a2:	4201                	li	tp,0
800003a4:	cddab0b7          	lui	ra,0xcddab
800003a8:	bbc08093          	addi	ra,ra,-1092 # cddaabbc <_end+0x4dda8b7c>
800003ac:	0001                	nop
800003ae:	00002117          	auipc	sp,0x2
800003b2:	c6210113          	addi	sp,sp,-926 # 80002010 <begin_signature>
800003b6:	c606                	sw	ra,12(sp)
800003b8:	4f32                	lw	t5,12(sp)
800003ba:	cddabeb7          	lui	t4,0xcddab
800003be:	bbce8e93          	addi	t4,t4,-1092 # cddaabbc <_end+0x4dda8b7c>
800003c2:	19df1463          	bne	t5,t4,8000054a <fail>
800003c6:	0205                	addi	tp,tp,1
800003c8:	4289                	li	t0,2
800003ca:	fc521de3          	bne	tp,t0,800003a4 <test_15+0x4>

800003ce <test_16>:
800003ce:	41c1                	li	gp,16
800003d0:	4201                	li	tp,0
800003d2:	ccddb0b7          	lui	ra,0xccddb
800003d6:	abb08093          	addi	ra,ra,-1349 # ccddaabb <_end+0x4cdd8a7b>
800003da:	0001                	nop
800003dc:	00002117          	auipc	sp,0x2
800003e0:	c3410113          	addi	sp,sp,-972 # 80002010 <begin_signature>
800003e4:	0001                	nop
800003e6:	c806                	sw	ra,16(sp)
800003e8:	4f42                	lw	t5,16(sp)
800003ea:	ccddbeb7          	lui	t4,0xccddb
800003ee:	abbe8e93          	addi	t4,t4,-1349 # ccddaabb <_end+0x4cdd8a7b>
800003f2:	15df1c63          	bne	t5,t4,8000054a <fail>
800003f6:	0205                	addi	tp,tp,1
800003f8:	4289                	li	t0,2
800003fa:	fc521ce3          	bne	tp,t0,800003d2 <test_16+0x4>

800003fe <test_17>:
800003fe:	41c5                	li	gp,17
80000400:	4201                	li	tp,0
80000402:	bccde0b7          	lui	ra,0xbccde
80000406:	aab08093          	addi	ra,ra,-1365 # bccddaab <_end+0x3ccdba6b>
8000040a:	0001                	nop
8000040c:	0001                	nop
8000040e:	00002117          	auipc	sp,0x2
80000412:	c0210113          	addi	sp,sp,-1022 # 80002010 <begin_signature>
80000416:	ca06                	sw	ra,20(sp)
80000418:	4f52                	lw	t5,20(sp)
8000041a:	bccdeeb7          	lui	t4,0xbccde
8000041e:	aabe8e93          	addi	t4,t4,-1365 # bccddaab <_end+0x3ccdba6b>
80000422:	13df1463          	bne	t5,t4,8000054a <fail>
80000426:	0205                	addi	tp,tp,1
80000428:	4289                	li	t0,2
8000042a:	fc521ce3          	bne	tp,t0,80000402 <test_17+0x4>

8000042e <test_18>:
8000042e:	41c9                	li	gp,18
80000430:	4201                	li	tp,0
80000432:	00002117          	auipc	sp,0x2
80000436:	bde10113          	addi	sp,sp,-1058 # 80002010 <begin_signature>
8000043a:	001120b7          	lui	ra,0x112
8000043e:	23308093          	addi	ra,ra,563 # 112233 <_start-0x7feeddcd>
80000442:	c006                	sw	ra,0(sp)
80000444:	4f02                	lw	t5,0(sp)
80000446:	00112eb7          	lui	t4,0x112
8000044a:	233e8e93          	addi	t4,t4,563 # 112233 <_start-0x7feeddcd>
8000044e:	0fdf1e63          	bne	t5,t4,8000054a <fail>
80000452:	0205                	addi	tp,tp,1
80000454:	4289                	li	t0,2
80000456:	fc521ee3          	bne	tp,t0,80000432 <test_18+0x4>

8000045a <test_19>:
8000045a:	41cd                	li	gp,19
8000045c:	4201                	li	tp,0
8000045e:	00002117          	auipc	sp,0x2
80000462:	bb210113          	addi	sp,sp,-1102 # 80002010 <begin_signature>
80000466:	300110b7          	lui	ra,0x30011
8000046a:	22308093          	addi	ra,ra,547 # 30011223 <_start-0x4ffeeddd>
8000046e:	0001                	nop
80000470:	c206                	sw	ra,4(sp)
80000472:	4f12                	lw	t5,4(sp)
80000474:	30011eb7          	lui	t4,0x30011
80000478:	223e8e93          	addi	t4,t4,547 # 30011223 <_start-0x4ffeeddd>
8000047c:	0ddf1763          	bne	t5,t4,8000054a <fail>
80000480:	0205                	addi	tp,tp,1
80000482:	4289                	li	t0,2
80000484:	fc521de3          	bne	tp,t0,8000045e <test_19+0x4>

80000488 <test_20>:
80000488:	41d1                	li	gp,20
8000048a:	4201                	li	tp,0
8000048c:	00002117          	auipc	sp,0x2
80000490:	b8410113          	addi	sp,sp,-1148 # 80002010 <begin_signature>
80000494:	330010b7          	lui	ra,0x33001
80000498:	12208093          	addi	ra,ra,290 # 33001122 <_start-0x4cffeede>
8000049c:	0001                	nop
8000049e:	0001                	nop
800004a0:	c406                	sw	ra,8(sp)
800004a2:	4f22                	lw	t5,8(sp)
800004a4:	33001eb7          	lui	t4,0x33001
800004a8:	122e8e93          	addi	t4,t4,290 # 33001122 <_start-0x4cffeede>
800004ac:	09df1f63          	bne	t5,t4,8000054a <fail>
800004b0:	0205                	addi	tp,tp,1
800004b2:	4289                	li	t0,2
800004b4:	fc521ce3          	bne	tp,t0,8000048c <test_20+0x4>

800004b8 <test_21>:
800004b8:	41d5                	li	gp,21
800004ba:	4201                	li	tp,0
800004bc:	00002117          	auipc	sp,0x2
800004c0:	b5410113          	addi	sp,sp,-1196 # 80002010 <begin_signature>
800004c4:	0001                	nop
800004c6:	233000b7          	lui	ra,0x23300
800004ca:	11208093          	addi	ra,ra,274 # 23300112 <_start-0x5ccffeee>
800004ce:	c606                	sw	ra,12(sp)
800004d0:	4f32                	lw	t5,12(sp)
800004d2:	23300eb7          	lui	t4,0x23300
800004d6:	112e8e93          	addi	t4,t4,274 # 23300112 <_start-0x5ccffeee>
800004da:	07df1863          	bne	t5,t4,8000054a <fail>
800004de:	0205                	addi	tp,tp,1
800004e0:	4289                	li	t0,2
800004e2:	fc521de3          	bne	tp,t0,800004bc <test_21+0x4>

800004e6 <test_22>:
800004e6:	41d9                	li	gp,22
800004e8:	4201                	li	tp,0
800004ea:	00002117          	auipc	sp,0x2
800004ee:	b2610113          	addi	sp,sp,-1242 # 80002010 <begin_signature>
800004f2:	0001                	nop
800004f4:	223300b7          	lui	ra,0x22330
800004f8:	01108093          	addi	ra,ra,17 # 22330011 <_start-0x5dccffef>
800004fc:	0001                	nop
800004fe:	c806                	sw	ra,16(sp)
80000500:	4f42                	lw	t5,16(sp)
80000502:	22330eb7          	lui	t4,0x22330
80000506:	011e8e93          	addi	t4,t4,17 # 22330011 <_start-0x5dccffef>
8000050a:	05df1063          	bne	t5,t4,8000054a <fail>
8000050e:	0205                	addi	tp,tp,1
80000510:	4289                	li	t0,2
80000512:	fc521ce3          	bne	tp,t0,800004ea <test_22+0x4>

80000516 <test_23>:
80000516:	41dd                	li	gp,23
80000518:	4201                	li	tp,0
8000051a:	00002117          	auipc	sp,0x2
8000051e:	af610113          	addi	sp,sp,-1290 # 80002010 <begin_signature>
80000522:	0001                	nop
80000524:	0001                	nop
80000526:	122330b7          	lui	ra,0x12233
8000052a:	00108093          	addi	ra,ra,1 # 12233001 <_start-0x6ddccfff>
8000052e:	ca06                	sw	ra,20(sp)
80000530:	4f52                	lw	t5,20(sp)
80000532:	12233eb7          	lui	t4,0x12233
80000536:	001e8e93          	addi	t4,t4,1 # 12233001 <_start-0x6ddccfff>
8000053a:	01df1863          	bne	t5,t4,8000054a <fail>
8000053e:	0205                	addi	tp,tp,1
80000540:	4289                	li	t0,2
80000542:	fc521ce3          	bne	tp,t0,8000051a <test_23+0x4>
80000546:	00301b63          	bne	zero,gp,8000055c <pass>

8000054a <fail>:
8000054a:	0ff0000f          	fence
8000054e:	00018063          	beqz	gp,8000054e <fail+0x4>
80000552:	0186                	slli	gp,gp,0x1
80000554:	0011e193          	ori	gp,gp,1
80000558:	00000073          	ecall

8000055c <pass>:
8000055c:	0ff0000f          	fence
80000560:	4185                	li	gp,1
80000562:	00000073          	ecall
	...

Disassembly of section .tohost:

80001000 <tohost>:
	...

80001040 <fromhost>:
	...

Disassembly of section .data:

80002000 <test_trap_data>:
	...

80002010 <begin_signature>:
80002010:	deadbeef          	jal	t4,7ffdd5fa <_start-0x22a06>

80002014 <tdat2>:
80002014:	deadbeef          	jal	t4,7ffdd5fe <_start-0x22a02>

80002018 <tdat3>:
80002018:	deadbeef          	jal	t4,7ffdd602 <_start-0x229fe>

8000201c <tdat4>:
8000201c:	deadbeef          	jal	t4,7ffdd606 <_start-0x229fa>

80002020 <tdat5>:
80002020:	deadbeef          	jal	t4,7ffdd60a <_start-0x229f6>

80002024 <tdat6>:
80002024:	deadbeef          	jal	t4,7ffdd60e <_start-0x229f2>

80002028 <tdat7>:
80002028:	deadbeef          	jal	t4,7ffdd612 <_start-0x229ee>

8000202c <tdat8>:
8000202c:	deadbeef          	jal	t4,7ffdd616 <_start-0x229ea>

80002030 <tdat9>:
80002030:	deadbeef          	jal	t4,7ffdd61a <_start-0x229e6>

80002034 <tdat10>:
80002034:	deadbeef          	jal	t4,7ffdd61e <_start-0x229e2>
	...
