
rv32uf-p-recoding:     file format elf32-littleriscv


Disassembly of section .text.init:

80000000 <_start>:
80000000:	a081                	j	80000040 <reset_vector>
80000002:	0001                	nop

80000004 <trap_vector>:
80000004:	34202f73          	csrr	t5,mcause
80000008:	4fa1                	li	t6,8
8000000a:	03ff0663          	beq	t5,t6,80000036 <write_tohost>
8000000e:	4fa5                	li	t6,9
80000010:	03ff0363          	beq	t5,t6,80000036 <write_tohost>
80000014:	4fad                	li	t6,11
80000016:	03ff0063          	beq	t5,t6,80000036 <write_tohost>
8000001a:	80000f17          	auipc	t5,0x80000
8000001e:	fe6f0f13          	addi	t5,t5,-26 # 0 <_start-0x80000000>
80000022:	000f0363          	beqz	t5,80000028 <trap_vector+0x24>
80000026:	8f02                	jr	t5
80000028:	34202f73          	csrr	t5,mcause
8000002c:	000f5363          	bgez	t5,80000032 <handle_exception>
80000030:	a009                	j	80000032 <handle_exception>

80000032 <handle_exception>:
80000032:	5391e193          	ori	gp,gp,1337

80000036 <write_tohost>:
80000036:	00001f17          	auipc	t5,0x1
8000003a:	fc3f2523          	sw	gp,-54(t5) # 80001000 <tohost>
8000003e:	bfe5                	j	80000036 <write_tohost>

80000040 <reset_vector>:
80000040:	f1402573          	csrr	a0,mhartid
80000044:	e101                	bnez	a0,80000044 <reset_vector+0x4>
80000046:	4181                	li	gp,0
80000048:	00000297          	auipc	t0,0x0
8000004c:	fbc28293          	addi	t0,t0,-68 # 80000004 <trap_vector>
80000050:	30529073          	csrw	mtvec,t0
80000054:	80000297          	auipc	t0,0x80000
80000058:	fac28293          	addi	t0,t0,-84 # 0 <_start-0x80000000>
8000005c:	00028e63          	beqz	t0,80000078 <reset_vector+0x38>
80000060:	10529073          	csrw	stvec,t0
80000064:	0000b2b7          	lui	t0,0xb
80000068:	10928293          	addi	t0,t0,265 # b109 <_start-0x7fff4ef7>
8000006c:	30229073          	csrw	medeleg,t0
80000070:	30202373          	csrr	t1,medeleg
80000074:	fa629fe3          	bne	t0,t1,80000032 <handle_exception>
80000078:	30005073          	csrwi	mstatus,0
8000007c:	6509                	lui	a0,0x2
8000007e:	30052073          	csrs	mstatus,a0
80000082:	00305073          	csrwi	fcsr,0
80000086:	00000297          	auipc	t0,0x0
8000008a:	01428293          	addi	t0,t0,20 # 8000009a <reset_vector+0x5a>
8000008e:	34129073          	csrw	mepc,t0
80000092:	f1402573          	csrr	a0,mhartid
80000096:	30200073          	mret
8000009a:	00002517          	auipc	a0,0x2
8000009e:	f6652007          	flw	ft0,-154(a0) # 80002000 <begin_signature>
800000a2:	00002517          	auipc	a0,0x2
800000a6:	f6252087          	flw	ft1,-158(a0) # 80002004 <three>
800000aa:	1000f0d3          	fmul.s	ft1,ft1,ft0

800000ae <test_2>:
800000ae:	a0102553          	feq.s	a0,ft0,ft1
800000b2:	4e85                	li	t4,1
800000b4:	4189                	li	gp,2
800000b6:	05d51963          	bne	a0,t4,80000108 <fail>

800000ba <test_3>:
800000ba:	a0100553          	fle.s	a0,ft0,ft1
800000be:	4e85                	li	t4,1
800000c0:	418d                	li	gp,3
800000c2:	05d51363          	bne	a0,t4,80000108 <fail>

800000c6 <test_4>:
800000c6:	a0101553          	flt.s	a0,ft0,ft1
800000ca:	4e81                	li	t4,0
800000cc:	4191                	li	gp,4
800000ce:	03d51d63          	bne	a0,t4,80000108 <fail>
800000d2:	d0007053          	fcvt.s.w	ft0,zero
800000d6:	4505                	li	a0,1
800000d8:	d00570d3          	fcvt.s.w	ft1,a0
800000dc:	1000f0d3          	fmul.s	ft1,ft1,ft0

800000e0 <test_5>:
800000e0:	a0102553          	feq.s	a0,ft0,ft1
800000e4:	4e85                	li	t4,1
800000e6:	4195                	li	gp,5
800000e8:	03d51063          	bne	a0,t4,80000108 <fail>

800000ec <test_6>:
800000ec:	a0100553          	fle.s	a0,ft0,ft1
800000f0:	4e85                	li	t4,1
800000f2:	4199                	li	gp,6
800000f4:	01d51a63          	bne	a0,t4,80000108 <fail>

800000f8 <test_7>:
800000f8:	a0101553          	flt.s	a0,ft0,ft1
800000fc:	4e81                	li	t4,0
800000fe:	419d                	li	gp,7
80000100:	01d51463          	bne	a0,t4,80000108 <fail>
80000104:	00301b63          	bne	zero,gp,8000011a <pass>

80000108 <fail>:
80000108:	0ff0000f          	fence
8000010c:	00018063          	beqz	gp,8000010c <fail+0x4>
80000110:	0186                	slli	gp,gp,0x1
80000112:	0011e193          	ori	gp,gp,1
80000116:	00000073          	ecall

8000011a <pass>:
8000011a:	0ff0000f          	fence
8000011e:	4185                	li	gp,1
80000120:	00000073          	ecall
	...

Disassembly of section .tohost:

80001000 <tohost>:
	...

80001040 <fromhost>:
	...

Disassembly of section .data:

80002000 <begin_signature>:
80002000:	0000                	unimp
80002002:	ff80                	fsw	fs0,56(a5)

80002004 <three>:
80002004:	0000                	unimp
80002006:	4040                	lw	s0,4(s0)
	...
