
rv32ui-p-lhu:     file format elf32-littleriscv


Disassembly of section .text.init:

80000000 <_start>:
80000000:	aa0d                	j	80000132 <reset_vector>
80000002:	0001                	nop

80000004 <trap_vector>:
80000004:	34051073          	csrw	mscratch,a0
80000008:	00002517          	auipc	a0,0x2
8000000c:	ff850513          	addi	a0,a0,-8 # 80002000 <test_trap_data>
80000010:	01e52023          	sw	t5,0(a0)
80000014:	01f52223          	sw	t6,4(a0)
80000018:	34202f73          	csrr	t5,mcause
8000001c:	040f4163          	bltz	t5,8000005e <other_interrupts>
80000020:	4fa1                	li	t6,8
80000022:	07ff0263          	beq	t5,t6,80000086 <write_tohost>
80000026:	4fa5                	li	t6,9
80000028:	05ff0f63          	beq	t5,t6,80000086 <write_tohost>
8000002c:	4fad                	li	t6,11
8000002e:	05ff0c63          	beq	t5,t6,80000086 <write_tohost>
80000032:	4f85                	li	t6,1
80000034:	0bff0563          	beq	t5,t6,800000de <ifetch_error_handler>
80000038:	4f95                	li	t6,5
8000003a:	0dff0063          	beq	t5,t6,800000fa <load_error_handler>
8000003e:	4f9d                	li	t6,7
80000040:	0dff0b63          	beq	t5,t6,80000116 <store_error_handler>
80000044:	80000f17          	auipc	t5,0x80000
80000048:	fbcf0f13          	addi	t5,t5,-68 # 0 <_start-0x80000000>
8000004c:	000f0363          	beqz	t5,80000052 <trap_vector+0x4e>
80000050:	8f02                	jr	t5
80000052:	34202f73          	csrr	t5,mcause
80000056:	000f5363          	bgez	t5,8000005c <handle_exception>
8000005a:	a009                	j	8000005c <handle_exception>

8000005c <handle_exception>:
8000005c:	a01d                	j	80000082 <other_interrupts+0x24>

8000005e <other_interrupts>:
8000005e:	80000fb7          	lui	t6,0x80000
80000062:	003f8f93          	addi	t6,t6,3 # 80000003 <_end+0xffffdfe3>
80000066:	05ff0463          	beq	t5,t6,800000ae <sft_irq_handler>
8000006a:	80000fb7          	lui	t6,0x80000
8000006e:	007f8f93          	addi	t6,t6,7 # 80000007 <_end+0xffffdfe7>
80000072:	05ff0a63          	beq	t5,t6,800000c6 <tmr_irq_handler>
80000076:	80000fb7          	lui	t6,0x80000
8000007a:	00bf8f93          	addi	t6,t6,11 # 8000000b <_end+0xffffdfeb>
8000007e:	01ff0c63          	beq	t5,t6,80000096 <ext_irq_handler>
80000082:	5391e193          	ori	gp,gp,1337

80000086 <write_tohost>:
80000086:	4521                	li	a0,8
80000088:	30052073          	csrs	mstatus,a0
8000008c:	00001f17          	auipc	t5,0x1
80000090:	f63f2a23          	sw	gp,-140(t5) # 80001000 <tohost>
80000094:	bfcd                	j	80000086 <write_tohost>

80000096 <ext_irq_handler>:
80000096:	00002517          	auipc	a0,0x2
8000009a:	f6a50513          	addi	a0,a0,-150 # 80002000 <test_trap_data>
8000009e:	00052f03          	lw	t5,0(a0)
800000a2:	00452f83          	lw	t6,4(a0)
800000a6:	34002573          	csrr	a0,mscratch
800000aa:	30200073          	mret

800000ae <sft_irq_handler>:
800000ae:	00002517          	auipc	a0,0x2
800000b2:	f5250513          	addi	a0,a0,-174 # 80002000 <test_trap_data>
800000b6:	00052f03          	lw	t5,0(a0)
800000ba:	00452f83          	lw	t6,4(a0)
800000be:	34002573          	csrr	a0,mscratch
800000c2:	30200073          	mret

800000c6 <tmr_irq_handler>:
800000c6:	00002517          	auipc	a0,0x2
800000ca:	f3a50513          	addi	a0,a0,-198 # 80002000 <test_trap_data>
800000ce:	00052f03          	lw	t5,0(a0)
800000d2:	00452f83          	lw	t6,4(a0)
800000d6:	34002573          	csrr	a0,mscratch
800000da:	30200073          	mret

800000de <ifetch_error_handler>:
800000de:	00002517          	auipc	a0,0x2
800000e2:	f2250513          	addi	a0,a0,-222 # 80002000 <test_trap_data>
800000e6:	00052f03          	lw	t5,0(a0)
800000ea:	00452f83          	lw	t6,4(a0)
800000ee:	34302573          	csrr	a0,mbadaddr
800000f2:	34002573          	csrr	a0,mscratch
800000f6:	30200073          	mret

800000fa <load_error_handler>:
800000fa:	00002517          	auipc	a0,0x2
800000fe:	f0650513          	addi	a0,a0,-250 # 80002000 <test_trap_data>
80000102:	00052f03          	lw	t5,0(a0)
80000106:	00452f83          	lw	t6,4(a0)
8000010a:	34302573          	csrr	a0,mbadaddr
8000010e:	34002573          	csrr	a0,mscratch
80000112:	30200073          	mret

80000116 <store_error_handler>:
80000116:	00002517          	auipc	a0,0x2
8000011a:	eea50513          	addi	a0,a0,-278 # 80002000 <test_trap_data>
8000011e:	00052f03          	lw	t5,0(a0)
80000122:	00452f83          	lw	t6,4(a0)
80000126:	34302573          	csrr	a0,mbadaddr
8000012a:	34002573          	csrr	a0,mscratch
8000012e:	30200073          	mret

80000132 <reset_vector>:
80000132:	00000f13          	li	t5,0
80000136:	00000f93          	li	t6,0
8000013a:	f1402573          	csrr	a0,mhartid
8000013e:	e101                	bnez	a0,8000013e <reset_vector+0xc>
80000140:	4181                	li	gp,0
80000142:	00000297          	auipc	t0,0x0
80000146:	ec228293          	addi	t0,t0,-318 # 80000004 <trap_vector>
8000014a:	4521                	li	a0,8
8000014c:	30052073          	csrs	mstatus,a0
80000150:	fff00513          	li	a0,-1
80000154:	30452073          	csrs	mie,a0
80000158:	30529073          	csrw	mtvec,t0

8000015c <post_mtvec>:
8000015c:	80000297          	auipc	t0,0x80000
80000160:	ea428293          	addi	t0,t0,-348 # 0 <_start-0x80000000>
80000164:	00028e63          	beqz	t0,80000180 <post_mtvec+0x24>
80000168:	10529073          	csrw	stvec,t0
8000016c:	0000b2b7          	lui	t0,0xb
80000170:	10928293          	addi	t0,t0,265 # b109 <_start-0x7fff4ef7>
80000174:	30229073          	csrw	medeleg,t0
80000178:	30202373          	csrr	t1,medeleg
8000017c:	ee6290e3          	bne	t0,t1,8000005c <handle_exception>
80000180:	30005073          	csrwi	mstatus,0
80000184:	08000513          	li	a0,128
80000188:	30052073          	csrs	mstatus,a0
8000018c:	4501                	li	a0,0
8000018e:	bfc51073          	csrw	0xbfc,a0
80000192:	0000100f          	fence.i
80000196:	000012b7          	lui	t0,0x1
8000019a:	a0028293          	addi	t0,t0,-1536 # a00 <_start-0x7ffff600>

8000019e <waitloop1>:
8000019e:	12fd                	addi	t0,t0,-1
800001a0:	fe029fe3          	bnez	t0,8000019e <waitloop1>
800001a4:	100083b7          	lui	t2,0x10008
800001a8:	00838393          	addi	t2,t2,8 # 10008008 <_start-0x6fff7ff8>
800001ac:	0003a283          	lw	t0,0(t2)
800001b0:	00040337          	lui	t1,0x40
800001b4:	fff34313          	not	t1,t1
800001b8:	0062f2b3          	and	t0,t0,t1
800001bc:	0053a023          	sw	t0,0(t2)
800001c0:	40000293          	li	t0,1024

800001c4 <waitloop2>:
800001c4:	12fd                	addi	t0,t0,-1
800001c6:	0003ae03          	lw	t3,0(t2)
800001ca:	fe029de3          	bnez	t0,800001c4 <waitloop2>
800001ce:	0003a283          	lw	t0,0(t2)
800001d2:	00040337          	lui	t1,0x40
800001d6:	0062e2b3          	or	t0,t0,t1
800001da:	0053a023          	sw	t0,0(t2)
800001de:	0003a283          	lw	t0,0(t2)
800001e2:	4305                	li	t1,1
800001e4:	0062e2b3          	or	t0,t0,t1
800001e8:	0053a023          	sw	t0,0(t2)
800001ec:	0003a283          	lw	t0,0(t2)
800001f0:	02000313          	li	t1,32
800001f4:	0062e2b3          	or	t0,t0,t1
800001f8:	0053a023          	sw	t0,0(t2)
800001fc:	000012b7          	lui	t0,0x1
80000200:	a0028293          	addi	t0,t0,-1536 # a00 <_start-0x7ffff600>

80000204 <waitloop3>:
80000204:	12fd                	addi	t0,t0,-1
80000206:	fe029fe3          	bnez	t0,80000204 <waitloop3>
8000020a:	0003a283          	lw	t0,0(t2)
8000020e:	00040337          	lui	t1,0x40
80000212:	fff34313          	not	t1,t1
80000216:	0062f2b3          	and	t0,t0,t1
8000021a:	0053a023          	sw	t0,0(t2)
8000021e:	10000293          	li	t0,256

80000222 <waitloop4>:
80000222:	12fd                	addi	t0,t0,-1
80000224:	fe029fe3          	bnez	t0,80000222 <waitloop4>
80000228:	100083b7          	lui	t2,0x10008
8000022c:	00c38393          	addi	t2,t2,12 # 1000800c <_start-0x6fff7ff4>
80000230:	0003a283          	lw	t0,0(t2)
80000234:	10000313          	li	t1,256
80000238:	fff34313          	not	t1,t1
8000023c:	0062f2b3          	and	t0,t0,t1
80000240:	4309                	li	t1,2
80000242:	0062e2b3          	or	t0,t0,t1
80000246:	0053a023          	sw	t0,0(t2)
8000024a:	40000293          	li	t0,1024
8000024e:	00000297          	auipc	t0,0x0
80000252:	01428293          	addi	t0,t0,20 # 80000262 <test_2>
80000256:	34129073          	csrw	mepc,t0
8000025a:	f1402573          	csrr	a0,mhartid
8000025e:	30200073          	mret

80000262 <test_2>:
80000262:	00002097          	auipc	ra,0x2
80000266:	dae08093          	addi	ra,ra,-594 # 80002010 <begin_signature>
8000026a:	0000df03          	lhu	t5,0(ra)
8000026e:	0ff00e93          	li	t4,255
80000272:	4189                	li	gp,2
80000274:	21df1663          	bne	t5,t4,80000480 <fail>

80000278 <test_3>:
80000278:	00002097          	auipc	ra,0x2
8000027c:	d9808093          	addi	ra,ra,-616 # 80002010 <begin_signature>
80000280:	0020df03          	lhu	t5,2(ra)
80000284:	00010eb7          	lui	t4,0x10
80000288:	f00e8e93          	addi	t4,t4,-256 # ff00 <_start-0x7fff0100>
8000028c:	418d                	li	gp,3
8000028e:	1fdf1963          	bne	t5,t4,80000480 <fail>

80000292 <test_4>:
80000292:	00002097          	auipc	ra,0x2
80000296:	d7e08093          	addi	ra,ra,-642 # 80002010 <begin_signature>
8000029a:	0040df03          	lhu	t5,4(ra)
8000029e:	00001eb7          	lui	t4,0x1
800002a2:	ff0e8e93          	addi	t4,t4,-16 # ff0 <_start-0x7ffff010>
800002a6:	4191                	li	gp,4
800002a8:	1ddf1c63          	bne	t5,t4,80000480 <fail>

800002ac <test_5>:
800002ac:	00002097          	auipc	ra,0x2
800002b0:	d6408093          	addi	ra,ra,-668 # 80002010 <begin_signature>
800002b4:	0060df03          	lhu	t5,6(ra)
800002b8:	0000feb7          	lui	t4,0xf
800002bc:	00fe8e93          	addi	t4,t4,15 # f00f <_start-0x7fff0ff1>
800002c0:	4195                	li	gp,5
800002c2:	1bdf1f63          	bne	t5,t4,80000480 <fail>

800002c6 <test_6>:
800002c6:	00002097          	auipc	ra,0x2
800002ca:	d5008093          	addi	ra,ra,-688 # 80002016 <tdat4>
800002ce:	ffa0df03          	lhu	t5,-6(ra)
800002d2:	0ff00e93          	li	t4,255
800002d6:	4199                	li	gp,6
800002d8:	1bdf1463          	bne	t5,t4,80000480 <fail>

800002dc <test_7>:
800002dc:	00002097          	auipc	ra,0x2
800002e0:	d3a08093          	addi	ra,ra,-710 # 80002016 <tdat4>
800002e4:	ffc0df03          	lhu	t5,-4(ra)
800002e8:	00010eb7          	lui	t4,0x10
800002ec:	f00e8e93          	addi	t4,t4,-256 # ff00 <_start-0x7fff0100>
800002f0:	419d                	li	gp,7
800002f2:	19df1763          	bne	t5,t4,80000480 <fail>

800002f6 <test_8>:
800002f6:	00002097          	auipc	ra,0x2
800002fa:	d2008093          	addi	ra,ra,-736 # 80002016 <tdat4>
800002fe:	ffe0df03          	lhu	t5,-2(ra)
80000302:	00001eb7          	lui	t4,0x1
80000306:	ff0e8e93          	addi	t4,t4,-16 # ff0 <_start-0x7ffff010>
8000030a:	41a1                	li	gp,8
8000030c:	17df1a63          	bne	t5,t4,80000480 <fail>

80000310 <test_9>:
80000310:	00002097          	auipc	ra,0x2
80000314:	d0608093          	addi	ra,ra,-762 # 80002016 <tdat4>
80000318:	0000df03          	lhu	t5,0(ra)
8000031c:	0000feb7          	lui	t4,0xf
80000320:	00fe8e93          	addi	t4,t4,15 # f00f <_start-0x7fff0ff1>
80000324:	41a5                	li	gp,9
80000326:	15df1d63          	bne	t5,t4,80000480 <fail>

8000032a <test_10>:
8000032a:	00002097          	auipc	ra,0x2
8000032e:	ce608093          	addi	ra,ra,-794 # 80002010 <begin_signature>
80000332:	1081                	addi	ra,ra,-32
80000334:	0200d283          	lhu	t0,32(ra)
80000338:	0ff00e93          	li	t4,255
8000033c:	41a9                	li	gp,10
8000033e:	15d29163          	bne	t0,t4,80000480 <fail>

80000342 <test_11>:
80000342:	00002097          	auipc	ra,0x2
80000346:	cce08093          	addi	ra,ra,-818 # 80002010 <begin_signature>
8000034a:	10ed                	addi	ra,ra,-5
8000034c:	0070d283          	lhu	t0,7(ra)
80000350:	00010eb7          	lui	t4,0x10
80000354:	f00e8e93          	addi	t4,t4,-256 # ff00 <_start-0x7fff0100>
80000358:	41ad                	li	gp,11
8000035a:	13d29363          	bne	t0,t4,80000480 <fail>

8000035e <test_12>:
8000035e:	41b1                	li	gp,12
80000360:	4201                	li	tp,0
80000362:	00002097          	auipc	ra,0x2
80000366:	cb008093          	addi	ra,ra,-848 # 80002012 <tdat2>
8000036a:	0020df03          	lhu	t5,2(ra)
8000036e:	000f0313          	mv	t1,t5
80000372:	00001eb7          	lui	t4,0x1
80000376:	ff0e8e93          	addi	t4,t4,-16 # ff0 <_start-0x7ffff010>
8000037a:	11d31363          	bne	t1,t4,80000480 <fail>
8000037e:	0205                	addi	tp,tp,1
80000380:	4289                	li	t0,2
80000382:	fe5210e3          	bne	tp,t0,80000362 <test_12+0x4>

80000386 <test_13>:
80000386:	41b5                	li	gp,13
80000388:	4201                	li	tp,0
8000038a:	00002097          	auipc	ra,0x2
8000038e:	c8a08093          	addi	ra,ra,-886 # 80002014 <tdat3>
80000392:	0020df03          	lhu	t5,2(ra)
80000396:	0001                	nop
80000398:	000f0313          	mv	t1,t5
8000039c:	0000feb7          	lui	t4,0xf
800003a0:	00fe8e93          	addi	t4,t4,15 # f00f <_start-0x7fff0ff1>
800003a4:	0dd31e63          	bne	t1,t4,80000480 <fail>
800003a8:	0205                	addi	tp,tp,1
800003aa:	4289                	li	t0,2
800003ac:	fc521fe3          	bne	tp,t0,8000038a <test_13+0x4>

800003b0 <test_14>:
800003b0:	41b9                	li	gp,14
800003b2:	4201                	li	tp,0
800003b4:	00002097          	auipc	ra,0x2
800003b8:	c5c08093          	addi	ra,ra,-932 # 80002010 <begin_signature>
800003bc:	0020df03          	lhu	t5,2(ra)
800003c0:	0001                	nop
800003c2:	0001                	nop
800003c4:	000f0313          	mv	t1,t5
800003c8:	00010eb7          	lui	t4,0x10
800003cc:	f00e8e93          	addi	t4,t4,-256 # ff00 <_start-0x7fff0100>
800003d0:	0bd31863          	bne	t1,t4,80000480 <fail>
800003d4:	0205                	addi	tp,tp,1
800003d6:	4289                	li	t0,2
800003d8:	fc521ee3          	bne	tp,t0,800003b4 <test_14+0x4>

800003dc <test_15>:
800003dc:	41bd                	li	gp,15
800003de:	4201                	li	tp,0
800003e0:	00002097          	auipc	ra,0x2
800003e4:	c3208093          	addi	ra,ra,-974 # 80002012 <tdat2>
800003e8:	0020df03          	lhu	t5,2(ra)
800003ec:	00001eb7          	lui	t4,0x1
800003f0:	ff0e8e93          	addi	t4,t4,-16 # ff0 <_start-0x7ffff010>
800003f4:	09df1663          	bne	t5,t4,80000480 <fail>
800003f8:	0205                	addi	tp,tp,1
800003fa:	4289                	li	t0,2
800003fc:	fe5212e3          	bne	tp,t0,800003e0 <test_15+0x4>

80000400 <test_16>:
80000400:	41c1                	li	gp,16
80000402:	4201                	li	tp,0
80000404:	00002097          	auipc	ra,0x2
80000408:	c1008093          	addi	ra,ra,-1008 # 80002014 <tdat3>
8000040c:	0001                	nop
8000040e:	0020df03          	lhu	t5,2(ra)
80000412:	0000feb7          	lui	t4,0xf
80000416:	00fe8e93          	addi	t4,t4,15 # f00f <_start-0x7fff0ff1>
8000041a:	07df1363          	bne	t5,t4,80000480 <fail>
8000041e:	0205                	addi	tp,tp,1
80000420:	4289                	li	t0,2
80000422:	fe5211e3          	bne	tp,t0,80000404 <test_16+0x4>

80000426 <test_17>:
80000426:	41c5                	li	gp,17
80000428:	4201                	li	tp,0
8000042a:	00002097          	auipc	ra,0x2
8000042e:	be608093          	addi	ra,ra,-1050 # 80002010 <begin_signature>
80000432:	0001                	nop
80000434:	0001                	nop
80000436:	0020df03          	lhu	t5,2(ra)
8000043a:	00010eb7          	lui	t4,0x10
8000043e:	f00e8e93          	addi	t4,t4,-256 # ff00 <_start-0x7fff0100>
80000442:	03df1f63          	bne	t5,t4,80000480 <fail>
80000446:	0205                	addi	tp,tp,1
80000448:	4289                	li	t0,2
8000044a:	fe5210e3          	bne	tp,t0,8000042a <test_17+0x4>

8000044e <test_18>:
8000044e:	00002297          	auipc	t0,0x2
80000452:	bc228293          	addi	t0,t0,-1086 # 80002010 <begin_signature>
80000456:	0002d103          	lhu	sp,0(t0)
8000045a:	4109                	li	sp,2
8000045c:	4e89                	li	t4,2
8000045e:	41c9                	li	gp,18
80000460:	03d11063          	bne	sp,t4,80000480 <fail>

80000464 <test_19>:
80000464:	00002297          	auipc	t0,0x2
80000468:	bac28293          	addi	t0,t0,-1108 # 80002010 <begin_signature>
8000046c:	0002d103          	lhu	sp,0(t0)
80000470:	0001                	nop
80000472:	4109                	li	sp,2
80000474:	4e89                	li	t4,2
80000476:	41cd                	li	gp,19
80000478:	01d11463          	bne	sp,t4,80000480 <fail>
8000047c:	00301b63          	bne	zero,gp,80000492 <pass>

80000480 <fail>:
80000480:	0ff0000f          	fence
80000484:	00018063          	beqz	gp,80000484 <fail+0x4>
80000488:	0186                	slli	gp,gp,0x1
8000048a:	0011e193          	ori	gp,gp,1
8000048e:	00000073          	ecall

80000492 <pass>:
80000492:	0ff0000f          	fence
80000496:	4185                	li	gp,1
80000498:	00000073          	ecall
	...

Disassembly of section .tohost:

80001000 <tohost>:
	...

80001040 <fromhost>:
	...

Disassembly of section .data:

80002000 <test_trap_data>:
	...

80002010 <begin_signature>:
80002010:	00ff                	0xff

80002012 <tdat2>:
80002012:	ff00                	fsw	fs0,56(a4)

80002014 <tdat3>:
80002014:	0ff0                	addi	a2,sp,988

80002016 <tdat4>:
80002016:	0000f00f          	0xf00f
8000201a:	0000                	unimp
8000201c:	0000                	unimp
	...
