
mm.riscv:     file format elf32-littleriscv


Disassembly of section .text.init:

80000000 <_start>:
80000000:	4081                	li	ra,0
80000002:	4101                	li	sp,0
80000004:	4181                	li	gp,0
80000006:	4201                	li	tp,0
80000008:	4281                	li	t0,0
8000000a:	4301                	li	t1,0
8000000c:	4381                	li	t2,0
8000000e:	4401                	li	s0,0
80000010:	4481                	li	s1,0
80000012:	4501                	li	a0,0
80000014:	4581                	li	a1,0
80000016:	4601                	li	a2,0
80000018:	4681                	li	a3,0
8000001a:	4701                	li	a4,0
8000001c:	4781                	li	a5,0
8000001e:	4801                	li	a6,0
80000020:	4881                	li	a7,0
80000022:	4901                	li	s2,0
80000024:	4981                	li	s3,0
80000026:	4a01                	li	s4,0
80000028:	4a81                	li	s5,0
8000002a:	4b01                	li	s6,0
8000002c:	4b81                	li	s7,0
8000002e:	4c01                	li	s8,0
80000030:	4c81                	li	s9,0
80000032:	4d01                	li	s10,0
80000034:	4d81                	li	s11,0
80000036:	4e01                	li	t3,0
80000038:	4e81                	li	t4,0
8000003a:	4f01                	li	t5,0
8000003c:	4f81                	li	t6,0
8000003e:	62f9                	lui	t0,0x1e
80000040:	3002a073          	csrs	mstatus,t0
80000044:	4285                	li	t0,1
80000046:	02fe                	slli	t0,t0,0x1f
80000048:	0002c863          	bltz	t0,80000058 <_start+0x58>
8000004c:	4505                	li	a0,1
8000004e:	00001297          	auipc	t0,0x1
80000052:	faa2a923          	sw	a0,-78(t0) # 80001000 <tohost>
80000056:	bfdd                	j	8000004c <_start+0x4c>
80000058:	00000297          	auipc	t0,0x0
8000005c:	09028293          	addi	t0,t0,144 # 800000e8 <_start+0xe8>
80000060:	30529073          	csrw	mtvec,t0
80000064:	00301073          	fssr	zero
80000068:	f0000053          	fmv.w.x	ft0,zero
8000006c:	f00000d3          	fmv.w.x	ft1,zero
80000070:	f0000153          	fmv.w.x	ft2,zero
80000074:	f00001d3          	fmv.w.x	ft3,zero
80000078:	f0000253          	fmv.w.x	ft4,zero
8000007c:	f00002d3          	fmv.w.x	ft5,zero
80000080:	f0000353          	fmv.w.x	ft6,zero
80000084:	f00003d3          	fmv.w.x	ft7,zero
80000088:	f0000453          	fmv.w.x	fs0,zero
8000008c:	f00004d3          	fmv.w.x	fs1,zero
80000090:	f0000553          	fmv.w.x	fa0,zero
80000094:	f00005d3          	fmv.w.x	fa1,zero
80000098:	f0000653          	fmv.w.x	fa2,zero
8000009c:	f00006d3          	fmv.w.x	fa3,zero
800000a0:	f0000753          	fmv.w.x	fa4,zero
800000a4:	f00007d3          	fmv.w.x	fa5,zero
800000a8:	f0000853          	fmv.w.x	fa6,zero
800000ac:	f00008d3          	fmv.w.x	fa7,zero
800000b0:	f0000953          	fmv.w.x	fs2,zero
800000b4:	f00009d3          	fmv.w.x	fs3,zero
800000b8:	f0000a53          	fmv.w.x	fs4,zero
800000bc:	f0000ad3          	fmv.w.x	fs5,zero
800000c0:	f0000b53          	fmv.w.x	fs6,zero
800000c4:	f0000bd3          	fmv.w.x	fs7,zero
800000c8:	f0000c53          	fmv.w.x	fs8,zero
800000cc:	f0000cd3          	fmv.w.x	fs9,zero
800000d0:	f0000d53          	fmv.w.x	fs10,zero
800000d4:	f0000dd3          	fmv.w.x	fs11,zero
800000d8:	f0000e53          	fmv.w.x	ft8,zero
800000dc:	f0000ed3          	fmv.w.x	ft9,zero
800000e0:	f0000f53          	fmv.w.x	ft10,zero
800000e4:	f0000fd3          	fmv.w.x	ft11,zero
800000e8:	00000297          	auipc	t0,0x0
800000ec:	03828293          	addi	t0,t0,56 # 80000120 <trap_entry>
800000f0:	30529073          	csrw	mtvec,t0
800000f4:	10000197          	auipc	gp,0x10000
800000f8:	70c18193          	addi	gp,gp,1804 # 90000800 <__global_pointer$>
800000fc:	bff18213          	addi	tp,gp,-1025 # 900003ff <_end+0x3f>
80000100:	fc027213          	andi	tp,tp,-64
80000104:	f1402573          	csrr	a0,mhartid
80000108:	4585                	li	a1,1
8000010a:	00b57063          	bleu	a1,a0,8000010a <_start+0x10a>
8000010e:	01151613          	slli	a2,a0,0x11
80000112:	9232                	add	tp,tp,a2
80000114:	00150113          	addi	sp,a0,1
80000118:	0146                	slli	sp,sp,0x11
8000011a:	9112                	add	sp,sp,tp
8000011c:	79c0406f          	j	800048b8 <_init>

80000120 <trap_entry>:
80000120:	716d                	addi	sp,sp,-272
80000122:	c206                	sw	ra,4(sp)
80000124:	c40a                	sw	sp,8(sp)
80000126:	c60e                	sw	gp,12(sp)
80000128:	c812                	sw	tp,16(sp)
8000012a:	ca16                	sw	t0,20(sp)
8000012c:	cc1a                	sw	t1,24(sp)
8000012e:	ce1e                	sw	t2,28(sp)
80000130:	d022                	sw	s0,32(sp)
80000132:	d226                	sw	s1,36(sp)
80000134:	d42a                	sw	a0,40(sp)
80000136:	d62e                	sw	a1,44(sp)
80000138:	d832                	sw	a2,48(sp)
8000013a:	da36                	sw	a3,52(sp)
8000013c:	dc3a                	sw	a4,56(sp)
8000013e:	de3e                	sw	a5,60(sp)
80000140:	c0c2                	sw	a6,64(sp)
80000142:	c2c6                	sw	a7,68(sp)
80000144:	c4ca                	sw	s2,72(sp)
80000146:	c6ce                	sw	s3,76(sp)
80000148:	c8d2                	sw	s4,80(sp)
8000014a:	cad6                	sw	s5,84(sp)
8000014c:	ccda                	sw	s6,88(sp)
8000014e:	cede                	sw	s7,92(sp)
80000150:	d0e2                	sw	s8,96(sp)
80000152:	d2e6                	sw	s9,100(sp)
80000154:	d4ea                	sw	s10,104(sp)
80000156:	d6ee                	sw	s11,108(sp)
80000158:	d8f2                	sw	t3,112(sp)
8000015a:	daf6                	sw	t4,116(sp)
8000015c:	dcfa                	sw	t5,120(sp)
8000015e:	defe                	sw	t6,124(sp)
80000160:	34202573          	csrr	a0,mcause
80000164:	341025f3          	csrr	a1,mepc
80000168:	860a                	mv	a2,sp
8000016a:	5bc040ef          	jal	ra,80004726 <handle_trap>
8000016e:	34151073          	csrw	mepc,a0
80000172:	000022b7          	lui	t0,0x2
80000176:	80028293          	addi	t0,t0,-2048 # 1800 <_tbss_end+0x177c>
8000017a:	3002a073          	csrs	mstatus,t0
8000017e:	4092                	lw	ra,4(sp)
80000180:	4122                	lw	sp,8(sp)
80000182:	41b2                	lw	gp,12(sp)
80000184:	4242                	lw	tp,16(sp)
80000186:	42d2                	lw	t0,20(sp)
80000188:	4362                	lw	t1,24(sp)
8000018a:	43f2                	lw	t2,28(sp)
8000018c:	5402                	lw	s0,32(sp)
8000018e:	5492                	lw	s1,36(sp)
80000190:	5522                	lw	a0,40(sp)
80000192:	55b2                	lw	a1,44(sp)
80000194:	5642                	lw	a2,48(sp)
80000196:	56d2                	lw	a3,52(sp)
80000198:	5762                	lw	a4,56(sp)
8000019a:	57f2                	lw	a5,60(sp)
8000019c:	4806                	lw	a6,64(sp)
8000019e:	4896                	lw	a7,68(sp)
800001a0:	4926                	lw	s2,72(sp)
800001a2:	49b6                	lw	s3,76(sp)
800001a4:	4a46                	lw	s4,80(sp)
800001a6:	4ad6                	lw	s5,84(sp)
800001a8:	4b66                	lw	s6,88(sp)
800001aa:	4bf6                	lw	s7,92(sp)
800001ac:	5c06                	lw	s8,96(sp)
800001ae:	5c96                	lw	s9,100(sp)
800001b0:	5d26                	lw	s10,104(sp)
800001b2:	5db6                	lw	s11,108(sp)
800001b4:	5e46                	lw	t3,112(sp)
800001b6:	5ed6                	lw	t4,116(sp)
800001b8:	5f66                	lw	t5,120(sp)
800001ba:	5ff6                	lw	t6,124(sp)
800001bc:	6151                	addi	sp,sp,272
800001be:	30200073          	mret

Disassembly of section .tohost:

80001000 <tohost>:
	...

80001040 <fromhost>:
	...

Disassembly of section .text:

80001048 <mm_naive>:
80001048:	12050d63          	beqz	a0,80001182 <mm_naive+0x13a>
8000104c:	7139                	addi	sp,sp,-64
8000104e:	4306                	lw	t1,64(sp)
80001050:	de22                	sw	s0,60(sp)
80001052:	00381413          	slli	s0,a6,0x3
80001056:	dc26                	sw	s1,56(sp)
80001058:	d05e                	sw	s7,32(sp)
8000105a:	cc66                	sw	s9,24(sp)
8000105c:	41000bb3          	neg	s7,a6
80001060:	00361493          	slli	s1,a2,0x3
80001064:	030e                	slli	t1,t1,0x3
80001066:	8cc6                	mv	s9,a7
80001068:	008788b3          	add	a7,a5,s0
8000106c:	d456                	sw	s5,40(sp)
8000106e:	d25a                	sw	s6,36(sp)
80001070:	ce62                	sw	s8,28(sp)
80001072:	ca6a                	sw	s10,20(sp)
80001074:	c86e                	sw	s11,16(sp)
80001076:	c646                	sw	a7,12(sp)
80001078:	003b9c13          	slli	s8,s7,0x3
8000107c:	da4a                	sw	s2,52(sp)
8000107e:	d84e                	sw	s3,48(sp)
80001080:	d652                	sw	s4,44(sp)
80001082:	c41a                	sw	t1,8(sp)
80001084:	00371d93          	slli	s11,a4,0x3
80001088:	8b36                	mv	s6,a3
8000108a:	94b6                	add	s1,s1,a3
8000108c:	00581e13          	slli	t3,a6,0x5
80001090:	4a81                	li	s5,0
80001092:	4d01                	li	s10,0
80001094:	ffc67893          	andi	a7,a2,-4
80001098:	0b92                	slli	s7,s7,0x4
8000109a:	c9d5                	beqz	a1,8000114e <mm_naive+0x106>
8000109c:	4a32                	lw	s4,12(sp)
8000109e:	8966                	mv	s2,s9
800010a0:	4981                	li	s3,0
800010a2:	00093787          	fld	fa5,0(s2)
800010a6:	0c088a63          	beqz	a7,8000117a <mm_naive+0x132>
800010aa:	d20006d3          	fcvt.d.w	fa3,zero
800010ae:	014c0f33          	add	t5,s8,s4
800010b2:	417f0eb3          	sub	t4,t5,s7
800010b6:	22d68653          	fmv.d	fa2,fa3
800010ba:	22d68753          	fmv.d	fa4,fa3
800010be:	008e83b3          	add	t2,t4,s0
800010c2:	82d2                	mv	t0,s4
800010c4:	835a                	mv	t1,s6
800010c6:	4f81                	li	t6,0
800010c8:	00033287          	fld	ft5,0(t1)
800010cc:	000f3207          	fld	ft4,0(t5)
800010d0:	00833187          	fld	ft3,8(t1)
800010d4:	0002b107          	fld	ft2,0(t0)
800010d8:	01033087          	fld	ft1,16(t1)
800010dc:	000eb007          	fld	ft0,0(t4)
800010e0:	01833507          	fld	fa0,24(t1)
800010e4:	0003b587          	fld	fa1,0(t2)
800010e8:	0f91                	addi	t6,t6,4
800010ea:	7a42f7c3          	fmadd.d	fa5,ft5,ft4,fa5
800010ee:	7221f743          	fmadd.d	fa4,ft3,ft2,fa4
800010f2:	6200f643          	fmadd.d	fa2,ft1,ft0,fa2
800010f6:	6ab576c3          	fmadd.d	fa3,fa0,fa1,fa3
800010fa:	02030313          	addi	t1,t1,32
800010fe:	9f72                	add	t5,t5,t3
80001100:	92f2                	add	t0,t0,t3
80001102:	9ef2                	add	t4,t4,t3
80001104:	93f2                	add	t2,t2,t3
80001106:	fd1fe1e3          	bltu	t6,a7,800010c8 <mm_naive+0x80>
8000110a:	02c77753          	fadd.d	fa4,fa4,fa2
8000110e:	8346                	mv	t1,a7
80001110:	02d77753          	fadd.d	fa4,fa4,fa3
80001114:	02c37463          	bleu	a2,t1,8000113c <mm_naive+0xf4>
80001118:	02680eb3          	mul	t4,a6,t1
8000111c:	9356                	add	t1,t1,s5
8000111e:	030e                	slli	t1,t1,0x3
80001120:	9336                	add	t1,t1,a3
80001122:	9ece                	add	t4,t4,s3
80001124:	0e8e                	slli	t4,t4,0x3
80001126:	9ebe                	add	t4,t4,a5
80001128:	00033607          	fld	fa2,0(t1)
8000112c:	000eb687          	fld	fa3,0(t4)
80001130:	0321                	addi	t1,t1,8
80001132:	9ea2                	add	t4,t4,s0
80001134:	7ad677c3          	fmadd.d	fa5,fa2,fa3,fa5
80001138:	fe6498e3          	bne	s1,t1,80001128 <mm_naive+0xe0>
8000113c:	02e7f7d3          	fadd.d	fa5,fa5,fa4
80001140:	0921                	addi	s2,s2,8
80001142:	0985                	addi	s3,s3,1
80001144:	0a21                	addi	s4,s4,8
80001146:	fef93c27          	fsd	fa5,-8(s2)
8000114a:	f5359ce3          	bne	a1,s3,800010a2 <mm_naive+0x5a>
8000114e:	4322                	lw	t1,8(sp)
80001150:	0d05                	addi	s10,s10,1
80001152:	9b6e                	add	s6,s6,s11
80001154:	9c9a                	add	s9,s9,t1
80001156:	94ee                	add	s1,s1,s11
80001158:	9aba                	add	s5,s5,a4
8000115a:	f5a510e3          	bne	a0,s10,8000109a <mm_naive+0x52>
8000115e:	5472                	lw	s0,60(sp)
80001160:	54e2                	lw	s1,56(sp)
80001162:	5952                	lw	s2,52(sp)
80001164:	59c2                	lw	s3,48(sp)
80001166:	5a32                	lw	s4,44(sp)
80001168:	5aa2                	lw	s5,40(sp)
8000116a:	5b12                	lw	s6,36(sp)
8000116c:	5b82                	lw	s7,32(sp)
8000116e:	4c72                	lw	s8,28(sp)
80001170:	4ce2                	lw	s9,24(sp)
80001172:	4d52                	lw	s10,20(sp)
80001174:	4dc2                	lw	s11,16(sp)
80001176:	6121                	addi	sp,sp,64
80001178:	8082                	ret
8000117a:	d2000753          	fcvt.d.w	fa4,zero
8000117e:	4301                	li	t1,0
80001180:	bf51                	j	80001114 <mm_naive+0xcc>
80001182:	8082                	ret

80001184 <mm_cb>:
80001184:	7165                	addi	sp,sp,-400
80001186:	18812423          	sw	s0,392(sp)
8000118a:	18912223          	sw	s1,388(sp)
8000118e:	0b00                	addi	s0,sp,400
80001190:	19212023          	sw	s2,384(sp)
80001194:	18112623          	sw	ra,396(sp)
80001198:	17312e23          	sw	s3,380(sp)
8000119c:	17412c23          	sw	s4,376(sp)
800011a0:	17512a23          	sw	s5,372(sp)
800011a4:	17612823          	sw	s6,368(sp)
800011a8:	17712623          	sw	s7,364(sp)
800011ac:	17812423          	sw	s8,360(sp)
800011b0:	17912223          	sw	s9,356(sp)
800011b4:	17a12023          	sw	s10,352(sp)
800011b8:	15b12e23          	sw	s11,348(sp)
800011bc:	8f32                	mv	t5,a2
800011be:	f2c42823          	sw	a2,-208(s0)
800011c2:	4665                	li	a2,25
800011c4:	02c5d4b3          	divu	s1,a1,a2
800011c8:	4361                	li	t1,24
800011ca:	8eba                	mv	t4,a4
800011cc:	f4e42023          	sw	a4,-192(s0)
800011d0:	eef42423          	sw	a5,-280(s0)
800011d4:	eea42623          	sw	a0,-276(s0)
800011d8:	6609                	lui	a2,0x2
800011da:	167d                	addi	a2,a2,-1
800011dc:	f0b42c23          	sw	a1,-232(s0)
800011e0:	75f9                	lui	a1,0xffffe
800011e2:	ead42e23          	sw	a3,-324(s0)
800011e6:	f5042223          	sw	a6,-188(s0)
800011ea:	f1142623          	sw	a7,-244(s0)
800011ee:	026f5733          	divu	a4,t5,t1
800011f2:	00149793          	slli	a5,s1,0x1
800011f6:	97a6                	add	a5,a5,s1
800011f8:	078e                	slli	a5,a5,0x3
800011fa:	f2942a23          	sw	s1,-204(s0)
800011fe:	94be                	add	s1,s1,a5
80001200:	f2942423          	sw	s1,-216(s0)
80001204:	02655333          	divu	t1,a0,t1
80001208:	00171793          	slli	a5,a4,0x1
8000120c:	97ba                	add	a5,a5,a4
8000120e:	00379913          	slli	s2,a5,0x3
80001212:	ece42c23          	sw	a4,-296(s0)
80001216:	f3242e23          	sw	s2,-196(s0)
8000121a:	00131793          	slli	a5,t1,0x1
8000121e:	933e                	add	t1,t1,a5
80001220:	00331513          	slli	a0,t1,0x3
80001224:	032507b3          	mul	a5,a0,s2
80001228:	f2a42623          	sw	a0,-212(s0)
8000122c:	40078793          	addi	a5,a5,1024
80001230:	078e                	slli	a5,a5,0x3
80001232:	07c1                	addi	a5,a5,16
80001234:	40f10133          	sub	sp,sp,a5
80001238:	081c                	addi	a5,sp,16
8000123a:	97b2                	add	a5,a5,a2
8000123c:	8fed                	and	a5,a5,a1
8000123e:	03248733          	mul	a4,s1,s2
80001242:	ecf42a23          	sw	a5,-300(s0)
80001246:	029507b3          	mul	a5,a0,s1
8000124a:	40070713          	addi	a4,a4,1024
8000124e:	070e                	slli	a4,a4,0x3
80001250:	0741                	addi	a4,a4,16
80001252:	40e10133          	sub	sp,sp,a4
80001256:	0818                	addi	a4,sp,16
80001258:	9732                	add	a4,a4,a2
8000125a:	8f6d                	and	a4,a4,a1
8000125c:	ece42823          	sw	a4,-304(s0)
80001260:	40078793          	addi	a5,a5,1024
80001264:	078e                	slli	a5,a5,0x3
80001266:	07c1                	addi	a5,a5,16
80001268:	40f10133          	sub	sp,sp,a5
8000126c:	081c                	addi	a5,sp,16
8000126e:	963e                	add	a2,a2,a5
80001270:	00b677b3          	and	a5,a2,a1
80001274:	f0f42a23          	sw	a5,-236(s0)
80001278:	cd5d                	beqz	a0,80001336 <mm_cb+0x1b2>
8000127a:	87f6                	mv	a5,t4
8000127c:	001e9813          	slli	a6,t4,0x1
80001280:	9ec2                	add	t4,t4,a6
80001282:	00379f13          	slli	t5,a5,0x3
80001286:	6305                	lui	t1,0x1
80001288:	0e9a                	slli	t4,t4,0x6
8000128a:	8e36                	mv	t3,a3
8000128c:	efe42023          	sw	t5,-288(s0)
80001290:	4501                	li	a0,0
80001292:	4fe1                	li	t6,24
80001294:	20030313          	addi	t1,t1,512 # 1200 <_tbss_end+0x117c>
80001298:	06090f63          	beqz	s2,80001316 <mm_cb+0x192>
8000129c:	03f552b3          	divu	t0,a0,t6
800012a0:	ed842783          	lw	a5,-296(s0)
800012a4:	84f2                	mv	s1,t3
800012a6:	4381                	li	t2,0
800012a8:	02f282b3          	mul	t0,t0,a5
800012ac:	8626                	mv	a2,s1
800012ae:	03f3d7b3          	divu	a5,t2,t6
800012b2:	9796                	add	a5,a5,t0
800012b4:	00379693          	slli	a3,a5,0x3
800012b8:	96be                	add	a3,a3,a5
800012ba:	ed442783          	lw	a5,-300(s0)
800012be:	06a6                	slli	a3,a3,0x9
800012c0:	96be                	add	a3,a3,a5
800012c2:	006688b3          	add	a7,a3,t1
800012c6:	0c060593          	addi	a1,a2,192 # 20c0 <_tbss_end+0x203c>
800012ca:	8736                	mv	a4,a3
800012cc:	87b2                	mv	a5,a2
800012ce:	0007b087          	fld	ft1,0(a5)
800012d2:	0087b007          	fld	ft0,8(a5)
800012d6:	2b88                	fld	fa0,16(a5)
800012d8:	2f8c                	fld	fa1,24(a5)
800012da:	3390                	fld	fa2,32(a5)
800012dc:	3794                	fld	fa3,40(a5)
800012de:	3b98                	fld	fa4,48(a5)
800012e0:	3f9c                	fld	fa5,56(a5)
800012e2:	00173027          	fsd	ft1,0(a4)
800012e6:	00073427          	fsd	ft0,8(a4)
800012ea:	ab08                	fsd	fa0,16(a4)
800012ec:	af0c                	fsd	fa1,24(a4)
800012ee:	b310                	fsd	fa2,32(a4)
800012f0:	b714                	fsd	fa3,40(a4)
800012f2:	bb18                	fsd	fa4,48(a4)
800012f4:	bf1c                	fsd	fa5,56(a4)
800012f6:	04078793          	addi	a5,a5,64
800012fa:	04070713          	addi	a4,a4,64
800012fe:	fcf598e3          	bne	a1,a5,800012ce <mm_cb+0x14a>
80001302:	0c068693          	addi	a3,a3,192
80001306:	967a                	add	a2,a2,t5
80001308:	fad89fe3          	bne	a7,a3,800012c6 <mm_cb+0x142>
8000130c:	03e1                	addi	t2,t2,24
8000130e:	0c048493          	addi	s1,s1,192
80001312:	f923ede3          	bltu	t2,s2,800012ac <mm_cb+0x128>
80001316:	f2c42783          	lw	a5,-212(s0)
8000131a:	0561                	addi	a0,a0,24
8000131c:	9e76                	add	t3,t3,t4
8000131e:	f6f56de3          	bltu	a0,a5,80001298 <mm_cb+0x114>
80001322:	f3c42783          	lw	a5,-196(s0)
80001326:	ef81                	bnez	a5,8000133e <mm_cb+0x1ba>
80001328:	f4442783          	lw	a5,-188(s0)
8000132c:	00179513          	slli	a0,a5,0x1
80001330:	00379d93          	slli	s11,a5,0x3
80001334:	a8d1                	j	80001408 <mm_cb+0x284>
80001336:	f3c42783          	lw	a5,-196(s0)
8000133a:	180788e3          	beqz	a5,80001cca <mm_cb+0xb46>
8000133e:	f4442783          	lw	a5,-188(s0)
80001342:	ee842703          	lw	a4,-280(s0)
80001346:	f2842483          	lw	s1,-216(s0)
8000134a:	00179513          	slli	a0,a5,0x1
8000134e:	00f50f33          	add	t5,a0,a5
80001352:	6885                	lui	a7,0x1
80001354:	0f1a                	slli	t5,t5,0x6
80001356:	0c070e93          	addi	t4,a4,192
8000135a:	00379d93          	slli	s11,a5,0x3
8000135e:	4301                	li	t1,0
80001360:	43e1                	li	t2,24
80001362:	42e5                	li	t0,25
80001364:	2c088893          	addi	a7,a7,704 # 12c0 <_tbss_end+0x123c>
80001368:	ccb5                	beqz	s1,800013e4 <mm_cb+0x260>
8000136a:	02735833          	divu	a6,t1,t2
8000136e:	f3442783          	lw	a5,-204(s0)
80001372:	8ff6                	mv	t6,t4
80001374:	4e01                	li	t3,0
80001376:	02f80833          	mul	a6,a6,a5
8000137a:	ed042783          	lw	a5,-304(s0)
8000137e:	86fe                	mv	a3,t6
80001380:	025e5633          	divu	a2,t3,t0
80001384:	9642                	add	a2,a2,a6
80001386:	03160633          	mul	a2,a2,a7
8000138a:	963e                	add	a2,a2,a5
8000138c:	011605b3          	add	a1,a2,a7
80001390:	f4068793          	addi	a5,a3,-192
80001394:	8732                	mv	a4,a2
80001396:	0007b087          	fld	ft1,0(a5)
8000139a:	0087b007          	fld	ft0,8(a5)
8000139e:	2b88                	fld	fa0,16(a5)
800013a0:	2f8c                	fld	fa1,24(a5)
800013a2:	3390                	fld	fa2,32(a5)
800013a4:	3794                	fld	fa3,40(a5)
800013a6:	3b98                	fld	fa4,48(a5)
800013a8:	3f9c                	fld	fa5,56(a5)
800013aa:	00173027          	fsd	ft1,0(a4)
800013ae:	00073427          	fsd	ft0,8(a4)
800013b2:	ab08                	fsd	fa0,16(a4)
800013b4:	af0c                	fsd	fa1,24(a4)
800013b6:	b310                	fsd	fa2,32(a4)
800013b8:	b714                	fsd	fa3,40(a4)
800013ba:	bb18                	fsd	fa4,48(a4)
800013bc:	bf1c                	fsd	fa5,56(a4)
800013be:	04078793          	addi	a5,a5,64
800013c2:	04070713          	addi	a4,a4,64
800013c6:	fcf698e3          	bne	a3,a5,80001396 <mm_cb+0x212>
800013ca:	229c                	fld	fa5,0(a3)
800013cc:	0c860613          	addi	a2,a2,200
800013d0:	96ee                	add	a3,a3,s11
800013d2:	fef63c27          	fsd	fa5,-8(a2)
800013d6:	fac59de3          	bne	a1,a2,80001390 <mm_cb+0x20c>
800013da:	0e65                	addi	t3,t3,25
800013dc:	0c8f8f93          	addi	t6,t6,200
800013e0:	f89e6de3          	bltu	t3,s1,8000137a <mm_cb+0x1f6>
800013e4:	f3c42783          	lw	a5,-196(s0)
800013e8:	0361                	addi	t1,t1,24
800013ea:	9efa                	add	t4,t4,t5
800013ec:	f6f36ee3          	bltu	t1,a5,80001368 <mm_cb+0x1e4>
800013f0:	f4042783          	lw	a5,-192(s0)
800013f4:	00179813          	slli	a6,a5,0x1
800013f8:	078e                	slli	a5,a5,0x3
800013fa:	eef42023          	sw	a5,-288(s0)
800013fe:	f2c42783          	lw	a5,-212(s0)
80001402:	e399                	bnez	a5,80001408 <mm_cb+0x284>
80001404:	34e0106f          	j	80002752 <mm_cb+0x15ce>
80001408:	401c                	lw	a5,0(s0)
8000140a:	4018                	lw	a4,0(s0)
8000140c:	f2842903          	lw	s2,-216(s0)
80001410:	0786                	slli	a5,a5,0x1
80001412:	97ba                	add	a5,a5,a4
80001414:	079a                	slli	a5,a5,0x6
80001416:	eaf42c23          	sw	a5,-328(s0)
8000141a:	f0c42783          	lw	a5,-244(s0)
8000141e:	00371893          	slli	a7,a4,0x3
80001422:	6305                	lui	t1,0x1
80001424:	0c078f13          	addi	t5,a5,192
80001428:	eb142023          	sw	a7,-352(s0)
8000142c:	4e01                	li	t3,0
8000142e:	43e1                	li	t2,24
80001430:	42e5                	li	t0,25
80001432:	2c030313          	addi	t1,t1,704 # 12c0 <_tbss_end+0x123c>
80001436:	06090f63          	beqz	s2,800014b4 <mm_cb+0x330>
8000143a:	027e5eb3          	divu	t4,t3,t2
8000143e:	f3442783          	lw	a5,-204(s0)
80001442:	84fa                	mv	s1,t5
80001444:	4f81                	li	t6,0
80001446:	02fe8eb3          	mul	t4,t4,a5
8000144a:	f1442783          	lw	a5,-236(s0)
8000144e:	86a6                	mv	a3,s1
80001450:	025fd633          	divu	a2,t6,t0
80001454:	9676                	add	a2,a2,t4
80001456:	02660633          	mul	a2,a2,t1
8000145a:	963e                	add	a2,a2,a5
8000145c:	006605b3          	add	a1,a2,t1
80001460:	f4068793          	addi	a5,a3,-192
80001464:	8732                	mv	a4,a2
80001466:	0007b087          	fld	ft1,0(a5)
8000146a:	0087b007          	fld	ft0,8(a5)
8000146e:	2b88                	fld	fa0,16(a5)
80001470:	2f8c                	fld	fa1,24(a5)
80001472:	3390                	fld	fa2,32(a5)
80001474:	3794                	fld	fa3,40(a5)
80001476:	3b98                	fld	fa4,48(a5)
80001478:	3f9c                	fld	fa5,56(a5)
8000147a:	00173027          	fsd	ft1,0(a4)
8000147e:	00073427          	fsd	ft0,8(a4)
80001482:	ab08                	fsd	fa0,16(a4)
80001484:	af0c                	fsd	fa1,24(a4)
80001486:	b310                	fsd	fa2,32(a4)
80001488:	b714                	fsd	fa3,40(a4)
8000148a:	bb18                	fsd	fa4,48(a4)
8000148c:	bf1c                	fsd	fa5,56(a4)
8000148e:	04078793          	addi	a5,a5,64
80001492:	04070713          	addi	a4,a4,64
80001496:	fcf698e3          	bne	a3,a5,80001466 <mm_cb+0x2e2>
8000149a:	229c                	fld	fa5,0(a3)
8000149c:	0c860613          	addi	a2,a2,200
800014a0:	96c6                	add	a3,a3,a7
800014a2:	fef63c27          	fsd	fa5,-8(a2)
800014a6:	fac59de3          	bne	a1,a2,80001460 <mm_cb+0x2dc>
800014aa:	0fe5                	addi	t6,t6,25
800014ac:	0c848493          	addi	s1,s1,200
800014b0:	f92fede3          	bltu	t6,s2,8000144a <mm_cb+0x2c6>
800014b4:	eb842783          	lw	a5,-328(s0)
800014b8:	0e61                	addi	t3,t3,24
800014ba:	9f3e                	add	t5,t5,a5
800014bc:	f2c42783          	lw	a5,-212(s0)
800014c0:	f6fe6be3          	bltu	t3,a5,80001436 <mm_cb+0x2b2>
800014c4:	f3042703          	lw	a4,-208(s0)
800014c8:	47e1                	li	a5,24
800014ca:	f4442483          	lw	s1,-188(s0)
800014ce:	02f778b3          	remu	a7,a4,a5
800014d2:	f4042e83          	lw	t4,-192(s0)
800014d6:	f2842683          	lw	a3,-216(s0)
800014da:	00249793          	slli	a5,s1,0x2
800014de:	97a6                	add	a5,a5,s1
800014e0:	9876                	add	a6,a6,t4
800014e2:	00379c13          	slli	s8,a5,0x3
800014e6:	068e                	slli	a3,a3,0x3
800014e8:	00681793          	slli	a5,a6,0x6
800014ec:	eef42223          	sw	a5,-284(s0)
800014f0:	87b6                	mv	a5,a3
800014f2:	f0c42683          	lw	a3,-244(s0)
800014f6:	9526                	add	a0,a0,s1
800014f8:	f3c42e03          	lw	t3,-196(s0)
800014fc:	00449a93          	slli	s5,s1,0x4
80001500:	00549b93          	slli	s7,s1,0x5
80001504:	ee842483          	lw	s1,-280(s0)
80001508:	96be                	add	a3,a3,a5
8000150a:	eed42c23          	sw	a3,-264(s0)
8000150e:	ebc42683          	lw	a3,-324(s0)
80001512:	41c005b3          	neg	a1,t3
80001516:	97a6                	add	a5,a5,s1
80001518:	003e1313          	slli	t1,t3,0x3
8000151c:	e8f42c23          	sw	a5,-360(s0)
80001520:	00359793          	slli	a5,a1,0x3
80001524:	969a                	add	a3,a3,t1
80001526:	e8f42623          	sw	a5,-372(s0)
8000152a:	401c                	lw	a5,0(s0)
8000152c:	f4d42c23          	sw	a3,-168(s0)
80001530:	005e9693          	slli	a3,t4,0x5
80001534:	eed42a23          	sw	a3,-268(s0)
80001538:	00651693          	slli	a3,a0,0x6
8000153c:	6605                	lui	a2,0x1
8000153e:	0796                	slli	a5,a5,0x5
80001540:	e8d42823          	sw	a3,-368(s0)
80001544:	f1842683          	lw	a3,-232(s0)
80001548:	ecf42023          	sw	a5,-320(s0)
8000154c:	38860793          	addi	a5,a2,904 # 1388 <_tbss_end+0x1304>
80001550:	eaf42823          	sw	a5,-336(s0)
80001554:	47e5                	li	a5,25
80001556:	00451c93          	slli	s9,a0,0x4
8000155a:	00351b13          	slli	s6,a0,0x3
8000155e:	02f6f533          	remu	a0,a3,a5
80001562:	00389793          	slli	a5,a7,0x3
80001566:	ecf42623          	sw	a5,-308(s0)
8000156a:	4799                	li	a5,6
8000156c:	4715                	li	a4,5
8000156e:	2c060d13          	addi	s10,a2,704
80001572:	8a62                	mv	s4,s8
80001574:	f1142023          	sw	a7,-256(s0)
80001578:	8c56                	mv	s8,s5
8000157a:	f0042223          	sw	zero,-252(s0)
8000157e:	8ae6                	mv	s5,s9
80001580:	02f8d7b3          	divu	a5,a7,a5
80001584:	eaa42623          	sw	a0,-340(s0)
80001588:	00179693          	slli	a3,a5,0x1
8000158c:	96be                	add	a3,a3,a5
8000158e:	0692                	slli	a3,a3,0x4
80001590:	039787b3          	mul	a5,a5,s9
80001594:	e8d42a23          	sw	a3,-364(s0)
80001598:	03cd86b3          	mul	a3,s11,t3
8000159c:	eaf42223          	sw	a5,-348(s0)
800015a0:	02e55633          	divu	a2,a0,a4
800015a4:	00d487b3          	add	a5,s1,a3
800015a8:	e8f42e23          	sw	a5,-356(s0)
800015ac:	02e577b3          	remu	a5,a0,a4
800015b0:	00261593          	slli	a1,a2,0x2
800015b4:	962e                	add	a2,a2,a1
800015b6:	f2c42c23          	sw	a2,-200(s0)
800015ba:	060e                	slli	a2,a2,0x3
800015bc:	eec42e23          	sw	a2,-260(s0)
800015c0:	ecf42423          	sw	a5,-312(s0)
800015c4:	f2842783          	lw	a5,-216(s0)
800015c8:	e399                	bnez	a5,800015ce <mm_cb+0x44a>
800015ca:	1180206f          	j	800036e2 <mm_cb+0x255e>
800015ce:	f0442703          	lw	a4,-252(s0)
800015d2:	47e1                	li	a5,24
800015d4:	f5842683          	lw	a3,-168(s0)
800015d8:	02f757b3          	divu	a5,a4,a5
800015dc:	ee442703          	lw	a4,-284(s0)
800015e0:	f4042423          	sw	zero,-184(s0)
800015e4:	8cee                	mv	s9,s11
800015e6:	9736                	add	a4,a4,a3
800015e8:	ece42e23          	sw	a4,-292(s0)
800015ec:	e9c42703          	lw	a4,-356(s0)
800015f0:	f4e42823          	sw	a4,-176(s0)
800015f4:	ed842703          	lw	a4,-296(s0)
800015f8:	02e78733          	mul	a4,a5,a4
800015fc:	f6e42423          	sw	a4,-152(s0)
80001600:	f3442703          	lw	a4,-204(s0)
80001604:	02e787b3          	mul	a5,a5,a4
80001608:	f2f42223          	sw	a5,-220(s0)
8000160c:	f3c42783          	lw	a5,-196(s0)
80001610:	64078763          	beqz	a5,80001c5e <mm_cb+0xada>
80001614:	f4842783          	lw	a5,-184(s0)
80001618:	4765                	li	a4,25
8000161a:	f3842023          	sw	s8,-224(s0)
8000161e:	02e7d7b3          	divu	a5,a5,a4
80001622:	f2442703          	lw	a4,-220(s0)
80001626:	f1742e23          	sw	s7,-228(s0)
8000162a:	ed042c03          	lw	s8,-304(s0)
8000162e:	ed442b83          	lw	s7,-300(s0)
80001632:	ed942223          	sw	s9,-316(s0)
80001636:	4d81                	li	s11,0
80001638:	f1642823          	sw	s6,-240(s0)
8000163c:	f1442423          	sw	s4,-248(s0)
80001640:	ef542823          	sw	s5,-272(s0)
80001644:	00e789b3          	add	s3,a5,a4
80001648:	03a989b3          	mul	s3,s3,s10
8000164c:	f6f42823          	sw	a5,-144(s0)
80001650:	f1442783          	lw	a5,-236(s0)
80001654:	99be                	add	s3,s3,a5
80001656:	0c898713          	addi	a4,s3,200
8000165a:	f6e42023          	sw	a4,-160(s0)
8000165e:	eb042703          	lw	a4,-336(s0)
80001662:	01a987b3          	add	a5,s3,s10
80001666:	8cbe                	mv	s9,a5
80001668:	99ba                	add	s3,s3,a4
8000166a:	47e1                	li	a5,24
8000166c:	02fdd7b3          	divu	a5,s11,a5
80001670:	f3442703          	lw	a4,-204(s0)
80001674:	f6042b03          	lw	s6,-160(s0)
80001678:	02e784b3          	mul	s1,a5,a4
8000167c:	f6842703          	lw	a4,-152(s0)
80001680:	97ba                	add	a5,a5,a4
80001682:	00379913          	slli	s2,a5,0x3
80001686:	993e                	add	s2,s2,a5
80001688:	f7042783          	lw	a5,-144(s0)
8000168c:	0926                	slli	s2,s2,0x9
8000168e:	995e                	add	s2,s2,s7
80001690:	94be                	add	s1,s1,a5
80001692:	03a484b3          	mul	s1,s1,s10
80001696:	8aca                	mv	s5,s2
80001698:	94e2                	add	s1,s1,s8
8000169a:	0c848a13          	addi	s4,s1,200
8000169e:	f38b0693          	addi	a3,s6,-200
800016a2:	8626                	mv	a2,s1
800016a4:	1986b787          	fld	fa5,408(a3)
800016a8:	0006bf87          	fld	ft11,0(a3)
800016ac:	0086bf07          	fld	ft10,8(a3)
800016b0:	faf43427          	fsd	fa5,-88(s0)
800016b4:	1a06b787          	fld	fa5,416(a3)
800016b8:	0106be87          	fld	ft9,16(a3)
800016bc:	0186be07          	fld	ft8,24(a3)
800016c0:	faf43027          	fsd	fa5,-96(s0)
800016c4:	1a86b787          	fld	fa5,424(a3)
800016c8:	3298                	fld	fa4,32(a3)
800016ca:	0c86b887          	fld	fa7,200(a3)
800016ce:	f8f43c27          	fsd	fa5,-104(s0)
800016d2:	1b06b787          	fld	fa5,432(a3)
800016d6:	0d06b807          	fld	fa6,208(a3)
800016da:	0d86b387          	fld	ft7,216(a3)
800016de:	f8f43827          	fsd	fa5,-112(s0)
800016e2:	2586b787          	fld	fa5,600(a3)
800016e6:	0e06b307          	fld	ft6,224(a3)
800016ea:	36e8                	fld	fa0,232(a3)
800016ec:	f8f43427          	fsd	fa5,-120(s0)
800016f0:	2606b787          	fld	fa5,608(a3)
800016f4:	1906b287          	fld	ft5,400(a3)
800016f8:	87b2                	mv	a5,a2
800016fa:	f8f43027          	fsd	fa5,-128(s0)
800016fe:	2686b787          	fld	fa5,616(a3)
80001702:	01a605b3          	add	a1,a2,s10
80001706:	8756                	mv	a4,s5
80001708:	f6f43c27          	fsd	fa5,-136(s0)
8000170c:	2706b787          	fld	fa5,624(a3)
80001710:	faf43827          	fsd	fa5,-80(s0)
80001714:	2786b787          	fld	fa5,632(a3)
80001718:	faf43c27          	fsd	fa5,-72(s0)
8000171c:	230c                	fld	fa1,0(a4)
8000171e:	2370                	fld	fa2,192(a4)
80001720:	0207b007          	fld	ft0,32(a5)
80001724:	0007b207          	fld	ft4,0(a5)
80001728:	0087b187          	fld	ft3,8(a5)
8000172c:	0107b107          	fld	ft2,16(a5)
80001730:	0187b087          	fld	ft1,24(a5)
80001734:	18073687          	fld	fa3,384(a4)
80001738:	fa45ffc3          	fmadd.d	ft11,fa1,ft4,ft11
8000173c:	f235ff43          	fmadd.d	ft10,fa1,ft3,ft10
80001740:	ea25fec3          	fmadd.d	ft9,fa1,ft2,ft9
80001744:	e215fe43          	fmadd.d	ft8,fa1,ft1,ft8
80001748:	7205f743          	fmadd.d	fa4,fa1,ft0,fa4
8000174c:	8ac278c3          	fmadd.d	fa7,ft4,fa2,fa7
80001750:	82c1f843          	fmadd.d	fa6,ft3,fa2,fa6
80001754:	3ac173c3          	fmadd.d	ft7,ft2,fa2,ft7
80001758:	32c0f343          	fmadd.d	ft6,ft1,fa2,ft6
8000175c:	52c07543          	fmadd.d	fa0,ft0,fa2,fa0
80001760:	fa043587          	fld	fa1,-96(s0)
80001764:	fa843607          	fld	fa2,-88(s0)
80001768:	2ad272c3          	fmadd.d	ft5,ft4,fa3,ft5
8000176c:	5ad175c3          	fmadd.d	fa1,ft2,fa3,fa1
80001770:	62d1f643          	fmadd.d	fa2,ft3,fa3,fa2
80001774:	24073787          	fld	fa5,576(a4)
80001778:	4b078793          	addi	a5,a5,1200
8000177c:	03070713          	addi	a4,a4,48
80001780:	fab43027          	fsd	fa1,-96(s0)
80001784:	fac43427          	fsd	fa2,-88(s0)
80001788:	f9043587          	fld	fa1,-112(s0)
8000178c:	f9843607          	fld	fa2,-104(s0)
80001790:	62d0f643          	fmadd.d	fa2,ft1,fa3,fa2
80001794:	5ad076c3          	fmadd.d	fa3,ft0,fa3,fa1
80001798:	fd873587          	fld	fa1,-40(a4)
8000179c:	f8c43c27          	fsd	fa2,-104(s0)
800017a0:	f8d43827          	fsd	fa3,-112(s0)
800017a4:	f8843687          	fld	fa3,-120(s0)
800017a8:	2f50                	fld	fa2,152(a4)
800017aa:	6af27243          	fmadd.d	ft4,ft4,fa5,fa3
800017ae:	15873687          	fld	fa3,344(a4)
800017b2:	f8443427          	fsd	ft4,-120(s0)
800017b6:	f8043207          	fld	ft4,-128(s0)
800017ba:	22f1f1c3          	fmadd.d	ft3,ft3,fa5,ft4
800017be:	c187b207          	fld	ft4,-1000(a5)
800017c2:	8ac278c3          	fmadd.d	fa7,ft4,fa2,fa7
800017c6:	fa45ffc3          	fmadd.d	ft11,fa1,ft4,ft11
800017ca:	2ad272c3          	fmadd.d	ft5,ft4,fa3,ft5
800017ce:	f8343027          	fsd	ft3,-128(s0)
800017d2:	f7843187          	fld	ft3,-136(s0)
800017d6:	1af17143          	fmadd.d	ft2,ft2,fa5,ft3
800017da:	f6243c27          	fsd	ft2,-136(s0)
800017de:	fb043107          	fld	ft2,-80(s0)
800017e2:	12f0f0c3          	fmadd.d	ft1,ft1,fa5,ft2
800017e6:	fa143827          	fsd	ft1,-80(s0)
800017ea:	fb843087          	fld	ft1,-72(s0)
800017ee:	0af077c3          	fmadd.d	fa5,ft0,fa5,ft1
800017f2:	faf43c27          	fsd	fa5,-72(s0)
800017f6:	21873787          	fld	fa5,536(a4)
800017fa:	c207b187          	fld	ft3,-992(a5)
800017fe:	c387b007          	fld	ft0,-968(a5)
80001802:	c287b107          	fld	ft2,-984(a5)
80001806:	c307b087          	fld	ft1,-976(a5)
8000180a:	82c1f843          	fmadd.d	fa6,ft3,fa2,fa6
8000180e:	3ac173c3          	fmadd.d	ft7,ft2,fa2,ft7
80001812:	32c0f343          	fmadd.d	ft6,ft1,fa2,ft6
80001816:	52c07543          	fmadd.d	fa0,ft0,fa2,fa0
8000181a:	fa843607          	fld	fa2,-88(s0)
8000181e:	f235ff43          	fmadd.d	ft10,fa1,ft3,ft10
80001822:	ea25fec3          	fmadd.d	ft9,fa1,ft2,ft9
80001826:	e215fe43          	fmadd.d	ft8,fa1,ft1,ft8
8000182a:	7205f743          	fmadd.d	fa4,fa1,ft0,fa4
8000182e:	62d1f5c3          	fmadd.d	fa1,ft3,fa3,fa2
80001832:	f9843607          	fld	fa2,-104(s0)
80001836:	62d0f643          	fmadd.d	fa2,ft1,fa3,fa2
8000183a:	fab43427          	fsd	fa1,-88(s0)
8000183e:	fa043587          	fld	fa1,-96(s0)
80001842:	f8c43c27          	fsd	fa2,-104(s0)
80001846:	f9043607          	fld	fa2,-112(s0)
8000184a:	5ad175c3          	fmadd.d	fa1,ft2,fa3,fa1
8000184e:	62d07643          	fmadd.d	fa2,ft0,fa3,fa2
80001852:	f8843687          	fld	fa3,-120(s0)
80001856:	6af27243          	fmadd.d	ft4,ft4,fa5,fa3
8000185a:	f8043687          	fld	fa3,-128(s0)
8000185e:	fab43027          	fsd	fa1,-96(s0)
80001862:	fe073587          	fld	fa1,-32(a4)
80001866:	6af1f1c3          	fmadd.d	ft3,ft3,fa5,fa3
8000186a:	f7843687          	fld	fa3,-136(s0)
8000186e:	f8c43827          	fsd	fa2,-112(s0)
80001872:	f8443427          	fsd	ft4,-120(s0)
80001876:	6af17143          	fmadd.d	ft2,ft2,fa5,fa3
8000187a:	fb043687          	fld	fa3,-80(s0)
8000187e:	ce07b207          	fld	ft4,-800(a5)
80001882:	f8343027          	fsd	ft3,-128(s0)
80001886:	6af0f0c3          	fmadd.d	ft1,ft1,fa5,fa3
8000188a:	fb843687          	fld	fa3,-72(s0)
8000188e:	ce87b187          	fld	ft3,-792(a5)
80001892:	f6243c27          	fsd	ft2,-136(s0)
80001896:	6af077c3          	fmadd.d	fa5,ft0,fa5,fa3
8000189a:	cf07b107          	fld	ft2,-784(a5)
8000189e:	16073687          	fld	fa3,352(a4)
800018a2:	fa143827          	fsd	ft1,-80(s0)
800018a6:	cf87b087          	fld	ft1,-776(a5)
800018aa:	fa45ffc3          	fmadd.d	ft11,fa1,ft4,ft11
800018ae:	f235ff43          	fmadd.d	ft10,fa1,ft3,ft10
800018b2:	faf43c27          	fsd	fa5,-72(s0)
800018b6:	d007b787          	fld	fa5,-768(a5)
800018ba:	ea25fec3          	fmadd.d	ft9,fa1,ft2,ft9
800018be:	e215fe43          	fmadd.d	ft8,fa1,ft1,ft8
800018c2:	72f5f743          	fmadd.d	fa4,fa1,fa5,fa4
800018c6:	fa843587          	fld	fa1,-88(s0)
800018ca:	3350                	fld	fa2,160(a4)
800018cc:	22073007          	fld	ft0,544(a4)
800018d0:	5ad1f5c3          	fmadd.d	fa1,ft3,fa3,fa1
800018d4:	8ac278c3          	fmadd.d	fa7,ft4,fa2,fa7
800018d8:	82c1f843          	fmadd.d	fa6,ft3,fa2,fa6
800018dc:	3ac173c3          	fmadd.d	ft7,ft2,fa2,ft7
800018e0:	32c0f343          	fmadd.d	ft6,ft1,fa2,ft6
800018e4:	52c7f543          	fmadd.d	fa0,fa5,fa2,fa0
800018e8:	2ad272c3          	fmadd.d	ft5,ft4,fa3,ft5
800018ec:	fab43427          	fsd	fa1,-88(s0)
800018f0:	f9843607          	fld	fa2,-104(s0)
800018f4:	fa043587          	fld	fa1,-96(s0)
800018f8:	62d0f643          	fmadd.d	fa2,ft1,fa3,fa2
800018fc:	5ad175c3          	fmadd.d	fa1,ft2,fa3,fa1
80001900:	f8c43c27          	fsd	fa2,-104(s0)
80001904:	f9043607          	fld	fa2,-112(s0)
80001908:	fab43027          	fsd	fa1,-96(s0)
8000190c:	fe873587          	fld	fa1,-24(a4)
80001910:	62d7f643          	fmadd.d	fa2,fa5,fa3,fa2
80001914:	f8843687          	fld	fa3,-120(s0)
80001918:	6a027243          	fmadd.d	ft4,ft4,ft0,fa3
8000191c:	f8043687          	fld	fa3,-128(s0)
80001920:	f8c43827          	fsd	fa2,-112(s0)
80001924:	6a01f1c3          	fmadd.d	ft3,ft3,ft0,fa3
80001928:	f7843687          	fld	fa3,-136(s0)
8000192c:	3750                	fld	fa2,168(a4)
8000192e:	f8443427          	fsd	ft4,-120(s0)
80001932:	6a017143          	fmadd.d	ft2,ft2,ft0,fa3
80001936:	fb043687          	fld	fa3,-80(s0)
8000193a:	da87b207          	fld	ft4,-600(a5)
8000193e:	f8343027          	fsd	ft3,-128(s0)
80001942:	6a00f0c3          	fmadd.d	ft1,ft1,ft0,fa3
80001946:	fb843687          	fld	fa3,-72(s0)
8000194a:	db07b187          	fld	ft3,-592(a5)
8000194e:	f6243c27          	fsd	ft2,-136(s0)
80001952:	6a07f7c3          	fmadd.d	fa5,fa5,ft0,fa3
80001956:	db87b107          	fld	ft2,-584(a5)
8000195a:	16873687          	fld	fa3,360(a4)
8000195e:	fa143827          	fsd	ft1,-80(s0)
80001962:	dc07b087          	fld	ft1,-576(a5)
80001966:	fa45ffc3          	fmadd.d	ft11,fa1,ft4,ft11
8000196a:	f235ff43          	fmadd.d	ft10,fa1,ft3,ft10
8000196e:	faf43c27          	fsd	fa5,-72(s0)
80001972:	dc87b787          	fld	fa5,-568(a5)
80001976:	ea25fec3          	fmadd.d	ft9,fa1,ft2,ft9
8000197a:	e215fe43          	fmadd.d	ft8,fa1,ft1,ft8
8000197e:	72f5f743          	fmadd.d	fa4,fa1,fa5,fa4
80001982:	fa843587          	fld	fa1,-88(s0)
80001986:	52c7f543          	fmadd.d	fa0,fa5,fa2,fa0
8000198a:	8ac278c3          	fmadd.d	fa7,ft4,fa2,fa7
8000198e:	82c1f843          	fmadd.d	fa6,ft3,fa2,fa6
80001992:	3ac173c3          	fmadd.d	ft7,ft2,fa2,ft7
80001996:	32c0f343          	fmadd.d	ft6,ft1,fa2,ft6
8000199a:	f9843607          	fld	fa2,-104(s0)
8000199e:	5ad1f5c3          	fmadd.d	fa1,ft3,fa3,fa1
800019a2:	22873007          	fld	ft0,552(a4)
800019a6:	62d0f643          	fmadd.d	fa2,ft1,fa3,fa2
800019aa:	2ad272c3          	fmadd.d	ft5,ft4,fa3,ft5
800019ae:	fab43427          	fsd	fa1,-88(s0)
800019b2:	fa043587          	fld	fa1,-96(s0)
800019b6:	f8c43c27          	fsd	fa2,-104(s0)
800019ba:	f9043607          	fld	fa2,-112(s0)
800019be:	5ad175c3          	fmadd.d	fa1,ft2,fa3,fa1
800019c2:	62d7f643          	fmadd.d	fa2,fa5,fa3,fa2
800019c6:	fab43027          	fsd	fa1,-96(s0)
800019ca:	f8c43827          	fsd	fa2,-112(s0)
800019ce:	f8843687          	fld	fa3,-120(s0)
800019d2:	ff073587          	fld	fa1,-16(a4)
800019d6:	3b50                	fld	fa2,176(a4)
800019d8:	6a027243          	fmadd.d	ft4,ft4,ft0,fa3
800019dc:	f8043687          	fld	fa3,-128(s0)
800019e0:	6a01f1c3          	fmadd.d	ft3,ft3,ft0,fa3
800019e4:	f7843687          	fld	fa3,-136(s0)
800019e8:	f8443427          	fsd	ft4,-120(s0)
800019ec:	6a017143          	fmadd.d	ft2,ft2,ft0,fa3
800019f0:	fb043687          	fld	fa3,-80(s0)
800019f4:	e707b207          	fld	ft4,-400(a5)
800019f8:	f8343027          	fsd	ft3,-128(s0)
800019fc:	6a00f0c3          	fmadd.d	ft1,ft1,ft0,fa3
80001a00:	fb843687          	fld	fa3,-72(s0)
80001a04:	e787b187          	fld	ft3,-392(a5)
80001a08:	f6243c27          	fsd	ft2,-136(s0)
80001a0c:	6a07f7c3          	fmadd.d	fa5,fa5,ft0,fa3
80001a10:	e807b107          	fld	ft2,-384(a5)
80001a14:	17073687          	fld	fa3,368(a4)
80001a18:	fa143827          	fsd	ft1,-80(s0)
80001a1c:	e887b087          	fld	ft1,-376(a5)
80001a20:	fa45ffc3          	fmadd.d	ft11,fa1,ft4,ft11
80001a24:	f235ff43          	fmadd.d	ft10,fa1,ft3,ft10
80001a28:	faf43c27          	fsd	fa5,-72(s0)
80001a2c:	e907b787          	fld	fa5,-368(a5)
80001a30:	ea25fec3          	fmadd.d	ft9,fa1,ft2,ft9
80001a34:	e215fe43          	fmadd.d	ft8,fa1,ft1,ft8
80001a38:	72f5f743          	fmadd.d	fa4,fa1,fa5,fa4
80001a3c:	fa843587          	fld	fa1,-88(s0)
80001a40:	8ac278c3          	fmadd.d	fa7,ft4,fa2,fa7
80001a44:	82c1f843          	fmadd.d	fa6,ft3,fa2,fa6
80001a48:	3ac173c3          	fmadd.d	ft7,ft2,fa2,ft7
80001a4c:	32c0f343          	fmadd.d	ft6,ft1,fa2,ft6
80001a50:	52c7f643          	fmadd.d	fa2,fa5,fa2,fa0
80001a54:	5ad1f543          	fmadd.d	fa0,ft3,fa3,fa1
80001a58:	fa043587          	fld	fa1,-96(s0)
80001a5c:	23073007          	fld	ft0,560(a4)
80001a60:	2ad272c3          	fmadd.d	ft5,ft4,fa3,ft5
80001a64:	faa43427          	fsd	fa0,-88(s0)
80001a68:	5ad17543          	fmadd.d	fa0,ft2,fa3,fa1
80001a6c:	f9843587          	fld	fa1,-104(s0)
80001a70:	5ad0f5c3          	fmadd.d	fa1,ft1,fa3,fa1
80001a74:	faa43027          	fsd	fa0,-96(s0)
80001a78:	f8b43c27          	fsd	fa1,-104(s0)
80001a7c:	f9043587          	fld	fa1,-112(s0)
80001a80:	5ad7f5c3          	fmadd.d	fa1,fa5,fa3,fa1
80001a84:	f8843687          	fld	fa3,-120(s0)
80001a88:	6a027243          	fmadd.d	ft4,ft4,ft0,fa3
80001a8c:	f8043687          	fld	fa3,-128(s0)
80001a90:	f8b43827          	fsd	fa1,-112(s0)
80001a94:	6a01f1c3          	fmadd.d	ft3,ft3,ft0,fa3
80001a98:	f7843687          	fld	fa3,-136(s0)
80001a9c:	f8443427          	fsd	ft4,-120(s0)
80001aa0:	6a017143          	fmadd.d	ft2,ft2,ft0,fa3
80001aa4:	f8343027          	fsd	ft3,-128(s0)
80001aa8:	f6243c27          	fsd	ft2,-136(s0)
80001aac:	fb043687          	fld	fa3,-80(s0)
80001ab0:	3f48                	fld	fa0,184(a4)
80001ab2:	f387b207          	fld	ft4,-200(a5)
80001ab6:	6a00f0c3          	fmadd.d	ft1,ft1,ft0,fa3
80001aba:	fb843687          	fld	fa3,-72(s0)
80001abe:	f407b187          	fld	ft3,-192(a5)
80001ac2:	f487b107          	fld	ft2,-184(a5)
80001ac6:	6a07f7c3          	fmadd.d	fa5,fa5,ft0,fa3
80001aca:	8aa278c3          	fmadd.d	fa7,ft4,fa0,fa7
80001ace:	17873687          	fld	fa3,376(a4)
80001ad2:	fa143827          	fsd	ft1,-80(s0)
80001ad6:	f507b087          	fld	ft1,-176(a5)
80001ada:	82a1f843          	fmadd.d	fa6,ft3,fa0,fa6
80001ade:	3aa173c3          	fmadd.d	ft7,ft2,fa0,ft7
80001ae2:	faf43c27          	fsd	fa5,-72(s0)
80001ae6:	f587b787          	fld	fa5,-168(a5)
80001aea:	32a0f343          	fmadd.d	ft6,ft1,fa0,ft6
80001aee:	ff873587          	fld	fa1,-8(a4)
80001af2:	62a7f543          	fmadd.d	fa0,fa5,fa0,fa2
80001af6:	fa843607          	fld	fa2,-88(s0)
80001afa:	72f5f743          	fmadd.d	fa4,fa1,fa5,fa4
80001afe:	fa45ffc3          	fmadd.d	ft11,fa1,ft4,ft11
80001b02:	62d1f643          	fmadd.d	fa2,ft3,fa3,fa2
80001b06:	f235ff43          	fmadd.d	ft10,fa1,ft3,ft10
80001b0a:	ea25fec3          	fmadd.d	ft9,fa1,ft2,ft9
80001b0e:	e215fe43          	fmadd.d	ft8,fa1,ft1,ft8
80001b12:	f9843587          	fld	fa1,-104(s0)
80001b16:	23873007          	fld	ft0,568(a4)
80001b1a:	2ad272c3          	fmadd.d	ft5,ft4,fa3,ft5
80001b1e:	fac43427          	fsd	fa2,-88(s0)
80001b22:	fa043607          	fld	fa2,-96(s0)
80001b26:	62d17643          	fmadd.d	fa2,ft2,fa3,fa2
80001b2a:	fac43027          	fsd	fa2,-96(s0)
80001b2e:	5ad0f643          	fmadd.d	fa2,ft1,fa3,fa1
80001b32:	f9043587          	fld	fa1,-112(s0)
80001b36:	f8c43c27          	fsd	fa2,-104(s0)
80001b3a:	5ad7f643          	fmadd.d	fa2,fa5,fa3,fa1
80001b3e:	f8843687          	fld	fa3,-120(s0)
80001b42:	f8c43827          	fsd	fa2,-112(s0)
80001b46:	6a027643          	fmadd.d	fa2,ft4,ft0,fa3
80001b4a:	f8043687          	fld	fa3,-128(s0)
80001b4e:	f8c43427          	fsd	fa2,-120(s0)
80001b52:	6a01f643          	fmadd.d	fa2,ft3,ft0,fa3
80001b56:	f7843687          	fld	fa3,-136(s0)
80001b5a:	f8c43027          	fsd	fa2,-128(s0)
80001b5e:	6a017643          	fmadd.d	fa2,ft2,ft0,fa3
80001b62:	fb043687          	fld	fa3,-80(s0)
80001b66:	f6c43c27          	fsd	fa2,-136(s0)
80001b6a:	6a00f643          	fmadd.d	fa2,ft1,ft0,fa3
80001b6e:	fb843687          	fld	fa3,-72(s0)
80001b72:	6a07f7c3          	fmadd.d	fa5,fa5,ft0,fa3
80001b76:	fac43827          	fsd	fa2,-80(s0)
80001b7a:	faf43c27          	fsd	fa5,-72(s0)
80001b7e:	b8b79fe3          	bne	a5,a1,8000171c <mm_cb+0x598>
80001b82:	fa843787          	fld	fa5,-88(s0)
80001b86:	01f6b027          	fsd	ft11,0(a3)
80001b8a:	01e6b427          	fsd	ft10,8(a3)
80001b8e:	18f6bc27          	fsd	fa5,408(a3)
80001b92:	fa043787          	fld	fa5,-96(s0)
80001b96:	01d6b827          	fsd	ft9,16(a3)
80001b9a:	01c6bc27          	fsd	ft8,24(a3)
80001b9e:	1af6b027          	fsd	fa5,416(a3)
80001ba2:	f9843787          	fld	fa5,-104(s0)
80001ba6:	b298                	fsd	fa4,32(a3)
80001ba8:	0d16b427          	fsd	fa7,200(a3)
80001bac:	1af6b427          	fsd	fa5,424(a3)
80001bb0:	f9043787          	fld	fa5,-112(s0)
80001bb4:	0d06b827          	fsd	fa6,208(a3)
80001bb8:	0c76bc27          	fsd	ft7,216(a3)
80001bbc:	1af6b827          	fsd	fa5,432(a3)
80001bc0:	f8843787          	fld	fa5,-120(s0)
80001bc4:	0e66b027          	fsd	ft6,224(a3)
80001bc8:	b6e8                	fsd	fa0,232(a3)
80001bca:	24f6bc27          	fsd	fa5,600(a3)
80001bce:	f8043787          	fld	fa5,-128(s0)
80001bd2:	1856b827          	fsd	ft5,400(a3)
80001bd6:	26c6b827          	fsd	fa2,624(a3)
80001bda:	26f6b027          	fsd	fa5,608(a3)
80001bde:	f7843787          	fld	fa5,-136(s0)
80001be2:	02860613          	addi	a2,a2,40
80001be6:	02868693          	addi	a3,a3,40
80001bea:	24f6b027          	fsd	fa5,576(a3)
80001bee:	fb843787          	fld	fa5,-72(s0)
80001bf2:	24f6b827          	fsd	fa5,592(a3)
80001bf6:	aaca17e3          	bne	s4,a2,800016a4 <mm_cb+0x520>
80001bfa:	47e5                	li	a5,25
80001bfc:	88da                	mv	a7,s6
80001bfe:	86d6                	mv	a3,s5
80001c00:	c03e                	sw	a5,0(sp)
80001c02:	4865                	li	a6,25
80001c04:	87d2                	mv	a5,s4
80001c06:	4761                	li	a4,24
80001c08:	4661                	li	a2,24
80001c0a:	4581                	li	a1,0
80001c0c:	4511                	li	a0,4
80001c0e:	320b0b13          	addi	s6,s6,800
80001c12:	c36ff0ef          	jal	ra,80001048 <mm_naive>
80001c16:	300a8a93          	addi	s5,s5,768
80001c1a:	a96992e3          	bne	s3,s6,8000169e <mm_cb+0x51a>
80001c1e:	6685                	lui	a3,0x1
80001c20:	47e5                	li	a5,25
80001c22:	20068693          	addi	a3,a3,512 # 1200 <_tbss_end+0x117c>
80001c26:	c03e                	sw	a5,0(sp)
80001c28:	88e6                	mv	a7,s9
80001c2a:	87a6                	mv	a5,s1
80001c2c:	4865                	li	a6,25
80001c2e:	4761                	li	a4,24
80001c30:	96ca                	add	a3,a3,s2
80001c32:	4661                	li	a2,24
80001c34:	45e5                	li	a1,25
80001c36:	4501                	li	a0,0
80001c38:	c10ff0ef          	jal	ra,80001048 <mm_naive>
80001c3c:	f3c42783          	lw	a5,-196(s0)
80001c40:	0de1                	addi	s11,s11,24
80001c42:	a2fde4e3          	bltu	s11,a5,8000166a <mm_cb+0x4e6>
80001c46:	f2042c03          	lw	s8,-224(s0)
80001c4a:	f1c42b83          	lw	s7,-228(s0)
80001c4e:	f1042b03          	lw	s6,-240(s0)
80001c52:	f0842a03          	lw	s4,-248(s0)
80001c56:	ef042a83          	lw	s5,-272(s0)
80001c5a:	ec442c83          	lw	s9,-316(s0)
80001c5e:	f5042783          	lw	a5,-176(s0)
80001c62:	f3c42703          	lw	a4,-196(s0)
80001c66:	0c878e13          	addi	t3,a5,200
80001c6a:	f3042783          	lw	a5,-208(s0)
80001c6e:	2ef767e3          	bltu	a4,a5,8000275c <mm_cb+0x15d8>
80001c72:	f4842783          	lw	a5,-184(s0)
80001c76:	f2842703          	lw	a4,-216(s0)
80001c7a:	f5c42823          	sw	t3,-176(s0)
80001c7e:	07e5                	addi	a5,a5,25
80001c80:	f4f42423          	sw	a5,-184(s0)
80001c84:	98e7e4e3          	bltu	a5,a4,8000160c <mm_cb+0x488>
80001c88:	8de6                	mv	s11,s9
80001c8a:	ef842703          	lw	a4,-264(s0)
80001c8e:	eb842783          	lw	a5,-328(s0)
80001c92:	97ba                	add	a5,a5,a4
80001c94:	eaf42a23          	sw	a5,-332(s0)
80001c98:	f2842703          	lw	a4,-216(s0)
80001c9c:	f1842783          	lw	a5,-232(s0)
80001ca0:	00f77463          	bleu	a5,a4,80001ca8 <mm_cb+0xb24>
80001ca4:	21e0106f          	j	80002ec2 <mm_cb+0x1d3e>
80001ca8:	eb442703          	lw	a4,-332(s0)
80001cac:	f0442783          	lw	a5,-252(s0)
80001cb0:	eee42c23          	sw	a4,-264(s0)
80001cb4:	edc42703          	lw	a4,-292(s0)
80001cb8:	07e1                	addi	a5,a5,24
80001cba:	f0f42223          	sw	a5,-252(s0)
80001cbe:	f4e42c23          	sw	a4,-168(s0)
80001cc2:	f2c42703          	lw	a4,-212(s0)
80001cc6:	8ee7efe3          	bltu	a5,a4,800015c4 <mm_cb+0x440>
80001cca:	eec42783          	lw	a5,-276(s0)
80001cce:	f2c42703          	lw	a4,-212(s0)
80001cd2:	18f776e3          	bleu	a5,a4,8000265e <mm_cb+0x14da>
80001cd6:	f1842783          	lw	a5,-232(s0)
80001cda:	180782e3          	beqz	a5,8000265e <mm_cb+0x14da>
80001cde:	eec42783          	lw	a5,-276(s0)
80001ce2:	4661                	li	a2,24
80001ce4:	f4442583          	lw	a1,-188(s0)
80001ce8:	02c7f633          	remu	a2,a5,a2
80001cec:	401c                	lw	a5,0(s0)
80001cee:	f4042803          	lw	a6,-192(s0)
80001cf2:	00259713          	slli	a4,a1,0x2
80001cf6:	00379493          	slli	s1,a5,0x3
80001cfa:	00179693          	slli	a3,a5,0x1
80001cfe:	00159793          	slli	a5,a1,0x1
80001d02:	97ae                	add	a5,a5,a1
80001d04:	00379313          	slli	t1,a5,0x3
80001d08:	00479a13          	slli	s4,a5,0x4
80001d0c:	079a                	slli	a5,a5,0x6
80001d0e:	eaf42a23          	sw	a5,-332(s0)
80001d12:	00581793          	slli	a5,a6,0x5
80001d16:	f0f42023          	sw	a5,-256(s0)
80001d1a:	401c                	lw	a5,0(s0)
80001d1c:	972e                	add	a4,a4,a1
80001d1e:	00371a93          	slli	s5,a4,0x3
80001d22:	0796                	slli	a5,a5,0x5
80001d24:	ee842703          	lw	a4,-280(s0)
80001d28:	f0f42223          	sw	a5,-252(s0)
80001d2c:	f2c42783          	lw	a5,-212(s0)
80001d30:	00042883          	lw	a7,0(s0)
80001d34:	f0e42e23          	sw	a4,-228(s0)
80001d38:	00381513          	slli	a0,a6,0x3
80001d3c:	96c6                	add	a3,a3,a7
80001d3e:	068e                	slli	a3,a3,0x3
80001d40:	ead42c23          	sw	a3,-328(s0)
80001d44:	00559e13          	slli	t3,a1,0x5
80001d48:	0892                	slli	a7,a7,0x4
80001d4a:	00459b13          	slli	s6,a1,0x4
80001d4e:	89f2                	mv	s3,t3
80001d50:	eea42023          	sw	a0,-288(s0)
80001d54:	8e1a                	mv	t3,t1
80001d56:	ec942e23          	sw	s1,-292(s0)
80001d5a:	02f48733          	mul	a4,s1,a5
80001d5e:	ffc67693          	andi	a3,a2,-4
80001d62:	8e15                	sub	a2,a2,a3
80001d64:	ecc42823          	sw	a2,-304(s0)
80001d68:	f0c42603          	lw	a2,-244(s0)
80001d6c:	8356                	mv	t1,s5
80001d6e:	ed142c23          	sw	a7,-296(s0)
80001d72:	00359d93          	slli	s11,a1,0x3
80001d76:	f2042e23          	sw	zero,-196(s0)
80001d7a:	f4d42823          	sw	a3,-176(s0)
80001d7e:	9732                	add	a4,a4,a2
80001d80:	f2e42023          	sw	a4,-224(s0)
80001d84:	02d50733          	mul	a4,a0,a3
80001d88:	8ada                	mv	s5,s6
80001d8a:	02f507b3          	mul	a5,a0,a5
80001d8e:	ece42623          	sw	a4,-308(s0)
80001d92:	ebc42703          	lw	a4,-324(s0)
80001d96:	97ba                	add	a5,a5,a4
80001d98:	ecf42023          	sw	a5,-320(s0)
80001d9c:	02d487b3          	mul	a5,s1,a3
80001da0:	ecf42423          	sw	a5,-312(s0)
80001da4:	f3042783          	lw	a5,-208(s0)
80001da8:	080786e3          	beqz	a5,80002634 <mm_cb+0x14b0>
80001dac:	f3c42703          	lw	a4,-196(s0)
80001db0:	f1842783          	lw	a5,-232(s0)
80001db4:	8f99                	sub	a5,a5,a4
80001db6:	f4f42423          	sw	a5,-184(s0)
80001dba:	4765                	li	a4,25
80001dbc:	00f77563          	bleu	a5,a4,80001dc6 <mm_cb+0xc42>
80001dc0:	47e5                	li	a5,25
80001dc2:	f4f42423          	sw	a5,-184(s0)
80001dc6:	f4842703          	lw	a4,-184(s0)
80001dca:	4695                	li	a3,5
80001dcc:	f2042603          	lw	a2,-224(s0)
80001dd0:	02d757b3          	divu	a5,a4,a3
80001dd4:	ec842583          	lw	a1,-312(s0)
80001dd8:	891a                	mv	s2,t1
80001dda:	f2042c23          	sw	zero,-200(s0)
80001dde:	95b2                	add	a1,a1,a2
80001de0:	ecb42223          	sw	a1,-316(s0)
80001de4:	ec042583          	lw	a1,-320(s0)
80001de8:	84f2                	mv	s1,t3
80001dea:	f0b42423          	sw	a1,-248(s0)
80001dee:	f1c42583          	lw	a1,-228(s0)
80001df2:	f4b42c23          	sw	a1,-168(s0)
80001df6:	02d77733          	remu	a4,a4,a3
80001dfa:	f2e42223          	sw	a4,-220(s0)
80001dfe:	00279713          	slli	a4,a5,0x2
80001e02:	00f70d33          	add	s10,a4,a5
80001e06:	41a007b3          	neg	a5,s10
80001e0a:	078e                	slli	a5,a5,0x3
80001e0c:	eef42223          	sw	a5,-284(s0)
80001e10:	edc42783          	lw	a5,-292(s0)
80001e14:	003d1713          	slli	a4,s10,0x3
80001e18:	00e606b3          	add	a3,a2,a4
80001e1c:	8f99                	sub	a5,a5,a4
80001e1e:	eef42423          	sw	a5,-280(s0)
80001e22:	ed842783          	lw	a5,-296(s0)
80001e26:	ece42a23          	sw	a4,-300(s0)
80001e2a:	ead42e23          	sw	a3,-324(s0)
80001e2e:	8f99                	sub	a5,a5,a4
80001e30:	eef42623          	sw	a5,-276(s0)
80001e34:	eb842783          	lw	a5,-328(s0)
80001e38:	836a                	mv	t1,s10
80001e3a:	8f99                	sub	a5,a5,a4
80001e3c:	eef42823          	sw	a5,-272(s0)
80001e40:	f3842703          	lw	a4,-200(s0)
80001e44:	f3042783          	lw	a5,-208(s0)
80001e48:	8f99                	sub	a5,a5,a4
80001e4a:	f6f42023          	sw	a5,-160(s0)
80001e4e:	4761                	li	a4,24
80001e50:	00f77563          	bleu	a5,a4,80001e5a <mm_cb+0xcd6>
80001e54:	47e1                	li	a5,24
80001e56:	f6f42023          	sw	a5,-160(s0)
80001e5a:	f5042783          	lw	a5,-176(s0)
80001e5e:	76078963          	beqz	a5,800025d0 <mm_cb+0x144c>
80001e62:	ee042783          	lw	a5,-288(s0)
80001e66:	f0842b83          	lw	s7,-248(s0)
80001e6a:	f6042703          	lw	a4,-160(s0)
80001e6e:	f5842603          	lw	a2,-168(s0)
80001e72:	01778cb3          	add	s9,a5,s7
80001e76:	01978c33          	add	s8,a5,s9
80001e7a:	01878d33          	add	s10,a5,s8
80001e7e:	4799                	li	a5,6
80001e80:	02f757b3          	divu	a5,a4,a5
80001e84:	00371693          	slli	a3,a4,0x3
80001e88:	eed42a23          	sw	a3,-268(s0)
80001e8c:	ed442683          	lw	a3,-300(s0)
80001e90:	ebc42e03          	lw	t3,-324(s0)
80001e94:	f6042423          	sw	zero,-152(s0)
80001e98:	96b2                	add	a3,a3,a2
80001e9a:	f0d42823          	sw	a3,-240(s0)
80001e9e:	00179b13          	slli	s6,a5,0x1
80001ea2:	9b3e                	add	s6,s6,a5
80001ea4:	034787b3          	mul	a5,a5,s4
80001ea8:	0b12                	slli	s6,s6,0x4
80001eaa:	eef42c23          	sw	a5,-264(s0)
80001eae:	6c030463          	beqz	t1,80002576 <mm_cb+0x13f2>
80001eb2:	ef442783          	lw	a5,-268(s0)
80001eb6:	efc42e23          	sw	t3,-260(s0)
80001eba:	f5842383          	lw	t2,-168(s0)
80001ebe:	017782b3          	add	t0,a5,s7
80001ec2:	ee442783          	lw	a5,-284(s0)
80001ec6:	017b0fb3          	add	t6,s6,s7
80001eca:	4081                	li	ra,0
80001ecc:	01c78f33          	add	t5,a5,t3
80001ed0:	ee842783          	lw	a5,-280(s0)
80001ed4:	01c78eb3          	add	t4,a5,t3
80001ed8:	eec42783          	lw	a5,-276(s0)
80001edc:	01c788b3          	add	a7,a5,t3
80001ee0:	ef042783          	lw	a5,-272(s0)
80001ee4:	01c78833          	add	a6,a5,t3
80001ee8:	ef842e03          	lw	t3,-264(s0)
80001eec:	0088b787          	fld	fa5,8(a7)
80001ef0:	879e                	mv	a5,t2
80001ef2:	000f3f87          	fld	ft11,0(t5)
80001ef6:	faf43c27          	fsd	fa5,-72(s0)
80001efa:	0108b787          	fld	fa5,16(a7)
80001efe:	008f3f07          	fld	ft10,8(t5)
80001f02:	010f3e87          	fld	ft9,16(t5)
80001f06:	faf43827          	fsd	fa5,-80(s0)
80001f0a:	0188b787          	fld	fa5,24(a7)
80001f0e:	018f3e07          	fld	ft8,24(t5)
80001f12:	020f3507          	fld	fa0,32(t5)
80001f16:	faf43427          	fsd	fa5,-88(s0)
80001f1a:	0208b787          	fld	fa5,32(a7)
80001f1e:	000eb887          	fld	fa7,0(t4)
80001f22:	008eb807          	fld	fa6,8(t4)
80001f26:	faf43027          	fsd	fa5,-96(s0)
80001f2a:	00083787          	fld	fa5,0(a6)
80001f2e:	010eb387          	fld	ft7,16(t4)
80001f32:	018eb307          	fld	ft6,24(t4)
80001f36:	f8f43c27          	fsd	fa5,-104(s0)
80001f3a:	00883787          	fld	fa5,8(a6)
80001f3e:	020eb587          	fld	fa1,32(t4)
80001f42:	0008b287          	fld	ft5,0(a7)
80001f46:	f8f43827          	fsd	fa5,-112(s0)
80001f4a:	01083787          	fld	fa5,16(a6)
80001f4e:	f8f43427          	fsd	fa5,-120(s0)
80001f52:	01883787          	fld	fa5,24(a6)
80001f56:	f8f43027          	fsd	fa5,-128(s0)
80001f5a:	02083787          	fld	fa5,32(a6)
80001f5e:	f6f43c27          	fsd	fa5,-136(s0)
80001f62:	4bfbf563          	bleu	t6,s7,8000240c <mm_cb+0x1288>
80001f66:	23ff86d3          	fmv.d	fa3,ft11
80001f6a:	22528fd3          	fmv.d	ft11,ft5
80001f6e:	85ea                	mv	a1,s10
80001f70:	8662                	mv	a2,s8
80001f72:	86e6                	mv	a3,s9
80001f74:	875e                	mv	a4,s7
80001f76:	229c                	fld	fa5,0(a3)
80001f78:	0207b087          	fld	ft1,32(a5)
80001f7c:	0007b287          	fld	ft5,0(a5)
80001f80:	0087b207          	fld	ft4,8(a5)
80001f84:	0107b187          	fld	ft3,16(a5)
80001f88:	0187b107          	fld	ft2,24(a5)
80001f8c:	00063007          	fld	ft0,0(a2)
80001f90:	8af2f8c3          	fmadd.d	fa7,ft5,fa5,fa7
80001f94:	82f27843          	fmadd.d	fa6,ft4,fa5,fa6
80001f98:	3af1f3c3          	fmadd.d	ft7,ft3,fa5,ft7
80001f9c:	32f17343          	fmadd.d	ft6,ft2,fa5,ft6
80001fa0:	5af0f7c3          	fmadd.d	fa5,ft1,fa5,fa1
80001fa4:	fb843587          	fld	fa1,-72(s0)
80001fa8:	fa02ffc3          	fmadd.d	ft11,ft5,ft0,ft11
80001fac:	2318                	fld	fa4,0(a4)
80001fae:	5a0275c3          	fmadd.d	fa1,ft4,ft0,fa1
80001fb2:	2190                	fld	fa2,0(a1)
80001fb4:	6a5776c3          	fmadd.d	fa3,fa4,ft5,fa3
80001fb8:	f2477f43          	fmadd.d	ft10,fa4,ft4,ft10
80001fbc:	ea377ec3          	fmadd.d	ft9,fa4,ft3,ft9
80001fc0:	e2277e43          	fmadd.d	ft8,fa4,ft2,ft8
80001fc4:	00fd8533          	add	a0,s11,a5
80001fc8:	fab43c27          	fsd	fa1,-72(s0)
80001fcc:	fb043587          	fld	fa1,-80(s0)
80001fd0:	52177743          	fmadd.d	fa4,fa4,ft1,fa0
80001fd4:	2688                	fld	fa0,8(a3)
80001fd6:	5a01f5c3          	fmadd.d	fa1,ft3,ft0,fa1
80001fda:	03070713          	addi	a4,a4,48
80001fde:	03068693          	addi	a3,a3,48
80001fe2:	03060613          	addi	a2,a2,48
80001fe6:	03058593          	addi	a1,a1,48 # ffffe030 <__global_pointer$+0x6fffd830>
80001fea:	fab43827          	fsd	fa1,-80(s0)
80001fee:	fa843587          	fld	fa1,-88(s0)
80001ff2:	5a0175c3          	fmadd.d	fa1,ft2,ft0,fa1
80001ff6:	fab43427          	fsd	fa1,-88(s0)
80001ffa:	fa043587          	fld	fa1,-96(s0)
80001ffe:	5a00f043          	fmadd.d	ft0,ft1,ft0,fa1
80002002:	fd863587          	fld	fa1,-40(a2)
80002006:	fa043027          	fsd	ft0,-96(s0)
8000200a:	f9843007          	fld	ft0,-104(s0)
8000200e:	02c2f2c3          	fmadd.d	ft5,ft5,fa2,ft0
80002012:	fd873007          	fld	ft0,-40(a4)
80002016:	f8543c27          	fsd	ft5,-104(s0)
8000201a:	f9043287          	fld	ft5,-112(s0)
8000201e:	2ac27243          	fmadd.d	ft4,ft4,fa2,ft5
80002022:	00053287          	fld	ft5,0(a0)
80002026:	8aa2f8c3          	fmadd.d	fa7,ft5,fa0,fa7
8000202a:	6a5076c3          	fmadd.d	fa3,ft0,ft5,fa3
8000202e:	fab2ffc3          	fmadd.d	ft11,ft5,fa1,ft11
80002032:	f8443827          	fsd	ft4,-112(s0)
80002036:	f8843207          	fld	ft4,-120(s0)
8000203a:	22c1f1c3          	fmadd.d	ft3,ft3,fa2,ft4
8000203e:	f8343427          	fsd	ft3,-120(s0)
80002042:	f8043187          	fld	ft3,-128(s0)
80002046:	1ac17143          	fmadd.d	ft2,ft2,fa2,ft3
8000204a:	f8243027          	fsd	ft2,-128(s0)
8000204e:	f7843107          	fld	ft2,-136(s0)
80002052:	12c0f643          	fmadd.d	fa2,ft1,fa2,ft2
80002056:	f6c43c27          	fsd	fa2,-136(s0)
8000205a:	fd85b607          	fld	fa2,-40(a1)
8000205e:	00853207          	fld	ft4,8(a0)
80002062:	02053087          	fld	ft1,32(a0)
80002066:	01053187          	fld	ft3,16(a0)
8000206a:	01853107          	fld	ft2,24(a0)
8000206e:	82a27843          	fmadd.d	fa6,ft4,fa0,fa6
80002072:	3aa1f3c3          	fmadd.d	ft7,ft3,fa0,ft7
80002076:	32a17343          	fmadd.d	ft6,ft2,fa0,ft6
8000207a:	7aa0f7c3          	fmadd.d	fa5,ft1,fa0,fa5
8000207e:	fb843507          	fld	fa0,-72(s0)
80002082:	f2407f43          	fmadd.d	ft10,ft0,ft4,ft10
80002086:	ea307ec3          	fmadd.d	ft9,ft0,ft3,ft9
8000208a:	52b27543          	fmadd.d	fa0,ft4,fa1,fa0
8000208e:	e2207e43          	fmadd.d	ft8,ft0,ft2,ft8
80002092:	72107743          	fmadd.d	fa4,ft0,ft1,fa4
80002096:	00fa8533          	add	a0,s5,a5
8000209a:	faa43c27          	fsd	fa0,-72(s0)
8000209e:	fb043507          	fld	fa0,-80(s0)
800020a2:	52b1f043          	fmadd.d	ft0,ft3,fa1,fa0
800020a6:	fa843507          	fld	fa0,-88(s0)
800020aa:	52b17543          	fmadd.d	fa0,ft2,fa1,fa0
800020ae:	fa043827          	fsd	ft0,-80(s0)
800020b2:	fa043007          	fld	ft0,-96(s0)
800020b6:	02b0f043          	fmadd.d	ft0,ft1,fa1,ft0
800020ba:	f9843587          	fld	fa1,-104(s0)
800020be:	faa43427          	fsd	fa0,-88(s0)
800020c2:	fe06b507          	fld	fa0,-32(a3)
800020c6:	5ac2f2c3          	fmadd.d	ft5,ft5,fa2,fa1
800020ca:	f9043587          	fld	fa1,-112(s0)
800020ce:	fa043027          	fsd	ft0,-96(s0)
800020d2:	5ac27243          	fmadd.d	ft4,ft4,fa2,fa1
800020d6:	f8843587          	fld	fa1,-120(s0)
800020da:	fe073007          	fld	ft0,-32(a4)
800020de:	f8543c27          	fsd	ft5,-104(s0)
800020e2:	5ac1f1c3          	fmadd.d	ft3,ft3,fa2,fa1
800020e6:	f8043587          	fld	fa1,-128(s0)
800020ea:	00053287          	fld	ft5,0(a0)
800020ee:	f8443827          	fsd	ft4,-112(s0)
800020f2:	5ac17143          	fmadd.d	ft2,ft2,fa2,fa1
800020f6:	f7843587          	fld	fa1,-136(s0)
800020fa:	00853207          	fld	ft4,8(a0)
800020fe:	f8343427          	fsd	ft3,-120(s0)
80002102:	5ac0f643          	fmadd.d	fa2,ft1,fa2,fa1
80002106:	01053187          	fld	ft3,16(a0)
8000210a:	fe063587          	fld	fa1,-32(a2)
8000210e:	f8243027          	fsd	ft2,-128(s0)
80002112:	01853107          	fld	ft2,24(a0)
80002116:	8aa2f8c3          	fmadd.d	fa7,ft5,fa0,fa7
8000211a:	82a27843          	fmadd.d	fa6,ft4,fa0,fa6
8000211e:	f6c43c27          	fsd	fa2,-136(s0)
80002122:	3110                	fld	fa2,32(a0)
80002124:	3aa1f3c3          	fmadd.d	ft7,ft3,fa0,ft7
80002128:	32a17343          	fmadd.d	ft6,ft2,fa0,ft6
8000212c:	7aa677c3          	fmadd.d	fa5,fa2,fa0,fa5
80002130:	fb843507          	fld	fa0,-72(s0)
80002134:	fe05b087          	fld	ft1,-32(a1)
80002138:	6a5076c3          	fmadd.d	fa3,ft0,ft5,fa3
8000213c:	52b27543          	fmadd.d	fa0,ft4,fa1,fa0
80002140:	f2407f43          	fmadd.d	ft10,ft0,ft4,ft10
80002144:	ea307ec3          	fmadd.d	ft9,ft0,ft3,ft9
80002148:	e2207e43          	fmadd.d	ft8,ft0,ft2,ft8
8000214c:	72c07743          	fmadd.d	fa4,ft0,fa2,fa4
80002150:	fab2ffc3          	fmadd.d	ft11,ft5,fa1,ft11
80002154:	00978533          	add	a0,a5,s1
80002158:	faa43c27          	fsd	fa0,-72(s0)
8000215c:	fb043007          	fld	ft0,-80(s0)
80002160:	fa843507          	fld	fa0,-88(s0)
80002164:	02b1f043          	fmadd.d	ft0,ft3,fa1,ft0
80002168:	52b17543          	fmadd.d	fa0,ft2,fa1,fa0
8000216c:	fa043827          	fsd	ft0,-80(s0)
80002170:	fa043007          	fld	ft0,-96(s0)
80002174:	faa43427          	fsd	fa0,-88(s0)
80002178:	fe86b507          	fld	fa0,-24(a3)
8000217c:	02b67043          	fmadd.d	ft0,fa2,fa1,ft0
80002180:	f9843587          	fld	fa1,-104(s0)
80002184:	5a12f2c3          	fmadd.d	ft5,ft5,ft1,fa1
80002188:	f9043587          	fld	fa1,-112(s0)
8000218c:	fa043027          	fsd	ft0,-96(s0)
80002190:	5a127243          	fmadd.d	ft4,ft4,ft1,fa1
80002194:	f8843587          	fld	fa1,-120(s0)
80002198:	fe873007          	fld	ft0,-24(a4)
8000219c:	f8543c27          	fsd	ft5,-104(s0)
800021a0:	5a11f1c3          	fmadd.d	ft3,ft3,ft1,fa1
800021a4:	f8043587          	fld	fa1,-128(s0)
800021a8:	00053287          	fld	ft5,0(a0)
800021ac:	f8443827          	fsd	ft4,-112(s0)
800021b0:	5a117143          	fmadd.d	ft2,ft2,ft1,fa1
800021b4:	f7843587          	fld	fa1,-136(s0)
800021b8:	00853207          	fld	ft4,8(a0)
800021bc:	f8343427          	fsd	ft3,-120(s0)
800021c0:	5a167643          	fmadd.d	fa2,fa2,ft1,fa1
800021c4:	01053187          	fld	ft3,16(a0)
800021c8:	02053087          	fld	ft1,32(a0)
800021cc:	f8243027          	fsd	ft2,-128(s0)
800021d0:	01853107          	fld	ft2,24(a0)
800021d4:	fe863587          	fld	fa1,-24(a2)
800021d8:	7aa0f7c3          	fmadd.d	fa5,ft1,fa0,fa5
800021dc:	8aa2f8c3          	fmadd.d	fa7,ft5,fa0,fa7
800021e0:	82a27843          	fmadd.d	fa6,ft4,fa0,fa6
800021e4:	3aa1f3c3          	fmadd.d	ft7,ft3,fa0,ft7
800021e8:	32a17343          	fmadd.d	ft6,ft2,fa0,ft6
800021ec:	fb843507          	fld	fa0,-72(s0)
800021f0:	6a5076c3          	fmadd.d	fa3,ft0,ft5,fa3
800021f4:	f2407f43          	fmadd.d	ft10,ft0,ft4,ft10
800021f8:	ea307ec3          	fmadd.d	ft9,ft0,ft3,ft9
800021fc:	e2207e43          	fmadd.d	ft8,ft0,ft2,ft8
80002200:	72107743          	fmadd.d	fa4,ft0,ft1,fa4
80002204:	fb043007          	fld	ft0,-80(s0)
80002208:	52b27543          	fmadd.d	fa0,ft4,fa1,fa0
8000220c:	f6c43c27          	fsd	fa2,-136(s0)
80002210:	02b1f043          	fmadd.d	ft0,ft3,fa1,ft0
80002214:	fe85b607          	fld	fa2,-24(a1)
80002218:	fab2ffc3          	fmadd.d	ft11,ft5,fa1,ft11
8000221c:	00f98533          	add	a0,s3,a5
80002220:	faa43c27          	fsd	fa0,-72(s0)
80002224:	fa843507          	fld	fa0,-88(s0)
80002228:	fa043827          	fsd	ft0,-80(s0)
8000222c:	fa043007          	fld	ft0,-96(s0)
80002230:	52b17543          	fmadd.d	fa0,ft2,fa1,fa0
80002234:	02b0f043          	fmadd.d	ft0,ft1,fa1,ft0
80002238:	faa43427          	fsd	fa0,-88(s0)
8000223c:	fa043027          	fsd	ft0,-96(s0)
80002240:	f9843587          	fld	fa1,-104(s0)
80002244:	ff06b507          	fld	fa0,-16(a3)
80002248:	ff073007          	fld	ft0,-16(a4)
8000224c:	5ac2f2c3          	fmadd.d	ft5,ft5,fa2,fa1
80002250:	f9043587          	fld	fa1,-112(s0)
80002254:	5ac27243          	fmadd.d	ft4,ft4,fa2,fa1
80002258:	f8843587          	fld	fa1,-120(s0)
8000225c:	f8543c27          	fsd	ft5,-104(s0)
80002260:	5ac1f1c3          	fmadd.d	ft3,ft3,fa2,fa1
80002264:	f8043587          	fld	fa1,-128(s0)
80002268:	00053287          	fld	ft5,0(a0)
8000226c:	f8443827          	fsd	ft4,-112(s0)
80002270:	5ac17143          	fmadd.d	ft2,ft2,fa2,fa1
80002274:	f7843587          	fld	fa1,-136(s0)
80002278:	00853207          	fld	ft4,8(a0)
8000227c:	f8343427          	fsd	ft3,-120(s0)
80002280:	5ac0f643          	fmadd.d	fa2,ft1,fa2,fa1
80002284:	01053187          	fld	ft3,16(a0)
80002288:	8aa2f8c3          	fmadd.d	fa7,ft5,fa0,fa7
8000228c:	f8243027          	fsd	ft2,-128(s0)
80002290:	01853107          	fld	ft2,24(a0)
80002294:	82a27843          	fmadd.d	fa6,ft4,fa0,fa6
80002298:	3aa1f3c3          	fmadd.d	ft7,ft3,fa0,ft7
8000229c:	f6c43c27          	fsd	fa2,-136(s0)
800022a0:	3110                	fld	fa2,32(a0)
800022a2:	32a17343          	fmadd.d	ft6,ft2,fa0,ft6
800022a6:	ff063587          	fld	fa1,-16(a2)
800022aa:	7aa67543          	fmadd.d	fa0,fa2,fa0,fa5
800022ae:	72c07743          	fmadd.d	fa4,ft0,fa2,fa4
800022b2:	6a5076c3          	fmadd.d	fa3,ft0,ft5,fa3
800022b6:	f2407f43          	fmadd.d	ft10,ft0,ft4,ft10
800022ba:	ea307ec3          	fmadd.d	ft9,ft0,ft3,ft9
800022be:	e2207e43          	fmadd.d	ft8,ft0,ft2,ft8
800022c2:	fb043007          	fld	ft0,-80(s0)
800022c6:	f6a43827          	fsd	fa0,-144(s0)
800022ca:	fb843507          	fld	fa0,-72(s0)
800022ce:	02b1f043          	fmadd.d	ft0,ft3,fa1,ft0
800022d2:	ff05b087          	fld	ft1,-16(a1)
800022d6:	52b27543          	fmadd.d	fa0,ft4,fa1,fa0
800022da:	f9843787          	fld	fa5,-104(s0)
800022de:	fab2ffc3          	fmadd.d	ft11,ft5,fa1,ft11
800022e2:	01278533          	add	a0,a5,s2
800022e6:	7a12f2c3          	fmadd.d	ft5,ft5,ft1,fa5
800022ea:	fa043827          	fsd	ft0,-80(s0)
800022ee:	f9043787          	fld	fa5,-112(s0)
800022f2:	fa043007          	fld	ft0,-96(s0)
800022f6:	faa43c27          	fsd	fa0,-72(s0)
800022fa:	fa843507          	fld	fa0,-88(s0)
800022fe:	7a127243          	fmadd.d	ft4,ft4,ft1,fa5
80002302:	f8543c27          	fsd	ft5,-104(s0)
80002306:	52b17543          	fmadd.d	fa0,ft2,fa1,fa0
8000230a:	02b675c3          	fmadd.d	fa1,fa2,fa1,ft0
8000230e:	97d2                	add	a5,a5,s4
80002310:	f8443827          	fsd	ft4,-112(s0)
80002314:	faa43427          	fsd	fa0,-88(s0)
80002318:	fab43027          	fsd	fa1,-96(s0)
8000231c:	f8843787          	fld	fa5,-120(s0)
80002320:	ff873507          	fld	fa0,-8(a4)
80002324:	00053007          	fld	ft0,0(a0)
80002328:	7a11f1c3          	fmadd.d	ft3,ft3,ft1,fa5
8000232c:	f8043787          	fld	fa5,-128(s0)
80002330:	00853287          	fld	ft5,8(a0)
80002334:	01053207          	fld	ft4,16(a0)
80002338:	7a117143          	fmadd.d	ft2,ft2,ft1,fa5
8000233c:	f7843787          	fld	fa5,-136(s0)
80002340:	6a0576c3          	fmadd.d	fa3,fa0,ft0,fa3
80002344:	f8343427          	fsd	ft3,-120(s0)
80002348:	7a167643          	fmadd.d	fa2,fa2,ft1,fa5
8000234c:	01853187          	fld	ft3,24(a0)
80002350:	ff86b787          	fld	fa5,-8(a3)
80002354:	f8243027          	fsd	ft2,-128(s0)
80002358:	02053107          	fld	ft2,32(a0)
8000235c:	f2557f43          	fmadd.d	ft10,fa0,ft5,ft10
80002360:	ea457ec3          	fmadd.d	ft9,fa0,ft4,ft9
80002364:	e2357e43          	fmadd.d	ft8,fa0,ft3,ft8
80002368:	72257543          	fmadd.d	fa0,fa0,ft2,fa4
8000236c:	f7043707          	fld	fa4,-144(s0)
80002370:	f6c43c27          	fsd	fa2,-136(s0)
80002374:	8af078c3          	fmadd.d	fa7,ft0,fa5,fa7
80002378:	ff863607          	fld	fa2,-8(a2)
8000237c:	72f175c3          	fmadd.d	fa1,ft2,fa5,fa4
80002380:	82f2f843          	fmadd.d	fa6,ft5,fa5,fa6
80002384:	3af273c3          	fmadd.d	ft7,ft4,fa5,ft7
80002388:	32f1f343          	fmadd.d	ft6,ft3,fa5,ft6
8000238c:	fb843787          	fld	fa5,-72(s0)
80002390:	ff85b087          	fld	ft1,-8(a1)
80002394:	fac07fc3          	fmadd.d	ft11,ft0,fa2,ft11
80002398:	7ac2f743          	fmadd.d	fa4,ft5,fa2,fa5
8000239c:	fb043787          	fld	fa5,-80(s0)
800023a0:	fae43c27          	fsd	fa4,-72(s0)
800023a4:	7ac27743          	fmadd.d	fa4,ft4,fa2,fa5
800023a8:	fa843787          	fld	fa5,-88(s0)
800023ac:	fae43827          	fsd	fa4,-80(s0)
800023b0:	7ac1f743          	fmadd.d	fa4,ft3,fa2,fa5
800023b4:	fa043787          	fld	fa5,-96(s0)
800023b8:	fae43427          	fsd	fa4,-88(s0)
800023bc:	7ac17743          	fmadd.d	fa4,ft2,fa2,fa5
800023c0:	f9843787          	fld	fa5,-104(s0)
800023c4:	fae43027          	fsd	fa4,-96(s0)
800023c8:	7a107743          	fmadd.d	fa4,ft0,ft1,fa5
800023cc:	f9043787          	fld	fa5,-112(s0)
800023d0:	f8e43c27          	fsd	fa4,-104(s0)
800023d4:	7a12f743          	fmadd.d	fa4,ft5,ft1,fa5
800023d8:	f8843787          	fld	fa5,-120(s0)
800023dc:	f8e43827          	fsd	fa4,-112(s0)
800023e0:	7a127743          	fmadd.d	fa4,ft4,ft1,fa5
800023e4:	f8043787          	fld	fa5,-128(s0)
800023e8:	7a11f7c3          	fmadd.d	fa5,ft3,ft1,fa5
800023ec:	f8e43427          	fsd	fa4,-120(s0)
800023f0:	f8f43027          	fsd	fa5,-128(s0)
800023f4:	f7843607          	fld	fa2,-136(s0)
800023f8:	621177c3          	fmadd.d	fa5,ft2,ft1,fa2
800023fc:	f6f43c27          	fsd	fa5,-136(s0)
80002400:	b7f76be3          	bltu	a4,t6,80001f76 <mm_cb+0xdf2>
80002404:	23ff82d3          	fmv.d	ft5,ft11
80002408:	22d68fd3          	fmv.d	ft11,fa3
8000240c:	007e07b3          	add	a5,t3,t2
80002410:	0c5ffa63          	bleu	t0,t6,800024e4 <mm_cb+0x1360>
80002414:	019b05b3          	add	a1,s6,s9
80002418:	018b0633          	add	a2,s6,s8
8000241c:	01ab06b3          	add	a3,s6,s10
80002420:	877e                	mv	a4,t6
80002422:	2194                	fld	fa3,0(a1)
80002424:	0007b207          	fld	ft4,0(a5)
80002428:	0087b187          	fld	ft3,8(a5)
8000242c:	0107b107          	fld	ft2,16(a5)
80002430:	0187b087          	fld	ft1,24(a5)
80002434:	0207b007          	fld	ft0,32(a5)
80002438:	2218                	fld	fa4,0(a2)
8000243a:	8ad278c3          	fmadd.d	fa7,ft4,fa3,fa7
8000243e:	82d1f843          	fmadd.d	fa6,ft3,fa3,fa6
80002442:	3ad173c3          	fmadd.d	ft7,ft2,fa3,ft7
80002446:	32d0f343          	fmadd.d	ft6,ft1,fa3,ft6
8000244a:	5ad075c3          	fmadd.d	fa1,ft0,fa3,fa1
8000244e:	fb843687          	fld	fa3,-72(s0)
80002452:	2ae272c3          	fmadd.d	ft5,ft4,fa4,ft5
80002456:	229c                	fld	fa5,0(a3)
80002458:	6ae1f6c3          	fmadd.d	fa3,ft3,fa4,fa3
8000245c:	2310                	fld	fa2,0(a4)
8000245e:	0721                	addi	a4,a4,8
80002460:	97ee                	add	a5,a5,s11
80002462:	fa467fc3          	fmadd.d	ft11,fa2,ft4,ft11
80002466:	f2367f43          	fmadd.d	ft10,fa2,ft3,ft10
8000246a:	ea267ec3          	fmadd.d	ft9,fa2,ft2,ft9
8000246e:	fad43c27          	fsd	fa3,-72(s0)
80002472:	fb043687          	fld	fa3,-80(s0)
80002476:	e2167e43          	fmadd.d	ft8,fa2,ft1,ft8
8000247a:	52067543          	fmadd.d	fa0,fa2,ft0,fa0
8000247e:	6ae176c3          	fmadd.d	fa3,ft2,fa4,fa3
80002482:	05a1                	addi	a1,a1,8
80002484:	0621                	addi	a2,a2,8
80002486:	06a1                	addi	a3,a3,8
80002488:	fad43827          	fsd	fa3,-80(s0)
8000248c:	fa843687          	fld	fa3,-88(s0)
80002490:	6ae0f6c3          	fmadd.d	fa3,ft1,fa4,fa3
80002494:	fad43427          	fsd	fa3,-88(s0)
80002498:	fa043687          	fld	fa3,-96(s0)
8000249c:	6ae07743          	fmadd.d	fa4,ft0,fa4,fa3
800024a0:	fae43027          	fsd	fa4,-96(s0)
800024a4:	f9843707          	fld	fa4,-104(s0)
800024a8:	72f27743          	fmadd.d	fa4,ft4,fa5,fa4
800024ac:	f8e43c27          	fsd	fa4,-104(s0)
800024b0:	f9043707          	fld	fa4,-112(s0)
800024b4:	72f1f743          	fmadd.d	fa4,ft3,fa5,fa4
800024b8:	f8e43827          	fsd	fa4,-112(s0)
800024bc:	f8843707          	fld	fa4,-120(s0)
800024c0:	72f17743          	fmadd.d	fa4,ft2,fa5,fa4
800024c4:	f8e43427          	fsd	fa4,-120(s0)
800024c8:	f8043707          	fld	fa4,-128(s0)
800024cc:	72f0f743          	fmadd.d	fa4,ft1,fa5,fa4
800024d0:	f8e43027          	fsd	fa4,-128(s0)
800024d4:	f7843707          	fld	fa4,-136(s0)
800024d8:	72f077c3          	fmadd.d	fa5,ft0,fa5,fa4
800024dc:	f6f43c27          	fsd	fa5,-136(s0)
800024e0:	f45761e3          	bltu	a4,t0,80002422 <mm_cb+0x129e>
800024e4:	fb843787          	fld	fa5,-72(s0)
800024e8:	01ff3027          	fsd	ft11,0(t5)
800024ec:	01ef3427          	fsd	ft10,8(t5)
800024f0:	01df3827          	fsd	ft9,16(t5)
800024f4:	01cf3c27          	fsd	ft8,24(t5)
800024f8:	02af3027          	fsd	fa0,32(t5)
800024fc:	011eb027          	fsd	fa7,0(t4)
80002500:	010eb427          	fsd	fa6,8(t4)
80002504:	007eb827          	fsd	ft7,16(t4)
80002508:	006ebc27          	fsd	ft6,24(t4)
8000250c:	02beb027          	fsd	fa1,32(t4)
80002510:	00f8b427          	fsd	fa5,8(a7)
80002514:	fb043787          	fld	fa5,-80(s0)
80002518:	0058b027          	fsd	ft5,0(a7)
8000251c:	0095                	addi	ra,ra,5
8000251e:	00f8b827          	fsd	fa5,16(a7)
80002522:	fa843787          	fld	fa5,-88(s0)
80002526:	028f0f13          	addi	t5,t5,40
8000252a:	028e8e93          	addi	t4,t4,40
8000252e:	00f8bc27          	fsd	fa5,24(a7)
80002532:	fa043787          	fld	fa5,-96(s0)
80002536:	02888893          	addi	a7,a7,40
8000253a:	02880813          	addi	a6,a6,40
8000253e:	fef8bc27          	fsd	fa5,-8(a7)
80002542:	f9843787          	fld	fa5,-104(s0)
80002546:	02838393          	addi	t2,t2,40
8000254a:	fcf83c27          	fsd	fa5,-40(a6)
8000254e:	f9043787          	fld	fa5,-112(s0)
80002552:	fef83027          	fsd	fa5,-32(a6)
80002556:	f8843787          	fld	fa5,-120(s0)
8000255a:	fef83427          	fsd	fa5,-24(a6)
8000255e:	f8043787          	fld	fa5,-128(s0)
80002562:	fef83827          	fsd	fa5,-16(a6)
80002566:	f7843787          	fld	fa5,-136(s0)
8000256a:	fef83c27          	fsd	fa5,-8(a6)
8000256e:	9660efe3          	bltu	ra,t1,80001eec <mm_cb+0xd68>
80002572:	efc42e03          	lw	t3,-260(s0)
80002576:	401c                	lw	a5,0(s0)
80002578:	fa642823          	sw	t1,-80(s0)
8000257c:	f6842303          	lw	t1,-152(s0)
80002580:	c03e                	sw	a5,0(sp)
80002582:	f4042703          	lw	a4,-192(s0)
80002586:	f1042783          	lw	a5,-240(s0)
8000258a:	f4442803          	lw	a6,-188(s0)
8000258e:	f6042603          	lw	a2,-160(s0)
80002592:	f2442583          	lw	a1,-220(s0)
80002596:	0311                	addi	t1,t1,4
80002598:	88f2                	mv	a7,t3
8000259a:	86de                	mv	a3,s7
8000259c:	4511                	li	a0,4
8000259e:	fbc42c23          	sw	t3,-72(s0)
800025a2:	f6642423          	sw	t1,-152(s0)
800025a6:	aa3fe0ef          	jal	ra,80001048 <mm_naive>
800025aa:	f0042783          	lw	a5,-256(s0)
800025ae:	f0442703          	lw	a4,-252(s0)
800025b2:	fb842e03          	lw	t3,-72(s0)
800025b6:	9bbe                	add	s7,s7,a5
800025b8:	9cbe                	add	s9,s9,a5
800025ba:	9e3a                	add	t3,t3,a4
800025bc:	9c3e                	add	s8,s8,a5
800025be:	9d3e                	add	s10,s10,a5
800025c0:	f5042703          	lw	a4,-176(s0)
800025c4:	f6842783          	lw	a5,-152(s0)
800025c8:	fb042303          	lw	t1,-80(s0)
800025cc:	8ee7e1e3          	bltu	a5,a4,80001eae <mm_cb+0xd2a>
800025d0:	ecc42703          	lw	a4,-308(s0)
800025d4:	f0842b03          	lw	s6,-248(s0)
800025d8:	f5842c03          	lw	s8,-168(s0)
800025dc:	fa642c23          	sw	t1,-72(s0)
800025e0:	016706b3          	add	a3,a4,s6
800025e4:	4018                	lw	a4,0(s0)
800025e6:	f3842303          	lw	t1,-200(s0)
800025ea:	ec442883          	lw	a7,-316(s0)
800025ee:	c03a                	sw	a4,0(sp)
800025f0:	f4442803          	lw	a6,-188(s0)
800025f4:	f4042703          	lw	a4,-192(s0)
800025f8:	f6042603          	lw	a2,-160(s0)
800025fc:	f4842583          	lw	a1,-184(s0)
80002600:	ed042503          	lw	a0,-304(s0)
80002604:	01830b93          	addi	s7,t1,24
80002608:	87e2                	mv	a5,s8
8000260a:	f3742c23          	sw	s7,-200(s0)
8000260e:	a3bfe0ef          	jal	ra,80001048 <mm_naive>
80002612:	eb442783          	lw	a5,-332(s0)
80002616:	fb842303          	lw	t1,-72(s0)
8000261a:	97e2                	add	a5,a5,s8
8000261c:	f4f42c23          	sw	a5,-168(s0)
80002620:	0c0b0793          	addi	a5,s6,192
80002624:	f0f42423          	sw	a5,-248(s0)
80002628:	f3042783          	lw	a5,-208(s0)
8000262c:	80fbeae3          	bltu	s7,a5,80001e40 <mm_cb+0xcbc>
80002630:	8e26                	mv	t3,s1
80002632:	834a                	mv	t1,s2
80002634:	f1c42703          	lw	a4,-228(s0)
80002638:	f3c42783          	lw	a5,-196(s0)
8000263c:	0c870713          	addi	a4,a4,200
80002640:	f0e42e23          	sw	a4,-228(s0)
80002644:	f2042703          	lw	a4,-224(s0)
80002648:	07e5                	addi	a5,a5,25
8000264a:	f2f42e23          	sw	a5,-196(s0)
8000264e:	0c870713          	addi	a4,a4,200
80002652:	f2e42023          	sw	a4,-224(s0)
80002656:	f1842703          	lw	a4,-232(s0)
8000265a:	f4e7e563          	bltu	a5,a4,80001da4 <mm_cb+0xc20>
8000265e:	f2c42783          	lw	a5,-212(s0)
80002662:	cbd5                	beqz	a5,80002716 <mm_cb+0x1592>
80002664:	401c                	lw	a5,0(s0)
80002666:	4018                	lw	a4,0(s0)
80002668:	f0c42f03          	lw	t5,-244(s0)
8000266c:	00179813          	slli	a6,a5,0x1
80002670:	f2842903          	lw	s2,-216(s0)
80002674:	6785                	lui	a5,0x1
80002676:	983a                	add	a6,a6,a4
80002678:	081a                	slli	a6,a6,0x6
8000267a:	00371513          	slli	a0,a4,0x3
8000267e:	4e01                	li	t3,0
80002680:	43e1                	li	t2,24
80002682:	42e5                	li	t0,25
80002684:	2c078f93          	addi	t6,a5,704 # 12c0 <_tbss_end+0x123c>
80002688:	38078313          	addi	t1,a5,896
8000268c:	06090f63          	beqz	s2,8000270a <mm_cb+0x1586>
80002690:	027e58b3          	divu	a7,t3,t2
80002694:	f3442783          	lw	a5,-204(s0)
80002698:	84fa                	mv	s1,t5
8000269a:	4e81                	li	t4,0
8000269c:	02f888b3          	mul	a7,a7,a5
800026a0:	f1442783          	lw	a5,-236(s0)
800026a4:	8626                	mv	a2,s1
800026a6:	025ed5b3          	divu	a1,t4,t0
800026aa:	95c6                	add	a1,a1,a7
800026ac:	03f585b3          	mul	a1,a1,t6
800026b0:	95be                	add	a1,a1,a5
800026b2:	0c058693          	addi	a3,a1,192
800026b6:	959a                	add	a1,a1,t1
800026b8:	f4068793          	addi	a5,a3,-192
800026bc:	8732                	mv	a4,a2
800026be:	0007b087          	fld	ft1,0(a5)
800026c2:	0087b007          	fld	ft0,8(a5)
800026c6:	2b88                	fld	fa0,16(a5)
800026c8:	2f8c                	fld	fa1,24(a5)
800026ca:	3390                	fld	fa2,32(a5)
800026cc:	3794                	fld	fa3,40(a5)
800026ce:	3b98                	fld	fa4,48(a5)
800026d0:	3f9c                	fld	fa5,56(a5)
800026d2:	00173027          	fsd	ft1,0(a4)
800026d6:	00073427          	fsd	ft0,8(a4)
800026da:	ab08                	fsd	fa0,16(a4)
800026dc:	af0c                	fsd	fa1,24(a4)
800026de:	b310                	fsd	fa2,32(a4)
800026e0:	b714                	fsd	fa3,40(a4)
800026e2:	bb18                	fsd	fa4,48(a4)
800026e4:	bf1c                	fsd	fa5,56(a4)
800026e6:	04078793          	addi	a5,a5,64
800026ea:	04070713          	addi	a4,a4,64
800026ee:	fcf698e3          	bne	a3,a5,800026be <mm_cb+0x153a>
800026f2:	229c                	fld	fa5,0(a3)
800026f4:	0c868693          	addi	a3,a3,200
800026f8:	a27c                	fsd	fa5,192(a2)
800026fa:	962a                	add	a2,a2,a0
800026fc:	fad59ee3          	bne	a1,a3,800026b8 <mm_cb+0x1534>
80002700:	0ee5                	addi	t4,t4,25
80002702:	0c848493          	addi	s1,s1,200
80002706:	f92eede3          	bltu	t4,s2,800026a0 <mm_cb+0x151c>
8000270a:	f2c42783          	lw	a5,-212(s0)
8000270e:	0e61                	addi	t3,t3,24
80002710:	9f42                	add	t5,t5,a6
80002712:	f6fe6de3          	bltu	t3,a5,8000268c <mm_cb+0x1508>
80002716:	e7040113          	addi	sp,s0,-400
8000271a:	18c12083          	lw	ra,396(sp)
8000271e:	18812403          	lw	s0,392(sp)
80002722:	18412483          	lw	s1,388(sp)
80002726:	18012903          	lw	s2,384(sp)
8000272a:	17c12983          	lw	s3,380(sp)
8000272e:	17812a03          	lw	s4,376(sp)
80002732:	17412a83          	lw	s5,372(sp)
80002736:	17012b03          	lw	s6,368(sp)
8000273a:	16c12b83          	lw	s7,364(sp)
8000273e:	16812c03          	lw	s8,360(sp)
80002742:	16412c83          	lw	s9,356(sp)
80002746:	16012d03          	lw	s10,352(sp)
8000274a:	15c12d83          	lw	s11,348(sp)
8000274e:	6159                	addi	sp,sp,400
80002750:	8082                	ret
80002752:	eec42783          	lw	a5,-276(s0)
80002756:	d8079063          	bnez	a5,80001cd6 <mm_cb+0xb52>
8000275a:	bf75                	j	80002716 <mm_cb+0x1592>
8000275c:	f4842783          	lw	a5,-184(s0)
80002760:	4765                	li	a4,25
80002762:	f5842483          	lw	s1,-168(s0)
80002766:	02e7deb3          	divu	t4,a5,a4
8000276a:	ee042783          	lw	a5,-288(s0)
8000276e:	ef442283          	lw	t0,-268(s0)
80002772:	009789b3          	add	s3,a5,s1
80002776:	01378933          	add	s2,a5,s3
8000277a:	01278db3          	add	s11,a5,s2
8000277e:	f2442783          	lw	a5,-220(s0)
80002782:	834a                	mv	t1,s2
80002784:	e9442903          	lw	s2,-364(s0)
80002788:	9ebe                	add	t4,t4,a5
8000278a:	03ae8eb3          	mul	t4,t4,s10
8000278e:	f1442783          	lw	a5,-236(s0)
80002792:	9ebe                	add	t4,t4,a5
80002794:	eb042783          	lw	a5,-336(s0)
80002798:	0c8e8f13          	addi	t5,t4,200
8000279c:	f3d42023          	sw	t4,-224(s0)
800027a0:	97f6                	add	a5,a5,t4
800027a2:	8ece                	mv	t4,s3
800027a4:	ea442983          	lw	s3,-348(s0)
800027a8:	f6f42023          	sw	a5,-160(s0)
800027ac:	ecc42783          	lw	a5,-308(s0)
800027b0:	f5042083          	lw	ra,-176(s0)
800027b4:	009908b3          	add	a7,s2,s1
800027b8:	009783b3          	add	t2,a5,s1
800027bc:	f38f0513          	addi	a0,t5,-200
800027c0:	19853787          	fld	fa5,408(a0)
800027c4:	8786                	mv	a5,ra
800027c6:	00053f87          	fld	ft11,0(a0)
800027ca:	faf43c27          	fsd	fa5,-72(s0)
800027ce:	1a053787          	fld	fa5,416(a0)
800027d2:	00853f07          	fld	ft10,8(a0)
800027d6:	01053e87          	fld	ft9,16(a0)
800027da:	faf43827          	fsd	fa5,-80(s0)
800027de:	1a853787          	fld	fa5,424(a0)
800027e2:	01853e07          	fld	ft8,24(a0)
800027e6:	3108                	fld	fa0,32(a0)
800027e8:	faf43427          	fsd	fa5,-88(s0)
800027ec:	1b053787          	fld	fa5,432(a0)
800027f0:	0c853887          	fld	fa7,200(a0)
800027f4:	0d053807          	fld	fa6,208(a0)
800027f8:	faf43027          	fsd	fa5,-96(s0)
800027fc:	25853787          	fld	fa5,600(a0)
80002800:	0d853387          	fld	ft7,216(a0)
80002804:	0e053307          	fld	ft6,224(a0)
80002808:	f8f43c27          	fsd	fa5,-104(s0)
8000280c:	26053787          	fld	fa5,608(a0)
80002810:	356c                	fld	fa1,232(a0)
80002812:	19053287          	fld	ft5,400(a0)
80002816:	f8f43827          	fsd	fa5,-112(s0)
8000281a:	26853787          	fld	fa5,616(a0)
8000281e:	f8f43427          	fsd	fa5,-120(s0)
80002822:	27053787          	fld	fa5,624(a0)
80002826:	f8f43027          	fsd	fa5,-128(s0)
8000282a:	27853787          	fld	fa5,632(a0)
8000282e:	f6f43c27          	fsd	fa5,-136(s0)
80002832:	4b14f763          	bleu	a7,s1,80002ce0 <mm_cb+0x1b5c>
80002836:	23ff86d3          	fmv.d	fa3,ft11
8000283a:	22528fd3          	fmv.d	ft11,ft5
8000283e:	85ee                	mv	a1,s11
80002840:	861a                	mv	a2,t1
80002842:	86f6                	mv	a3,t4
80002844:	8726                	mv	a4,s1
80002846:	229c                	fld	fa5,0(a3)
80002848:	0207b087          	fld	ft1,32(a5)
8000284c:	0007b287          	fld	ft5,0(a5)
80002850:	0087b207          	fld	ft4,8(a5)
80002854:	0107b187          	fld	ft3,16(a5)
80002858:	0187b107          	fld	ft2,24(a5)
8000285c:	00063007          	fld	ft0,0(a2)
80002860:	8af2f8c3          	fmadd.d	fa7,ft5,fa5,fa7
80002864:	82f27843          	fmadd.d	fa6,ft4,fa5,fa6
80002868:	3af1f3c3          	fmadd.d	ft7,ft3,fa5,ft7
8000286c:	32f17343          	fmadd.d	ft6,ft2,fa5,ft6
80002870:	5af0f7c3          	fmadd.d	fa5,ft1,fa5,fa1
80002874:	fb843587          	fld	fa1,-72(s0)
80002878:	fa02ffc3          	fmadd.d	ft11,ft5,ft0,ft11
8000287c:	2318                	fld	fa4,0(a4)
8000287e:	5a0275c3          	fmadd.d	fa1,ft4,ft0,fa1
80002882:	2190                	fld	fa2,0(a1)
80002884:	6a5776c3          	fmadd.d	fa3,fa4,ft5,fa3
80002888:	f2477f43          	fmadd.d	ft10,fa4,ft4,ft10
8000288c:	ea377ec3          	fmadd.d	ft9,fa4,ft3,ft9
80002890:	e2277e43          	fmadd.d	ft8,fa4,ft2,ft8
80002894:	01978833          	add	a6,a5,s9
80002898:	fab43c27          	fsd	fa1,-72(s0)
8000289c:	fb043587          	fld	fa1,-80(s0)
800028a0:	52177743          	fmadd.d	fa4,fa4,ft1,fa0
800028a4:	2688                	fld	fa0,8(a3)
800028a6:	5a01f5c3          	fmadd.d	fa1,ft3,ft0,fa1
800028aa:	03070713          	addi	a4,a4,48
800028ae:	03068693          	addi	a3,a3,48
800028b2:	03060613          	addi	a2,a2,48
800028b6:	03058593          	addi	a1,a1,48
800028ba:	fab43827          	fsd	fa1,-80(s0)
800028be:	fa843587          	fld	fa1,-88(s0)
800028c2:	5a0175c3          	fmadd.d	fa1,ft2,ft0,fa1
800028c6:	fab43427          	fsd	fa1,-88(s0)
800028ca:	fa043587          	fld	fa1,-96(s0)
800028ce:	5a00f043          	fmadd.d	ft0,ft1,ft0,fa1
800028d2:	fd863587          	fld	fa1,-40(a2)
800028d6:	fa043027          	fsd	ft0,-96(s0)
800028da:	f9843007          	fld	ft0,-104(s0)
800028de:	02c2f2c3          	fmadd.d	ft5,ft5,fa2,ft0
800028e2:	fd873007          	fld	ft0,-40(a4)
800028e6:	f8543c27          	fsd	ft5,-104(s0)
800028ea:	f9043287          	fld	ft5,-112(s0)
800028ee:	2ac27243          	fmadd.d	ft4,ft4,fa2,ft5
800028f2:	00083287          	fld	ft5,0(a6)
800028f6:	8aa2f8c3          	fmadd.d	fa7,ft5,fa0,fa7
800028fa:	6a5076c3          	fmadd.d	fa3,ft0,ft5,fa3
800028fe:	fab2ffc3          	fmadd.d	ft11,ft5,fa1,ft11
80002902:	f8443827          	fsd	ft4,-112(s0)
80002906:	f8843207          	fld	ft4,-120(s0)
8000290a:	22c1f1c3          	fmadd.d	ft3,ft3,fa2,ft4
8000290e:	f8343427          	fsd	ft3,-120(s0)
80002912:	f8043187          	fld	ft3,-128(s0)
80002916:	1ac17143          	fmadd.d	ft2,ft2,fa2,ft3
8000291a:	f8243027          	fsd	ft2,-128(s0)
8000291e:	f7843107          	fld	ft2,-136(s0)
80002922:	12c0f643          	fmadd.d	fa2,ft1,fa2,ft2
80002926:	f6c43c27          	fsd	fa2,-136(s0)
8000292a:	fd85b607          	fld	fa2,-40(a1)
8000292e:	00883207          	fld	ft4,8(a6)
80002932:	02083087          	fld	ft1,32(a6)
80002936:	01083187          	fld	ft3,16(a6)
8000293a:	01883107          	fld	ft2,24(a6)
8000293e:	82a27843          	fmadd.d	fa6,ft4,fa0,fa6
80002942:	3aa1f3c3          	fmadd.d	ft7,ft3,fa0,ft7
80002946:	32a17343          	fmadd.d	ft6,ft2,fa0,ft6
8000294a:	7aa0f7c3          	fmadd.d	fa5,ft1,fa0,fa5
8000294e:	fb843507          	fld	fa0,-72(s0)
80002952:	f2407f43          	fmadd.d	ft10,ft0,ft4,ft10
80002956:	ea307ec3          	fmadd.d	ft9,ft0,ft3,ft9
8000295a:	52b27543          	fmadd.d	fa0,ft4,fa1,fa0
8000295e:	e2207e43          	fmadd.d	ft8,ft0,ft2,ft8
80002962:	72107743          	fmadd.d	fa4,ft0,ft1,fa4
80002966:	00fc0833          	add	a6,s8,a5
8000296a:	faa43c27          	fsd	fa0,-72(s0)
8000296e:	fb043507          	fld	fa0,-80(s0)
80002972:	52b1f043          	fmadd.d	ft0,ft3,fa1,fa0
80002976:	fa843507          	fld	fa0,-88(s0)
8000297a:	52b17543          	fmadd.d	fa0,ft2,fa1,fa0
8000297e:	fa043827          	fsd	ft0,-80(s0)
80002982:	fa043007          	fld	ft0,-96(s0)
80002986:	02b0f043          	fmadd.d	ft0,ft1,fa1,ft0
8000298a:	f9843587          	fld	fa1,-104(s0)
8000298e:	faa43427          	fsd	fa0,-88(s0)
80002992:	fe06b507          	fld	fa0,-32(a3)
80002996:	5ac2f2c3          	fmadd.d	ft5,ft5,fa2,fa1
8000299a:	f9043587          	fld	fa1,-112(s0)
8000299e:	fa043027          	fsd	ft0,-96(s0)
800029a2:	5ac27243          	fmadd.d	ft4,ft4,fa2,fa1
800029a6:	f8843587          	fld	fa1,-120(s0)
800029aa:	fe073007          	fld	ft0,-32(a4)
800029ae:	f8543c27          	fsd	ft5,-104(s0)
800029b2:	5ac1f1c3          	fmadd.d	ft3,ft3,fa2,fa1
800029b6:	f8043587          	fld	fa1,-128(s0)
800029ba:	00083287          	fld	ft5,0(a6)
800029be:	f8443827          	fsd	ft4,-112(s0)
800029c2:	5ac17143          	fmadd.d	ft2,ft2,fa2,fa1
800029c6:	f7843587          	fld	fa1,-136(s0)
800029ca:	00883207          	fld	ft4,8(a6)
800029ce:	f8343427          	fsd	ft3,-120(s0)
800029d2:	5ac0f643          	fmadd.d	fa2,ft1,fa2,fa1
800029d6:	01083187          	fld	ft3,16(a6)
800029da:	fe063587          	fld	fa1,-32(a2)
800029de:	f8243027          	fsd	ft2,-128(s0)
800029e2:	01883107          	fld	ft2,24(a6)
800029e6:	8aa2f8c3          	fmadd.d	fa7,ft5,fa0,fa7
800029ea:	82a27843          	fmadd.d	fa6,ft4,fa0,fa6
800029ee:	f6c43c27          	fsd	fa2,-136(s0)
800029f2:	02083607          	fld	fa2,32(a6)
800029f6:	3aa1f3c3          	fmadd.d	ft7,ft3,fa0,ft7
800029fa:	32a17343          	fmadd.d	ft6,ft2,fa0,ft6
800029fe:	7aa677c3          	fmadd.d	fa5,fa2,fa0,fa5
80002a02:	fb843507          	fld	fa0,-72(s0)
80002a06:	fe05b087          	fld	ft1,-32(a1)
80002a0a:	6a5076c3          	fmadd.d	fa3,ft0,ft5,fa3
80002a0e:	52b27543          	fmadd.d	fa0,ft4,fa1,fa0
80002a12:	f2407f43          	fmadd.d	ft10,ft0,ft4,ft10
80002a16:	ea307ec3          	fmadd.d	ft9,ft0,ft3,ft9
80002a1a:	e2207e43          	fmadd.d	ft8,ft0,ft2,ft8
80002a1e:	72c07743          	fmadd.d	fa4,ft0,fa2,fa4
80002a22:	fab2ffc3          	fmadd.d	ft11,ft5,fa1,ft11
80002a26:	01678833          	add	a6,a5,s6
80002a2a:	faa43c27          	fsd	fa0,-72(s0)
80002a2e:	fb043007          	fld	ft0,-80(s0)
80002a32:	fa843507          	fld	fa0,-88(s0)
80002a36:	02b1f043          	fmadd.d	ft0,ft3,fa1,ft0
80002a3a:	52b17543          	fmadd.d	fa0,ft2,fa1,fa0
80002a3e:	fa043827          	fsd	ft0,-80(s0)
80002a42:	fa043007          	fld	ft0,-96(s0)
80002a46:	faa43427          	fsd	fa0,-88(s0)
80002a4a:	fe86b507          	fld	fa0,-24(a3)
80002a4e:	02b67043          	fmadd.d	ft0,fa2,fa1,ft0
80002a52:	f9843587          	fld	fa1,-104(s0)
80002a56:	5a12f2c3          	fmadd.d	ft5,ft5,ft1,fa1
80002a5a:	f9043587          	fld	fa1,-112(s0)
80002a5e:	fa043027          	fsd	ft0,-96(s0)
80002a62:	5a127243          	fmadd.d	ft4,ft4,ft1,fa1
80002a66:	f8843587          	fld	fa1,-120(s0)
80002a6a:	fe873007          	fld	ft0,-24(a4)
80002a6e:	f8543c27          	fsd	ft5,-104(s0)
80002a72:	5a11f1c3          	fmadd.d	ft3,ft3,ft1,fa1
80002a76:	f8043587          	fld	fa1,-128(s0)
80002a7a:	00083287          	fld	ft5,0(a6)
80002a7e:	f8443827          	fsd	ft4,-112(s0)
80002a82:	5a117143          	fmadd.d	ft2,ft2,ft1,fa1
80002a86:	f7843587          	fld	fa1,-136(s0)
80002a8a:	00883207          	fld	ft4,8(a6)
80002a8e:	f8343427          	fsd	ft3,-120(s0)
80002a92:	5a167643          	fmadd.d	fa2,fa2,ft1,fa1
80002a96:	01083187          	fld	ft3,16(a6)
80002a9a:	02083087          	fld	ft1,32(a6)
80002a9e:	f8243027          	fsd	ft2,-128(s0)
80002aa2:	01883107          	fld	ft2,24(a6)
80002aa6:	fe863587          	fld	fa1,-24(a2)
80002aaa:	7aa0f7c3          	fmadd.d	fa5,ft1,fa0,fa5
80002aae:	8aa2f8c3          	fmadd.d	fa7,ft5,fa0,fa7
80002ab2:	82a27843          	fmadd.d	fa6,ft4,fa0,fa6
80002ab6:	3aa1f3c3          	fmadd.d	ft7,ft3,fa0,ft7
80002aba:	32a17343          	fmadd.d	ft6,ft2,fa0,ft6
80002abe:	fb843507          	fld	fa0,-72(s0)
80002ac2:	6a5076c3          	fmadd.d	fa3,ft0,ft5,fa3
80002ac6:	f2407f43          	fmadd.d	ft10,ft0,ft4,ft10
80002aca:	ea307ec3          	fmadd.d	ft9,ft0,ft3,ft9
80002ace:	e2207e43          	fmadd.d	ft8,ft0,ft2,ft8
80002ad2:	72107743          	fmadd.d	fa4,ft0,ft1,fa4
80002ad6:	fb043007          	fld	ft0,-80(s0)
80002ada:	52b27543          	fmadd.d	fa0,ft4,fa1,fa0
80002ade:	f6c43c27          	fsd	fa2,-136(s0)
80002ae2:	02b1f043          	fmadd.d	ft0,ft3,fa1,ft0
80002ae6:	fe85b607          	fld	fa2,-24(a1)
80002aea:	fab2ffc3          	fmadd.d	ft11,ft5,fa1,ft11
80002aee:	00fb8833          	add	a6,s7,a5
80002af2:	faa43c27          	fsd	fa0,-72(s0)
80002af6:	fa843507          	fld	fa0,-88(s0)
80002afa:	fa043827          	fsd	ft0,-80(s0)
80002afe:	fa043007          	fld	ft0,-96(s0)
80002b02:	52b17543          	fmadd.d	fa0,ft2,fa1,fa0
80002b06:	02b0f043          	fmadd.d	ft0,ft1,fa1,ft0
80002b0a:	faa43427          	fsd	fa0,-88(s0)
80002b0e:	fa043027          	fsd	ft0,-96(s0)
80002b12:	f9843587          	fld	fa1,-104(s0)
80002b16:	ff06b507          	fld	fa0,-16(a3)
80002b1a:	ff073007          	fld	ft0,-16(a4)
80002b1e:	5ac2f2c3          	fmadd.d	ft5,ft5,fa2,fa1
80002b22:	f9043587          	fld	fa1,-112(s0)
80002b26:	5ac27243          	fmadd.d	ft4,ft4,fa2,fa1
80002b2a:	f8843587          	fld	fa1,-120(s0)
80002b2e:	f8543c27          	fsd	ft5,-104(s0)
80002b32:	5ac1f1c3          	fmadd.d	ft3,ft3,fa2,fa1
80002b36:	f8043587          	fld	fa1,-128(s0)
80002b3a:	00083287          	fld	ft5,0(a6)
80002b3e:	f8443827          	fsd	ft4,-112(s0)
80002b42:	5ac17143          	fmadd.d	ft2,ft2,fa2,fa1
80002b46:	f7843587          	fld	fa1,-136(s0)
80002b4a:	00883207          	fld	ft4,8(a6)
80002b4e:	f8343427          	fsd	ft3,-120(s0)
80002b52:	5ac0f643          	fmadd.d	fa2,ft1,fa2,fa1
80002b56:	01083187          	fld	ft3,16(a6)
80002b5a:	8aa2f8c3          	fmadd.d	fa7,ft5,fa0,fa7
80002b5e:	f8243027          	fsd	ft2,-128(s0)
80002b62:	01883107          	fld	ft2,24(a6)
80002b66:	82a27843          	fmadd.d	fa6,ft4,fa0,fa6
80002b6a:	3aa1f3c3          	fmadd.d	ft7,ft3,fa0,ft7
80002b6e:	f6c43c27          	fsd	fa2,-136(s0)
80002b72:	02083607          	fld	fa2,32(a6)
80002b76:	32a17343          	fmadd.d	ft6,ft2,fa0,ft6
80002b7a:	ff063587          	fld	fa1,-16(a2)
80002b7e:	7aa67543          	fmadd.d	fa0,fa2,fa0,fa5
80002b82:	72c07743          	fmadd.d	fa4,ft0,fa2,fa4
80002b86:	6a5076c3          	fmadd.d	fa3,ft0,ft5,fa3
80002b8a:	f2407f43          	fmadd.d	ft10,ft0,ft4,ft10
80002b8e:	ea307ec3          	fmadd.d	ft9,ft0,ft3,ft9
80002b92:	e2207e43          	fmadd.d	ft8,ft0,ft2,ft8
80002b96:	fb043007          	fld	ft0,-80(s0)
80002b9a:	f6a43827          	fsd	fa0,-144(s0)
80002b9e:	fb843507          	fld	fa0,-72(s0)
80002ba2:	02b1f043          	fmadd.d	ft0,ft3,fa1,ft0
80002ba6:	ff05b087          	fld	ft1,-16(a1)
80002baa:	52b27543          	fmadd.d	fa0,ft4,fa1,fa0
80002bae:	f9843787          	fld	fa5,-104(s0)
80002bb2:	fab2ffc3          	fmadd.d	ft11,ft5,fa1,ft11
80002bb6:	01478833          	add	a6,a5,s4
80002bba:	7a12f2c3          	fmadd.d	ft5,ft5,ft1,fa5
80002bbe:	fa043827          	fsd	ft0,-80(s0)
80002bc2:	f9043787          	fld	fa5,-112(s0)
80002bc6:	fa043007          	fld	ft0,-96(s0)
80002bca:	faa43c27          	fsd	fa0,-72(s0)
80002bce:	fa843507          	fld	fa0,-88(s0)
80002bd2:	7a127243          	fmadd.d	ft4,ft4,ft1,fa5
80002bd6:	f8543c27          	fsd	ft5,-104(s0)
80002bda:	52b17543          	fmadd.d	fa0,ft2,fa1,fa0
80002bde:	02b675c3          	fmadd.d	fa1,fa2,fa1,ft0
80002be2:	97d6                	add	a5,a5,s5
80002be4:	f8443827          	fsd	ft4,-112(s0)
80002be8:	faa43427          	fsd	fa0,-88(s0)
80002bec:	fab43027          	fsd	fa1,-96(s0)
80002bf0:	f8843787          	fld	fa5,-120(s0)
80002bf4:	ff873507          	fld	fa0,-8(a4)
80002bf8:	00083007          	fld	ft0,0(a6)
80002bfc:	7a11f1c3          	fmadd.d	ft3,ft3,ft1,fa5
80002c00:	f8043787          	fld	fa5,-128(s0)
80002c04:	00883287          	fld	ft5,8(a6)
80002c08:	01083207          	fld	ft4,16(a6)
80002c0c:	7a117143          	fmadd.d	ft2,ft2,ft1,fa5
80002c10:	f7843787          	fld	fa5,-136(s0)
80002c14:	6a0576c3          	fmadd.d	fa3,fa0,ft0,fa3
80002c18:	f8343427          	fsd	ft3,-120(s0)
80002c1c:	7a167643          	fmadd.d	fa2,fa2,ft1,fa5
80002c20:	01883187          	fld	ft3,24(a6)
80002c24:	ff86b787          	fld	fa5,-8(a3)
80002c28:	f8243027          	fsd	ft2,-128(s0)
80002c2c:	02083107          	fld	ft2,32(a6)
80002c30:	f2557f43          	fmadd.d	ft10,fa0,ft5,ft10
80002c34:	ea457ec3          	fmadd.d	ft9,fa0,ft4,ft9
80002c38:	e2357e43          	fmadd.d	ft8,fa0,ft3,ft8
80002c3c:	72257543          	fmadd.d	fa0,fa0,ft2,fa4
80002c40:	f7043707          	fld	fa4,-144(s0)
80002c44:	f6c43c27          	fsd	fa2,-136(s0)
80002c48:	8af078c3          	fmadd.d	fa7,ft0,fa5,fa7
80002c4c:	ff863607          	fld	fa2,-8(a2)
80002c50:	72f175c3          	fmadd.d	fa1,ft2,fa5,fa4
80002c54:	82f2f843          	fmadd.d	fa6,ft5,fa5,fa6
80002c58:	3af273c3          	fmadd.d	ft7,ft4,fa5,ft7
80002c5c:	32f1f343          	fmadd.d	ft6,ft3,fa5,ft6
80002c60:	fb843787          	fld	fa5,-72(s0)
80002c64:	ff85b087          	fld	ft1,-8(a1)
80002c68:	fac07fc3          	fmadd.d	ft11,ft0,fa2,ft11
80002c6c:	7ac2f743          	fmadd.d	fa4,ft5,fa2,fa5
80002c70:	fb043787          	fld	fa5,-80(s0)
80002c74:	fae43c27          	fsd	fa4,-72(s0)
80002c78:	7ac27743          	fmadd.d	fa4,ft4,fa2,fa5
80002c7c:	fa843787          	fld	fa5,-88(s0)
80002c80:	fae43827          	fsd	fa4,-80(s0)
80002c84:	7ac1f743          	fmadd.d	fa4,ft3,fa2,fa5
80002c88:	fa043787          	fld	fa5,-96(s0)
80002c8c:	fae43427          	fsd	fa4,-88(s0)
80002c90:	7ac17743          	fmadd.d	fa4,ft2,fa2,fa5
80002c94:	f9843787          	fld	fa5,-104(s0)
80002c98:	fae43027          	fsd	fa4,-96(s0)
80002c9c:	7a107743          	fmadd.d	fa4,ft0,ft1,fa5
80002ca0:	f9043787          	fld	fa5,-112(s0)
80002ca4:	f8e43c27          	fsd	fa4,-104(s0)
80002ca8:	7a12f743          	fmadd.d	fa4,ft5,ft1,fa5
80002cac:	f8843787          	fld	fa5,-120(s0)
80002cb0:	f8e43827          	fsd	fa4,-112(s0)
80002cb4:	7a127743          	fmadd.d	fa4,ft4,ft1,fa5
80002cb8:	f8043787          	fld	fa5,-128(s0)
80002cbc:	7a11f7c3          	fmadd.d	fa5,ft3,ft1,fa5
80002cc0:	f8e43427          	fsd	fa4,-120(s0)
80002cc4:	f8f43027          	fsd	fa5,-128(s0)
80002cc8:	f7843607          	fld	fa2,-136(s0)
80002ccc:	621177c3          	fmadd.d	fa5,ft2,ft1,fa2
80002cd0:	f6f43c27          	fsd	fa5,-136(s0)
80002cd4:	b71769e3          	bltu	a4,a7,80002846 <mm_cb+0x16c2>
80002cd8:	23ff82d3          	fmv.d	ft5,ft11
80002cdc:	22d68fd3          	fmv.d	ft11,fa3
80002ce0:	001987b3          	add	a5,s3,ra
80002ce4:	0c78fa63          	bleu	t2,a7,80002db8 <mm_cb+0x1c34>
80002ce8:	01d905b3          	add	a1,s2,t4
80002cec:	00690633          	add	a2,s2,t1
80002cf0:	01b906b3          	add	a3,s2,s11
80002cf4:	8746                	mv	a4,a7
80002cf6:	2194                	fld	fa3,0(a1)
80002cf8:	0007b207          	fld	ft4,0(a5)
80002cfc:	0087b187          	fld	ft3,8(a5)
80002d00:	0107b107          	fld	ft2,16(a5)
80002d04:	0187b087          	fld	ft1,24(a5)
80002d08:	0207b007          	fld	ft0,32(a5)
80002d0c:	2218                	fld	fa4,0(a2)
80002d0e:	8ad278c3          	fmadd.d	fa7,ft4,fa3,fa7
80002d12:	82d1f843          	fmadd.d	fa6,ft3,fa3,fa6
80002d16:	3ad173c3          	fmadd.d	ft7,ft2,fa3,ft7
80002d1a:	32d0f343          	fmadd.d	ft6,ft1,fa3,ft6
80002d1e:	5ad075c3          	fmadd.d	fa1,ft0,fa3,fa1
80002d22:	fb843687          	fld	fa3,-72(s0)
80002d26:	2ae272c3          	fmadd.d	ft5,ft4,fa4,ft5
80002d2a:	229c                	fld	fa5,0(a3)
80002d2c:	6ae1f6c3          	fmadd.d	fa3,ft3,fa4,fa3
80002d30:	2310                	fld	fa2,0(a4)
80002d32:	0721                	addi	a4,a4,8
80002d34:	97e6                	add	a5,a5,s9
80002d36:	fa467fc3          	fmadd.d	ft11,fa2,ft4,ft11
80002d3a:	f2367f43          	fmadd.d	ft10,fa2,ft3,ft10
80002d3e:	ea267ec3          	fmadd.d	ft9,fa2,ft2,ft9
80002d42:	fad43c27          	fsd	fa3,-72(s0)
80002d46:	fb043687          	fld	fa3,-80(s0)
80002d4a:	e2167e43          	fmadd.d	ft8,fa2,ft1,ft8
80002d4e:	52067543          	fmadd.d	fa0,fa2,ft0,fa0
80002d52:	6ae176c3          	fmadd.d	fa3,ft2,fa4,fa3
80002d56:	05a1                	addi	a1,a1,8
80002d58:	0621                	addi	a2,a2,8
80002d5a:	06a1                	addi	a3,a3,8
80002d5c:	fad43827          	fsd	fa3,-80(s0)
80002d60:	fa843687          	fld	fa3,-88(s0)
80002d64:	6ae0f6c3          	fmadd.d	fa3,ft1,fa4,fa3
80002d68:	fad43427          	fsd	fa3,-88(s0)
80002d6c:	fa043687          	fld	fa3,-96(s0)
80002d70:	6ae07743          	fmadd.d	fa4,ft0,fa4,fa3
80002d74:	fae43027          	fsd	fa4,-96(s0)
80002d78:	f9843707          	fld	fa4,-104(s0)
80002d7c:	72f27743          	fmadd.d	fa4,ft4,fa5,fa4
80002d80:	f8e43c27          	fsd	fa4,-104(s0)
80002d84:	f9043707          	fld	fa4,-112(s0)
80002d88:	72f1f743          	fmadd.d	fa4,ft3,fa5,fa4
80002d8c:	f8e43827          	fsd	fa4,-112(s0)
80002d90:	f8843707          	fld	fa4,-120(s0)
80002d94:	72f17743          	fmadd.d	fa4,ft2,fa5,fa4
80002d98:	f8e43427          	fsd	fa4,-120(s0)
80002d9c:	f8043707          	fld	fa4,-128(s0)
80002da0:	72f0f743          	fmadd.d	fa4,ft1,fa5,fa4
80002da4:	f8e43027          	fsd	fa4,-128(s0)
80002da8:	f7843707          	fld	fa4,-136(s0)
80002dac:	72f077c3          	fmadd.d	fa5,ft0,fa5,fa4
80002db0:	f6f43c27          	fsd	fa5,-136(s0)
80002db4:	f47761e3          	bltu	a4,t2,80002cf6 <mm_cb+0x1b72>
80002db8:	fb843787          	fld	fa5,-72(s0)
80002dbc:	01f53027          	fsd	ft11,0(a0)
80002dc0:	01e53427          	fsd	ft10,8(a0)
80002dc4:	18f53c27          	fsd	fa5,408(a0)
80002dc8:	fb043787          	fld	fa5,-80(s0)
80002dcc:	01d53827          	fsd	ft9,16(a0)
80002dd0:	01c53c27          	fsd	ft8,24(a0)
80002dd4:	1af53027          	fsd	fa5,416(a0)
80002dd8:	fa843787          	fld	fa5,-88(s0)
80002ddc:	b108                	fsd	fa0,32(a0)
80002dde:	0d153427          	fsd	fa7,200(a0)
80002de2:	1af53427          	fsd	fa5,424(a0)
80002de6:	fa043787          	fld	fa5,-96(s0)
80002dea:	0d053827          	fsd	fa6,208(a0)
80002dee:	0c753c27          	fsd	ft7,216(a0)
80002df2:	1af53827          	fsd	fa5,432(a0)
80002df6:	f9843787          	fld	fa5,-104(s0)
80002dfa:	0e653027          	fsd	ft6,224(a0)
80002dfe:	b56c                	fsd	fa1,232(a0)
80002e00:	24f53c27          	fsd	fa5,600(a0)
80002e04:	f9043787          	fld	fa5,-112(s0)
80002e08:	18553827          	fsd	ft5,400(a0)
80002e0c:	02808093          	addi	ra,ra,40
80002e10:	26f53027          	fsd	fa5,608(a0)
80002e14:	f8843787          	fld	fa5,-120(s0)
80002e18:	02850513          	addi	a0,a0,40
80002e1c:	24f53027          	fsd	fa5,576(a0)
80002e20:	f8043787          	fld	fa5,-128(s0)
80002e24:	24f53427          	fsd	fa5,584(a0)
80002e28:	f7843787          	fld	fa5,-136(s0)
80002e2c:	24f53827          	fsd	fa5,592(a0)
80002e30:	981e18e3          	bne	t3,ra,800027c0 <mm_cb+0x163c>
80002e34:	f4442803          	lw	a6,-188(s0)
80002e38:	f4042703          	lw	a4,-192(s0)
80002e3c:	f0042603          	lw	a2,-256(s0)
80002e40:	47e5                	li	a5,25
80002e42:	88fa                	mv	a7,t5
80002e44:	86a6                	mv	a3,s1
80002e46:	320f0f13          	addi	t5,t5,800
80002e4a:	c03e                	sw	a5,0(sp)
80002e4c:	4581                	li	a1,0
80002e4e:	87f2                	mv	a5,t3
80002e50:	4511                	li	a0,4
80002e52:	f8642c23          	sw	t1,-104(s0)
80002e56:	fbd42023          	sw	t4,-96(s0)
80002e5a:	fa542423          	sw	t0,-88(s0)
80002e5e:	fbc42823          	sw	t3,-80(s0)
80002e62:	fbe42c23          	sw	t5,-72(s0)
80002e66:	9e2fe0ef          	jal	ra,80001048 <mm_naive>
80002e6a:	fa842283          	lw	t0,-88(s0)
80002e6e:	fa042e83          	lw	t4,-96(s0)
80002e72:	f9842303          	lw	t1,-104(s0)
80002e76:	f6042783          	lw	a5,-160(s0)
80002e7a:	fb842f03          	lw	t5,-72(s0)
80002e7e:	9496                	add	s1,s1,t0
80002e80:	9e96                	add	t4,t4,t0
80002e82:	9316                	add	t1,t1,t0
80002e84:	9d96                	add	s11,s11,t0
80002e86:	fb042e03          	lw	t3,-80(s0)
80002e8a:	93e791e3          	bne	a5,t5,800027ac <mm_cb+0x1628>
80002e8e:	f2042e83          	lw	t4,-224(s0)
80002e92:	47e5                	li	a5,25
80002e94:	c03e                	sw	a5,0(sp)
80002e96:	f4442803          	lw	a6,-188(s0)
80002e9a:	f5042783          	lw	a5,-176(s0)
80002e9e:	f4042703          	lw	a4,-192(s0)
80002ea2:	edc42683          	lw	a3,-292(s0)
80002ea6:	f0042603          	lw	a2,-256(s0)
80002eaa:	01ae88b3          	add	a7,t4,s10
80002eae:	45e5                	li	a1,25
80002eb0:	4501                	li	a0,0
80002eb2:	fbc42c23          	sw	t3,-72(s0)
80002eb6:	992fe0ef          	jal	ra,80001048 <mm_naive>
80002eba:	fb842e03          	lw	t3,-72(s0)
80002ebe:	db5fe06f          	j	80001c72 <mm_cb+0xaee>
80002ec2:	f3042783          	lw	a5,-208(s0)
80002ec6:	e399                	bnez	a5,80002ecc <mm_cb+0x1d48>
80002ec8:	de1fe06f          	j	80001ca8 <mm_cb+0xb24>
80002ecc:	e8c42783          	lw	a5,-372(s0)
80002ed0:	f5842703          	lw	a4,-168(s0)
80002ed4:	f0042423          	sw	zero,-248(s0)
80002ed8:	97ba                	add	a5,a5,a4
80002eda:	eef42823          	sw	a5,-272(s0)
80002ede:	e9842783          	lw	a5,-360(s0)
80002ee2:	f0f42823          	sw	a5,-240(s0)
80002ee6:	f0842703          	lw	a4,-248(s0)
80002eea:	f3042783          	lw	a5,-208(s0)
80002eee:	8f99                	sub	a5,a5,a4
80002ef0:	f0f42e23          	sw	a5,-228(s0)
80002ef4:	4761                	li	a4,24
80002ef6:	00f77563          	bleu	a5,a4,80002f00 <mm_cb+0x1d7c>
80002efa:	47e1                	li	a5,24
80002efc:	f0f42e23          	sw	a5,-228(s0)
80002f00:	f1c42703          	lw	a4,-228(s0)
80002f04:	4799                	li	a5,6
80002f06:	ef042903          	lw	s2,-272(s0)
80002f0a:	02f75e33          	divu	t3,a4,a5
80002f0e:	ee042783          	lw	a5,-288(s0)
80002f12:	070e                	slli	a4,a4,0x3
80002f14:	eae42423          	sw	a4,-344(s0)
80002f18:	01278cb3          	add	s9,a5,s2
80002f1c:	019789b3          	add	s3,a5,s9
80002f20:	01378333          	add	t1,a5,s3
80002f24:	ef842783          	lw	a5,-264(s0)
80002f28:	efc42703          	lw	a4,-260(s0)
80002f2c:	f1042683          	lw	a3,-240(s0)
80002f30:	f2f42223          	sw	a5,-220(s0)
80002f34:	4799                	li	a5,6
80002f36:	9736                	add	a4,a4,a3
80002f38:	f2f42023          	sw	a5,-224(s0)
80002f3c:	87e6                	mv	a5,s9
80002f3e:	ece42223          	sw	a4,-316(s0)
80002f42:	8cce                	mv	s9,s3
80002f44:	899a                	mv	s3,t1
80002f46:	833e                	mv	t1,a5
80002f48:	001e1493          	slli	s1,t3,0x1
80002f4c:	94f2                	add	s1,s1,t3
80002f4e:	03ca8e33          	mul	t3,s5,t3
80002f52:	0492                	slli	s1,s1,0x4
80002f54:	f3842783          	lw	a5,-200(s0)
80002f58:	6c078463          	beqz	a5,80003620 <mm_cb+0x249c>
80002f5c:	ea042783          	lw	a5,-352(s0)
80002f60:	f2442e83          	lw	t4,-220(s0)
80002f64:	ea842703          	lw	a4,-344(s0)
80002f68:	f1042383          	lw	t2,-240(s0)
80002f6c:	01d788b3          	add	a7,a5,t4
80002f70:	01178833          	add	a6,a5,a7
80002f74:	01248fb3          	add	t6,s1,s2
80002f78:	012702b3          	add	t0,a4,s2
80002f7c:	01078f33          	add	t5,a5,a6
80002f80:	4081                	li	ra,0
80002f82:	020eb787          	fld	fa5,32(t4)
80002f86:	879e                	mv	a5,t2
80002f88:	000ebf87          	fld	ft11,0(t4)
80002f8c:	faf43c27          	fsd	fa5,-72(s0)
80002f90:	0208b787          	fld	fa5,32(a7)
80002f94:	008ebf07          	fld	ft10,8(t4)
80002f98:	010ebe87          	fld	ft9,16(t4)
80002f9c:	faf43827          	fsd	fa5,-80(s0)
80002fa0:	00883787          	fld	fa5,8(a6)
80002fa4:	018ebe07          	fld	ft8,24(t4)
80002fa8:	0008b887          	fld	fa7,0(a7)
80002fac:	faf43427          	fsd	fa5,-88(s0)
80002fb0:	01083787          	fld	fa5,16(a6)
80002fb4:	0088b807          	fld	fa6,8(a7)
80002fb8:	0108b387          	fld	ft7,16(a7)
80002fbc:	faf43027          	fsd	fa5,-96(s0)
80002fc0:	01883787          	fld	fa5,24(a6)
80002fc4:	0188b307          	fld	ft6,24(a7)
80002fc8:	00083287          	fld	ft5,0(a6)
80002fcc:	f8f43c27          	fsd	fa5,-104(s0)
80002fd0:	02083787          	fld	fa5,32(a6)
80002fd4:	000f3207          	fld	ft4,0(t5)
80002fd8:	008f3187          	fld	ft3,8(t5)
80002fdc:	f8f43827          	fsd	fa5,-112(s0)
80002fe0:	010f3787          	fld	fa5,16(t5)
80002fe4:	f8f43427          	fsd	fa5,-120(s0)
80002fe8:	018f3787          	fld	fa5,24(t5)
80002fec:	f8f43027          	fsd	fa5,-128(s0)
80002ff0:	020f3787          	fld	fa5,32(t5)
80002ff4:	f6f43c27          	fsd	fa5,-136(s0)
80002ff8:	4bf97963          	bleu	t6,s2,800034aa <mm_cb+0x2326>
80002ffc:	23ff86d3          	fmv.d	fa3,ft11
80003000:	23ef0153          	fmv.d	ft2,ft10
80003004:	85ce                	mv	a1,s3
80003006:	8666                	mv	a2,s9
80003008:	869a                	mv	a3,t1
8000300a:	874a                	mv	a4,s2
8000300c:	2318                	fld	fa4,0(a4)
8000300e:	0007bf87          	fld	ft11,0(a5)
80003012:	0087bf07          	fld	ft10,8(a5)
80003016:	3388                	fld	fa0,32(a5)
80003018:	6bf776c3          	fmadd.d	fa3,fa4,ft11,fa3
8000301c:	0107b087          	fld	ft1,16(a5)
80003020:	0187b007          	fld	ft0,24(a5)
80003024:	229c                	fld	fa5,0(a3)
80003026:	13e77143          	fmadd.d	ft2,fa4,ft10,ft2
8000302a:	ea177ec3          	fmadd.d	ft9,fa4,ft1,ft9
8000302e:	e2077e43          	fmadd.d	ft8,fa4,ft0,ft8
80003032:	f6d43827          	fsd	fa3,-144(s0)
80003036:	fb843687          	fld	fa3,-72(s0)
8000303a:	220c                	fld	fa1,0(a2)
8000303c:	8afff8c3          	fmadd.d	fa7,ft11,fa5,fa7
80003040:	6aa77743          	fmadd.d	fa4,fa4,fa0,fa3
80003044:	fb043687          	fld	fa3,-80(s0)
80003048:	82ff7843          	fmadd.d	fa6,ft10,fa5,fa6
8000304c:	3af0f3c3          	fmadd.d	ft7,ft1,fa5,ft7
80003050:	32f07343          	fmadd.d	ft6,ft0,fa5,ft6
80003054:	6af577c3          	fmadd.d	fa5,fa0,fa5,fa3
80003058:	fa843687          	fld	fa3,-88(s0)
8000305c:	2190                	fld	fa2,0(a1)
8000305e:	2abff2c3          	fmadd.d	ft5,ft11,fa1,ft5
80003062:	6abf76c3          	fmadd.d	fa3,ft10,fa1,fa3
80003066:	1acf71c3          	fmadd.d	ft3,ft10,fa2,ft3
8000306a:	f8843f07          	fld	ft10,-120(s0)
8000306e:	22cff243          	fmadd.d	ft4,ft11,fa2,ft4
80003072:	01b78533          	add	a0,a5,s11
80003076:	03070713          	addi	a4,a4,48
8000307a:	03068693          	addi	a3,a3,48
8000307e:	fad43c27          	fsd	fa3,-72(s0)
80003082:	fa043687          	fld	fa3,-96(s0)
80003086:	03060613          	addi	a2,a2,48
8000308a:	03058593          	addi	a1,a1,48
8000308e:	6ab0f6c3          	fmadd.d	fa3,ft1,fa1,fa3
80003092:	f2c0f0c3          	fmadd.d	ft1,ft1,fa2,ft10
80003096:	f8043f07          	fld	ft10,-128(s0)
8000309a:	fad43827          	fsd	fa3,-80(s0)
8000309e:	f9843687          	fld	fa3,-104(s0)
800030a2:	f8143427          	fsd	ft1,-120(s0)
800030a6:	f8443c27          	fsd	ft4,-104(s0)
800030aa:	6ab076c3          	fmadd.d	fa3,ft0,fa1,fa3
800030ae:	f2c07043          	fmadd.d	ft0,ft0,fa2,ft10
800030b2:	f7843f07          	fld	ft10,-136(s0)
800030b6:	f2c57643          	fmadd.d	fa2,fa0,fa2,ft10
800030ba:	fad43427          	fsd	fa3,-88(s0)
800030be:	f9043687          	fld	fa3,-112(s0)
800030c2:	f8043027          	fsd	ft0,-128(s0)
800030c6:	f8343827          	fsd	ft3,-112(s0)
800030ca:	6ab575c3          	fmadd.d	fa1,fa0,fa1,fa3
800030ce:	fd873007          	fld	ft0,-40(a4)
800030d2:	fd86b507          	fld	fa0,-40(a3)
800030d6:	f6c43c27          	fsd	fa2,-136(s0)
800030da:	fd85b607          	fld	fa2,-40(a1)
800030de:	fab43027          	fsd	fa1,-96(s0)
800030e2:	fd863587          	fld	fa1,-40(a2)
800030e6:	00053f87          	fld	ft11,0(a0)
800030ea:	00853f07          	fld	ft10,8(a0)
800030ee:	01053207          	fld	ft4,16(a0)
800030f2:	01853187          	fld	ft3,24(a0)
800030f6:	02053087          	fld	ft1,32(a0)
800030fa:	8aaff8c3          	fmadd.d	fa7,ft11,fa0,fa7
800030fe:	82af7843          	fmadd.d	fa6,ft10,fa0,fa6
80003102:	3aa273c3          	fmadd.d	ft7,ft4,fa0,ft7
80003106:	32a1f343          	fmadd.d	ft6,ft3,fa0,ft6
8000310a:	7aa0f7c3          	fmadd.d	fa5,ft1,fa0,fa5
8000310e:	f7043687          	fld	fa3,-144(s0)
80003112:	fb843507          	fld	fa0,-72(s0)
80003116:	13e07143          	fmadd.d	ft2,ft0,ft10,ft2
8000311a:	6bf076c3          	fmadd.d	fa3,ft0,ft11,fa3
8000311e:	ea407ec3          	fmadd.d	ft9,ft0,ft4,ft9
80003122:	e2307e43          	fmadd.d	ft8,ft0,ft3,ft8
80003126:	72107743          	fmadd.d	fa4,ft0,ft1,fa4
8000312a:	52bf7043          	fmadd.d	ft0,ft10,fa1,fa0
8000312e:	fb043507          	fld	fa0,-80(s0)
80003132:	2abff2c3          	fmadd.d	ft5,ft11,fa1,ft5
80003136:	00fc0533          	add	a0,s8,a5
8000313a:	52b27543          	fmadd.d	fa0,ft4,fa1,fa0
8000313e:	fa043c27          	fsd	ft0,-72(s0)
80003142:	f8043007          	fld	ft0,-128(s0)
80003146:	faa43827          	fsd	fa0,-80(s0)
8000314a:	fa843507          	fld	fa0,-88(s0)
8000314e:	52b1f543          	fmadd.d	fa0,ft3,fa1,fa0
80003152:	02c1f1c3          	fmadd.d	ft3,ft3,fa2,ft0
80003156:	fe073007          	fld	ft0,-32(a4)
8000315a:	faa43427          	fsd	fa0,-88(s0)
8000315e:	fa043507          	fld	fa0,-96(s0)
80003162:	f8343027          	fsd	ft3,-128(s0)
80003166:	01853187          	fld	ft3,24(a0)
8000316a:	52b0f5c3          	fmadd.d	fa1,ft1,fa1,fa0
8000316e:	fe06b507          	fld	fa0,-32(a3)
80003172:	e2307e43          	fmadd.d	ft8,ft0,ft3,ft8
80003176:	32a1f343          	fmadd.d	ft6,ft3,fa0,ft6
8000317a:	fab43027          	fsd	fa1,-96(s0)
8000317e:	f9843587          	fld	fa1,-104(s0)
80003182:	5acfffc3          	fmadd.d	ft11,ft11,fa2,fa1
80003186:	f9043587          	fld	fa1,-112(s0)
8000318a:	5acf7f43          	fmadd.d	ft10,ft10,fa2,fa1
8000318e:	f8843587          	fld	fa1,-120(s0)
80003192:	f9f43c27          	fsd	ft11,-104(s0)
80003196:	5ac27243          	fmadd.d	ft4,ft4,fa2,fa1
8000319a:	f7843587          	fld	fa1,-136(s0)
8000319e:	00053f87          	fld	ft11,0(a0)
800031a2:	f9e43827          	fsd	ft10,-112(s0)
800031a6:	5ac0f643          	fmadd.d	fa2,ft1,fa2,fa1
800031aa:	00853f07          	fld	ft10,8(a0)
800031ae:	fe063587          	fld	fa1,-32(a2)
800031b2:	f8443427          	fsd	ft4,-120(s0)
800031b6:	01053207          	fld	ft4,16(a0)
800031ba:	6bf076c3          	fmadd.d	fa3,ft0,ft11,fa3
800031be:	13e07143          	fmadd.d	ft2,ft0,ft10,ft2
800031c2:	f6c43c27          	fsd	fa2,-136(s0)
800031c6:	fe05b607          	fld	fa2,-32(a1)
800031ca:	02053087          	fld	ft1,32(a0)
800031ce:	ea407ec3          	fmadd.d	ft9,ft0,ft4,ft9
800031d2:	8aaff8c3          	fmadd.d	fa7,ft11,fa0,fa7
800031d6:	72107743          	fmadd.d	fa4,ft0,ft1,fa4
800031da:	fb843007          	fld	ft0,-72(s0)
800031de:	82af7843          	fmadd.d	fa6,ft10,fa0,fa6
800031e2:	3aa273c3          	fmadd.d	ft7,ft4,fa0,ft7
800031e6:	02bf7043          	fmadd.d	ft0,ft10,fa1,ft0
800031ea:	7aa0f7c3          	fmadd.d	fa5,ft1,fa0,fa5
800031ee:	fb043507          	fld	fa0,-80(s0)
800031f2:	2abff2c3          	fmadd.d	ft5,ft11,fa1,ft5
800031f6:	01678533          	add	a0,a5,s6
800031fa:	fa043c27          	fsd	ft0,-72(s0)
800031fe:	52b27043          	fmadd.d	ft0,ft4,fa1,fa0
80003202:	fa843507          	fld	fa0,-88(s0)
80003206:	52b1f543          	fmadd.d	fa0,ft3,fa1,fa0
8000320a:	fa043827          	fsd	ft0,-80(s0)
8000320e:	fe873007          	fld	ft0,-24(a4)
80003212:	faa43427          	fsd	fa0,-88(s0)
80003216:	fa043507          	fld	fa0,-96(s0)
8000321a:	52b0f543          	fmadd.d	fa0,ft1,fa1,fa0
8000321e:	f9843587          	fld	fa1,-104(s0)
80003222:	5acfffc3          	fmadd.d	ft11,ft11,fa2,fa1
80003226:	f9043587          	fld	fa1,-112(s0)
8000322a:	faa43027          	fsd	fa0,-96(s0)
8000322e:	5acf7f43          	fmadd.d	ft10,ft10,fa2,fa1
80003232:	f8843587          	fld	fa1,-120(s0)
80003236:	fe86b507          	fld	fa0,-24(a3)
8000323a:	f9f43c27          	fsd	ft11,-104(s0)
8000323e:	5ac27243          	fmadd.d	ft4,ft4,fa2,fa1
80003242:	f8043587          	fld	fa1,-128(s0)
80003246:	00053f87          	fld	ft11,0(a0)
8000324a:	f9e43827          	fsd	ft10,-112(s0)
8000324e:	5ac1f1c3          	fmadd.d	ft3,ft3,fa2,fa1
80003252:	f7843587          	fld	fa1,-136(s0)
80003256:	00853f07          	fld	ft10,8(a0)
8000325a:	f8443427          	fsd	ft4,-120(s0)
8000325e:	5ac0f643          	fmadd.d	fa2,ft1,fa2,fa1
80003262:	01053207          	fld	ft4,16(a0)
80003266:	02053087          	fld	ft1,32(a0)
8000326a:	f8343027          	fsd	ft3,-128(s0)
8000326e:	01853187          	fld	ft3,24(a0)
80003272:	fe863587          	fld	fa1,-24(a2)
80003276:	6bf076c3          	fmadd.d	fa3,ft0,ft11,fa3
8000327a:	13e07143          	fmadd.d	ft2,ft0,ft10,ft2
8000327e:	ea407ec3          	fmadd.d	ft9,ft0,ft4,ft9
80003282:	e2307e43          	fmadd.d	ft8,ft0,ft3,ft8
80003286:	72107743          	fmadd.d	fa4,ft0,ft1,fa4
8000328a:	fb843007          	fld	ft0,-72(s0)
8000328e:	7aa0f7c3          	fmadd.d	fa5,ft1,fa0,fa5
80003292:	8aaff8c3          	fmadd.d	fa7,ft11,fa0,fa7
80003296:	02bf7043          	fmadd.d	ft0,ft10,fa1,ft0
8000329a:	82af7843          	fmadd.d	fa6,ft10,fa0,fa6
8000329e:	3aa273c3          	fmadd.d	ft7,ft4,fa0,ft7
800032a2:	32a1f343          	fmadd.d	ft6,ft3,fa0,ft6
800032a6:	f6c43c27          	fsd	fa2,-136(s0)
800032aa:	fe85b607          	fld	fa2,-24(a1)
800032ae:	2abff2c3          	fmadd.d	ft5,ft11,fa1,ft5
800032b2:	fa043c27          	fsd	ft0,-72(s0)
800032b6:	fb043007          	fld	ft0,-80(s0)
800032ba:	00fb8533          	add	a0,s7,a5
800032be:	02b27043          	fmadd.d	ft0,ft4,fa1,ft0
800032c2:	fa043827          	fsd	ft0,-80(s0)
800032c6:	fa843507          	fld	fa0,-88(s0)
800032ca:	ff073007          	fld	ft0,-16(a4)
800032ce:	52b1f543          	fmadd.d	fa0,ft3,fa1,fa0
800032d2:	faa43427          	fsd	fa0,-88(s0)
800032d6:	fa043507          	fld	fa0,-96(s0)
800032da:	52b0f543          	fmadd.d	fa0,ft1,fa1,fa0
800032de:	f9843587          	fld	fa1,-104(s0)
800032e2:	5acfffc3          	fmadd.d	ft11,ft11,fa2,fa1
800032e6:	f9043587          	fld	fa1,-112(s0)
800032ea:	faa43027          	fsd	fa0,-96(s0)
800032ee:	5acf7f43          	fmadd.d	ft10,ft10,fa2,fa1
800032f2:	f8843587          	fld	fa1,-120(s0)
800032f6:	ff06b507          	fld	fa0,-16(a3)
800032fa:	f9f43c27          	fsd	ft11,-104(s0)
800032fe:	5ac27243          	fmadd.d	ft4,ft4,fa2,fa1
80003302:	f8043587          	fld	fa1,-128(s0)
80003306:	00053f87          	fld	ft11,0(a0)
8000330a:	f9e43827          	fsd	ft10,-112(s0)
8000330e:	5ac1f1c3          	fmadd.d	ft3,ft3,fa2,fa1
80003312:	f7843587          	fld	fa1,-136(s0)
80003316:	00853f07          	fld	ft10,8(a0)
8000331a:	f8443427          	fsd	ft4,-120(s0)
8000331e:	5ac0f643          	fmadd.d	fa2,ft1,fa2,fa1
80003322:	02053087          	fld	ft1,32(a0)
80003326:	01053207          	fld	ft4,16(a0)
8000332a:	f8343027          	fsd	ft3,-128(s0)
8000332e:	72107743          	fmadd.d	fa4,ft0,ft1,fa4
80003332:	01853187          	fld	ft3,24(a0)
80003336:	ff063587          	fld	fa1,-16(a2)
8000333a:	6bf076c3          	fmadd.d	fa3,ft0,ft11,fa3
8000333e:	13e07143          	fmadd.d	ft2,ft0,ft10,ft2
80003342:	ea407ec3          	fmadd.d	ft9,ft0,ft4,ft9
80003346:	e2307e43          	fmadd.d	ft8,ft0,ft3,ft8
8000334a:	fb843007          	fld	ft0,-72(s0)
8000334e:	8aaff8c3          	fmadd.d	fa7,ft11,fa0,fa7
80003352:	82af7843          	fmadd.d	fa6,ft10,fa0,fa6
80003356:	3aa273c3          	fmadd.d	ft7,ft4,fa0,ft7
8000335a:	32a1f343          	fmadd.d	ft6,ft3,fa0,ft6
8000335e:	f6e43827          	fsd	fa4,-144(s0)
80003362:	7aa0f743          	fmadd.d	fa4,ft1,fa0,fa5
80003366:	fa843507          	fld	fa0,-88(s0)
8000336a:	02bf7043          	fmadd.d	ft0,ft10,fa1,ft0
8000336e:	2abff2c3          	fmadd.d	ft5,ft11,fa1,ft5
80003372:	52b1f543          	fmadd.d	fa0,ft3,fa1,fa0
80003376:	f6c43c27          	fsd	fa2,-136(s0)
8000337a:	ff05b607          	fld	fa2,-16(a1)
8000337e:	f6e43427          	fsd	fa4,-152(s0)
80003382:	01478533          	add	a0,a5,s4
80003386:	f6043027          	fsd	ft0,-160(s0)
8000338a:	fb043007          	fld	ft0,-80(s0)
8000338e:	f4a43827          	fsd	fa0,-176(s0)
80003392:	fa043507          	fld	fa0,-96(s0)
80003396:	02b27043          	fmadd.d	ft0,ft4,fa1,ft0
8000339a:	97d6                	add	a5,a5,s5
8000339c:	52b0f5c3          	fmadd.d	fa1,ft1,fa1,fa0
800033a0:	f4043c27          	fsd	ft0,-168(s0)
800033a4:	f4b43427          	fsd	fa1,-184(s0)
800033a8:	f9843787          	fld	fa5,-104(s0)
800033ac:	01853007          	fld	ft0,24(a0)
800033b0:	f7043707          	fld	fa4,-144(s0)
800033b4:	7acfffc3          	fmadd.d	ft11,ft11,fa2,fa5
800033b8:	f9043787          	fld	fa5,-112(s0)
800033bc:	ff863587          	fld	fa1,-8(a2)
800033c0:	ff85b507          	fld	fa0,-8(a1)
800033c4:	7acf7f43          	fmadd.d	ft10,ft10,fa2,fa5
800033c8:	f8843787          	fld	fa5,-120(s0)
800033cc:	7ac27243          	fmadd.d	ft4,ft4,fa2,fa5
800033d0:	f8043787          	fld	fa5,-128(s0)
800033d4:	7ac1f1c3          	fmadd.d	ft3,ft3,fa2,fa5
800033d8:	f7843787          	fld	fa5,-136(s0)
800033dc:	f8443427          	fsd	ft4,-120(s0)
800033e0:	7ac0f7c3          	fmadd.d	fa5,ft1,fa2,fa5
800033e4:	00053207          	fld	ft4,0(a0)
800033e8:	ff873607          	fld	fa2,-8(a4)
800033ec:	01053087          	fld	ft1,16(a0)
800033f0:	f8343027          	fsd	ft3,-128(s0)
800033f4:	00853187          	fld	ft3,8(a0)
800033f8:	6a4676c3          	fmadd.d	fa3,fa2,ft4,fa3
800033fc:	f6f43c27          	fsd	fa5,-136(s0)
80003400:	ff86b787          	fld	fa5,-8(a3)
80003404:	12367143          	fmadd.d	ft2,fa2,ft3,ft2
80003408:	ea167ec3          	fmadd.d	ft9,fa2,ft1,ft9
8000340c:	faf43827          	fsd	fa5,-80(s0)
80003410:	311c                	fld	fa5,32(a0)
80003412:	e2067e43          	fmadd.d	ft8,fa2,ft0,ft8
80003416:	2ab272c3          	fmadd.d	ft5,ft4,fa1,ft5
8000341a:	72f67643          	fmadd.d	fa2,fa2,fa5,fa4
8000341e:	f6843707          	fld	fa4,-152(s0)
80003422:	fac43c27          	fsd	fa2,-72(s0)
80003426:	fb043607          	fld	fa2,-80(s0)
8000342a:	8ac278c3          	fmadd.d	fa7,ft4,fa2,fa7
8000342e:	82c1f843          	fmadd.d	fa6,ft3,fa2,fa6
80003432:	3ac0f3c3          	fmadd.d	ft7,ft1,fa2,ft7
80003436:	32c07343          	fmadd.d	ft6,ft0,fa2,ft6
8000343a:	72c7f643          	fmadd.d	fa2,fa5,fa2,fa4
8000343e:	f6043707          	fld	fa4,-160(s0)
80003442:	faa27243          	fmadd.d	ft4,ft4,fa0,ft11
80003446:	fac43827          	fsd	fa2,-80(s0)
8000344a:	72b1f643          	fmadd.d	fa2,ft3,fa1,fa4
8000344e:	f5843707          	fld	fa4,-168(s0)
80003452:	f2a1f1c3          	fmadd.d	ft3,ft3,fa0,ft10
80003456:	fac43427          	fsd	fa2,-88(s0)
8000345a:	72b0f643          	fmadd.d	fa2,ft1,fa1,fa4
8000345e:	f5043707          	fld	fa4,-176(s0)
80003462:	fac43027          	fsd	fa2,-96(s0)
80003466:	72b07643          	fmadd.d	fa2,ft0,fa1,fa4
8000346a:	f4843707          	fld	fa4,-184(s0)
8000346e:	f8c43c27          	fsd	fa2,-104(s0)
80003472:	72b7f643          	fmadd.d	fa2,fa5,fa1,fa4
80003476:	f8843707          	fld	fa4,-120(s0)
8000347a:	f8c43827          	fsd	fa2,-112(s0)
8000347e:	72a0f643          	fmadd.d	fa2,ft1,fa0,fa4
80003482:	f8c43427          	fsd	fa2,-120(s0)
80003486:	f8043707          	fld	fa4,-128(s0)
8000348a:	72a07643          	fmadd.d	fa2,ft0,fa0,fa4
8000348e:	f7843707          	fld	fa4,-136(s0)
80003492:	72a7f7c3          	fmadd.d	fa5,fa5,fa0,fa4
80003496:	f8c43027          	fsd	fa2,-128(s0)
8000349a:	f6f43c27          	fsd	fa5,-136(s0)
8000349e:	b7f767e3          	bltu	a4,t6,8000300c <mm_cb+0x1e88>
800034a2:	22d68fd3          	fmv.d	ft11,fa3
800034a6:	22210f53          	fmv.d	ft10,ft2
800034aa:	007e07b3          	add	a5,t3,t2
800034ae:	0e5ff063          	bleu	t0,t6,8000358e <mm_cb+0x240a>
800034b2:	006485b3          	add	a1,s1,t1
800034b6:	01948633          	add	a2,s1,s9
800034ba:	013486b3          	add	a3,s1,s3
800034be:	877e                	mv	a4,t6
800034c0:	f6343827          	fsd	ft3,-144(s0)
800034c4:	2310                	fld	fa2,0(a4)
800034c6:	0007b107          	fld	ft2,0(a5)
800034ca:	0087b087          	fld	ft1,8(a5)
800034ce:	0107b007          	fld	ft0,16(a5)
800034d2:	2f88                	fld	fa0,24(a5)
800034d4:	338c                	fld	fa1,32(a5)
800034d6:	fb843187          	fld	ft3,-72(s0)
800034da:	fa267fc3          	fmadd.d	ft11,fa2,ft2,ft11
800034de:	f2167f43          	fmadd.d	ft10,fa2,ft1,ft10
800034e2:	ea067ec3          	fmadd.d	ft9,fa2,ft0,ft9
800034e6:	e2a67e43          	fmadd.d	ft8,fa2,fa0,ft8
800034ea:	1ab67643          	fmadd.d	fa2,fa2,fa1,ft3
800034ee:	2194                	fld	fa3,0(a1)
800034f0:	2218                	fld	fa4,0(a2)
800034f2:	229c                	fld	fa5,0(a3)
800034f4:	8ad178c3          	fmadd.d	fa7,ft2,fa3,fa7
800034f8:	82d0f843          	fmadd.d	fa6,ft1,fa3,fa6
800034fc:	3ad073c3          	fmadd.d	ft7,ft0,fa3,ft7
80003500:	fac43c27          	fsd	fa2,-72(s0)
80003504:	fb043607          	fld	fa2,-80(s0)
80003508:	32d57343          	fmadd.d	ft6,fa0,fa3,ft6
8000350c:	2ae172c3          	fmadd.d	ft5,ft2,fa4,ft5
80003510:	62d5f6c3          	fmadd.d	fa3,fa1,fa3,fa2
80003514:	22f17243          	fmadd.d	ft4,ft2,fa5,ft4
80003518:	0721                	addi	a4,a4,8
8000351a:	97ee                	add	a5,a5,s11
8000351c:	05a1                	addi	a1,a1,8
8000351e:	0621                	addi	a2,a2,8
80003520:	06a1                	addi	a3,a3,8
80003522:	fad43827          	fsd	fa3,-80(s0)
80003526:	fa843687          	fld	fa3,-88(s0)
8000352a:	6ae0f6c3          	fmadd.d	fa3,ft1,fa4,fa3
8000352e:	fad43427          	fsd	fa3,-88(s0)
80003532:	fa043687          	fld	fa3,-96(s0)
80003536:	6ae076c3          	fmadd.d	fa3,ft0,fa4,fa3
8000353a:	fad43027          	fsd	fa3,-96(s0)
8000353e:	f9843687          	fld	fa3,-104(s0)
80003542:	6ae576c3          	fmadd.d	fa3,fa0,fa4,fa3
80003546:	f8d43c27          	fsd	fa3,-104(s0)
8000354a:	f9043687          	fld	fa3,-112(s0)
8000354e:	6ae5f743          	fmadd.d	fa4,fa1,fa4,fa3
80003552:	f8e43827          	fsd	fa4,-112(s0)
80003556:	f7043707          	fld	fa4,-144(s0)
8000355a:	72f0f743          	fmadd.d	fa4,ft1,fa5,fa4
8000355e:	f6e43827          	fsd	fa4,-144(s0)
80003562:	f8843707          	fld	fa4,-120(s0)
80003566:	72f07743          	fmadd.d	fa4,ft0,fa5,fa4
8000356a:	f8e43427          	fsd	fa4,-120(s0)
8000356e:	f8043707          	fld	fa4,-128(s0)
80003572:	72f57743          	fmadd.d	fa4,fa0,fa5,fa4
80003576:	f8e43027          	fsd	fa4,-128(s0)
8000357a:	f7843707          	fld	fa4,-136(s0)
8000357e:	72f5f7c3          	fmadd.d	fa5,fa1,fa5,fa4
80003582:	f6f43c27          	fsd	fa5,-136(s0)
80003586:	f2576fe3          	bltu	a4,t0,800034c4 <mm_cb+0x2340>
8000358a:	f7043187          	fld	ft3,-144(s0)
8000358e:	fb843787          	fld	fa5,-72(s0)
80003592:	01feb027          	fsd	ft11,0(t4)
80003596:	01eeb427          	fsd	ft10,8(t4)
8000359a:	02feb027          	fsd	fa5,32(t4)
8000359e:	fb043787          	fld	fa5,-80(s0)
800035a2:	01deb827          	fsd	ft9,16(t4)
800035a6:	01cebc27          	fsd	ft8,24(t4)
800035aa:	02f8b027          	fsd	fa5,32(a7)
800035ae:	fa843787          	fld	fa5,-88(s0)
800035b2:	0118b027          	fsd	fa7,0(a7)
800035b6:	0108b427          	fsd	fa6,8(a7)
800035ba:	0078b827          	fsd	ft7,16(a7)
800035be:	0068bc27          	fsd	ft6,24(a7)
800035c2:	00f83427          	fsd	fa5,8(a6)
800035c6:	fa043787          	fld	fa5,-96(s0)
800035ca:	00583027          	fsd	ft5,0(a6)
800035ce:	f3842783          	lw	a5,-200(s0)
800035d2:	00f83827          	fsd	fa5,16(a6)
800035d6:	f9843787          	fld	fa5,-104(s0)
800035da:	0095                	addi	ra,ra,5
800035dc:	028e8e93          	addi	t4,t4,40
800035e0:	00f83c27          	fsd	fa5,24(a6)
800035e4:	f9043787          	fld	fa5,-112(s0)
800035e8:	02888893          	addi	a7,a7,40
800035ec:	02880813          	addi	a6,a6,40
800035f0:	fef83c27          	fsd	fa5,-8(a6)
800035f4:	f8843787          	fld	fa5,-120(s0)
800035f8:	004f3027          	fsd	ft4,0(t5)
800035fc:	003f3427          	fsd	ft3,8(t5)
80003600:	00ff3827          	fsd	fa5,16(t5)
80003604:	f8043787          	fld	fa5,-128(s0)
80003608:	028f0f13          	addi	t5,t5,40
8000360c:	02838393          	addi	t2,t2,40
80003610:	feff3827          	fsd	fa5,-16(t5)
80003614:	f7843787          	fld	fa5,-136(s0)
80003618:	feff3c27          	fsd	fa5,-8(t5)
8000361c:	96f0e3e3          	bltu	ra,a5,80002f82 <mm_cb+0x1dfe>
80003620:	efc42683          	lw	a3,-260(s0)
80003624:	f2442783          	lw	a5,-220(s0)
80003628:	4010                	lw	a2,0(s0)
8000362a:	fa642823          	sw	t1,-80(s0)
8000362e:	f2042303          	lw	t1,-224(s0)
80003632:	00f688b3          	add	a7,a3,a5
80003636:	c032                	sw	a2,0(sp)
80003638:	ec442783          	lw	a5,-316(s0)
8000363c:	f4042703          	lw	a4,-192(s0)
80003640:	f4442803          	lw	a6,-188(s0)
80003644:	f1c42603          	lw	a2,-228(s0)
80003648:	ec842583          	lw	a1,-312(s0)
8000364c:	86ca                	mv	a3,s2
8000364e:	137d                	addi	t1,t1,-1
80003650:	4511                	li	a0,4
80003652:	fbc42c23          	sw	t3,-72(s0)
80003656:	f2642023          	sw	t1,-224(s0)
8000365a:	9effd0ef          	jal	ra,80001048 <mm_naive>
8000365e:	ef442783          	lw	a5,-268(s0)
80003662:	fb042303          	lw	t1,-80(s0)
80003666:	f2442703          	lw	a4,-220(s0)
8000366a:	ec042683          	lw	a3,-320(s0)
8000366e:	993e                	add	s2,s2,a5
80003670:	933e                	add	t1,t1,a5
80003672:	9cbe                	add	s9,s9,a5
80003674:	99be                	add	s3,s3,a5
80003676:	f2042783          	lw	a5,-224(s0)
8000367a:	9736                	add	a4,a4,a3
8000367c:	f2e42223          	sw	a4,-220(s0)
80003680:	fb842e03          	lw	t3,-72(s0)
80003684:	8c0798e3          	bnez	a5,80002f54 <mm_cb+0x1dd0>
80003688:	ee442703          	lw	a4,-284(s0)
8000368c:	ef042483          	lw	s1,-272(s0)
80003690:	f1042983          	lw	s3,-240(s0)
80003694:	f0842303          	lw	t1,-248(s0)
80003698:	009706b3          	add	a3,a4,s1
8000369c:	4018                	lw	a4,0(s0)
8000369e:	eb442883          	lw	a7,-332(s0)
800036a2:	f4442803          	lw	a6,-188(s0)
800036a6:	c03a                	sw	a4,0(sp)
800036a8:	f1c42603          	lw	a2,-228(s0)
800036ac:	f4042703          	lw	a4,-192(s0)
800036b0:	eac42583          	lw	a1,-340(s0)
800036b4:	87ce                	mv	a5,s3
800036b6:	01830913          	addi	s2,t1,24
800036ba:	4501                	li	a0,0
800036bc:	f1242423          	sw	s2,-248(s0)
800036c0:	989fd0ef          	jal	ra,80001048 <mm_naive>
800036c4:	e9042783          	lw	a5,-368(s0)
800036c8:	97ce                	add	a5,a5,s3
800036ca:	f0f42823          	sw	a5,-240(s0)
800036ce:	0c048793          	addi	a5,s1,192
800036d2:	eef42823          	sw	a5,-272(s0)
800036d6:	f3042783          	lw	a5,-208(s0)
800036da:	80f966e3          	bltu	s2,a5,80002ee6 <mm_cb+0x1d62>
800036de:	dcafe06f          	j	80001ca8 <mm_cb+0xb24>
800036e2:	f5842783          	lw	a5,-168(s0)
800036e6:	ee442703          	lw	a4,-284(s0)
800036ea:	97ba                	add	a5,a5,a4
800036ec:	ecf42e23          	sw	a5,-292(s0)
800036f0:	d9afe06f          	j	80001c8a <mm_cb+0xb06>

800036f4 <mm>:
800036f4:	7111                	addi	sp,sp,-256
800036f6:	dda2                	sw	s0,248(sp)
800036f8:	10012403          	lw	s0,256(sp)
800036fc:	df86                	sw	ra,252(sp)
800036fe:	dba6                	sw	s1,244(sp)
80003700:	d9ca                	sw	s2,240(sp)
80003702:	d7ce                	sw	s3,236(sp)
80003704:	d5d2                	sw	s4,232(sp)
80003706:	d3d6                	sw	s5,228(sp)
80003708:	d1da                	sw	s6,224(sp)
8000370a:	cfde                	sw	s7,220(sp)
8000370c:	cde2                	sw	s8,216(sp)
8000370e:	cbe6                	sw	s9,212(sp)
80003710:	c9ea                	sw	s10,208(sp)
80003712:	c7ee                	sw	s11,204(sp)
80003714:	03000313          	li	t1,48
80003718:	d4a2                	sw	s0,104(sp)
8000371a:	6ca36863          	bltu	t1,a0,80003dea <mm+0x6f6>
8000371e:	03200e13          	li	t3,50
80003722:	6cbe6463          	bltu	t3,a1,80003dea <mm+0x6f6>
80003726:	6cc36263          	bltu	t1,a2,80003dea <mm+0x6f6>
8000372a:	8bb6                	mv	s7,a3
8000372c:	dd36                	sw	a3,184(sp)
8000372e:	4695                	li	a3,5
80003730:	83be                	mv	t2,a5
80003732:	c73e                	sw	a5,140(sp)
80003734:	02d5d7b3          	divu	a5,a1,a3
80003738:	8f2e                	mv	t5,a1
8000373a:	db2e                	sw	a1,180(sp)
8000373c:	00341293          	slli	t0,s0,0x3
80003740:	ffc57593          	andi	a1,a0,-4
80003744:	00371e93          	slli	t4,a4,0x3
80003748:	d92a                	sw	a0,176(sp)
8000374a:	df46                	sw	a7,188(sp)
8000374c:	dcc2                	sw	a6,120(sp)
8000374e:	daba                	sw	a4,116(sp)
80003750:	d8b2                	sw	a2,112(sp)
80003752:	d6ae                	sw	a1,108(sp)
80003754:	d516                	sw	t0,168(sp)
80003756:	d776                	sw	t4,172(sp)
80003758:	8e3a                	mv	t3,a4
8000375a:	8fb2                	mv	t6,a2
8000375c:	8522                	mv	a0,s0
8000375e:	00279d93          	slli	s11,a5,0x2
80003762:	9dbe                	add	s11,s11,a5
80003764:	62058e63          	beqz	a1,80003da0 <mm+0x6ac>
80003768:	4319                	li	t1,6
8000376a:	02665333          	divu	t1,a2,t1
8000376e:	00181493          	slli	s1,a6,0x1
80003772:	00141713          	slli	a4,s0,0x1
80003776:	00281913          	slli	s2,a6,0x2
8000377a:	003d9793          	slli	a5,s11,0x3
8000377e:	94c2                	add	s1,s1,a6
80003780:	9722                	add	a4,a4,s0
80003782:	9942                	add	s2,s2,a6
80003784:	00441613          	slli	a2,s0,0x4
80003788:	41b005b3          	neg	a1,s11
8000378c:	00381413          	slli	s0,a6,0x3
80003790:	00481a93          	slli	s5,a6,0x4
80003794:	00581a13          	slli	s4,a6,0x5
80003798:	003f9813          	slli	a6,t6,0x3
8000379c:	058e                	slli	a1,a1,0x3
8000379e:	070e                	slli	a4,a4,0x3
800037a0:	c942                	sw	a6,144(sp)
800037a2:	00f38833          	add	a6,t2,a5
800037a6:	8e1d                	sub	a2,a2,a5
800037a8:	c142                	sw	a6,128(sp)
800037aa:	d12e                	sw	a1,160(sp)
800037ac:	005e1813          	slli	a6,t3,0x5
800037b0:	40f285b3          	sub	a1,t0,a5
800037b4:	00f88e33          	add	t3,a7,a5
800037b8:	40f707b3          	sub	a5,a4,a5
800037bc:	cb3e                	sw	a5,148(sp)
800037be:	00449993          	slli	s3,s1,0x4
800037c2:	01db8cb3          	add	s9,s7,t4
800037c6:	01dc8c33          	add	s8,s9,t4
800037ca:	0516                	slli	a0,a0,0x5
800037cc:	048e                	slli	s1,s1,0x3
800037ce:	090e                	slli	s2,s2,0x3
800037d0:	c542                	sw	a6,136(sp)
800037d2:	c32a                	sw	a0,132(sp)
800037d4:	02df77b3          	remu	a5,t5,a3
800037d8:	00131b13          	slli	s6,t1,0x1
800037dc:	9b1a                	add	s6,s6,t1
800037de:	01dc0d33          	add	s10,s8,t4
800037e2:	cf2e                	sw	a1,156(sp)
800037e4:	cd32                	sw	a2,152(sp)
800037e6:	d282                	sw	zero,100(sp)
800037e8:	0b12                	slli	s6,s6,0x4
800037ea:	02698333          	mul	t1,s3,t1
800037ee:	debe                	sw	a5,124(sp)
800037f0:	d31a                	sw	t1,164(sp)
800037f2:	560d8b63          	beqz	s11,80003d68 <mm+0x674>
800037f6:	47ca                	lw	a5,144(sp)
800037f8:	43ba                	lw	t2,140(sp)
800037fa:	531a                	lw	t1,164(sp)
800037fc:	017782b3          	add	t0,a5,s7
80003800:	578a                	lw	a5,160(sp)
80003802:	017b0fb3          	add	t6,s6,s7
80003806:	4081                	li	ra,0
80003808:	01c78f33          	add	t5,a5,t3
8000380c:	47fa                	lw	a5,156(sp)
8000380e:	01c78eb3          	add	t4,a5,t3
80003812:	47ea                	lw	a5,152(sp)
80003814:	01c788b3          	add	a7,a5,t3
80003818:	47da                	lw	a5,148(sp)
8000381a:	01c78833          	add	a6,a5,t3
8000381e:	0088b787          	fld	fa5,8(a7)
80003822:	879e                	mv	a5,t2
80003824:	000f3f87          	fld	ft11,0(t5)
80003828:	ac3e                	fsd	fa5,24(sp)
8000382a:	0108b787          	fld	fa5,16(a7)
8000382e:	008f3f07          	fld	ft10,8(t5)
80003832:	010f3e87          	fld	ft9,16(t5)
80003836:	b03e                	fsd	fa5,32(sp)
80003838:	0188b787          	fld	fa5,24(a7)
8000383c:	018f3e07          	fld	ft8,24(t5)
80003840:	020f3507          	fld	fa0,32(t5)
80003844:	b43e                	fsd	fa5,40(sp)
80003846:	0208b787          	fld	fa5,32(a7)
8000384a:	000eb887          	fld	fa7,0(t4)
8000384e:	008eb807          	fld	fa6,8(t4)
80003852:	b83e                	fsd	fa5,48(sp)
80003854:	00083787          	fld	fa5,0(a6)
80003858:	010eb387          	fld	ft7,16(t4)
8000385c:	018eb307          	fld	ft6,24(t4)
80003860:	bc3e                	fsd	fa5,56(sp)
80003862:	00883787          	fld	fa5,8(a6)
80003866:	020eb587          	fld	fa1,32(t4)
8000386a:	0008b287          	fld	ft5,0(a7)
8000386e:	a0be                	fsd	fa5,64(sp)
80003870:	01083787          	fld	fa5,16(a6)
80003874:	a4be                	fsd	fa5,72(sp)
80003876:	01883787          	fld	fa5,24(a6)
8000387a:	a8be                	fsd	fa5,80(sp)
8000387c:	02083787          	fld	fa5,32(a6)
80003880:	acbe                	fsd	fa5,88(sp)
80003882:	3bfbfb63          	bleu	t6,s7,80003c38 <mm+0x544>
80003886:	85ea                	mv	a1,s10
80003888:	8662                	mv	a2,s8
8000388a:	86e6                	mv	a3,s9
8000388c:	875e                	mv	a4,s7
8000388e:	2310                	fld	fa2,0(a4)
80003890:	2294                	fld	fa3,0(a3)
80003892:	0207b007          	fld	ft0,32(a5)
80003896:	0007b207          	fld	ft4,0(a5)
8000389a:	0087b187          	fld	ft3,8(a5)
8000389e:	0107b107          	fld	ft2,16(a5)
800038a2:	0187b087          	fld	ft1,24(a5)
800038a6:	2218                	fld	fa4,0(a2)
800038a8:	fa467fc3          	fmadd.d	ft11,fa2,ft4,ft11
800038ac:	f2367f43          	fmadd.d	ft10,fa2,ft3,ft10
800038b0:	ea267ec3          	fmadd.d	ft9,fa2,ft2,ft9
800038b4:	e2167e43          	fmadd.d	ft8,fa2,ft1,ft8
800038b8:	52067543          	fmadd.d	fa0,fa2,ft0,fa0
800038bc:	8ad278c3          	fmadd.d	fa7,ft4,fa3,fa7
800038c0:	82d1f843          	fmadd.d	fa6,ft3,fa3,fa6
800038c4:	3ad173c3          	fmadd.d	ft7,ft2,fa3,ft7
800038c8:	32d0f343          	fmadd.d	ft6,ft1,fa3,ft6
800038cc:	5ad075c3          	fmadd.d	fa1,ft0,fa3,fa1
800038d0:	3602                	fld	fa2,32(sp)
800038d2:	26e2                	fld	fa3,24(sp)
800038d4:	2ae272c3          	fmadd.d	ft5,ft4,fa4,ft5
800038d8:	62e17643          	fmadd.d	fa2,ft2,fa4,fa2
800038dc:	6ae1f6c3          	fmadd.d	fa3,ft3,fa4,fa3
800038e0:	219c                	fld	fa5,0(a1)
800038e2:	00f40533          	add	a0,s0,a5
800038e6:	03070713          	addi	a4,a4,48
800038ea:	03068693          	addi	a3,a3,48
800038ee:	03060613          	addi	a2,a2,48
800038f2:	b032                	fsd	fa2,32(sp)
800038f4:	ac36                	fsd	fa3,24(sp)
800038f6:	3642                	fld	fa2,48(sp)
800038f8:	36a2                	fld	fa3,40(sp)
800038fa:	03058593          	addi	a1,a1,48
800038fe:	6ae0f6c3          	fmadd.d	fa3,ft1,fa4,fa3
80003902:	62e07743          	fmadd.d	fa4,ft0,fa4,fa2
80003906:	fd873607          	fld	fa2,-40(a4)
8000390a:	b436                	fsd	fa3,40(sp)
8000390c:	b83a                	fsd	fa4,48(sp)
8000390e:	3762                	fld	fa4,56(sp)
80003910:	fd86b687          	fld	fa3,-40(a3)
80003914:	72f27243          	fmadd.d	ft4,ft4,fa5,fa4
80003918:	fd863707          	fld	fa4,-40(a2)
8000391c:	bc12                	fsd	ft4,56(sp)
8000391e:	2206                	fld	ft4,64(sp)
80003920:	22f1f1c3          	fmadd.d	ft3,ft3,fa5,ft4
80003924:	00053207          	fld	ft4,0(a0)
80003928:	8ad278c3          	fmadd.d	fa7,ft4,fa3,fa7
8000392c:	fa467fc3          	fmadd.d	ft11,fa2,ft4,ft11
80003930:	2ae272c3          	fmadd.d	ft5,ft4,fa4,ft5
80003934:	a08e                	fsd	ft3,64(sp)
80003936:	21a6                	fld	ft3,72(sp)
80003938:	1af17143          	fmadd.d	ft2,ft2,fa5,ft3
8000393c:	a48a                	fsd	ft2,72(sp)
8000393e:	2146                	fld	ft2,80(sp)
80003940:	12f0f0c3          	fmadd.d	ft1,ft1,fa5,ft2
80003944:	a886                	fsd	ft1,80(sp)
80003946:	20e6                	fld	ft1,88(sp)
80003948:	0af077c3          	fmadd.d	fa5,ft0,fa5,ft1
8000394c:	acbe                	fsd	fa5,88(sp)
8000394e:	fd85b787          	fld	fa5,-40(a1)
80003952:	00853187          	fld	ft3,8(a0)
80003956:	02053007          	fld	ft0,32(a0)
8000395a:	01053107          	fld	ft2,16(a0)
8000395e:	01853087          	fld	ft1,24(a0)
80003962:	82d1f843          	fmadd.d	fa6,ft3,fa3,fa6
80003966:	3ad173c3          	fmadd.d	ft7,ft2,fa3,ft7
8000396a:	32d0f343          	fmadd.d	ft6,ft1,fa3,ft6
8000396e:	5ad075c3          	fmadd.d	fa1,ft0,fa3,fa1
80003972:	26e2                	fld	fa3,24(sp)
80003974:	f2367f43          	fmadd.d	ft10,fa2,ft3,ft10
80003978:	ea267ec3          	fmadd.d	ft9,fa2,ft2,ft9
8000397c:	e2167e43          	fmadd.d	ft8,fa2,ft1,ft8
80003980:	52067543          	fmadd.d	fa0,fa2,ft0,fa0
80003984:	6ae1f643          	fmadd.d	fa2,ft3,fa4,fa3
80003988:	36a2                	fld	fa3,40(sp)
8000398a:	00fa8533          	add	a0,s5,a5
8000398e:	6ae0f6c3          	fmadd.d	fa3,ft1,fa4,fa3
80003992:	ac32                	fsd	fa2,24(sp)
80003994:	3602                	fld	fa2,32(sp)
80003996:	b436                	fsd	fa3,40(sp)
80003998:	36c2                	fld	fa3,48(sp)
8000399a:	62e17643          	fmadd.d	fa2,ft2,fa4,fa2
8000399e:	6ae076c3          	fmadd.d	fa3,ft0,fa4,fa3
800039a2:	3762                	fld	fa4,56(sp)
800039a4:	72f27243          	fmadd.d	ft4,ft4,fa5,fa4
800039a8:	2706                	fld	fa4,64(sp)
800039aa:	b032                	fsd	fa2,32(sp)
800039ac:	fe073607          	fld	fa2,-32(a4)
800039b0:	72f1f1c3          	fmadd.d	ft3,ft3,fa5,fa4
800039b4:	2726                	fld	fa4,72(sp)
800039b6:	b836                	fsd	fa3,48(sp)
800039b8:	bc12                	fsd	ft4,56(sp)
800039ba:	72f17143          	fmadd.d	ft2,ft2,fa5,fa4
800039be:	2746                	fld	fa4,80(sp)
800039c0:	00053207          	fld	ft4,0(a0)
800039c4:	a08e                	fsd	ft3,64(sp)
800039c6:	72f0f0c3          	fmadd.d	ft1,ft1,fa5,fa4
800039ca:	2766                	fld	fa4,88(sp)
800039cc:	00853187          	fld	ft3,8(a0)
800039d0:	a48a                	fsd	ft2,72(sp)
800039d2:	72f077c3          	fmadd.d	fa5,ft0,fa5,fa4
800039d6:	01053107          	fld	ft2,16(a0)
800039da:	fe063707          	fld	fa4,-32(a2)
800039de:	a886                	fsd	ft1,80(sp)
800039e0:	01853087          	fld	ft1,24(a0)
800039e4:	fa467fc3          	fmadd.d	ft11,fa2,ft4,ft11
800039e8:	f2367f43          	fmadd.d	ft10,fa2,ft3,ft10
800039ec:	acbe                	fsd	fa5,88(sp)
800039ee:	311c                	fld	fa5,32(a0)
800039f0:	ea267ec3          	fmadd.d	ft9,fa2,ft2,ft9
800039f4:	e2167e43          	fmadd.d	ft8,fa2,ft1,ft8
800039f8:	52f67543          	fmadd.d	fa0,fa2,fa5,fa0
800039fc:	2662                	fld	fa2,24(sp)
800039fe:	fe06b687          	fld	fa3,-32(a3)
80003a02:	fe05b007          	fld	ft0,-32(a1)
80003a06:	62e1f643          	fmadd.d	fa2,ft3,fa4,fa2
80003a0a:	8ad278c3          	fmadd.d	fa7,ft4,fa3,fa7
80003a0e:	82d1f843          	fmadd.d	fa6,ft3,fa3,fa6
80003a12:	3ad173c3          	fmadd.d	ft7,ft2,fa3,ft7
80003a16:	32d0f343          	fmadd.d	ft6,ft1,fa3,ft6
80003a1a:	5ad7f5c3          	fmadd.d	fa1,fa5,fa3,fa1
80003a1e:	2ae272c3          	fmadd.d	ft5,ft4,fa4,ft5
80003a22:	ac32                	fsd	fa2,24(sp)
80003a24:	36a2                	fld	fa3,40(sp)
80003a26:	3602                	fld	fa2,32(sp)
80003a28:	00978533          	add	a0,a5,s1
80003a2c:	6ae0f6c3          	fmadd.d	fa3,ft1,fa4,fa3
80003a30:	62e17643          	fmadd.d	fa2,ft2,fa4,fa2
80003a34:	b436                	fsd	fa3,40(sp)
80003a36:	36c2                	fld	fa3,48(sp)
80003a38:	b032                	fsd	fa2,32(sp)
80003a3a:	fe873607          	fld	fa2,-24(a4)
80003a3e:	6ae7f6c3          	fmadd.d	fa3,fa5,fa4,fa3
80003a42:	3762                	fld	fa4,56(sp)
80003a44:	72027243          	fmadd.d	ft4,ft4,ft0,fa4
80003a48:	2706                	fld	fa4,64(sp)
80003a4a:	b836                	fsd	fa3,48(sp)
80003a4c:	7201f1c3          	fmadd.d	ft3,ft3,ft0,fa4
80003a50:	2726                	fld	fa4,72(sp)
80003a52:	fe86b687          	fld	fa3,-24(a3)
80003a56:	bc12                	fsd	ft4,56(sp)
80003a58:	72017143          	fmadd.d	ft2,ft2,ft0,fa4
80003a5c:	2746                	fld	fa4,80(sp)
80003a5e:	00053207          	fld	ft4,0(a0)
80003a62:	a08e                	fsd	ft3,64(sp)
80003a64:	7200f0c3          	fmadd.d	ft1,ft1,ft0,fa4
80003a68:	2766                	fld	fa4,88(sp)
80003a6a:	00853187          	fld	ft3,8(a0)
80003a6e:	a48a                	fsd	ft2,72(sp)
80003a70:	7207f7c3          	fmadd.d	fa5,fa5,ft0,fa4
80003a74:	01053107          	fld	ft2,16(a0)
80003a78:	fe863707          	fld	fa4,-24(a2)
80003a7c:	a886                	fsd	ft1,80(sp)
80003a7e:	01853087          	fld	ft1,24(a0)
80003a82:	fa467fc3          	fmadd.d	ft11,fa2,ft4,ft11
80003a86:	f2367f43          	fmadd.d	ft10,fa2,ft3,ft10
80003a8a:	acbe                	fsd	fa5,88(sp)
80003a8c:	311c                	fld	fa5,32(a0)
80003a8e:	ea267ec3          	fmadd.d	ft9,fa2,ft2,ft9
80003a92:	e2167e43          	fmadd.d	ft8,fa2,ft1,ft8
80003a96:	52f67543          	fmadd.d	fa0,fa2,fa5,fa0
80003a9a:	2662                	fld	fa2,24(sp)
80003a9c:	5ad7f5c3          	fmadd.d	fa1,fa5,fa3,fa1
80003aa0:	8ad278c3          	fmadd.d	fa7,ft4,fa3,fa7
80003aa4:	82d1f843          	fmadd.d	fa6,ft3,fa3,fa6
80003aa8:	3ad173c3          	fmadd.d	ft7,ft2,fa3,ft7
80003aac:	32d0f343          	fmadd.d	ft6,ft1,fa3,ft6
80003ab0:	36a2                	fld	fa3,40(sp)
80003ab2:	62e1f643          	fmadd.d	fa2,ft3,fa4,fa2
80003ab6:	fe85b007          	fld	ft0,-24(a1)
80003aba:	6ae0f6c3          	fmadd.d	fa3,ft1,fa4,fa3
80003abe:	2ae272c3          	fmadd.d	ft5,ft4,fa4,ft5
80003ac2:	00fa0533          	add	a0,s4,a5
80003ac6:	ac32                	fsd	fa2,24(sp)
80003ac8:	3602                	fld	fa2,32(sp)
80003aca:	b436                	fsd	fa3,40(sp)
80003acc:	36c2                	fld	fa3,48(sp)
80003ace:	62e17643          	fmadd.d	fa2,ft2,fa4,fa2
80003ad2:	6ae7f6c3          	fmadd.d	fa3,fa5,fa4,fa3
80003ad6:	b032                	fsd	fa2,32(sp)
80003ad8:	b836                	fsd	fa3,48(sp)
80003ada:	3762                	fld	fa4,56(sp)
80003adc:	ff073607          	fld	fa2,-16(a4)
80003ae0:	ff06b687          	fld	fa3,-16(a3)
80003ae4:	72027243          	fmadd.d	ft4,ft4,ft0,fa4
80003ae8:	2706                	fld	fa4,64(sp)
80003aea:	7201f1c3          	fmadd.d	ft3,ft3,ft0,fa4
80003aee:	2726                	fld	fa4,72(sp)
80003af0:	bc12                	fsd	ft4,56(sp)
80003af2:	72017143          	fmadd.d	ft2,ft2,ft0,fa4
80003af6:	2746                	fld	fa4,80(sp)
80003af8:	00053207          	fld	ft4,0(a0)
80003afc:	a08e                	fsd	ft3,64(sp)
80003afe:	7200f0c3          	fmadd.d	ft1,ft1,ft0,fa4
80003b02:	2766                	fld	fa4,88(sp)
80003b04:	00853187          	fld	ft3,8(a0)
80003b08:	a48a                	fsd	ft2,72(sp)
80003b0a:	7207f7c3          	fmadd.d	fa5,fa5,ft0,fa4
80003b0e:	01053107          	fld	ft2,16(a0)
80003b12:	ff063707          	fld	fa4,-16(a2)
80003b16:	a886                	fsd	ft1,80(sp)
80003b18:	01853087          	fld	ft1,24(a0)
80003b1c:	fa467fc3          	fmadd.d	ft11,fa2,ft4,ft11
80003b20:	f2367f43          	fmadd.d	ft10,fa2,ft3,ft10
80003b24:	acbe                	fsd	fa5,88(sp)
80003b26:	311c                	fld	fa5,32(a0)
80003b28:	ea267ec3          	fmadd.d	ft9,fa2,ft2,ft9
80003b2c:	e2167e43          	fmadd.d	ft8,fa2,ft1,ft8
80003b30:	52f67543          	fmadd.d	fa0,fa2,fa5,fa0
80003b34:	2662                	fld	fa2,24(sp)
80003b36:	8ad278c3          	fmadd.d	fa7,ft4,fa3,fa7
80003b3a:	82d1f843          	fmadd.d	fa6,ft3,fa3,fa6
80003b3e:	3ad173c3          	fmadd.d	ft7,ft2,fa3,ft7
80003b42:	32d0f343          	fmadd.d	ft6,ft1,fa3,ft6
80003b46:	5ad7f6c3          	fmadd.d	fa3,fa5,fa3,fa1
80003b4a:	62e1f5c3          	fmadd.d	fa1,ft3,fa4,fa2
80003b4e:	3602                	fld	fa2,32(sp)
80003b50:	ff05b007          	fld	ft0,-16(a1)
80003b54:	2ae272c3          	fmadd.d	ft5,ft4,fa4,ft5
80003b58:	01278533          	add	a0,a5,s2
80003b5c:	97ce                	add	a5,a5,s3
80003b5e:	ac2e                	fsd	fa1,24(sp)
80003b60:	62e175c3          	fmadd.d	fa1,ft2,fa4,fa2
80003b64:	3622                	fld	fa2,40(sp)
80003b66:	62e0f643          	fmadd.d	fa2,ft1,fa4,fa2
80003b6a:	b02e                	fsd	fa1,32(sp)
80003b6c:	b432                	fsd	fa2,40(sp)
80003b6e:	3642                	fld	fa2,48(sp)
80003b70:	62e7f643          	fmadd.d	fa2,fa5,fa4,fa2
80003b74:	3762                	fld	fa4,56(sp)
80003b76:	72027243          	fmadd.d	ft4,ft4,ft0,fa4
80003b7a:	2706                	fld	fa4,64(sp)
80003b7c:	b832                	fsd	fa2,48(sp)
80003b7e:	7201f1c3          	fmadd.d	ft3,ft3,ft0,fa4
80003b82:	2726                	fld	fa4,72(sp)
80003b84:	bc12                	fsd	ft4,56(sp)
80003b86:	72017143          	fmadd.d	ft2,ft2,ft0,fa4
80003b8a:	a08e                	fsd	ft3,64(sp)
80003b8c:	a48a                	fsd	ft2,72(sp)
80003b8e:	2746                	fld	fa4,80(sp)
80003b90:	ff86b587          	fld	fa1,-8(a3)
80003b94:	00053207          	fld	ft4,0(a0)
80003b98:	7200f0c3          	fmadd.d	ft1,ft1,ft0,fa4
80003b9c:	2766                	fld	fa4,88(sp)
80003b9e:	00853187          	fld	ft3,8(a0)
80003ba2:	01053107          	fld	ft2,16(a0)
80003ba6:	7207f7c3          	fmadd.d	fa5,fa5,ft0,fa4
80003baa:	8ab278c3          	fmadd.d	fa7,ft4,fa1,fa7
80003bae:	ff863707          	fld	fa4,-8(a2)
80003bb2:	a886                	fsd	ft1,80(sp)
80003bb4:	01853087          	fld	ft1,24(a0)
80003bb8:	82b1f843          	fmadd.d	fa6,ft3,fa1,fa6
80003bbc:	3ab173c3          	fmadd.d	ft7,ft2,fa1,ft7
80003bc0:	acbe                	fsd	fa5,88(sp)
80003bc2:	311c                	fld	fa5,32(a0)
80003bc4:	32b0f343          	fmadd.d	ft6,ft1,fa1,ft6
80003bc8:	ff873607          	fld	fa2,-8(a4)
80003bcc:	6ab7f5c3          	fmadd.d	fa1,fa5,fa1,fa3
80003bd0:	26e2                	fld	fa3,24(sp)
80003bd2:	52f67543          	fmadd.d	fa0,fa2,fa5,fa0
80003bd6:	fa467fc3          	fmadd.d	ft11,fa2,ft4,ft11
80003bda:	6ae1f6c3          	fmadd.d	fa3,ft3,fa4,fa3
80003bde:	f2367f43          	fmadd.d	ft10,fa2,ft3,ft10
80003be2:	ea267ec3          	fmadd.d	ft9,fa2,ft2,ft9
80003be6:	e2167e43          	fmadd.d	ft8,fa2,ft1,ft8
80003bea:	3622                	fld	fa2,40(sp)
80003bec:	ff85b007          	fld	ft0,-8(a1)
80003bf0:	2ae272c3          	fmadd.d	ft5,ft4,fa4,ft5
80003bf4:	ac36                	fsd	fa3,24(sp)
80003bf6:	3682                	fld	fa3,32(sp)
80003bf8:	6ae176c3          	fmadd.d	fa3,ft2,fa4,fa3
80003bfc:	b036                	fsd	fa3,32(sp)
80003bfe:	62e0f6c3          	fmadd.d	fa3,ft1,fa4,fa2
80003c02:	3642                	fld	fa2,48(sp)
80003c04:	b436                	fsd	fa3,40(sp)
80003c06:	62e7f6c3          	fmadd.d	fa3,fa5,fa4,fa2
80003c0a:	3762                	fld	fa4,56(sp)
80003c0c:	b836                	fsd	fa3,48(sp)
80003c0e:	720276c3          	fmadd.d	fa3,ft4,ft0,fa4
80003c12:	2706                	fld	fa4,64(sp)
80003c14:	bc36                	fsd	fa3,56(sp)
80003c16:	7201f6c3          	fmadd.d	fa3,ft3,ft0,fa4
80003c1a:	2726                	fld	fa4,72(sp)
80003c1c:	a0b6                	fsd	fa3,64(sp)
80003c1e:	720176c3          	fmadd.d	fa3,ft2,ft0,fa4
80003c22:	2746                	fld	fa4,80(sp)
80003c24:	a4b6                	fsd	fa3,72(sp)
80003c26:	7200f6c3          	fmadd.d	fa3,ft1,ft0,fa4
80003c2a:	2766                	fld	fa4,88(sp)
80003c2c:	7207f7c3          	fmadd.d	fa5,fa5,ft0,fa4
80003c30:	a8b6                	fsd	fa3,80(sp)
80003c32:	acbe                	fsd	fa5,88(sp)
80003c34:	c5f76de3          	bltu	a4,t6,8000388e <mm+0x19a>
80003c38:	007307b3          	add	a5,t1,t2
80003c3c:	0a5ff863          	bleu	t0,t6,80003cec <mm+0x5f8>
80003c40:	019b05b3          	add	a1,s6,s9
80003c44:	018b0633          	add	a2,s6,s8
80003c48:	01ab06b3          	add	a3,s6,s10
80003c4c:	877e                	mv	a4,t6
80003c4e:	2194                	fld	fa3,0(a1)
80003c50:	0007b207          	fld	ft4,0(a5)
80003c54:	0087b187          	fld	ft3,8(a5)
80003c58:	0107b107          	fld	ft2,16(a5)
80003c5c:	0187b087          	fld	ft1,24(a5)
80003c60:	0207b007          	fld	ft0,32(a5)
80003c64:	2218                	fld	fa4,0(a2)
80003c66:	8ad278c3          	fmadd.d	fa7,ft4,fa3,fa7
80003c6a:	82d1f843          	fmadd.d	fa6,ft3,fa3,fa6
80003c6e:	3ad173c3          	fmadd.d	ft7,ft2,fa3,ft7
80003c72:	32d0f343          	fmadd.d	ft6,ft1,fa3,ft6
80003c76:	5ad075c3          	fmadd.d	fa1,ft0,fa3,fa1
80003c7a:	26e2                	fld	fa3,24(sp)
80003c7c:	2ae272c3          	fmadd.d	ft5,ft4,fa4,ft5
80003c80:	229c                	fld	fa5,0(a3)
80003c82:	6ae1f6c3          	fmadd.d	fa3,ft3,fa4,fa3
80003c86:	2310                	fld	fa2,0(a4)
80003c88:	0721                	addi	a4,a4,8
80003c8a:	97a2                	add	a5,a5,s0
80003c8c:	fa467fc3          	fmadd.d	ft11,fa2,ft4,ft11
80003c90:	f2367f43          	fmadd.d	ft10,fa2,ft3,ft10
80003c94:	ea267ec3          	fmadd.d	ft9,fa2,ft2,ft9
80003c98:	ac36                	fsd	fa3,24(sp)
80003c9a:	3682                	fld	fa3,32(sp)
80003c9c:	e2167e43          	fmadd.d	ft8,fa2,ft1,ft8
80003ca0:	52067543          	fmadd.d	fa0,fa2,ft0,fa0
80003ca4:	6ae176c3          	fmadd.d	fa3,ft2,fa4,fa3
80003ca8:	05a1                	addi	a1,a1,8
80003caa:	0621                	addi	a2,a2,8
80003cac:	06a1                	addi	a3,a3,8
80003cae:	b036                	fsd	fa3,32(sp)
80003cb0:	36a2                	fld	fa3,40(sp)
80003cb2:	6ae0f6c3          	fmadd.d	fa3,ft1,fa4,fa3
80003cb6:	b436                	fsd	fa3,40(sp)
80003cb8:	36c2                	fld	fa3,48(sp)
80003cba:	6ae07743          	fmadd.d	fa4,ft0,fa4,fa3
80003cbe:	b83a                	fsd	fa4,48(sp)
80003cc0:	3762                	fld	fa4,56(sp)
80003cc2:	72f27743          	fmadd.d	fa4,ft4,fa5,fa4
80003cc6:	bc3a                	fsd	fa4,56(sp)
80003cc8:	2706                	fld	fa4,64(sp)
80003cca:	72f1f743          	fmadd.d	fa4,ft3,fa5,fa4
80003cce:	a0ba                	fsd	fa4,64(sp)
80003cd0:	2726                	fld	fa4,72(sp)
80003cd2:	72f17743          	fmadd.d	fa4,ft2,fa5,fa4
80003cd6:	a4ba                	fsd	fa4,72(sp)
80003cd8:	2746                	fld	fa4,80(sp)
80003cda:	72f0f743          	fmadd.d	fa4,ft1,fa5,fa4
80003cde:	a8ba                	fsd	fa4,80(sp)
80003ce0:	2766                	fld	fa4,88(sp)
80003ce2:	72f077c3          	fmadd.d	fa5,ft0,fa5,fa4
80003ce6:	acbe                	fsd	fa5,88(sp)
80003ce8:	f65763e3          	bltu	a4,t0,80003c4e <mm+0x55a>
80003cec:	27e2                	fld	fa5,24(sp)
80003cee:	01ff3027          	fsd	ft11,0(t5)
80003cf2:	01ef3427          	fsd	ft10,8(t5)
80003cf6:	01df3827          	fsd	ft9,16(t5)
80003cfa:	01cf3c27          	fsd	ft8,24(t5)
80003cfe:	02af3027          	fsd	fa0,32(t5)
80003d02:	011eb027          	fsd	fa7,0(t4)
80003d06:	010eb427          	fsd	fa6,8(t4)
80003d0a:	007eb827          	fsd	ft7,16(t4)
80003d0e:	006ebc27          	fsd	ft6,24(t4)
80003d12:	02beb027          	fsd	fa1,32(t4)
80003d16:	00f8b427          	fsd	fa5,8(a7)
80003d1a:	3782                	fld	fa5,32(sp)
80003d1c:	0058b027          	fsd	ft5,0(a7)
80003d20:	0095                	addi	ra,ra,5
80003d22:	00f8b827          	fsd	fa5,16(a7)
80003d26:	37a2                	fld	fa5,40(sp)
80003d28:	028f0f13          	addi	t5,t5,40
80003d2c:	028e8e93          	addi	t4,t4,40
80003d30:	00f8bc27          	fsd	fa5,24(a7)
80003d34:	37c2                	fld	fa5,48(sp)
80003d36:	02888893          	addi	a7,a7,40
80003d3a:	02880813          	addi	a6,a6,40
80003d3e:	fef8bc27          	fsd	fa5,-8(a7)
80003d42:	37e2                	fld	fa5,56(sp)
80003d44:	02838393          	addi	t2,t2,40
80003d48:	fcf83c27          	fsd	fa5,-40(a6)
80003d4c:	2786                	fld	fa5,64(sp)
80003d4e:	fef83027          	fsd	fa5,-32(a6)
80003d52:	27a6                	fld	fa5,72(sp)
80003d54:	fef83427          	fsd	fa5,-24(a6)
80003d58:	27c6                	fld	fa5,80(sp)
80003d5a:	fef83827          	fsd	fa5,-16(a6)
80003d5e:	27e6                	fld	fa5,88(sp)
80003d60:	fef83c27          	fsd	fa5,-8(a6)
80003d64:	abb0ede3          	bltu	ra,s11,8000381e <mm+0x12a>
80003d68:	57a6                	lw	a5,104(sp)
80003d6a:	5316                	lw	t1,100(sp)
80003d6c:	5756                	lw	a4,116(sp)
80003d6e:	c03e                	sw	a5,0(sp)
80003d70:	5866                	lw	a6,120(sp)
80003d72:	478a                	lw	a5,128(sp)
80003d74:	5646                	lw	a2,112(sp)
80003d76:	55f6                	lw	a1,124(sp)
80003d78:	0311                	addi	t1,t1,4
80003d7a:	88f2                	mv	a7,t3
80003d7c:	86de                	mv	a3,s7
80003d7e:	4511                	li	a0,4
80003d80:	cc72                	sw	t3,24(sp)
80003d82:	d29a                	sw	t1,100(sp)
80003d84:	ac4fd0ef          	jal	ra,80001048 <mm_naive>
80003d88:	47aa                	lw	a5,136(sp)
80003d8a:	471a                	lw	a4,132(sp)
80003d8c:	4e62                	lw	t3,24(sp)
80003d8e:	9bbe                	add	s7,s7,a5
80003d90:	9cbe                	add	s9,s9,a5
80003d92:	9c3e                	add	s8,s8,a5
80003d94:	9d3e                	add	s10,s10,a5
80003d96:	5316                	lw	t1,100(sp)
80003d98:	57b6                	lw	a5,108(sp)
80003d9a:	9e3a                	add	t3,t3,a4
80003d9c:	a4f36be3          	bltu	t1,a5,800037f2 <mm+0xfe>
80003da0:	56b6                	lw	a3,108(sp)
80003da2:	57aa                	lw	a5,168(sp)
80003da4:	543a                	lw	s0,172(sp)
80003da6:	554a                	lw	a0,176(sp)
80003da8:	02f688b3          	mul	a7,a3,a5
80003dac:	57a6                	lw	a5,104(sp)
80003dae:	8d15                	sub	a0,a0,a3
80003db0:	5866                	lw	a6,120(sp)
80003db2:	10f12023          	sw	a5,256(sp)
80003db6:	5756                	lw	a4,116(sp)
80003db8:	47ba                	lw	a5,140(sp)
80003dba:	5646                	lw	a2,112(sp)
80003dbc:	55da                	lw	a1,180(sp)
80003dbe:	50fe                	lw	ra,252(sp)
80003dc0:	028686b3          	mul	a3,a3,s0
80003dc4:	547a                	lw	s0,188(sp)
80003dc6:	54de                	lw	s1,244(sp)
80003dc8:	594e                	lw	s2,240(sp)
80003dca:	98a2                	add	a7,a7,s0
80003dcc:	546a                	lw	s0,184(sp)
80003dce:	59be                	lw	s3,236(sp)
80003dd0:	5a2e                	lw	s4,232(sp)
80003dd2:	5a9e                	lw	s5,228(sp)
80003dd4:	5b0e                	lw	s6,224(sp)
80003dd6:	96a2                	add	a3,a3,s0
80003dd8:	546e                	lw	s0,248(sp)
80003dda:	4bfe                	lw	s7,220(sp)
80003ddc:	4c6e                	lw	s8,216(sp)
80003dde:	4cde                	lw	s9,212(sp)
80003de0:	4d4e                	lw	s10,208(sp)
80003de2:	4dbe                	lw	s11,204(sp)
80003de4:	6111                	addi	sp,sp,256
80003de6:	a62fd06f          	j	80001048 <mm_naive>
80003dea:	5426                	lw	s0,104(sp)
80003dec:	50fe                	lw	ra,252(sp)
80003dee:	54de                	lw	s1,244(sp)
80003df0:	10812023          	sw	s0,256(sp)
80003df4:	546e                	lw	s0,248(sp)
80003df6:	594e                	lw	s2,240(sp)
80003df8:	59be                	lw	s3,236(sp)
80003dfa:	5a2e                	lw	s4,232(sp)
80003dfc:	5a9e                	lw	s5,228(sp)
80003dfe:	5b0e                	lw	s6,224(sp)
80003e00:	4bfe                	lw	s7,220(sp)
80003e02:	4c6e                	lw	s8,216(sp)
80003e04:	4cde                	lw	s9,212(sp)
80003e06:	4d4e                	lw	s10,208(sp)
80003e08:	4dbe                	lw	s11,204(sp)
80003e0a:	6111                	addi	sp,sp,256
80003e0c:	b78fd06f          	j	80001184 <mm_cb>

80003e10 <barrier>:
80003e10:	0ff0000f          	fence
80003e14:	00022683          	lw	a3,0(tp) # 0 <_tdata_begin>
80003e18:	b9818713          	addi	a4,gp,-1128 # 90000398 <count.3502>
80003e1c:	4605                	li	a2,1
80003e1e:	0016b693          	seqz	a3,a3
80003e22:	00d22023          	sw	a3,0(tp) # 0 <_tdata_begin>
80003e26:	0f50000f          	fence	iorw,ow
80003e2a:	04c726af          	amoadd.w.aq	a3,a2,(a4)
80003e2e:	157d                	addi	a0,a0,-1
80003e30:	00a68c63          	beq	a3,a0,80003e48 <barrier+0x38>
80003e34:	00022683          	lw	a3,0(tp) # 0 <_tdata_begin>
80003e38:	b9418713          	addi	a4,gp,-1132 # 90000394 <sense.3501>
80003e3c:	431c                	lw	a5,0(a4)
80003e3e:	fed79fe3          	bne	a5,a3,80003e3c <barrier+0x2c>
80003e42:	0ff0000f          	fence
80003e46:	8082                	ret
80003e48:	00022783          	lw	a5,0(tp) # 0 <_tdata_begin>
80003e4c:	b801ac23          	sw	zero,-1128(gp) # 90000398 <count.3502>
80003e50:	b8f1aa23          	sw	a5,-1132(gp) # 90000394 <sense.3501>
80003e54:	b7fd                	j	80003e42 <barrier+0x32>

80003e56 <thread_entry>:
80003e56:	711d                	addi	sp,sp,-96
80003e58:	77fd                	lui	a5,0xfffff
80003e5a:	cca2                	sw	s0,88(sp)
80003e5c:	caa6                	sw	s1,84(sp)
80003e5e:	1080                	addi	s0,sp,96
80003e60:	c8ca                	sw	s2,80(sp)
80003e62:	c2d6                	sw	s5,68(sp)
80003e64:	c0da                	sw	s6,64(sp)
80003e66:	de5e                	sw	s7,60(sp)
80003e68:	dc62                	sw	s8,56(sp)
80003e6a:	da66                	sw	s9,52(sp)
80003e6c:	d86a                	sw	s10,48(sp)
80003e6e:	d66e                	sw	s11,44(sp)
80003e70:	ce86                	sw	ra,92(sp)
80003e72:	c6ce                	sw	s3,76(sp)
80003e74:	c4d2                	sw	s4,72(sp)
80003e76:	df078713          	addi	a4,a5,-528 # ffffedf0 <__global_pointer$+0x6fffe5f0>
80003e7a:	d3078793          	addi	a5,a5,-720
80003e7e:	913a                	add	sp,sp,a4
80003e80:	01010c93          	addi	s9,sp,16
80003e84:	6a85                	lui	s5,0x1
80003e86:	913e                	add	sp,sp,a5
80003e88:	01010c13          	addi	s8,sp,16
80003e8c:	200a8a93          	addi	s5,s5,512 # 1200 <_tbss_end+0x117c>
80003e90:	913e                	add	sp,sp,a5
80003e92:	deadc7b7          	lui	a5,0xdeadc
80003e96:	faa42e23          	sw	a0,-68(s0)
80003e9a:	fab42823          	sw	a1,-80(s0)
80003e9e:	01010b93          	addi	s7,sp,16
80003ea2:	8b66                	mv	s6,s9
80003ea4:	9ae6                	add	s5,s5,s9
80003ea6:	8d66                	mv	s10,s9
80003ea8:	eef78d93          	addi	s11,a5,-273 # deadbeef <__global_pointer$+0x4eadb6ef>
80003eac:	4481                	li	s1,0
80003eae:	40000937          	lui	s2,0x40000
80003eb2:	0c0d0a13          	addi	s4,s10,192
80003eb6:	01f49713          	slli	a4,s1,0x1f
80003eba:	001dd693          	srli	a3,s11,0x1
80003ebe:	8ed9                	or	a3,a3,a4
80003ec0:	01b6c733          	xor	a4,a3,s11
80003ec4:	077a                	slli	a4,a4,0x1e
80003ec6:	00e97733          	and	a4,s2,a4
80003eca:	8085                	srli	s1,s1,0x1
80003ecc:	8cd9                	or	s1,s1,a4
80003ece:	8536                	mv	a0,a3
80003ed0:	85a6                	mv	a1,s1
80003ed2:	8db6                	mv	s11,a3
80003ed4:	644010ef          	jal	ra,80005518 <__floatundidf>
80003ed8:	01f49713          	slli	a4,s1,0x1f
80003edc:	001dd693          	srli	a3,s11,0x1
80003ee0:	8ed9                	or	a3,a3,a4
80003ee2:	01b6c733          	xor	a4,a3,s11
80003ee6:	077a                	slli	a4,a4,0x1e
80003ee8:	00e97733          	and	a4,s2,a4
80003eec:	8085                	srli	s1,s1,0x1
80003eee:	8cd9                	or	s1,s1,a4
80003ef0:	00ad2023          	sw	a0,0(s10)
80003ef4:	00bd2223          	sw	a1,4(s10)
80003ef8:	8536                	mv	a0,a3
80003efa:	85a6                	mv	a1,s1
80003efc:	8db6                	mv	s11,a3
80003efe:	61a010ef          	jal	ra,80005518 <__floatundidf>
80003f02:	01f49713          	slli	a4,s1,0x1f
80003f06:	001dd693          	srli	a3,s11,0x1
80003f0a:	8ed9                	or	a3,a3,a4
80003f0c:	01b6c733          	xor	a4,a3,s11
80003f10:	077a                	slli	a4,a4,0x1e
80003f12:	00e97733          	and	a4,s2,a4
80003f16:	8085                	srli	s1,s1,0x1
80003f18:	8cd9                	or	s1,s1,a4
80003f1a:	00ad2423          	sw	a0,8(s10)
80003f1e:	00bd2623          	sw	a1,12(s10)
80003f22:	8536                	mv	a0,a3
80003f24:	85a6                	mv	a1,s1
80003f26:	8db6                	mv	s11,a3
80003f28:	5f0010ef          	jal	ra,80005518 <__floatundidf>
80003f2c:	01f49713          	slli	a4,s1,0x1f
80003f30:	001dd693          	srli	a3,s11,0x1
80003f34:	8ed9                	or	a3,a3,a4
80003f36:	01b6c733          	xor	a4,a3,s11
80003f3a:	077a                	slli	a4,a4,0x1e
80003f3c:	00e97733          	and	a4,s2,a4
80003f40:	8085                	srli	s1,s1,0x1
80003f42:	8cd9                	or	s1,s1,a4
80003f44:	00ad2823          	sw	a0,16(s10)
80003f48:	00bd2a23          	sw	a1,20(s10)
80003f4c:	8536                	mv	a0,a3
80003f4e:	85a6                	mv	a1,s1
80003f50:	8db6                	mv	s11,a3
80003f52:	5c6010ef          	jal	ra,80005518 <__floatundidf>
80003f56:	01f49713          	slli	a4,s1,0x1f
80003f5a:	001dd693          	srli	a3,s11,0x1
80003f5e:	8ed9                	or	a3,a3,a4
80003f60:	01b6c733          	xor	a4,a3,s11
80003f64:	077a                	slli	a4,a4,0x1e
80003f66:	00e97733          	and	a4,s2,a4
80003f6a:	8085                	srli	s1,s1,0x1
80003f6c:	008d0993          	addi	s3,s10,8
80003f70:	8cd9                	or	s1,s1,a4
80003f72:	00a9a823          	sw	a0,16(s3)
80003f76:	00b9aa23          	sw	a1,20(s3)
80003f7a:	8536                	mv	a0,a3
80003f7c:	85a6                	mv	a1,s1
80003f7e:	8db6                	mv	s11,a3
80003f80:	598010ef          	jal	ra,80005518 <__floatundidf>
80003f84:	01f49713          	slli	a4,s1,0x1f
80003f88:	001dd693          	srli	a3,s11,0x1
80003f8c:	8ed9                	or	a3,a3,a4
80003f8e:	01b6c733          	xor	a4,a3,s11
80003f92:	077a                	slli	a4,a4,0x1e
80003f94:	00e97733          	and	a4,s2,a4
80003f98:	8085                	srli	s1,s1,0x1
80003f9a:	8cd9                	or	s1,s1,a4
80003f9c:	00a9ac23          	sw	a0,24(s3)
80003fa0:	00b9ae23          	sw	a1,28(s3)
80003fa4:	8536                	mv	a0,a3
80003fa6:	85a6                	mv	a1,s1
80003fa8:	8db6                	mv	s11,a3
80003faa:	56e010ef          	jal	ra,80005518 <__floatundidf>
80003fae:	02a9a023          	sw	a0,32(s3)
80003fb2:	02b9a223          	sw	a1,36(s3)
80003fb6:	02898d13          	addi	s10,s3,40
80003fba:	ef4d1ee3          	bne	s10,s4,80003eb6 <thread_entry+0x60>
80003fbe:	ef5d1ae3          	bne	s10,s5,80003eb2 <thread_entry+0x5c>
80003fc2:	6a05                	lui	s4,0x1
80003fc4:	2c0a0a13          	addi	s4,s4,704 # 12c0 <_tbss_end+0x123c>
80003fc8:	9a62                	add	s4,s4,s8
80003fca:	8ae2                	mv	s5,s8
80003fcc:	40000937          	lui	s2,0x40000
80003fd0:	0c8a8993          	addi	s3,s5,200
80003fd4:	01f49713          	slli	a4,s1,0x1f
80003fd8:	001dd693          	srli	a3,s11,0x1
80003fdc:	8ed9                	or	a3,a3,a4
80003fde:	01b6c733          	xor	a4,a3,s11
80003fe2:	077a                	slli	a4,a4,0x1e
80003fe4:	00e97733          	and	a4,s2,a4
80003fe8:	8085                	srli	s1,s1,0x1
80003fea:	8cd9                	or	s1,s1,a4
80003fec:	8536                	mv	a0,a3
80003fee:	85a6                	mv	a1,s1
80003ff0:	8db6                	mv	s11,a3
80003ff2:	526010ef          	jal	ra,80005518 <__floatundidf>
80003ff6:	01f49713          	slli	a4,s1,0x1f
80003ffa:	001dd693          	srli	a3,s11,0x1
80003ffe:	8ed9                	or	a3,a3,a4
80004000:	01b6c733          	xor	a4,a3,s11
80004004:	077a                	slli	a4,a4,0x1e
80004006:	00e97733          	and	a4,s2,a4
8000400a:	8085                	srli	s1,s1,0x1
8000400c:	8cd9                	or	s1,s1,a4
8000400e:	00aaa023          	sw	a0,0(s5)
80004012:	00baa223          	sw	a1,4(s5)
80004016:	8536                	mv	a0,a3
80004018:	85a6                	mv	a1,s1
8000401a:	8db6                	mv	s11,a3
8000401c:	4fc010ef          	jal	ra,80005518 <__floatundidf>
80004020:	01f49713          	slli	a4,s1,0x1f
80004024:	001dd693          	srli	a3,s11,0x1
80004028:	8ed9                	or	a3,a3,a4
8000402a:	01b6c733          	xor	a4,a3,s11
8000402e:	077a                	slli	a4,a4,0x1e
80004030:	00e97733          	and	a4,s2,a4
80004034:	8085                	srli	s1,s1,0x1
80004036:	8cd9                	or	s1,s1,a4
80004038:	00aaa423          	sw	a0,8(s5)
8000403c:	00baa623          	sw	a1,12(s5)
80004040:	8536                	mv	a0,a3
80004042:	85a6                	mv	a1,s1
80004044:	8db6                	mv	s11,a3
80004046:	4d2010ef          	jal	ra,80005518 <__floatundidf>
8000404a:	01f49713          	slli	a4,s1,0x1f
8000404e:	001dd693          	srli	a3,s11,0x1
80004052:	8ed9                	or	a3,a3,a4
80004054:	01b6c733          	xor	a4,a3,s11
80004058:	077a                	slli	a4,a4,0x1e
8000405a:	00e97733          	and	a4,s2,a4
8000405e:	8085                	srli	s1,s1,0x1
80004060:	8cd9                	or	s1,s1,a4
80004062:	00aaa823          	sw	a0,16(s5)
80004066:	00baaa23          	sw	a1,20(s5)
8000406a:	8536                	mv	a0,a3
8000406c:	85a6                	mv	a1,s1
8000406e:	8db6                	mv	s11,a3
80004070:	4a8010ef          	jal	ra,80005518 <__floatundidf>
80004074:	01f49713          	slli	a4,s1,0x1f
80004078:	001dd693          	srli	a3,s11,0x1
8000407c:	8ed9                	or	a3,a3,a4
8000407e:	01b6c733          	xor	a4,a3,s11
80004082:	077a                	slli	a4,a4,0x1e
80004084:	00e97733          	and	a4,s2,a4
80004088:	8085                	srli	s1,s1,0x1
8000408a:	008a8d13          	addi	s10,s5,8
8000408e:	8cd9                	or	s1,s1,a4
80004090:	00ad2823          	sw	a0,16(s10)
80004094:	00bd2a23          	sw	a1,20(s10)
80004098:	8536                	mv	a0,a3
8000409a:	85a6                	mv	a1,s1
8000409c:	8db6                	mv	s11,a3
8000409e:	47a010ef          	jal	ra,80005518 <__floatundidf>
800040a2:	00ad2c23          	sw	a0,24(s10)
800040a6:	00bd2e23          	sw	a1,28(s10)
800040aa:	020d0a93          	addi	s5,s10,32
800040ae:	f35993e3          	bne	s3,s5,80003fd4 <thread_entry+0x17e>
800040b2:	f13a1fe3          	bne	s4,s3,80003fd0 <thread_entry+0x17a>
800040b6:	6605                	lui	a2,0x1
800040b8:	2c060613          	addi	a2,a2,704 # 12c0 <_tbss_end+0x123c>
800040bc:	4581                	li	a1,0
800040be:	855e                	mv	a0,s7
800040c0:	7b4000ef          	jal	ra,80004874 <memset>
800040c4:	44a1                	li	s1,8
800040c6:	4a65                	li	s4,25
800040c8:	b0202973          	csrr	s2,minstret
800040cc:	b00029f3          	csrr	s3,mcycle
800040d0:	4865                	li	a6,25
800040d2:	c052                	sw	s4,0(sp)
800040d4:	88de                	mv	a7,s7
800040d6:	87e2                	mv	a5,s8
800040d8:	4761                	li	a4,24
800040da:	86e6                	mv	a3,s9
800040dc:	4661                	li	a2,24
800040de:	45e5                	li	a1,25
800040e0:	4561                	li	a0,24
800040e2:	e12ff0ef          	jal	ra,800036f4 <mm>
800040e6:	b0202af3          	csrr	s5,minstret
800040ea:	b00027f3          	csrr	a5,mcycle
800040ee:	14fd                	addi	s1,s1,-1
800040f0:	fce1                	bnez	s1,800040c8 <thread_entry+0x272>
800040f2:	413789b3          	sub	s3,a5,s3
800040f6:	0ff0000f          	fence
800040fa:	fbc42483          	lw	s1,-68(s0)
800040fe:	47e1                	li	a5,24
80004100:	48e1                	li	a7,24
80004102:	4865                	li	a6,25
80004104:	4719                	li	a4,6
80004106:	4695                	li	a3,5
80004108:	4611                	li	a2,4
8000410a:	85a6                	mv	a1,s1
8000410c:	0fffc517          	auipc	a0,0xfffc
80004110:	f0450513          	addi	a0,a0,-252 # 90000010 <__clzsi2+0xfffa916>
80004114:	2d45                	jal	800047c4 <printf>
80004116:	412a8633          	sub	a2,s5,s2
8000411a:	85a6                	mv	a1,s1
8000411c:	0fffc517          	auipc	a0,0xfffc
80004120:	f2450513          	addi	a0,a0,-220 # 90000040 <__clzsi2+0xfffa946>
80004124:	2545                	jal	800047c4 <printf>
80004126:	864e                	mv	a2,s3
80004128:	85a6                	mv	a1,s1
8000412a:	0fffc517          	auipc	a0,0xfffc
8000412e:	f2e50513          	addi	a0,a0,-210 # 90000058 <__clzsi2+0xfffa95e>
80004132:	2d49                	jal	800047c4 <printf>
80004134:	661d                	lui	a2,0x7
80004136:	08060613          	addi	a2,a2,128 # 7080 <_tbss_end+0x6ffc>
8000413a:	85a6                	mv	a1,s1
8000413c:	0fffc517          	auipc	a0,0xfffc
80004140:	f2c50513          	addi	a0,a0,-212 # 90000068 <__clzsi2+0xfffa96e>
80004144:	2541                	jal	800047c4 <printf>
80004146:	01b77637          	lui	a2,0x1b77
8000414a:	40060613          	addi	a2,a2,1024 # 1b77400 <_tbss_end+0x1b7737c>
8000414e:	03365633          	divu	a2,a2,s3
80004152:	85a6                	mv	a1,s1
80004154:	0fffc517          	auipc	a0,0xfffc
80004158:	f2450513          	addi	a0,a0,-220 # 90000078 <__clzsi2+0xfffa97e>
8000415c:	25a5                	jal	800047c4 <printf>
8000415e:	6e05                	lui	t3,0x1
80004160:	4601                	li	a2,0
80004162:	0fffc797          	auipc	a5,0xfffc
80004166:	e9e7b507          	fld	fa0,-354(a5) # 90000000 <__clzsi2+0xfffa906>
8000416a:	0fffc797          	auipc	a5,0xfffc
8000416e:	e9e7b587          	fld	fa1,-354(a5) # 90000008 <__clzsi2+0xfffa90e>
80004172:	2c0e0e13          	addi	t3,t3,704 # 12c0 <_tbss_end+0x123c>
80004176:	4ee5                	li	t4,25
80004178:	4f61                	li	t5,24
8000417a:	88e2                	mv	a7,s8
8000417c:	835e                	mv	t1,s7
8000417e:	4681                	li	a3,0
80004180:	d20007d3          	fcvt.d.w	fa5,zero
80004184:	01c88833          	add	a6,a7,t3
80004188:	85c6                	mv	a1,a7
8000418a:	855a                	mv	a0,s6
8000418c:	2114                	fld	fa3,0(a0)
8000418e:	2198                	fld	fa4,0(a1)
80004190:	00850713          	addi	a4,a0,8
80004194:	0c858793          	addi	a5,a1,200
80004198:	7ae6f7c3          	fmadd.d	fa5,fa3,fa4,fa5
8000419c:	2514                	fld	fa3,8(a0)
8000419e:	25f8                	fld	fa4,200(a1)
800041a0:	64058593          	addi	a1,a1,1600
800041a4:	04050513          	addi	a0,a0,64
800041a8:	7ae6f7c3          	fmadd.d	fa5,fa3,fa4,fa5
800041ac:	fd053687          	fld	fa3,-48(a0)
800041b0:	b505b707          	fld	fa4,-1200(a1)
800041b4:	7ae6f7c3          	fmadd.d	fa5,fa3,fa4,fa5
800041b8:	2b14                	fld	fa3,16(a4)
800041ba:	1907b707          	fld	fa4,400(a5)
800041be:	7ae6f7c3          	fmadd.d	fa5,fa3,fa4,fa5
800041c2:	2f14                	fld	fa3,24(a4)
800041c4:	2587b707          	fld	fa4,600(a5)
800041c8:	7ae6f7c3          	fmadd.d	fa5,fa3,fa4,fa5
800041cc:	3314                	fld	fa3,32(a4)
800041ce:	3207b707          	fld	fa4,800(a5)
800041d2:	7ae6f7c3          	fmadd.d	fa5,fa3,fa4,fa5
800041d6:	3714                	fld	fa3,40(a4)
800041d8:	3e87b707          	fld	fa4,1000(a5)
800041dc:	7ae6f7c3          	fmadd.d	fa5,fa3,fa4,fa5
800041e0:	3b14                	fld	fa3,48(a4)
800041e2:	4b07b707          	fld	fa4,1200(a5)
800041e6:	7ae6f7c3          	fmadd.d	fa5,fa3,fa4,fa5
800041ea:	fab811e3          	bne	a6,a1,8000418c <thread_entry+0x336>
800041ee:	12a7f7d3          	fmul.d	fa5,fa5,fa0
800041f2:	00033607          	fld	fa2,0(t1)
800041f6:	12b7f6d3          	fmul.d	fa3,fa5,fa1
800041fa:	0af67753          	fsub.d	fa4,fa2,fa5
800041fe:	22d6a6d3          	fabs.d	fa3,fa3
80004202:	22e72753          	fabs.d	fa4,fa4
80004206:	a2e697d3          	flt.d	a5,fa3,fa4
8000420a:	e395                	bnez	a5,8000422e <thread_entry+0x3d8>
8000420c:	0685                	addi	a3,a3,1
8000420e:	0321                	addi	t1,t1,8
80004210:	08a1                	addi	a7,a7,8
80004212:	f7d697e3          	bne	a3,t4,80004180 <thread_entry+0x32a>
80004216:	0605                	addi	a2,a2,1
80004218:	0c0b0b13          	addi	s6,s6,192
8000421c:	0c8b8b93          	addi	s7,s7,200
80004220:	f5e61de3          	bne	a2,t5,8000417a <thread_entry+0x324>
80004224:	fb042503          	lw	a0,-80(s0)
80004228:	36e5                	jal	80003e10 <barrier>
8000422a:	4501                	li	a0,0
8000422c:	2b01                	jal	8000473c <exit>
8000422e:	faf43827          	fsd	fa5,-80(s0)
80004232:	fb042803          	lw	a6,-80(s0)
80004236:	fb442883          	lw	a7,-76(s0)
8000423a:	fac43827          	fsd	fa2,-80(s0)
8000423e:	fb042703          	lw	a4,-80(s0)
80004242:	fb442783          	lw	a5,-76(s0)
80004246:	fbc42583          	lw	a1,-68(s0)
8000424a:	0fffc517          	auipc	a0,0xfffc
8000424e:	e4650513          	addi	a0,a0,-442 # 90000090 <__clzsi2+0xfffa996>
80004252:	2b8d                	jal	800047c4 <printf>
80004254:	4505                	li	a0,1
80004256:	21dd                	jal	8000473c <exit>

80004258 <vprintfmt>:
80004258:	714d                	addi	sp,sp,-336
8000425a:	13a12023          	sw	s10,288(sp)
8000425e:	40000d37          	lui	s10,0x40000
80004262:	fffd0793          	addi	a5,s10,-1 # 3fffffff <_tbss_end+0x3fffff7b>
80004266:	14812423          	sw	s0,328(sp)
8000426a:	14912223          	sw	s1,324(sp)
8000426e:	15212023          	sw	s2,320(sp)
80004272:	13512a23          	sw	s5,308(sp)
80004276:	14112623          	sw	ra,332(sp)
8000427a:	13312e23          	sw	s3,316(sp)
8000427e:	13412c23          	sw	s4,312(sp)
80004282:	13612823          	sw	s6,304(sp)
80004286:	13712623          	sw	s7,300(sp)
8000428a:	13812423          	sw	s8,296(sp)
8000428e:	13912223          	sw	s9,292(sp)
80004292:	11b12e23          	sw	s11,284(sp)
80004296:	892a                	mv	s2,a0
80004298:	84ae                	mv	s1,a1
8000429a:	8432                	mv	s0,a2
8000429c:	c436                	sw	a3,8(sp)
8000429e:	02500a93          	li	s5,37
800042a2:	c63e                	sw	a5,12(sp)
800042a4:	a029                	j	800042ae <vprintfmt+0x56>
800042a6:	c521                	beqz	a0,800042ee <vprintfmt+0x96>
800042a8:	85a6                	mv	a1,s1
800042aa:	0405                	addi	s0,s0,1
800042ac:	9902                	jalr	s2
800042ae:	00044503          	lbu	a0,0(s0)
800042b2:	ff551ae3          	bne	a0,s5,800042a6 <vprintfmt+0x4e>
800042b6:	00144683          	lbu	a3,1(s0)
800042ba:	00140b13          	addi	s6,s0,1
800042be:	875a                	mv	a4,s6
800042c0:	02000b93          	li	s7,32
800042c4:	5a7d                	li	s4,-1
800042c6:	59fd                	li	s3,-1
800042c8:	4581                	li	a1,0
800042ca:	05500513          	li	a0,85
800042ce:	4825                	li	a6,9
800042d0:	fdd68793          	addi	a5,a3,-35
800042d4:	0ff7f793          	andi	a5,a5,255
800042d8:	00170413          	addi	s0,a4,1
800042dc:	26f56063          	bltu	a0,a5,8000453c <vprintfmt+0x2e4>
800042e0:	8ec18613          	addi	a2,gp,-1812 # 900000ec <__clzsi2+0xfffa9f2>
800042e4:	078a                	slli	a5,a5,0x2
800042e6:	97b2                	add	a5,a5,a2
800042e8:	439c                	lw	a5,0(a5)
800042ea:	97b2                	add	a5,a5,a2
800042ec:	8782                	jr	a5
800042ee:	14c12083          	lw	ra,332(sp)
800042f2:	14812403          	lw	s0,328(sp)
800042f6:	14412483          	lw	s1,324(sp)
800042fa:	14012903          	lw	s2,320(sp)
800042fe:	13c12983          	lw	s3,316(sp)
80004302:	13812a03          	lw	s4,312(sp)
80004306:	13412a83          	lw	s5,308(sp)
8000430a:	13012b03          	lw	s6,304(sp)
8000430e:	12c12b83          	lw	s7,300(sp)
80004312:	12812c03          	lw	s8,296(sp)
80004316:	12412c83          	lw	s9,292(sp)
8000431a:	12012d03          	lw	s10,288(sp)
8000431e:	11c12d83          	lw	s11,284(sp)
80004322:	6171                	addi	sp,sp,336
80004324:	8082                	ret
80004326:	4b21                	li	s6,8
80004328:	c202                	sw	zero,4(sp)
8000432a:	4785                	li	a5,1
8000432c:	1ab7d963          	ble	a1,a5,800044de <vprintfmt+0x286>
80004330:	47a2                	lw	a5,8(sp)
80004332:	00778c93          	addi	s9,a5,7
80004336:	ff8cf793          	andi	a5,s9,-8
8000433a:	0007ad83          	lw	s11,0(a5)
8000433e:	0047ac03          	lw	s8,4(a5)
80004342:	00878713          	addi	a4,a5,8
80004346:	c43a                	sw	a4,8(sp)
80004348:	865a                	mv	a2,s6
8000434a:	4681                	li	a3,0
8000434c:	856e                	mv	a0,s11
8000434e:	85e2                	mv	a1,s8
80004350:	649000ef          	jal	ra,80005198 <__umoddi3>
80004354:	c82a                	sw	a0,16(sp)
80004356:	4781                	li	a5,0
80004358:	1f878863          	beq	a5,s8,80004548 <vprintfmt+0x2f0>
8000435c:	01410c93          	addi	s9,sp,20
80004360:	4a05                	li	s4,1
80004362:	865a                	mv	a2,s6
80004364:	4681                	li	a3,0
80004366:	856e                	mv	a0,s11
80004368:	85e2                	mv	a1,s8
8000436a:	299000ef          	jal	ra,80004e02 <__udivdi3>
8000436e:	865a                	mv	a2,s6
80004370:	4681                	li	a3,0
80004372:	8daa                	mv	s11,a0
80004374:	8c2e                	mv	s8,a1
80004376:	623000ef          	jal	ra,80005198 <__umoddi3>
8000437a:	4792                	lw	a5,4(sp)
8000437c:	00aca023          	sw	a0,0(s9)
80004380:	001a0d13          	addi	s10,s4,1
80004384:	0c91                	addi	s9,s9,4
80004386:	01878463          	beq	a5,s8,8000438e <vprintfmt+0x136>
8000438a:	8a6a                	mv	s4,s10
8000438c:	bfd9                	j	80004362 <vprintfmt+0x10a>
8000438e:	ff6dfee3          	bleu	s6,s11,8000438a <vprintfmt+0x132>
80004392:	013d5863          	ble	s3,s10,800043a2 <vprintfmt+0x14a>
80004396:	19fd                	addi	s3,s3,-1
80004398:	85a6                	mv	a1,s1
8000439a:	855e                	mv	a0,s7
8000439c:	9902                	jalr	s2
8000439e:	ff3d4ce3          	blt	s10,s3,80004396 <vprintfmt+0x13e>
800043a2:	002a1793          	slli	a5,s4,0x2
800043a6:	0a18                	addi	a4,sp,272
800043a8:	97ba                	add	a5,a5,a4
800043aa:	f007a503          	lw	a0,-256(a5)
800043ae:	47b2                	lw	a5,12(sp)
800043b0:	4b25                	li	s6,9
800043b2:	00fa09b3          	add	s3,s4,a5
800043b6:	098a                	slli	s3,s3,0x2
800043b8:	081c                	addi	a5,sp,16
800043ba:	99be                	add	s3,s3,a5
800043bc:	a029                	j	800043c6 <vprintfmt+0x16e>
800043be:	0009a503          	lw	a0,0(s3)
800043c2:	1a7d                	addi	s4,s4,-1
800043c4:	19f1                	addi	s3,s3,-4
800043c6:	03000793          	li	a5,48
800043ca:	00ab7463          	bleu	a0,s6,800043d2 <vprintfmt+0x17a>
800043ce:	05700793          	li	a5,87
800043d2:	85a6                	mv	a1,s1
800043d4:	953e                	add	a0,a0,a5
800043d6:	9902                	jalr	s2
800043d8:	ff4043e3          	bgtz	s4,800043be <vprintfmt+0x166>
800043dc:	bdc9                	j	800042ae <vprintfmt+0x56>
800043de:	03000513          	li	a0,48
800043e2:	85a6                	mv	a1,s1
800043e4:	9902                	jalr	s2
800043e6:	85a6                	mv	a1,s1
800043e8:	07800513          	li	a0,120
800043ec:	9902                	jalr	s2
800043ee:	47a2                	lw	a5,8(sp)
800043f0:	4b41                	li	s6,16
800043f2:	c202                	sw	zero,4(sp)
800043f4:	00478693          	addi	a3,a5,4
800043f8:	47a2                	lw	a5,8(sp)
800043fa:	4c01                	li	s8,0
800043fc:	0007ad83          	lw	s11,0(a5)
80004400:	c436                	sw	a3,8(sp)
80004402:	b799                	j	80004348 <vprintfmt+0xf0>
80004404:	47a2                	lw	a5,8(sp)
80004406:	00174683          	lbu	a3,1(a4)
8000440a:	8722                	mv	a4,s0
8000440c:	0007aa03          	lw	s4,0(a5)
80004410:	0791                	addi	a5,a5,4
80004412:	c43e                	sw	a5,8(sp)
80004414:	ea09dee3          	bgez	s3,800042d0 <vprintfmt+0x78>
80004418:	89d2                	mv	s3,s4
8000441a:	5a7d                	li	s4,-1
8000441c:	bd55                	j	800042d0 <vprintfmt+0x78>
8000441e:	00174683          	lbu	a3,1(a4)
80004422:	02d00b93          	li	s7,45
80004426:	8722                	mv	a4,s0
80004428:	b565                	j	800042d0 <vprintfmt+0x78>
8000442a:	fff9c793          	not	a5,s3
8000442e:	87fd                	srai	a5,a5,0x1f
80004430:	00174683          	lbu	a3,1(a4)
80004434:	00f9f9b3          	and	s3,s3,a5
80004438:	8722                	mv	a4,s0
8000443a:	bd59                	j	800042d0 <vprintfmt+0x78>
8000443c:	00174683          	lbu	a3,1(a4)
80004440:	03000b93          	li	s7,48
80004444:	8722                	mv	a4,s0
80004446:	b569                	j	800042d0 <vprintfmt+0x78>
80004448:	00174603          	lbu	a2,1(a4)
8000444c:	fd068a13          	addi	s4,a3,-48
80004450:	8722                	mv	a4,s0
80004452:	fd060793          	addi	a5,a2,-48
80004456:	86b2                	mv	a3,a2
80004458:	faf86ee3          	bltu	a6,a5,80004414 <vprintfmt+0x1bc>
8000445c:	002a1793          	slli	a5,s4,0x2
80004460:	9a3e                	add	s4,s4,a5
80004462:	0705                	addi	a4,a4,1
80004464:	0a06                	slli	s4,s4,0x1
80004466:	9a32                	add	s4,s4,a2
80004468:	00074603          	lbu	a2,0(a4)
8000446c:	fd0a0a13          	addi	s4,s4,-48
80004470:	fd060793          	addi	a5,a2,-48
80004474:	86b2                	mv	a3,a2
80004476:	fef873e3          	bleu	a5,a6,8000445c <vprintfmt+0x204>
8000447a:	bf69                	j	80004414 <vprintfmt+0x1bc>
8000447c:	47a2                	lw	a5,8(sp)
8000447e:	85a6                	mv	a1,s1
80004480:	4388                	lw	a0,0(a5)
80004482:	00478c93          	addi	s9,a5,4
80004486:	9902                	jalr	s2
80004488:	c466                	sw	s9,8(sp)
8000448a:	b515                	j	800042ae <vprintfmt+0x56>
8000448c:	4785                	li	a5,1
8000448e:	12b7d963          	ble	a1,a5,800045c0 <vprintfmt+0x368>
80004492:	47a2                	lw	a5,8(sp)
80004494:	079d                	addi	a5,a5,7
80004496:	9be1                	andi	a5,a5,-8
80004498:	0007ad83          	lw	s11,0(a5)
8000449c:	0047ac03          	lw	s8,4(a5)
800044a0:	00878713          	addi	a4,a5,8
800044a4:	c43a                	sw	a4,8(sp)
800044a6:	000c5f63          	bgez	s8,800044c4 <vprintfmt+0x26c>
800044aa:	85a6                	mv	a1,s1
800044ac:	02d00513          	li	a0,45
800044b0:	9902                	jalr	s2
800044b2:	41b00733          	neg	a4,s11
800044b6:	00e036b3          	snez	a3,a4
800044ba:	418007b3          	neg	a5,s8
800044be:	8dba                	mv	s11,a4
800044c0:	40d78c33          	sub	s8,a5,a3
800044c4:	4b29                	li	s6,10
800044c6:	c202                	sw	zero,4(sp)
800044c8:	b541                	j	80004348 <vprintfmt+0xf0>
800044ca:	00174683          	lbu	a3,1(a4)
800044ce:	0585                	addi	a1,a1,1
800044d0:	8722                	mv	a4,s0
800044d2:	bbfd                	j	800042d0 <vprintfmt+0x78>
800044d4:	c202                	sw	zero,4(sp)
800044d6:	4785                	li	a5,1
800044d8:	4b29                	li	s6,10
800044da:	e4b7cbe3          	blt	a5,a1,80004330 <vprintfmt+0xd8>
800044de:	47a2                	lw	a5,8(sp)
800044e0:	00478693          	addi	a3,a5,4
800044e4:	bf11                	j	800043f8 <vprintfmt+0x1a0>
800044e6:	4b41                	li	s6,16
800044e8:	c202                	sw	zero,4(sp)
800044ea:	b581                	j	8000432a <vprintfmt+0xd2>
800044ec:	00174683          	lbu	a3,1(a4)
800044f0:	8722                	mv	a4,s0
800044f2:	bbf9                	j	800042d0 <vprintfmt+0x78>
800044f4:	85a6                	mv	a1,s1
800044f6:	02500513          	li	a0,37
800044fa:	9902                	jalr	s2
800044fc:	bb4d                	j	800042ae <vprintfmt+0x56>
800044fe:	47a2                	lw	a5,8(sp)
80004500:	0007ab03          	lw	s6,0(a5)
80004504:	00478c93          	addi	s9,a5,4
80004508:	0c0b0763          	beqz	s6,800045d6 <vprintfmt+0x37e>
8000450c:	05305c63          	blez	s3,80004564 <vprintfmt+0x30c>
80004510:	02d00793          	li	a5,45
80004514:	0afb8163          	beq	s7,a5,800045b6 <vprintfmt+0x35e>
80004518:	080a0263          	beqz	s4,8000459c <vprintfmt+0x344>
8000451c:	000b4783          	lbu	a5,0(s6)
80004520:	cfb5                	beqz	a5,8000459c <vprintfmt+0x344>
80004522:	001b0793          	addi	a5,s6,1
80004526:	014b0633          	add	a2,s6,s4
8000452a:	0cf60963          	beq	a2,a5,800045fc <vprintfmt+0x3a4>
8000452e:	00178713          	addi	a4,a5,1
80004532:	fff74683          	lbu	a3,-1(a4)
80004536:	c28d                	beqz	a3,80004558 <vprintfmt+0x300>
80004538:	87ba                	mv	a5,a4
8000453a:	bfc5                	j	8000452a <vprintfmt+0x2d2>
8000453c:	85a6                	mv	a1,s1
8000453e:	02500513          	li	a0,37
80004542:	9902                	jalr	s2
80004544:	845a                	mv	s0,s6
80004546:	b3a5                	j	800042ae <vprintfmt+0x56>
80004548:	e16dfae3          	bleu	s6,s11,8000435c <vprintfmt+0x104>
8000454c:	4785                	li	a5,1
8000454e:	4a01                	li	s4,0
80004550:	4d05                	li	s10,1
80004552:	e537c2e3          	blt	a5,s3,80004396 <vprintfmt+0x13e>
80004556:	bda1                	j	800043ae <vprintfmt+0x156>
80004558:	416787b3          	sub	a5,a5,s6
8000455c:	40f989b3          	sub	s3,s3,a5
80004560:	03304e63          	bgtz	s3,8000459c <vprintfmt+0x344>
80004564:	000b4503          	lbu	a0,0(s6)
80004568:	c505                	beqz	a0,80004590 <vprintfmt+0x338>
8000456a:	5bfd                	li	s7,-1
8000456c:	020a5463          	bgez	s4,80004594 <vprintfmt+0x33c>
80004570:	85a6                	mv	a1,s1
80004572:	0b05                	addi	s6,s6,1
80004574:	9902                	jalr	s2
80004576:	000b4503          	lbu	a0,0(s6)
8000457a:	19fd                	addi	s3,s3,-1
8000457c:	f965                	bnez	a0,8000456c <vprintfmt+0x314>
8000457e:	01305963          	blez	s3,80004590 <vprintfmt+0x338>
80004582:	19fd                	addi	s3,s3,-1
80004584:	85a6                	mv	a1,s1
80004586:	02000513          	li	a0,32
8000458a:	9902                	jalr	s2
8000458c:	fe099be3          	bnez	s3,80004582 <vprintfmt+0x32a>
80004590:	c466                	sw	s9,8(sp)
80004592:	bb31                	j	800042ae <vprintfmt+0x56>
80004594:	1a7d                	addi	s4,s4,-1
80004596:	fd7a1de3          	bne	s4,s7,80004570 <vprintfmt+0x318>
8000459a:	b7d5                	j	8000457e <vprintfmt+0x326>
8000459c:	19fd                	addi	s3,s3,-1
8000459e:	85a6                	mv	a1,s1
800045a0:	855e                	mv	a0,s7
800045a2:	9902                	jalr	s2
800045a4:	fc0980e3          	beqz	s3,80004564 <vprintfmt+0x30c>
800045a8:	19fd                	addi	s3,s3,-1
800045aa:	85a6                	mv	a1,s1
800045ac:	855e                	mv	a0,s7
800045ae:	9902                	jalr	s2
800045b0:	fe0996e3          	bnez	s3,8000459c <vprintfmt+0x344>
800045b4:	bf45                	j	80004564 <vprintfmt+0x30c>
800045b6:	000b4503          	lbu	a0,0(s6)
800045ba:	d561                	beqz	a0,80004582 <vprintfmt+0x32a>
800045bc:	5bfd                	li	s7,-1
800045be:	b77d                	j	8000456c <vprintfmt+0x314>
800045c0:	4722                	lw	a4,8(sp)
800045c2:	00470793          	addi	a5,a4,4
800045c6:	e191                	bnez	a1,800045ca <vprintfmt+0x372>
800045c8:	4722                	lw	a4,8(sp)
800045ca:	00072d83          	lw	s11,0(a4)
800045ce:	c43e                	sw	a5,8(sp)
800045d0:	41fddc13          	srai	s8,s11,0x1f
800045d4:	bdc9                	j	800044a6 <vprintfmt+0x24e>
800045d6:	01305b63          	blez	s3,800045ec <vprintfmt+0x394>
800045da:	02d00793          	li	a5,45
800045de:	00fb8763          	beq	s7,a5,800045ec <vprintfmt+0x394>
800045e2:	0fffcb17          	auipc	s6,0xfffc
800045e6:	acab0b13          	addi	s6,s6,-1334 # 900000ac <__clzsi2+0xfffa9b2>
800045ea:	b73d                	j	80004518 <vprintfmt+0x2c0>
800045ec:	0fffcb17          	auipc	s6,0xfffc
800045f0:	ac0b0b13          	addi	s6,s6,-1344 # 900000ac <__clzsi2+0xfffa9b2>
800045f4:	02800513          	li	a0,40
800045f8:	5bfd                	li	s7,-1
800045fa:	bf8d                	j	8000456c <vprintfmt+0x314>
800045fc:	41660633          	sub	a2,a2,s6
80004600:	40c989b3          	sub	s3,s3,a2
80004604:	f9304ce3          	bgtz	s3,8000459c <vprintfmt+0x344>
80004608:	bfb1                	j	80004564 <vprintfmt+0x30c>

8000460a <sprintf_putch.2925>:
8000460a:	419c                	lw	a5,0(a1)
8000460c:	00a78023          	sb	a0,0(a5)
80004610:	419c                	lw	a5,0(a1)
80004612:	0785                	addi	a5,a5,1
80004614:	c19c                	sw	a5,0(a1)
80004616:	8082                	ret

80004618 <syscall.constprop.2>:
80004618:	7119                	addi	sp,sp,-128
8000461a:	03f10813          	addi	a6,sp,63
8000461e:	fc087813          	andi	a6,a6,-64
80004622:	04000713          	li	a4,64
80004626:	00e82023          	sw	a4,0(a6)
8000462a:	4781                	li	a5,0
8000462c:	00f82223          	sw	a5,4(a6)
80004630:	4705                	li	a4,1
80004632:	00e82423          	sw	a4,8(a6)
80004636:	4781                	li	a5,0
80004638:	00f82623          	sw	a5,12(a6)
8000463c:	00a82823          	sw	a0,16(a6)
80004640:	00b82a23          	sw	a1,20(a6)
80004644:	00c82c23          	sw	a2,24(a6)
80004648:	00d82e23          	sw	a3,28(a6)
8000464c:	0ff0000f          	fence
80004650:	ffffd697          	auipc	a3,0xffffd
80004654:	9b068693          	addi	a3,a3,-1616 # 80001000 <tohost>
80004658:	0106a023          	sw	a6,0(a3)
8000465c:	4781                	li	a5,0
8000465e:	c2dc                	sw	a5,4(a3)
80004660:	ffffd697          	auipc	a3,0xffffd
80004664:	9e068693          	addi	a3,a3,-1568 # 80001040 <fromhost>
80004668:	4298                	lw	a4,0(a3)
8000466a:	42dc                	lw	a5,4(a3)
8000466c:	8f5d                	or	a4,a4,a5
8000466e:	df6d                	beqz	a4,80004668 <syscall.constprop.2+0x50>
80004670:	4701                	li	a4,0
80004672:	c298                	sw	a4,0(a3)
80004674:	4781                	li	a5,0
80004676:	c2dc                	sw	a5,4(a3)
80004678:	0ff0000f          	fence
8000467c:	00082503          	lw	a0,0(a6)
80004680:	00482583          	lw	a1,4(a6)
80004684:	6109                	addi	sp,sp,128
80004686:	8082                	ret

80004688 <putchar>:
80004688:	1141                	addi	sp,sp,-16
8000468a:	c422                	sw	s0,8(sp)
8000468c:	08022583          	lw	a1,128(tp) # 80 <buflen.2811>
80004690:	04020793          	addi	a5,tp,64 # 40 <buf.2810>
80004694:	c606                	sw	ra,12(sp)
80004696:	97ae                	add	a5,a5,a1
80004698:	00158613          	addi	a2,a1,1
8000469c:	00a78023          	sb	a0,0(a5)
800046a0:	08c22023          	sw	a2,128(tp) # 80 <buflen.2811>
800046a4:	47a9                	li	a5,10
800046a6:	00f50b63          	beq	a0,a5,800046bc <putchar+0x34>
800046aa:	04000793          	li	a5,64
800046ae:	00f60763          	beq	a2,a5,800046bc <putchar+0x34>
800046b2:	40b2                	lw	ra,12(sp)
800046b4:	4422                	lw	s0,8(sp)
800046b6:	4501                	li	a0,0
800046b8:	0141                	addi	sp,sp,16
800046ba:	8082                	ret
800046bc:	41f65693          	srai	a3,a2,0x1f
800046c0:	04020513          	addi	a0,tp,64 # 40 <buf.2810>
800046c4:	4581                	li	a1,0
800046c6:	3f89                	jal	80004618 <syscall.constprop.2>
800046c8:	08022023          	sw	zero,128(tp) # 80 <buflen.2811>
800046cc:	40b2                	lw	ra,12(sp)
800046ce:	4422                	lw	s0,8(sp)
800046d0:	4501                	li	a0,0
800046d2:	0141                	addi	sp,sp,16
800046d4:	8082                	ret

800046d6 <setStats>:
800046d6:	b00027f3          	csrr	a5,mcycle
800046da:	ba418713          	addi	a4,gp,-1116 # 900003a4 <counters>
800046de:	e909                	bnez	a0,800046f0 <setStats+0x1a>
800046e0:	4314                	lw	a3,0(a4)
800046e2:	0fffc617          	auipc	a2,0xfffc
800046e6:	9d260613          	addi	a2,a2,-1582 # 900000b4 <__clzsi2+0xfffa9ba>
800046ea:	b8c1ae23          	sw	a2,-1124(gp) # 9000039c <counter_names>
800046ee:	8f95                	sub	a5,a5,a3
800046f0:	baf1a223          	sw	a5,-1116(gp) # 900003a4 <counters>
800046f4:	b02027f3          	csrr	a5,minstret
800046f8:	e909                	bnez	a0,8000470a <setStats+0x34>
800046fa:	4358                	lw	a4,4(a4)
800046fc:	0fffc697          	auipc	a3,0xfffc
80004700:	9c068693          	addi	a3,a3,-1600 # 900000bc <__clzsi2+0xfffa9c2>
80004704:	bad1a023          	sw	a3,-1120(gp) # 900003a0 <counter_names+0x4>
80004708:	8f99                	sub	a5,a5,a4
8000470a:	baf1a423          	sw	a5,-1112(gp) # 900003a8 <counters+0x4>
8000470e:	8082                	ret

80004710 <tohost_exit>:
80004710:	0506                	slli	a0,a0,0x1
80004712:	ffffd697          	auipc	a3,0xffffd
80004716:	8ee68693          	addi	a3,a3,-1810 # 80001000 <tohost>
8000471a:	00156713          	ori	a4,a0,1
8000471e:	4781                	li	a5,0
80004720:	c298                	sw	a4,0(a3)
80004722:	c2dc                	sw	a5,4(a3)
80004724:	a001                	j	80004724 <tohost_exit+0x14>

80004726 <handle_trap>:
80004726:	6605                	lui	a2,0x1
80004728:	ffffd797          	auipc	a5,0xffffd
8000472c:	8d878793          	addi	a5,a5,-1832 # 80001000 <tohost>
80004730:	a7360613          	addi	a2,a2,-1421 # a73 <_tbss_end+0x9ef>
80004734:	4681                	li	a3,0
80004736:	c390                	sw	a2,0(a5)
80004738:	c3d4                	sw	a3,4(a5)
8000473a:	a001                	j	8000473a <handle_trap+0x14>

8000473c <exit>:
8000473c:	1141                	addi	sp,sp,-16
8000473e:	c606                	sw	ra,12(sp)
80004740:	3fc1                	jal	80004710 <tohost_exit>

80004742 <abort>:
80004742:	ffffd797          	auipc	a5,0xffffd
80004746:	8be78793          	addi	a5,a5,-1858 # 80001000 <tohost>
8000474a:	10d00613          	li	a2,269
8000474e:	4681                	li	a3,0
80004750:	c390                	sw	a2,0(a5)
80004752:	c3d4                	sw	a3,4(a5)
80004754:	a001                	j	80004754 <abort+0x12>

80004756 <printstr>:
80004756:	00054783          	lbu	a5,0(a0)
8000475a:	862a                	mv	a2,a0
8000475c:	cb89                	beqz	a5,8000476e <printstr+0x18>
8000475e:	0605                	addi	a2,a2,1
80004760:	00064783          	lbu	a5,0(a2)
80004764:	ffed                	bnez	a5,8000475e <printstr+0x8>
80004766:	8e09                	sub	a2,a2,a0
80004768:	4681                	li	a3,0
8000476a:	4581                	li	a1,0
8000476c:	b575                	j	80004618 <syscall.constprop.2>
8000476e:	4601                	li	a2,0
80004770:	4681                	li	a3,0
80004772:	4581                	li	a1,0
80004774:	b555                	j	80004618 <syscall.constprop.2>
80004776:	c111                	beqz	a0,8000477a <printstr+0x24>
80004778:	a001                	j	80004778 <printstr+0x22>
8000477a:	8082                	ret

8000477c <printhex>:
8000477c:	7179                	addi	sp,sp,-48
8000477e:	d606                	sw	ra,44(sp)
80004780:	01b10793          	addi	a5,sp,27
80004784:	00b10313          	addi	t1,sp,11
80004788:	48a5                	li	a7,9
8000478a:	00f57693          	andi	a3,a0,15
8000478e:	01c59813          	slli	a6,a1,0x1c
80004792:	8111                	srli	a0,a0,0x4
80004794:	05700613          	li	a2,87
80004798:	0ff6f713          	andi	a4,a3,255
8000479c:	00d8e463          	bltu	a7,a3,800047a4 <printhex+0x28>
800047a0:	03000613          	li	a2,48
800047a4:	9732                	add	a4,a4,a2
800047a6:	00e78023          	sb	a4,0(a5)
800047aa:	17fd                	addi	a5,a5,-1
800047ac:	00a86533          	or	a0,a6,a0
800047b0:	8191                	srli	a1,a1,0x4
800047b2:	fcf31ce3          	bne	t1,a5,8000478a <printhex+0xe>
800047b6:	0068                	addi	a0,sp,12
800047b8:	00010e23          	sb	zero,28(sp)
800047bc:	3f69                	jal	80004756 <printstr>
800047be:	50b2                	lw	ra,44(sp)
800047c0:	6145                	addi	sp,sp,48
800047c2:	8082                	ret

800047c4 <printf>:
800047c4:	7139                	addi	sp,sp,-64
800047c6:	02410313          	addi	t1,sp,36
800047ca:	d22e                	sw	a1,36(sp)
800047cc:	d432                	sw	a2,40(sp)
800047ce:	d636                	sw	a3,44(sp)
800047d0:	862a                	mv	a2,a0
800047d2:	869a                	mv	a3,t1
800047d4:	00000517          	auipc	a0,0x0
800047d8:	eb450513          	addi	a0,a0,-332 # 80004688 <putchar>
800047dc:	4581                	li	a1,0
800047de:	ce06                	sw	ra,28(sp)
800047e0:	d83a                	sw	a4,48(sp)
800047e2:	da3e                	sw	a5,52(sp)
800047e4:	dc42                	sw	a6,56(sp)
800047e6:	de46                	sw	a7,60(sp)
800047e8:	c61a                	sw	t1,12(sp)
800047ea:	34bd                	jal	80004258 <vprintfmt>
800047ec:	40f2                	lw	ra,28(sp)
800047ee:	4501                	li	a0,0
800047f0:	6121                	addi	sp,sp,64
800047f2:	8082                	ret

800047f4 <sprintf>:
800047f4:	715d                	addi	sp,sp,-80
800047f6:	03810313          	addi	t1,sp,56
800047fa:	d422                	sw	s0,40(sp)
800047fc:	c62a                	sw	a0,12(sp)
800047fe:	dc32                	sw	a2,56(sp)
80004800:	de36                	sw	a3,60(sp)
80004802:	842a                	mv	s0,a0
80004804:	862e                	mv	a2,a1
80004806:	00000517          	auipc	a0,0x0
8000480a:	e0450513          	addi	a0,a0,-508 # 8000460a <sprintf_putch.2925>
8000480e:	006c                	addi	a1,sp,12
80004810:	869a                	mv	a3,t1
80004812:	d606                	sw	ra,44(sp)
80004814:	c2be                	sw	a5,68(sp)
80004816:	c0ba                	sw	a4,64(sp)
80004818:	c4c2                	sw	a6,72(sp)
8000481a:	c6c6                	sw	a7,76(sp)
8000481c:	ce1a                	sw	t1,28(sp)
8000481e:	3c2d                	jal	80004258 <vprintfmt>
80004820:	47b2                	lw	a5,12(sp)
80004822:	00078023          	sb	zero,0(a5)
80004826:	4532                	lw	a0,12(sp)
80004828:	50b2                	lw	ra,44(sp)
8000482a:	8d01                	sub	a0,a0,s0
8000482c:	5422                	lw	s0,40(sp)
8000482e:	6161                	addi	sp,sp,80
80004830:	8082                	ret

80004832 <memcpy>:
80004832:	00c5e7b3          	or	a5,a1,a2
80004836:	8fc9                	or	a5,a5,a0
80004838:	8b8d                	andi	a5,a5,3
8000483a:	00c506b3          	add	a3,a0,a2
8000483e:	cf91                	beqz	a5,8000485a <memcpy+0x28>
80004840:	962e                	add	a2,a2,a1
80004842:	87aa                	mv	a5,a0
80004844:	02d57763          	bleu	a3,a0,80004872 <memcpy+0x40>
80004848:	0585                	addi	a1,a1,1
8000484a:	fff5c703          	lbu	a4,-1(a1)
8000484e:	0785                	addi	a5,a5,1
80004850:	fee78fa3          	sb	a4,-1(a5)
80004854:	feb61ae3          	bne	a2,a1,80004848 <memcpy+0x16>
80004858:	8082                	ret
8000485a:	fed57fe3          	bleu	a3,a0,80004858 <memcpy+0x26>
8000485e:	87aa                	mv	a5,a0
80004860:	0591                	addi	a1,a1,4
80004862:	ffc5a703          	lw	a4,-4(a1)
80004866:	0791                	addi	a5,a5,4
80004868:	fee7ae23          	sw	a4,-4(a5)
8000486c:	fed7eae3          	bltu	a5,a3,80004860 <memcpy+0x2e>
80004870:	8082                	ret
80004872:	8082                	ret

80004874 <memset>:
80004874:	00c567b3          	or	a5,a0,a2
80004878:	8b8d                	andi	a5,a5,3
8000487a:	962a                	add	a2,a2,a0
8000487c:	cf81                	beqz	a5,80004894 <memset+0x20>
8000487e:	0ff5f593          	andi	a1,a1,255
80004882:	87aa                	mv	a5,a0
80004884:	02c57963          	bleu	a2,a0,800048b6 <memset+0x42>
80004888:	0785                	addi	a5,a5,1
8000488a:	feb78fa3          	sb	a1,-1(a5)
8000488e:	fef61de3          	bne	a2,a5,80004888 <memset+0x14>
80004892:	8082                	ret
80004894:	0ff5f593          	andi	a1,a1,255
80004898:	00859713          	slli	a4,a1,0x8
8000489c:	8f4d                	or	a4,a4,a1
8000489e:	01071793          	slli	a5,a4,0x10
800048a2:	8f5d                	or	a4,a4,a5
800048a4:	fec577e3          	bleu	a2,a0,80004892 <memset+0x1e>
800048a8:	87aa                	mv	a5,a0
800048aa:	0791                	addi	a5,a5,4
800048ac:	fee7ae23          	sw	a4,-4(a5)
800048b0:	fec7ede3          	bltu	a5,a2,800048aa <memset+0x36>
800048b4:	8082                	ret
800048b6:	8082                	ret

800048b8 <_init>:
800048b8:	7135                	addi	sp,sp,-160
800048ba:	cd22                	sw	s0,152(sp)
800048bc:	cb26                	sw	s1,148(sp)
800048be:	00020493          	mv	s1,tp
800048c2:	00020413          	mv	s0,tp
800048c6:	40848433          	sub	s0,s1,s0
800048ca:	8622                	mv	a2,s0
800048cc:	c74e                	sw	s3,140(sp)
800048ce:	c552                	sw	s4,136(sp)
800048d0:	89aa                	mv	s3,a0
800048d2:	8a2e                	mv	s4,a1
800048d4:	8512                	mv	a0,tp
800048d6:	bc018593          	addi	a1,gp,-1088 # 900003c0 <_end>
800048da:	cf06                	sw	ra,156(sp)
800048dc:	c94a                	sw	s2,144(sp)
800048de:	c356                	sw	s5,132(sp)
800048e0:	8a92                	mv	s5,tp
800048e2:	3f81                	jal	80004832 <memcpy>
800048e4:	08420613          	addi	a2,tp,132 # 84 <_tbss_end>
800048e8:	8e05                	sub	a2,a2,s1
800048ea:	4581                	li	a1,0
800048ec:	008a8533          	add	a0,s5,s0
800048f0:	3751                	jal	80004874 <memset>
800048f2:	85d2                	mv	a1,s4
800048f4:	854e                	mv	a0,s3
800048f6:	d60ff0ef          	jal	ra,80003e56 <thread_entry>
800048fa:	4581                	li	a1,0
800048fc:	4501                	li	a0,0
800048fe:	2225                	jal	80004a26 <main>
80004900:	ba418413          	addi	s0,gp,-1116 # 900003a4 <counters>
80004904:	4014                	lw	a3,0(s0)
80004906:	03f10913          	addi	s2,sp,63
8000490a:	fc097913          	andi	s2,s2,-64
8000490e:	84aa                	mv	s1,a0
80004910:	e695                	bnez	a3,8000493c <_init+0x84>
80004912:	4054                	lw	a3,4(s0)
80004914:	e299                	bnez	a3,8000491a <_init+0x62>
80004916:	8526                	mv	a0,s1
80004918:	3be5                	jal	80004710 <tohost_exit>
8000491a:	844a                	mv	s0,s2
8000491c:	b9c18993          	addi	s3,gp,-1124 # 9000039c <counter_names>
80004920:	0049a603          	lw	a2,4(s3)
80004924:	8522                	mv	a0,s0
80004926:	0fffb597          	auipc	a1,0xfffb
8000492a:	7ba58593          	addi	a1,a1,1978 # 900000e0 <__clzsi2+0xfffa9e6>
8000492e:	35d9                	jal	800047f4 <sprintf>
80004930:	942a                	add	s0,s0,a0
80004932:	fe8902e3          	beq	s2,s0,80004916 <_init+0x5e>
80004936:	854a                	mv	a0,s2
80004938:	3d39                	jal	80004756 <printstr>
8000493a:	bff1                	j	80004916 <_init+0x5e>
8000493c:	b9c18993          	addi	s3,gp,-1124 # 9000039c <counter_names>
80004940:	0009a603          	lw	a2,0(s3)
80004944:	0fffb597          	auipc	a1,0xfffb
80004948:	79c58593          	addi	a1,a1,1948 # 900000e0 <__clzsi2+0xfffa9e6>
8000494c:	854a                	mv	a0,s2
8000494e:	355d                	jal	800047f4 <sprintf>
80004950:	4054                	lw	a3,4(s0)
80004952:	00a90433          	add	s0,s2,a0
80004956:	def1                	beqz	a3,80004932 <_init+0x7a>
80004958:	b7e1                	j	80004920 <_init+0x68>

8000495a <strlen>:
8000495a:	00054783          	lbu	a5,0(a0)
8000495e:	872a                	mv	a4,a0
80004960:	c799                	beqz	a5,8000496e <strlen+0x14>
80004962:	0505                	addi	a0,a0,1
80004964:	00054783          	lbu	a5,0(a0)
80004968:	ffed                	bnez	a5,80004962 <strlen+0x8>
8000496a:	8d19                	sub	a0,a0,a4
8000496c:	8082                	ret
8000496e:	4501                	li	a0,0
80004970:	8082                	ret

80004972 <strnlen>:
80004972:	872a                	mv	a4,a0
80004974:	cd91                	beqz	a1,80004990 <strnlen+0x1e>
80004976:	00054783          	lbu	a5,0(a0)
8000497a:	cb99                	beqz	a5,80004990 <strnlen+0x1e>
8000497c:	95aa                	add	a1,a1,a0
8000497e:	a021                	j	80004986 <strnlen+0x14>
80004980:	00054783          	lbu	a5,0(a0)
80004984:	c781                	beqz	a5,8000498c <strnlen+0x1a>
80004986:	0505                	addi	a0,a0,1
80004988:	feb51ce3          	bne	a0,a1,80004980 <strnlen+0xe>
8000498c:	8d19                	sub	a0,a0,a4
8000498e:	8082                	ret
80004990:	4501                	li	a0,0
80004992:	8082                	ret

80004994 <strcmp>:
80004994:	0505                	addi	a0,a0,1
80004996:	fff54783          	lbu	a5,-1(a0)
8000499a:	0585                	addi	a1,a1,1
8000499c:	fff5c703          	lbu	a4,-1(a1)
800049a0:	c791                	beqz	a5,800049ac <strcmp+0x18>
800049a2:	fee789e3          	beq	a5,a4,80004994 <strcmp>
800049a6:	40e78533          	sub	a0,a5,a4
800049aa:	8082                	ret
800049ac:	4781                	li	a5,0
800049ae:	bfe5                	j	800049a6 <strcmp+0x12>

800049b0 <strcpy>:
800049b0:	87aa                	mv	a5,a0
800049b2:	0585                	addi	a1,a1,1
800049b4:	fff5c703          	lbu	a4,-1(a1)
800049b8:	0785                	addi	a5,a5,1
800049ba:	fee78fa3          	sb	a4,-1(a5)
800049be:	fb75                	bnez	a4,800049b2 <strcpy+0x2>
800049c0:	8082                	ret

800049c2 <atol>:
800049c2:	00054783          	lbu	a5,0(a0)
800049c6:	02000713          	li	a4,32
800049ca:	00e79763          	bne	a5,a4,800049d8 <atol+0x16>
800049ce:	0505                	addi	a0,a0,1
800049d0:	00054783          	lbu	a5,0(a0)
800049d4:	fee78de3          	beq	a5,a4,800049ce <atol+0xc>
800049d8:	fd578713          	addi	a4,a5,-43
800049dc:	0fd77713          	andi	a4,a4,253
800049e0:	c715                	beqz	a4,80004a0c <atol+0x4a>
800049e2:	00054683          	lbu	a3,0(a0)
800049e6:	87aa                	mv	a5,a0
800049e8:	4601                	li	a2,0
800049ea:	ce85                	beqz	a3,80004a22 <atol+0x60>
800049ec:	4501                	li	a0,0
800049ee:	0785                	addi	a5,a5,1
800049f0:	fd068593          	addi	a1,a3,-48
800049f4:	00251713          	slli	a4,a0,0x2
800049f8:	0007c683          	lbu	a3,0(a5)
800049fc:	953a                	add	a0,a0,a4
800049fe:	0506                	slli	a0,a0,0x1
80004a00:	952e                	add	a0,a0,a1
80004a02:	f6f5                	bnez	a3,800049ee <atol+0x2c>
80004a04:	c219                	beqz	a2,80004a0a <atol+0x48>
80004a06:	40a00533          	neg	a0,a0
80004a0a:	8082                	ret
80004a0c:	00154683          	lbu	a3,1(a0)
80004a10:	fd378793          	addi	a5,a5,-45
80004a14:	0017b613          	seqz	a2,a5
80004a18:	00150793          	addi	a5,a0,1
80004a1c:	fae1                	bnez	a3,800049ec <atol+0x2a>
80004a1e:	4501                	li	a0,0
80004a20:	b7d5                	j	80004a04 <atol+0x42>
80004a22:	4501                	li	a0,0
80004a24:	8082                	ret

Disassembly of section .text.startup:

80004a26 <main>:
80004a26:	1141                	addi	sp,sp,-16
80004a28:	0fffb517          	auipc	a0,0xfffb
80004a2c:	6a050513          	addi	a0,a0,1696 # 900000c8 <__clzsi2+0xfffa9ce>
80004a30:	c606                	sw	ra,12(sp)
80004a32:	3315                	jal	80004756 <printstr>
80004a34:	40b2                	lw	ra,12(sp)
80004a36:	557d                	li	a0,-1
80004a38:	0141                	addi	sp,sp,16
80004a3a:	8082                	ret

Disassembly of section .text.__moddi3:

80004a3c <__moddi3>:
80004a3c:	4801                	li	a6,0
80004a3e:	1005cd63          	bltz	a1,80004b58 <__moddi3+0x11c>
80004a42:	0006d963          	bgez	a3,80004a54 <__moddi3+0x18>
80004a46:	40c00633          	neg	a2,a2
80004a4a:	00c037b3          	snez	a5,a2
80004a4e:	40d006b3          	neg	a3,a3
80004a52:	8e9d                	sub	a3,a3,a5
80004a54:	87b6                	mv	a5,a3
80004a56:	88b2                	mv	a7,a2
80004a58:	8e2a                	mv	t3,a0
80004a5a:	8eae                	mv	t4,a1
80004a5c:	e6dd                	bnez	a3,80004b0a <__moddi3+0xce>
80004a5e:	10c5f663          	bleu	a2,a1,80004b6a <__moddi3+0x12e>
80004a62:	6741                	lui	a4,0x10
80004a64:	1ae66a63          	bltu	a2,a4,80004c18 <__moddi3+0x1dc>
80004a68:	010007b7          	lui	a5,0x1000
80004a6c:	36f66963          	bltu	a2,a5,80004dde <__moddi3+0x3a2>
80004a70:	01865693          	srli	a3,a2,0x18
80004a74:	47e1                	li	a5,24
80004a76:	a9418713          	addi	a4,gp,-1388 # 90000294 <__clz_tab>
80004a7a:	9736                	add	a4,a4,a3
80004a7c:	00074683          	lbu	a3,0(a4) # 10000 <_tbss_end+0xff7c>
80004a80:	02000313          	li	t1,32
80004a84:	97b6                	add	a5,a5,a3
80004a86:	40f30333          	sub	t1,t1,a5
80004a8a:	00030c63          	beqz	t1,80004aa2 <__moddi3+0x66>
80004a8e:	006595b3          	sll	a1,a1,t1
80004a92:	00f557b3          	srl	a5,a0,a5
80004a96:	006618b3          	sll	a7,a2,t1
80004a9a:	00b7eeb3          	or	t4,a5,a1
80004a9e:	00651e33          	sll	t3,a0,t1
80004aa2:	0108d613          	srli	a2,a7,0x10
80004aa6:	02ced7b3          	divu	a5,t4,a2
80004aaa:	01089513          	slli	a0,a7,0x10
80004aae:	8141                	srli	a0,a0,0x10
80004ab0:	010e5713          	srli	a4,t3,0x10
80004ab4:	02cef6b3          	remu	a3,t4,a2
80004ab8:	02f507b3          	mul	a5,a0,a5
80004abc:	06c2                	slli	a3,a3,0x10
80004abe:	8f55                	or	a4,a4,a3
80004ac0:	00f77863          	bleu	a5,a4,80004ad0 <__moddi3+0x94>
80004ac4:	9746                	add	a4,a4,a7
80004ac6:	01176563          	bltu	a4,a7,80004ad0 <__moddi3+0x94>
80004aca:	00f77363          	bleu	a5,a4,80004ad0 <__moddi3+0x94>
80004ace:	9746                	add	a4,a4,a7
80004ad0:	8f1d                	sub	a4,a4,a5
80004ad2:	02c756b3          	divu	a3,a4,a2
80004ad6:	010e1793          	slli	a5,t3,0x10
80004ada:	83c1                	srli	a5,a5,0x10
80004adc:	02c77733          	remu	a4,a4,a2
80004ae0:	02d50533          	mul	a0,a0,a3
80004ae4:	0742                	slli	a4,a4,0x10
80004ae6:	8fd9                	or	a5,a5,a4
80004ae8:	10a7e363          	bltu	a5,a0,80004bee <__moddi3+0x1b2>
80004aec:	40a78533          	sub	a0,a5,a0
80004af0:	00655533          	srl	a0,a0,t1
80004af4:	4581                	li	a1,0
80004af6:	00080963          	beqz	a6,80004b08 <__moddi3+0xcc>
80004afa:	40a00533          	neg	a0,a0
80004afe:	00a037b3          	snez	a5,a0
80004b02:	40b005b3          	neg	a1,a1
80004b06:	8d9d                	sub	a1,a1,a5
80004b08:	8082                	ret
80004b0a:	fed5e6e3          	bltu	a1,a3,80004af6 <__moddi3+0xba>
80004b0e:	67c1                	lui	a5,0x10
80004b10:	10f6ed63          	bltu	a3,a5,80004c2a <__moddi3+0x1ee>
80004b14:	010007b7          	lui	a5,0x1000
80004b18:	2af6ef63          	bltu	a3,a5,80004dd6 <__moddi3+0x39a>
80004b1c:	0186d893          	srli	a7,a3,0x18
80004b20:	4761                	li	a4,24
80004b22:	a9418793          	addi	a5,gp,-1388 # 90000294 <__clz_tab>
80004b26:	97c6                	add	a5,a5,a7
80004b28:	0007cf03          	lbu	t5,0(a5) # 1000000 <_tbss_end+0xffff7c>
80004b2c:	02000e13          	li	t3,32
80004b30:	9f3a                	add	t5,t5,a4
80004b32:	41ee0e33          	sub	t3,t3,t5
80004b36:	160e1e63          	bnez	t3,80004cb2 <__moddi3+0x276>
80004b3a:	00b6e563          	bltu	a3,a1,80004b44 <__moddi3+0x108>
80004b3e:	88aa                	mv	a7,a0
80004b40:	00c56963          	bltu	a0,a2,80004b52 <__moddi3+0x116>
80004b44:	40c508b3          	sub	a7,a0,a2
80004b48:	8d95                	sub	a1,a1,a3
80004b4a:	011536b3          	sltu	a3,a0,a7
80004b4e:	40d58eb3          	sub	t4,a1,a3
80004b52:	8546                	mv	a0,a7
80004b54:	85f6                	mv	a1,t4
80004b56:	b745                	j	80004af6 <__moddi3+0xba>
80004b58:	40a00533          	neg	a0,a0
80004b5c:	00a037b3          	snez	a5,a0
80004b60:	40b005b3          	neg	a1,a1
80004b64:	8d9d                	sub	a1,a1,a5
80004b66:	587d                	li	a6,-1
80004b68:	bde9                	j	80004a42 <__moddi3+0x6>
80004b6a:	e601                	bnez	a2,80004b72 <__moddi3+0x136>
80004b6c:	4885                	li	a7,1
80004b6e:	02d8d8b3          	divu	a7,a7,a3
80004b72:	6741                	lui	a4,0x10
80004b74:	08e8e963          	bltu	a7,a4,80004c06 <__moddi3+0x1ca>
80004b78:	010007b7          	lui	a5,0x1000
80004b7c:	24f8e963          	bltu	a7,a5,80004dce <__moddi3+0x392>
80004b80:	0188d693          	srli	a3,a7,0x18
80004b84:	47e1                	li	a5,24
80004b86:	a9418713          	addi	a4,gp,-1388 # 90000294 <__clz_tab>
80004b8a:	9736                	add	a4,a4,a3
80004b8c:	00074703          	lbu	a4,0(a4) # 10000 <_tbss_end+0xff7c>
80004b90:	02000313          	li	t1,32
80004b94:	97ba                	add	a5,a5,a4
80004b96:	40f30333          	sub	t1,t1,a5
80004b9a:	0a031063          	bnez	t1,80004c3a <__moddi3+0x1fe>
80004b9e:	01089e93          	slli	t4,a7,0x10
80004ba2:	411585b3          	sub	a1,a1,a7
80004ba6:	0108d613          	srli	a2,a7,0x10
80004baa:	010ede93          	srli	t4,t4,0x10
80004bae:	010e5713          	srli	a4,t3,0x10
80004bb2:	02c5d6b3          	divu	a3,a1,a2
80004bb6:	02c5f5b3          	remu	a1,a1,a2
80004bba:	03d686b3          	mul	a3,a3,t4
80004bbe:	05c2                	slli	a1,a1,0x10
80004bc0:	8f4d                	or	a4,a4,a1
80004bc2:	00d77763          	bleu	a3,a4,80004bd0 <__moddi3+0x194>
80004bc6:	9746                	add	a4,a4,a7
80004bc8:	01176463          	bltu	a4,a7,80004bd0 <__moddi3+0x194>
80004bcc:	22d76463          	bltu	a4,a3,80004df4 <__moddi3+0x3b8>
80004bd0:	8f15                	sub	a4,a4,a3
80004bd2:	02c75533          	divu	a0,a4,a2
80004bd6:	0e42                	slli	t3,t3,0x10
80004bd8:	010e5e13          	srli	t3,t3,0x10
80004bdc:	02c77733          	remu	a4,a4,a2
80004be0:	03d50533          	mul	a0,a0,t4
80004be4:	0742                	slli	a4,a4,0x10
80004be6:	01c767b3          	or	a5,a4,t3
80004bea:	00a7f863          	bleu	a0,a5,80004bfa <__moddi3+0x1be>
80004bee:	97c6                	add	a5,a5,a7
80004bf0:	0117e563          	bltu	a5,a7,80004bfa <__moddi3+0x1be>
80004bf4:	00a7f363          	bleu	a0,a5,80004bfa <__moddi3+0x1be>
80004bf8:	97c6                	add	a5,a5,a7
80004bfa:	40a78533          	sub	a0,a5,a0
80004bfe:	00655533          	srl	a0,a0,t1
80004c02:	4581                	li	a1,0
80004c04:	bdcd                	j	80004af6 <__moddi3+0xba>
80004c06:	0ff00713          	li	a4,255
80004c0a:	86c6                	mv	a3,a7
80004c0c:	f7177de3          	bleu	a7,a4,80004b86 <__moddi3+0x14a>
80004c10:	0088d693          	srli	a3,a7,0x8
80004c14:	47a1                	li	a5,8
80004c16:	bf85                	j	80004b86 <__moddi3+0x14a>
80004c18:	0ff00713          	li	a4,255
80004c1c:	86b2                	mv	a3,a2
80004c1e:	e4c77ce3          	bleu	a2,a4,80004a76 <__moddi3+0x3a>
80004c22:	00865693          	srli	a3,a2,0x8
80004c26:	47a1                	li	a5,8
80004c28:	b5b9                	j	80004a76 <__moddi3+0x3a>
80004c2a:	0ff00793          	li	a5,255
80004c2e:	1ad7fc63          	bleu	a3,a5,80004de6 <__moddi3+0x3aa>
80004c32:	0086d893          	srli	a7,a3,0x8
80004c36:	4721                	li	a4,8
80004c38:	b5ed                	j	80004b22 <__moddi3+0xe6>
80004c3a:	006898b3          	sll	a7,a7,t1
80004c3e:	00f5d733          	srl	a4,a1,a5
80004c42:	0108d613          	srli	a2,a7,0x10
80004c46:	02c756b3          	divu	a3,a4,a2
80004c4a:	01089e93          	slli	t4,a7,0x10
80004c4e:	00f557b3          	srl	a5,a0,a5
80004c52:	010ede93          	srli	t4,t4,0x10
80004c56:	006595b3          	sll	a1,a1,t1
80004c5a:	8ddd                	or	a1,a1,a5
80004c5c:	0105df13          	srli	t5,a1,0x10
80004c60:	00651e33          	sll	t3,a0,t1
80004c64:	02c77733          	remu	a4,a4,a2
80004c68:	02de87b3          	mul	a5,t4,a3
80004c6c:	01071693          	slli	a3,a4,0x10
80004c70:	01e6e6b3          	or	a3,a3,t5
80004c74:	00f6f863          	bleu	a5,a3,80004c84 <__moddi3+0x248>
80004c78:	96c6                	add	a3,a3,a7
80004c7a:	0116e563          	bltu	a3,a7,80004c84 <__moddi3+0x248>
80004c7e:	00f6f363          	bleu	a5,a3,80004c84 <__moddi3+0x248>
80004c82:	96c6                	add	a3,a3,a7
80004c84:	8e9d                	sub	a3,a3,a5
80004c86:	02c6d733          	divu	a4,a3,a2
80004c8a:	01059793          	slli	a5,a1,0x10
80004c8e:	83c1                	srli	a5,a5,0x10
80004c90:	02c6f6b3          	remu	a3,a3,a2
80004c94:	02ee8733          	mul	a4,t4,a4
80004c98:	01069593          	slli	a1,a3,0x10
80004c9c:	8ddd                	or	a1,a1,a5
80004c9e:	00e5f863          	bleu	a4,a1,80004cae <__moddi3+0x272>
80004ca2:	95c6                	add	a1,a1,a7
80004ca4:	0115e563          	bltu	a1,a7,80004cae <__moddi3+0x272>
80004ca8:	00e5f363          	bleu	a4,a1,80004cae <__moddi3+0x272>
80004cac:	95c6                	add	a1,a1,a7
80004cae:	8d99                	sub	a1,a1,a4
80004cb0:	bdfd                	j	80004bae <__moddi3+0x172>
80004cb2:	01e65333          	srl	t1,a2,t5
80004cb6:	01c696b3          	sll	a3,a3,t3
80004cba:	00d366b3          	or	a3,t1,a3
80004cbe:	01e5d8b3          	srl	a7,a1,t5
80004cc2:	0106d713          	srli	a4,a3,0x10
80004cc6:	02e8d333          	divu	t1,a7,a4
80004cca:	01069f93          	slli	t6,a3,0x10
80004cce:	010fdf93          	srli	t6,t6,0x10
80004cd2:	01e557b3          	srl	a5,a0,t5
80004cd6:	01c595b3          	sll	a1,a1,t3
80004cda:	8ddd                	or	a1,a1,a5
80004cdc:	0105d293          	srli	t0,a1,0x10
80004ce0:	01c617b3          	sll	a5,a2,t3
80004ce4:	01c51533          	sll	a0,a0,t3
80004ce8:	02e8f8b3          	remu	a7,a7,a4
80004cec:	026f8eb3          	mul	t4,t6,t1
80004cf0:	08c2                	slli	a7,a7,0x10
80004cf2:	0058e633          	or	a2,a7,t0
80004cf6:	01d67b63          	bleu	t4,a2,80004d0c <__moddi3+0x2d0>
80004cfa:	9636                	add	a2,a2,a3
80004cfc:	fff30893          	addi	a7,t1,-1
80004d00:	0ed66863          	bltu	a2,a3,80004df0 <__moddi3+0x3b4>
80004d04:	0fd67663          	bleu	t4,a2,80004df0 <__moddi3+0x3b4>
80004d08:	1379                	addi	t1,t1,-2
80004d0a:	9636                	add	a2,a2,a3
80004d0c:	41d60633          	sub	a2,a2,t4
80004d10:	02e658b3          	divu	a7,a2,a4
80004d14:	05c2                	slli	a1,a1,0x10
80004d16:	81c1                	srli	a1,a1,0x10
80004d18:	02e67633          	remu	a2,a2,a4
80004d1c:	031f8fb3          	mul	t6,t6,a7
80004d20:	01061713          	slli	a4,a2,0x10
80004d24:	8f4d                	or	a4,a4,a1
80004d26:	01f77b63          	bleu	t6,a4,80004d3c <__moddi3+0x300>
80004d2a:	9736                	add	a4,a4,a3
80004d2c:	fff88613          	addi	a2,a7,-1
80004d30:	0ad76e63          	bltu	a4,a3,80004dec <__moddi3+0x3b0>
80004d34:	0bf77c63          	bleu	t6,a4,80004dec <__moddi3+0x3b0>
80004d38:	18f9                	addi	a7,a7,-2
80004d3a:	9736                	add	a4,a4,a3
80004d3c:	0342                	slli	t1,t1,0x10
80004d3e:	63c1                	lui	t2,0x10
80004d40:	01136333          	or	t1,t1,a7
80004d44:	fff38893          	addi	a7,t2,-1 # ffff <_tbss_end+0xff7b>
80004d48:	01137eb3          	and	t4,t1,a7
80004d4c:	0107d593          	srli	a1,a5,0x10
80004d50:	01035313          	srli	t1,t1,0x10
80004d54:	0117f8b3          	and	a7,a5,a7
80004d58:	031e82b3          	mul	t0,t4,a7
80004d5c:	41f70733          	sub	a4,a4,t6
80004d60:	031308b3          	mul	a7,t1,a7
80004d64:	0102d613          	srli	a2,t0,0x10
80004d68:	02be8eb3          	mul	t4,t4,a1
80004d6c:	9ec6                	add	t4,t4,a7
80004d6e:	9676                	add	a2,a2,t4
80004d70:	02b30333          	mul	t1,t1,a1
80004d74:	01167363          	bleu	a7,a2,80004d7a <__moddi3+0x33e>
80004d78:	931e                	add	t1,t1,t2
80004d7a:	68c1                	lui	a7,0x10
80004d7c:	18fd                	addi	a7,a7,-1
80004d7e:	01065593          	srli	a1,a2,0x10
80004d82:	01167633          	and	a2,a2,a7
80004d86:	0642                	slli	a2,a2,0x10
80004d88:	0112f2b3          	and	t0,t0,a7
80004d8c:	932e                	add	t1,t1,a1
80004d8e:	9616                	add	a2,a2,t0
80004d90:	00676863          	bltu	a4,t1,80004da0 <__moddi3+0x364>
80004d94:	06670263          	beq	a4,t1,80004df8 <__moddi3+0x3bc>
80004d98:	406705b3          	sub	a1,a4,t1
80004d9c:	87b2                	mv	a5,a2
80004d9e:	a811                	j	80004db2 <__moddi3+0x376>
80004da0:	40f607b3          	sub	a5,a2,a5
80004da4:	40d305b3          	sub	a1,t1,a3
80004da8:	00f63633          	sltu	a2,a2,a5
80004dac:	8d91                	sub	a1,a1,a2
80004dae:	40b705b3          	sub	a1,a4,a1
80004db2:	40f507b3          	sub	a5,a0,a5
80004db6:	00f53533          	sltu	a0,a0,a5
80004dba:	8d89                	sub	a1,a1,a0
80004dbc:	01e59f33          	sll	t5,a1,t5
80004dc0:	01c7d533          	srl	a0,a5,t3
80004dc4:	00af6533          	or	a0,t5,a0
80004dc8:	01c5d5b3          	srl	a1,a1,t3
80004dcc:	b32d                	j	80004af6 <__moddi3+0xba>
80004dce:	0108d693          	srli	a3,a7,0x10
80004dd2:	47c1                	li	a5,16
80004dd4:	bb4d                	j	80004b86 <__moddi3+0x14a>
80004dd6:	0106d893          	srli	a7,a3,0x10
80004dda:	4741                	li	a4,16
80004ddc:	b399                	j	80004b22 <__moddi3+0xe6>
80004dde:	01065693          	srli	a3,a2,0x10
80004de2:	47c1                	li	a5,16
80004de4:	b949                	j	80004a76 <__moddi3+0x3a>
80004de6:	88b6                	mv	a7,a3
80004de8:	4701                	li	a4,0
80004dea:	bb25                	j	80004b22 <__moddi3+0xe6>
80004dec:	88b2                	mv	a7,a2
80004dee:	b7b9                	j	80004d3c <__moddi3+0x300>
80004df0:	8346                	mv	t1,a7
80004df2:	bf29                	j	80004d0c <__moddi3+0x2d0>
80004df4:	9746                	add	a4,a4,a7
80004df6:	bbe9                	j	80004bd0 <__moddi3+0x194>
80004df8:	fac564e3          	bltu	a0,a2,80004da0 <__moddi3+0x364>
80004dfc:	87b2                	mv	a5,a2
80004dfe:	4581                	li	a1,0
80004e00:	bf4d                	j	80004db2 <__moddi3+0x376>

Disassembly of section .text.__udivdi3:

80004e02 <__udivdi3>:
80004e02:	87b6                	mv	a5,a3
80004e04:	88b2                	mv	a7,a2
80004e06:	832a                	mv	t1,a0
80004e08:	882e                	mv	a6,a1
80004e0a:	e6dd                	bnez	a3,80004eb8 <__udivdi3+0xb6>
80004e0c:	0ec5f663          	bleu	a2,a1,80004ef8 <__udivdi3+0xf6>
80004e10:	6741                	lui	a4,0x10
80004e12:	1ae66863          	bltu	a2,a4,80004fc2 <__udivdi3+0x1c0>
80004e16:	010007b7          	lui	a5,0x1000
80004e1a:	34f66463          	bltu	a2,a5,80005162 <__udivdi3+0x360>
80004e1e:	01865693          	srli	a3,a2,0x18
80004e22:	47e1                	li	a5,24
80004e24:	a9418713          	addi	a4,gp,-1388 # 90000294 <__clz_tab>
80004e28:	9736                	add	a4,a4,a3
80004e2a:	00074703          	lbu	a4,0(a4) # 10000 <_tbss_end+0xff7c>
80004e2e:	97ba                	add	a5,a5,a4
80004e30:	02000713          	li	a4,32
80004e34:	8f1d                	sub	a4,a4,a5
80004e36:	cb19                	beqz	a4,80004e4c <__udivdi3+0x4a>
80004e38:	00e59833          	sll	a6,a1,a4
80004e3c:	00f557b3          	srl	a5,a0,a5
80004e40:	00e618b3          	sll	a7,a2,a4
80004e44:	0107e833          	or	a6,a5,a6
80004e48:	00e51333          	sll	t1,a0,a4
80004e4c:	0108d613          	srli	a2,a7,0x10
80004e50:	02c85533          	divu	a0,a6,a2
80004e54:	01089693          	slli	a3,a7,0x10
80004e58:	82c1                	srli	a3,a3,0x10
80004e5a:	01035793          	srli	a5,t1,0x10
80004e5e:	02c87733          	remu	a4,a6,a2
80004e62:	02a685b3          	mul	a1,a3,a0
80004e66:	0742                	slli	a4,a4,0x10
80004e68:	00f76833          	or	a6,a4,a5
80004e6c:	00b87a63          	bleu	a1,a6,80004e80 <__udivdi3+0x7e>
80004e70:	9846                	add	a6,a6,a7
80004e72:	fff50793          	addi	a5,a0,-1
80004e76:	01186463          	bltu	a6,a7,80004e7e <__udivdi3+0x7c>
80004e7a:	30b86963          	bltu	a6,a1,8000518c <__udivdi3+0x38a>
80004e7e:	853e                	mv	a0,a5
80004e80:	40b80833          	sub	a6,a6,a1
80004e84:	02c85733          	divu	a4,a6,a2
80004e88:	0342                	slli	t1,t1,0x10
80004e8a:	01035313          	srli	t1,t1,0x10
80004e8e:	02c87833          	remu	a6,a6,a2
80004e92:	02e686b3          	mul	a3,a3,a4
80004e96:	0842                	slli	a6,a6,0x10
80004e98:	00686833          	or	a6,a6,t1
80004e9c:	00d87a63          	bleu	a3,a6,80004eb0 <__udivdi3+0xae>
80004ea0:	9846                	add	a6,a6,a7
80004ea2:	fff70793          	addi	a5,a4,-1
80004ea6:	13186763          	bltu	a6,a7,80004fd4 <__udivdi3+0x1d2>
80004eaa:	1779                	addi	a4,a4,-2
80004eac:	12d87463          	bleu	a3,a6,80004fd4 <__udivdi3+0x1d2>
80004eb0:	0542                	slli	a0,a0,0x10
80004eb2:	8d59                	or	a0,a0,a4
80004eb4:	4581                	li	a1,0
80004eb6:	8082                	ret
80004eb8:	0ed5e163          	bltu	a1,a3,80004f9a <__udivdi3+0x198>
80004ebc:	67c1                	lui	a5,0x10
80004ebe:	0ef6e163          	bltu	a3,a5,80004fa0 <__udivdi3+0x19e>
80004ec2:	010007b7          	lui	a5,0x1000
80004ec6:	28f6e363          	bltu	a3,a5,8000514c <__udivdi3+0x34a>
80004eca:	0186d713          	srli	a4,a3,0x18
80004ece:	4861                	li	a6,24
80004ed0:	a9418793          	addi	a5,gp,-1388 # 90000294 <__clz_tab>
80004ed4:	97ba                	add	a5,a5,a4
80004ed6:	0007c703          	lbu	a4,0(a5) # 1000000 <_tbss_end+0xffff7c>
80004eda:	02000793          	li	a5,32
80004ede:	9742                	add	a4,a4,a6
80004ee0:	40e78333          	sub	t1,a5,a4
80004ee4:	0e031c63          	bnez	t1,80004fdc <__udivdi3+0x1da>
80004ee8:	28b6e163          	bltu	a3,a1,8000516a <__udivdi3+0x368>
80004eec:	00c53533          	sltu	a0,a0,a2
80004ef0:	00154513          	xori	a0,a0,1
80004ef4:	4581                	li	a1,0
80004ef6:	8082                	ret
80004ef8:	e601                	bnez	a2,80004f00 <__udivdi3+0xfe>
80004efa:	4705                	li	a4,1
80004efc:	02c758b3          	divu	a7,a4,a2
80004f00:	6741                	lui	a4,0x10
80004f02:	0ae8e763          	bltu	a7,a4,80004fb0 <__udivdi3+0x1ae>
80004f06:	010007b7          	lui	a5,0x1000
80004f0a:	24f8e863          	bltu	a7,a5,8000515a <__udivdi3+0x358>
80004f0e:	0188d693          	srli	a3,a7,0x18
80004f12:	47e1                	li	a5,24
80004f14:	a9418713          	addi	a4,gp,-1388 # 90000294 <__clz_tab>
80004f18:	9736                	add	a4,a4,a3
80004f1a:	00074683          	lbu	a3,0(a4) # 10000 <_tbss_end+0xff7c>
80004f1e:	02000f93          	li	t6,32
80004f22:	96be                	add	a3,a3,a5
80004f24:	40df8fb3          	sub	t6,t6,a3
80004f28:	160f9e63          	bnez	t6,800050a4 <__udivdi3+0x2a2>
80004f2c:	01089e93          	slli	t4,a7,0x10
80004f30:	41158733          	sub	a4,a1,a7
80004f34:	0108df13          	srli	t5,a7,0x10
80004f38:	010ede93          	srli	t4,t4,0x10
80004f3c:	4585                	li	a1,1
80004f3e:	01035793          	srli	a5,t1,0x10
80004f42:	03e75533          	divu	a0,a4,t5
80004f46:	03e77733          	remu	a4,a4,t5
80004f4a:	03d506b3          	mul	a3,a0,t4
80004f4e:	0742                	slli	a4,a4,0x10
80004f50:	8fd9                	or	a5,a5,a4
80004f52:	00d7fa63          	bleu	a3,a5,80004f66 <__udivdi3+0x164>
80004f56:	97c6                	add	a5,a5,a7
80004f58:	fff50713          	addi	a4,a0,-1
80004f5c:	0117e463          	bltu	a5,a7,80004f64 <__udivdi3+0x162>
80004f60:	22d7e963          	bltu	a5,a3,80005192 <__udivdi3+0x390>
80004f64:	853a                	mv	a0,a4
80004f66:	8f95                	sub	a5,a5,a3
80004f68:	03e7d633          	divu	a2,a5,t5
80004f6c:	0342                	slli	t1,t1,0x10
80004f6e:	01035313          	srli	t1,t1,0x10
80004f72:	03e7f7b3          	remu	a5,a5,t5
80004f76:	03d60eb3          	mul	t4,a2,t4
80004f7a:	07c2                	slli	a5,a5,0x10
80004f7c:	0067e7b3          	or	a5,a5,t1
80004f80:	01d7fa63          	bleu	t4,a5,80004f94 <__udivdi3+0x192>
80004f84:	97c6                	add	a5,a5,a7
80004f86:	fff60713          	addi	a4,a2,-1
80004f8a:	0517e763          	bltu	a5,a7,80004fd8 <__udivdi3+0x1d6>
80004f8e:	1679                	addi	a2,a2,-2
80004f90:	05d7f463          	bleu	t4,a5,80004fd8 <__udivdi3+0x1d6>
80004f94:	0542                	slli	a0,a0,0x10
80004f96:	8d51                	or	a0,a0,a2
80004f98:	8082                	ret
80004f9a:	4581                	li	a1,0
80004f9c:	4501                	li	a0,0
80004f9e:	8082                	ret
80004fa0:	0ff00793          	li	a5,255
80004fa4:	1ad7f863          	bleu	a3,a5,80005154 <__udivdi3+0x352>
80004fa8:	0086d713          	srli	a4,a3,0x8
80004fac:	4821                	li	a6,8
80004fae:	b70d                	j	80004ed0 <__udivdi3+0xce>
80004fb0:	0ff00713          	li	a4,255
80004fb4:	86c6                	mv	a3,a7
80004fb6:	f5177fe3          	bleu	a7,a4,80004f14 <__udivdi3+0x112>
80004fba:	0088d693          	srli	a3,a7,0x8
80004fbe:	47a1                	li	a5,8
80004fc0:	bf91                	j	80004f14 <__udivdi3+0x112>
80004fc2:	0ff00713          	li	a4,255
80004fc6:	86b2                	mv	a3,a2
80004fc8:	e4c77ee3          	bleu	a2,a4,80004e24 <__udivdi3+0x22>
80004fcc:	00865693          	srli	a3,a2,0x8
80004fd0:	47a1                	li	a5,8
80004fd2:	bd89                	j	80004e24 <__udivdi3+0x22>
80004fd4:	873e                	mv	a4,a5
80004fd6:	bde9                	j	80004eb0 <__udivdi3+0xae>
80004fd8:	863a                	mv	a2,a4
80004fda:	bf6d                	j	80004f94 <__udivdi3+0x192>
80004fdc:	00e657b3          	srl	a5,a2,a4
80004fe0:	006696b3          	sll	a3,a3,t1
80004fe4:	8edd                	or	a3,a3,a5
80004fe6:	00e5d8b3          	srl	a7,a1,a4
80004fea:	0106df13          	srli	t5,a3,0x10
80004fee:	03e8deb3          	divu	t4,a7,t5
80004ff2:	01069e13          	slli	t3,a3,0x10
80004ff6:	010e5e13          	srli	t3,t3,0x10
80004ffa:	00659833          	sll	a6,a1,t1
80004ffe:	00e55733          	srl	a4,a0,a4
80005002:	01076833          	or	a6,a4,a6
80005006:	01085793          	srli	a5,a6,0x10
8000500a:	00661633          	sll	a2,a2,t1
8000500e:	03e8f8b3          	remu	a7,a7,t5
80005012:	03de05b3          	mul	a1,t3,t4
80005016:	08c2                	slli	a7,a7,0x10
80005018:	00f8e7b3          	or	a5,a7,a5
8000501c:	00b7f863          	bleu	a1,a5,8000502c <__udivdi3+0x22a>
80005020:	97b6                	add	a5,a5,a3
80005022:	fffe8713          	addi	a4,t4,-1
80005026:	14d7fa63          	bleu	a3,a5,8000517a <__udivdi3+0x378>
8000502a:	8eba                	mv	t4,a4
8000502c:	8f8d                	sub	a5,a5,a1
8000502e:	03e7d733          	divu	a4,a5,t5
80005032:	0842                	slli	a6,a6,0x10
80005034:	01085813          	srli	a6,a6,0x10
80005038:	03e7f7b3          	remu	a5,a5,t5
8000503c:	02ee08b3          	mul	a7,t3,a4
80005040:	07c2                	slli	a5,a5,0x10
80005042:	0107e5b3          	or	a1,a5,a6
80005046:	0115f863          	bleu	a7,a1,80005056 <__udivdi3+0x254>
8000504a:	95b6                	add	a1,a1,a3
8000504c:	fff70793          	addi	a5,a4,-1
80005050:	12d5f063          	bleu	a3,a1,80005170 <__udivdi3+0x36e>
80005054:	873e                	mv	a4,a5
80005056:	0ec2                	slli	t4,t4,0x10
80005058:	6f41                	lui	t5,0x10
8000505a:	00eeeeb3          	or	t4,t4,a4
8000505e:	ffff0793          	addi	a5,t5,-1 # ffff <_tbss_end+0xff7b>
80005062:	00fef733          	and	a4,t4,a5
80005066:	010ed813          	srli	a6,t4,0x10
8000506a:	8ff1                	and	a5,a5,a2
8000506c:	8241                	srli	a2,a2,0x10
8000506e:	02f70e33          	mul	t3,a4,a5
80005072:	411585b3          	sub	a1,a1,a7
80005076:	02c70733          	mul	a4,a4,a2
8000507a:	010e5693          	srli	a3,t3,0x10
8000507e:	02f807b3          	mul	a5,a6,a5
80005082:	973e                	add	a4,a4,a5
80005084:	9736                	add	a4,a4,a3
80005086:	02c80633          	mul	a2,a6,a2
8000508a:	00f77363          	bleu	a5,a4,80005090 <__udivdi3+0x28e>
8000508e:	967a                	add	a2,a2,t5
80005090:	01075813          	srli	a6,a4,0x10
80005094:	9642                	add	a2,a2,a6
80005096:	0ac5e763          	bltu	a1,a2,80005144 <__udivdi3+0x342>
8000509a:	08c58a63          	beq	a1,a2,8000512e <__udivdi3+0x32c>
8000509e:	8576                	mv	a0,t4
800050a0:	4581                	li	a1,0
800050a2:	8082                	ret
800050a4:	01f898b3          	sll	a7,a7,t6
800050a8:	00d5d633          	srl	a2,a1,a3
800050ac:	0108df13          	srli	t5,a7,0x10
800050b0:	03e65e33          	divu	t3,a2,t5
800050b4:	00d557b3          	srl	a5,a0,a3
800050b8:	01089e93          	slli	t4,a7,0x10
800050bc:	01f59733          	sll	a4,a1,t6
800050c0:	010ede93          	srli	t4,t4,0x10
800050c4:	8f5d                	or	a4,a4,a5
800050c6:	01075593          	srli	a1,a4,0x10
800050ca:	01f51333          	sll	t1,a0,t6
800050ce:	03e676b3          	remu	a3,a2,t5
800050d2:	03ce87b3          	mul	a5,t4,t3
800050d6:	06c2                	slli	a3,a3,0x10
800050d8:	8ecd                	or	a3,a3,a1
800050da:	00f6fb63          	bleu	a5,a3,800050f0 <__udivdi3+0x2ee>
800050de:	96c6                	add	a3,a3,a7
800050e0:	fffe0613          	addi	a2,t3,-1
800050e4:	0b16e263          	bltu	a3,a7,80005188 <__udivdi3+0x386>
800050e8:	0af6f063          	bleu	a5,a3,80005188 <__udivdi3+0x386>
800050ec:	1e79                	addi	t3,t3,-2
800050ee:	96c6                	add	a3,a3,a7
800050f0:	8e9d                	sub	a3,a3,a5
800050f2:	03e6d7b3          	divu	a5,a3,t5
800050f6:	01071813          	slli	a6,a4,0x10
800050fa:	01085813          	srli	a6,a6,0x10
800050fe:	03e6f6b3          	remu	a3,a3,t5
80005102:	02fe8633          	mul	a2,t4,a5
80005106:	01069713          	slli	a4,a3,0x10
8000510a:	01076733          	or	a4,a4,a6
8000510e:	00c77b63          	bleu	a2,a4,80005124 <__udivdi3+0x322>
80005112:	9746                	add	a4,a4,a7
80005114:	fff78693          	addi	a3,a5,-1 # ffffff <_tbss_end+0xffff7b>
80005118:	07176663          	bltu	a4,a7,80005184 <__udivdi3+0x382>
8000511c:	06c77463          	bleu	a2,a4,80005184 <__udivdi3+0x382>
80005120:	17f9                	addi	a5,a5,-2
80005122:	9746                	add	a4,a4,a7
80005124:	010e1593          	slli	a1,t3,0x10
80005128:	8f11                	sub	a4,a4,a2
8000512a:	8ddd                	or	a1,a1,a5
8000512c:	bd09                	j	80004f3e <__udivdi3+0x13c>
8000512e:	67c1                	lui	a5,0x10
80005130:	17fd                	addi	a5,a5,-1
80005132:	8f7d                	and	a4,a4,a5
80005134:	00fe7e33          	and	t3,t3,a5
80005138:	0742                	slli	a4,a4,0x10
8000513a:	006517b3          	sll	a5,a0,t1
8000513e:	9772                	add	a4,a4,t3
80005140:	f4e7ffe3          	bleu	a4,a5,8000509e <__udivdi3+0x29c>
80005144:	fffe8513          	addi	a0,t4,-1
80005148:	4581                	li	a1,0
8000514a:	8082                	ret
8000514c:	0106d713          	srli	a4,a3,0x10
80005150:	4841                	li	a6,16
80005152:	bbbd                	j	80004ed0 <__udivdi3+0xce>
80005154:	8736                	mv	a4,a3
80005156:	4801                	li	a6,0
80005158:	bba5                	j	80004ed0 <__udivdi3+0xce>
8000515a:	0108d693          	srli	a3,a7,0x10
8000515e:	47c1                	li	a5,16
80005160:	bb55                	j	80004f14 <__udivdi3+0x112>
80005162:	01065693          	srli	a3,a2,0x10
80005166:	47c1                	li	a5,16
80005168:	b975                	j	80004e24 <__udivdi3+0x22>
8000516a:	4581                	li	a1,0
8000516c:	4505                	li	a0,1
8000516e:	8082                	ret
80005170:	ef15f2e3          	bleu	a7,a1,80005054 <__udivdi3+0x252>
80005174:	1779                	addi	a4,a4,-2
80005176:	95b6                	add	a1,a1,a3
80005178:	bdf9                	j	80005056 <__udivdi3+0x254>
8000517a:	eab7f8e3          	bleu	a1,a5,8000502a <__udivdi3+0x228>
8000517e:	1ef9                	addi	t4,t4,-2
80005180:	97b6                	add	a5,a5,a3
80005182:	b56d                	j	8000502c <__udivdi3+0x22a>
80005184:	87b6                	mv	a5,a3
80005186:	bf79                	j	80005124 <__udivdi3+0x322>
80005188:	8e32                	mv	t3,a2
8000518a:	b79d                	j	800050f0 <__udivdi3+0x2ee>
8000518c:	1579                	addi	a0,a0,-2
8000518e:	9846                	add	a6,a6,a7
80005190:	b9c5                	j	80004e80 <__udivdi3+0x7e>
80005192:	1579                	addi	a0,a0,-2
80005194:	97c6                	add	a5,a5,a7
80005196:	bbc1                	j	80004f66 <__udivdi3+0x164>

Disassembly of section .text.__umoddi3:

80005198 <__umoddi3>:
80005198:	87b6                	mv	a5,a3
8000519a:	8832                	mv	a6,a2
8000519c:	832a                	mv	t1,a0
8000519e:	8e2e                	mv	t3,a1
800051a0:	e6c5                	bnez	a3,80005248 <__umoddi3+0xb0>
800051a2:	0ec5fa63          	bleu	a2,a1,80005296 <__umoddi3+0xfe>
800051a6:	6741                	lui	a4,0x10
800051a8:	18e67c63          	bleu	a4,a2,80005340 <__umoddi3+0x1a8>
800051ac:	0ff00713          	li	a4,255
800051b0:	86b2                	mv	a3,a2
800051b2:	00c77563          	bleu	a2,a4,800051bc <__umoddi3+0x24>
800051b6:	00865693          	srli	a3,a2,0x8
800051ba:	47a1                	li	a5,8
800051bc:	a9418713          	addi	a4,gp,-1388 # 90000294 <__clz_tab>
800051c0:	9736                	add	a4,a4,a3
800051c2:	00074683          	lbu	a3,0(a4) # 10000 <_tbss_end+0xff7c>
800051c6:	02000893          	li	a7,32
800051ca:	97b6                	add	a5,a5,a3
800051cc:	40f888b3          	sub	a7,a7,a5
800051d0:	00088c63          	beqz	a7,800051e8 <__umoddi3+0x50>
800051d4:	011595b3          	sll	a1,a1,a7
800051d8:	00f557b3          	srl	a5,a0,a5
800051dc:	01161833          	sll	a6,a2,a7
800051e0:	00b7ee33          	or	t3,a5,a1
800051e4:	01151333          	sll	t1,a0,a7
800051e8:	01085613          	srli	a2,a6,0x10
800051ec:	02ce57b3          	divu	a5,t3,a2
800051f0:	01081513          	slli	a0,a6,0x10
800051f4:	8141                	srli	a0,a0,0x10
800051f6:	01035713          	srli	a4,t1,0x10
800051fa:	02ce76b3          	remu	a3,t3,a2
800051fe:	02f507b3          	mul	a5,a0,a5
80005202:	06c2                	slli	a3,a3,0x10
80005204:	8f55                	or	a4,a4,a3
80005206:	00f77763          	bleu	a5,a4,80005214 <__umoddi3+0x7c>
8000520a:	9742                	add	a4,a4,a6
8000520c:	01076463          	bltu	a4,a6,80005214 <__umoddi3+0x7c>
80005210:	2ef76d63          	bltu	a4,a5,8000550a <__umoddi3+0x372>
80005214:	8f1d                	sub	a4,a4,a5
80005216:	02c756b3          	divu	a3,a4,a2
8000521a:	01031793          	slli	a5,t1,0x10
8000521e:	83c1                	srli	a5,a5,0x10
80005220:	02c77733          	remu	a4,a4,a2
80005224:	02d50533          	mul	a0,a0,a3
80005228:	0742                	slli	a4,a4,0x10
8000522a:	8fd9                	or	a5,a5,a4
8000522c:	00a7f863          	bleu	a0,a5,8000523c <__umoddi3+0xa4>
80005230:	97c2                	add	a5,a5,a6
80005232:	0107e563          	bltu	a5,a6,8000523c <__umoddi3+0xa4>
80005236:	00a7f363          	bleu	a0,a5,8000523c <__umoddi3+0xa4>
8000523a:	97c2                	add	a5,a5,a6
8000523c:	40a78533          	sub	a0,a5,a0
80005240:	01155533          	srl	a0,a0,a7
80005244:	4581                	li	a1,0
80005246:	8082                	ret
80005248:	fed5efe3          	bltu	a1,a3,80005246 <__umoddi3+0xae>
8000524c:	67c1                	lui	a5,0x10
8000524e:	0cf6e863          	bltu	a3,a5,8000531e <__umoddi3+0x186>
80005252:	010007b7          	lui	a5,0x1000
80005256:	28f6e163          	bltu	a3,a5,800054d8 <__umoddi3+0x340>
8000525a:	0186d813          	srli	a6,a3,0x18
8000525e:	4761                	li	a4,24
80005260:	a9418793          	addi	a5,gp,-1388 # 90000294 <__clz_tab>
80005264:	97c2                	add	a5,a5,a6
80005266:	0007ce83          	lbu	t4,0(a5) # 1000000 <_tbss_end+0xffff7c>
8000526a:	02000313          	li	t1,32
8000526e:	9eba                	add	t4,t4,a4
80005270:	41d30333          	sub	t1,t1,t4
80005274:	0c031e63          	bnez	t1,80005350 <__umoddi3+0x1b8>
80005278:	00b6e563          	bltu	a3,a1,80005282 <__umoddi3+0xea>
8000527c:	882a                	mv	a6,a0
8000527e:	00c56963          	bltu	a0,a2,80005290 <__umoddi3+0xf8>
80005282:	40c50833          	sub	a6,a0,a2
80005286:	8d95                	sub	a1,a1,a3
80005288:	010536b3          	sltu	a3,a0,a6
8000528c:	40d58e33          	sub	t3,a1,a3
80005290:	8542                	mv	a0,a6
80005292:	85f2                	mv	a1,t3
80005294:	8082                	ret
80005296:	e601                	bnez	a2,8000529e <__umoddi3+0x106>
80005298:	4705                	li	a4,1
8000529a:	02c75833          	divu	a6,a4,a2
8000529e:	6741                	lui	a4,0x10
800052a0:	08e86763          	bltu	a6,a4,8000532e <__umoddi3+0x196>
800052a4:	010007b7          	lui	a5,0x1000
800052a8:	22f86f63          	bltu	a6,a5,800054e6 <__umoddi3+0x34e>
800052ac:	01885693          	srli	a3,a6,0x18
800052b0:	47e1                	li	a5,24
800052b2:	a9418713          	addi	a4,gp,-1388 # 90000294 <__clz_tab>
800052b6:	9736                	add	a4,a4,a3
800052b8:	00074703          	lbu	a4,0(a4) # 10000 <_tbss_end+0xff7c>
800052bc:	02000893          	li	a7,32
800052c0:	97ba                	add	a5,a5,a4
800052c2:	40f888b3          	sub	a7,a7,a5
800052c6:	16089663          	bnez	a7,80005432 <__umoddi3+0x29a>
800052ca:	01081e13          	slli	t3,a6,0x10
800052ce:	410585b3          	sub	a1,a1,a6
800052d2:	01085613          	srli	a2,a6,0x10
800052d6:	010e5e13          	srli	t3,t3,0x10
800052da:	01035713          	srli	a4,t1,0x10
800052de:	02c5d6b3          	divu	a3,a1,a2
800052e2:	02c5f5b3          	remu	a1,a1,a2
800052e6:	03c686b3          	mul	a3,a3,t3
800052ea:	05c2                	slli	a1,a1,0x10
800052ec:	8f4d                	or	a4,a4,a1
800052ee:	00d77863          	bleu	a3,a4,800052fe <__umoddi3+0x166>
800052f2:	9742                	add	a4,a4,a6
800052f4:	01076563          	bltu	a4,a6,800052fe <__umoddi3+0x166>
800052f8:	00d77363          	bleu	a3,a4,800052fe <__umoddi3+0x166>
800052fc:	9742                	add	a4,a4,a6
800052fe:	8f15                	sub	a4,a4,a3
80005300:	02c75533          	divu	a0,a4,a2
80005304:	0342                	slli	t1,t1,0x10
80005306:	01035313          	srli	t1,t1,0x10
8000530a:	02c77733          	remu	a4,a4,a2
8000530e:	03c50533          	mul	a0,a0,t3
80005312:	0742                	slli	a4,a4,0x10
80005314:	006767b3          	or	a5,a4,t1
80005318:	f2a7f2e3          	bleu	a0,a5,8000523c <__umoddi3+0xa4>
8000531c:	bf11                	j	80005230 <__umoddi3+0x98>
8000531e:	0ff00793          	li	a5,255
80005322:	1ad7ff63          	bleu	a3,a5,800054e0 <__umoddi3+0x348>
80005326:	0086d813          	srli	a6,a3,0x8
8000532a:	4721                	li	a4,8
8000532c:	bf15                	j	80005260 <__umoddi3+0xc8>
8000532e:	0ff00713          	li	a4,255
80005332:	86c2                	mv	a3,a6
80005334:	f7077fe3          	bleu	a6,a4,800052b2 <__umoddi3+0x11a>
80005338:	00885693          	srli	a3,a6,0x8
8000533c:	47a1                	li	a5,8
8000533e:	bf95                	j	800052b2 <__umoddi3+0x11a>
80005340:	010007b7          	lui	a5,0x1000
80005344:	1af66563          	bltu	a2,a5,800054ee <__umoddi3+0x356>
80005348:	01865693          	srli	a3,a2,0x18
8000534c:	47e1                	li	a5,24
8000534e:	b5bd                	j	800051bc <__umoddi3+0x24>
80005350:	01d658b3          	srl	a7,a2,t4
80005354:	006696b3          	sll	a3,a3,t1
80005358:	00d8e6b3          	or	a3,a7,a3
8000535c:	01d5d833          	srl	a6,a1,t4
80005360:	0106d713          	srli	a4,a3,0x10
80005364:	02e858b3          	divu	a7,a6,a4
80005368:	01069f13          	slli	t5,a3,0x10
8000536c:	010f5f13          	srli	t5,t5,0x10
80005370:	01d557b3          	srl	a5,a0,t4
80005374:	006595b3          	sll	a1,a1,t1
80005378:	8ddd                	or	a1,a1,a5
8000537a:	0105df93          	srli	t6,a1,0x10
8000537e:	006617b3          	sll	a5,a2,t1
80005382:	00651533          	sll	a0,a0,t1
80005386:	02e87833          	remu	a6,a6,a4
8000538a:	031f0e33          	mul	t3,t5,a7
8000538e:	0842                	slli	a6,a6,0x10
80005390:	01f86633          	or	a2,a6,t6
80005394:	01c67863          	bleu	t3,a2,800053a4 <__umoddi3+0x20c>
80005398:	9636                	add	a2,a2,a3
8000539a:	fff88813          	addi	a6,a7,-1 # ffff <_tbss_end+0xff7b>
8000539e:	16d67163          	bleu	a3,a2,80005500 <__umoddi3+0x368>
800053a2:	88c2                	mv	a7,a6
800053a4:	41c60633          	sub	a2,a2,t3
800053a8:	02e65833          	divu	a6,a2,a4
800053ac:	05c2                	slli	a1,a1,0x10
800053ae:	81c1                	srli	a1,a1,0x10
800053b0:	02e67633          	remu	a2,a2,a4
800053b4:	030f0f33          	mul	t5,t5,a6
800053b8:	01061713          	slli	a4,a2,0x10
800053bc:	8f4d                	or	a4,a4,a1
800053be:	01e77863          	bleu	t5,a4,800053ce <__umoddi3+0x236>
800053c2:	9736                	add	a4,a4,a3
800053c4:	fff80613          	addi	a2,a6,-1
800053c8:	12d77763          	bleu	a3,a4,800054f6 <__umoddi3+0x35e>
800053cc:	8832                	mv	a6,a2
800053ce:	08c2                	slli	a7,a7,0x10
800053d0:	62c1                	lui	t0,0x10
800053d2:	0108e8b3          	or	a7,a7,a6
800053d6:	fff28813          	addi	a6,t0,-1 # ffff <_tbss_end+0xff7b>
800053da:	0108fe33          	and	t3,a7,a6
800053de:	0107d593          	srli	a1,a5,0x10
800053e2:	0108d893          	srli	a7,a7,0x10
800053e6:	0107f833          	and	a6,a5,a6
800053ea:	030e0fb3          	mul	t6,t3,a6
800053ee:	41e70733          	sub	a4,a4,t5
800053f2:	03088833          	mul	a6,a7,a6
800053f6:	010fd613          	srli	a2,t6,0x10
800053fa:	02be0e33          	mul	t3,t3,a1
800053fe:	9e42                	add	t3,t3,a6
80005400:	9672                	add	a2,a2,t3
80005402:	02b888b3          	mul	a7,a7,a1
80005406:	01067363          	bleu	a6,a2,8000540c <__umoddi3+0x274>
8000540a:	9896                	add	a7,a7,t0
8000540c:	6841                	lui	a6,0x10
8000540e:	187d                	addi	a6,a6,-1
80005410:	01065593          	srli	a1,a2,0x10
80005414:	01067633          	and	a2,a2,a6
80005418:	0642                	slli	a2,a2,0x10
8000541a:	010fffb3          	and	t6,t6,a6
8000541e:	98ae                	add	a7,a7,a1
80005420:	967e                	add	a2,a2,t6
80005422:	09176463          	bltu	a4,a7,800054aa <__umoddi3+0x312>
80005426:	0f170463          	beq	a4,a7,8000550e <__umoddi3+0x376>
8000542a:	411705b3          	sub	a1,a4,a7
8000542e:	87b2                	mv	a5,a2
80005430:	a071                	j	800054bc <__umoddi3+0x324>
80005432:	01181833          	sll	a6,a6,a7
80005436:	00f5d733          	srl	a4,a1,a5
8000543a:	01085613          	srli	a2,a6,0x10
8000543e:	02c756b3          	divu	a3,a4,a2
80005442:	01081e13          	slli	t3,a6,0x10
80005446:	00f557b3          	srl	a5,a0,a5
8000544a:	010e5e13          	srli	t3,t3,0x10
8000544e:	011595b3          	sll	a1,a1,a7
80005452:	8ddd                	or	a1,a1,a5
80005454:	0105de93          	srli	t4,a1,0x10
80005458:	01151333          	sll	t1,a0,a7
8000545c:	02c77733          	remu	a4,a4,a2
80005460:	02de07b3          	mul	a5,t3,a3
80005464:	01071693          	slli	a3,a4,0x10
80005468:	01d6e6b3          	or	a3,a3,t4
8000546c:	00f6f863          	bleu	a5,a3,8000547c <__umoddi3+0x2e4>
80005470:	96c2                	add	a3,a3,a6
80005472:	0106e563          	bltu	a3,a6,8000547c <__umoddi3+0x2e4>
80005476:	00f6f363          	bleu	a5,a3,8000547c <__umoddi3+0x2e4>
8000547a:	96c2                	add	a3,a3,a6
8000547c:	8e9d                	sub	a3,a3,a5
8000547e:	02c6d733          	divu	a4,a3,a2
80005482:	01059793          	slli	a5,a1,0x10
80005486:	83c1                	srli	a5,a5,0x10
80005488:	02c6f6b3          	remu	a3,a3,a2
8000548c:	02ee0733          	mul	a4,t3,a4
80005490:	01069593          	slli	a1,a3,0x10
80005494:	8ddd                	or	a1,a1,a5
80005496:	00e5f863          	bleu	a4,a1,800054a6 <__umoddi3+0x30e>
8000549a:	95c2                	add	a1,a1,a6
8000549c:	0105e563          	bltu	a1,a6,800054a6 <__umoddi3+0x30e>
800054a0:	00e5f363          	bleu	a4,a1,800054a6 <__umoddi3+0x30e>
800054a4:	95c2                	add	a1,a1,a6
800054a6:	8d99                	sub	a1,a1,a4
800054a8:	bd0d                	j	800052da <__umoddi3+0x142>
800054aa:	40f607b3          	sub	a5,a2,a5
800054ae:	40d885b3          	sub	a1,a7,a3
800054b2:	00f63633          	sltu	a2,a2,a5
800054b6:	8d91                	sub	a1,a1,a2
800054b8:	40b705b3          	sub	a1,a4,a1
800054bc:	40f507b3          	sub	a5,a0,a5
800054c0:	00f53533          	sltu	a0,a0,a5
800054c4:	8d89                	sub	a1,a1,a0
800054c6:	01d59eb3          	sll	t4,a1,t4
800054ca:	0067d533          	srl	a0,a5,t1
800054ce:	00aee533          	or	a0,t4,a0
800054d2:	0065d5b3          	srl	a1,a1,t1
800054d6:	8082                	ret
800054d8:	0106d813          	srli	a6,a3,0x10
800054dc:	4741                	li	a4,16
800054de:	b349                	j	80005260 <__umoddi3+0xc8>
800054e0:	8836                	mv	a6,a3
800054e2:	4701                	li	a4,0
800054e4:	bbb5                	j	80005260 <__umoddi3+0xc8>
800054e6:	01085693          	srli	a3,a6,0x10
800054ea:	47c1                	li	a5,16
800054ec:	b3d9                	j	800052b2 <__umoddi3+0x11a>
800054ee:	01065693          	srli	a3,a2,0x10
800054f2:	47c1                	li	a5,16
800054f4:	b1e1                	j	800051bc <__umoddi3+0x24>
800054f6:	ede77be3          	bleu	t5,a4,800053cc <__umoddi3+0x234>
800054fa:	1879                	addi	a6,a6,-2
800054fc:	9736                	add	a4,a4,a3
800054fe:	bdc1                	j	800053ce <__umoddi3+0x236>
80005500:	ebc671e3          	bleu	t3,a2,800053a2 <__umoddi3+0x20a>
80005504:	18f9                	addi	a7,a7,-2
80005506:	9636                	add	a2,a2,a3
80005508:	bd71                	j	800053a4 <__umoddi3+0x20c>
8000550a:	9742                	add	a4,a4,a6
8000550c:	b321                	j	80005214 <__umoddi3+0x7c>
8000550e:	f8c56ee3          	bltu	a0,a2,800054aa <__umoddi3+0x312>
80005512:	87b2                	mv	a5,a2
80005514:	4581                	li	a1,0
80005516:	b75d                	j	800054bc <__umoddi3+0x324>

Disassembly of section .text.__floatundidf:

80005518 <__floatundidf>:
80005518:	1101                	addi	sp,sp,-32
8000551a:	ce06                	sw	ra,28(sp)
8000551c:	cc22                	sw	s0,24(sp)
8000551e:	ca26                	sw	s1,20(sp)
80005520:	c84a                	sw	s2,16(sp)
80005522:	c64e                	sw	s3,12(sp)
80005524:	002029f3          	frrm	s3
80005528:	00b567b3          	or	a5,a0,a1
8000552c:	cb9d                	beqz	a5,80005562 <__floatundidf+0x4a>
8000552e:	84aa                	mv	s1,a0
80005530:	842e                	mv	s0,a1
80005532:	892e                	mv	s2,a1
80005534:	c1b5                	beqz	a1,80005598 <__floatundidf+0x80>
80005536:	852e                	mv	a0,a1
80005538:	22c9                	jal	800056fa <__clzsi2>
8000553a:	43e00793          	li	a5,1086
8000553e:	40a78733          	sub	a4,a5,a0
80005542:	43300793          	li	a5,1075
80005546:	862a                	mv	a2,a0
80005548:	08e7c263          	blt	a5,a4,800055cc <__floatundidf+0xb4>
8000554c:	45ad                	li	a1,11
8000554e:	86a6                	mv	a3,s1
80005550:	7ff77793          	andi	a5,a4,2047
80005554:	1aa5c063          	blt	a1,a0,800056f4 <__floatundidf+0x1dc>
80005558:	001005b7          	lui	a1,0x100
8000555c:	15fd                	addi	a1,a1,-1
8000555e:	8c6d                	and	s0,s0,a1
80005560:	a021                	j	80005568 <__floatundidf+0x50>
80005562:	4781                	li	a5,0
80005564:	4401                	li	s0,0
80005566:	4681                	li	a3,0
80005568:	001005b7          	lui	a1,0x100
8000556c:	15fd                	addi	a1,a1,-1
8000556e:	8c6d                	and	s0,s0,a1
80005570:	801005b7          	lui	a1,0x80100
80005574:	15fd                	addi	a1,a1,-1
80005576:	8c6d                	and	s0,s0,a1
80005578:	07d2                	slli	a5,a5,0x14
8000557a:	80000737          	lui	a4,0x80000
8000557e:	8c5d                	or	s0,s0,a5
80005580:	fff74713          	not	a4,a4
80005584:	8c79                	and	s0,s0,a4
80005586:	8536                	mv	a0,a3
80005588:	85a2                	mv	a1,s0
8000558a:	40f2                	lw	ra,28(sp)
8000558c:	4462                	lw	s0,24(sp)
8000558e:	44d2                	lw	s1,20(sp)
80005590:	4942                	lw	s2,16(sp)
80005592:	49b2                	lw	s3,12(sp)
80005594:	6105                	addi	sp,sp,32
80005596:	8082                	ret
80005598:	228d                	jal	800056fa <__clzsi2>
8000559a:	02050613          	addi	a2,a0,32
8000559e:	43e00793          	li	a5,1086
800055a2:	8f91                	sub	a5,a5,a2
800055a4:	02a00713          	li	a4,42
800055a8:	01550693          	addi	a3,a0,21
800055ac:	7ff7f793          	andi	a5,a5,2047
800055b0:	08c74c63          	blt	a4,a2,80005648 <__floatundidf+0x130>
800055b4:	02b00513          	li	a0,43
800055b8:	40c50633          	sub	a2,a0,a2
800055bc:	00d41433          	sll	s0,s0,a3
800055c0:	00c4d633          	srl	a2,s1,a2
800055c4:	8c51                	or	s0,s0,a2
800055c6:	00d496b3          	sll	a3,s1,a3
800055ca:	b779                	j	80005558 <__floatundidf+0x40>
800055cc:	43600793          	li	a5,1078
800055d0:	02e7d763          	ble	a4,a5,800055fe <__floatundidf+0xe6>
800055d4:	03850793          	addi	a5,a0,56
800055d8:	0207f693          	andi	a3,a5,32
800055dc:	c6f5                	beqz	a3,800056c8 <__floatundidf+0x1b0>
800055de:	00f495b3          	sll	a1,s1,a5
800055e2:	4681                	li	a3,0
800055e4:	47a1                	li	a5,8
800055e6:	8f91                	sub	a5,a5,a2
800055e8:	8ecd                	or	a3,a3,a1
800055ea:	0207f593          	andi	a1,a5,32
800055ee:	00d036b3          	snez	a3,a3
800055f2:	cddd                	beqz	a1,800056b0 <__floatundidf+0x198>
800055f4:	00f454b3          	srl	s1,s0,a5
800055f8:	4781                	li	a5,0
800055fa:	8cd5                	or	s1,s1,a3
800055fc:	893e                	mv	s2,a5
800055fe:	47a1                	li	a5,8
80005600:	8426                	mv	s0,s1
80005602:	04c7cd63          	blt	a5,a2,8000565c <__floatundidf+0x144>
80005606:	ff8007b7          	lui	a5,0xff800
8000560a:	17fd                	addi	a5,a5,-1
8000560c:	00747693          	andi	a3,s0,7
80005610:	00f977b3          	and	a5,s2,a5
80005614:	cad9                	beqz	a3,800056aa <__floatundidf+0x192>
80005616:	0c098563          	beqz	s3,800056e0 <__floatundidf+0x1c8>
8000561a:	468d                	li	a3,3
8000561c:	04d99e63          	bne	s3,a3,80005678 <__floatundidf+0x160>
80005620:	00840593          	addi	a1,s0,8
80005624:	0085b4b3          	sltu	s1,a1,s0
80005628:	97a6                	add	a5,a5,s1
8000562a:	008006b7          	lui	a3,0x800
8000562e:	8efd                	and	a3,a3,a5
80005630:	0035d413          	srli	s0,a1,0x3
80005634:	ced5                	beqz	a3,800056f0 <__floatundidf+0x1d8>
80005636:	ff800737          	lui	a4,0xff800
8000563a:	177d                	addi	a4,a4,-1
8000563c:	8ff9                	and	a5,a5,a4
8000563e:	43f00713          	li	a4,1087
80005642:	8f11                	sub	a4,a4,a2
80005644:	4605                	li	a2,1
80005646:	a81d                	j	8000567c <__floatundidf+0x164>
80005648:	ff550413          	addi	s0,a0,-11
8000564c:	00100737          	lui	a4,0x100
80005650:	00849433          	sll	s0,s1,s0
80005654:	177d                	addi	a4,a4,-1
80005656:	8c79                	and	s0,s0,a4
80005658:	4681                	li	a3,0
8000565a:	b739                	j	80005568 <__floatundidf+0x50>
8000565c:	02800693          	li	a3,40
80005660:	ff860593          	addi	a1,a2,-8
80005664:	8e91                	sub	a3,a3,a2
80005666:	00d456b3          	srl	a3,s0,a3
8000566a:	00b917b3          	sll	a5,s2,a1
8000566e:	00f6e933          	or	s2,a3,a5
80005672:	00b41433          	sll	s0,s0,a1
80005676:	bf41                	j	80005606 <__floatundidf+0xee>
80005678:	800d                	srli	s0,s0,0x3
8000567a:	4605                	li	a2,1
8000567c:	00979693          	slli	a3,a5,0x9
80005680:	7ff77713          	andi	a4,a4,2047
80005684:	07f6                	slli	a5,a5,0x1d
80005686:	0752                	slli	a4,a4,0x14
80005688:	82b1                	srli	a3,a3,0xc
8000568a:	8c5d                	or	s0,s0,a5
8000568c:	00e6e7b3          	or	a5,a3,a4
80005690:	8522                	mv	a0,s0
80005692:	85be                	mv	a1,a5
80005694:	ee060be3          	beqz	a2,8000558a <__floatundidf+0x72>
80005698:	0010e073          	csrsi	fflags,1
8000569c:	40f2                	lw	ra,28(sp)
8000569e:	4462                	lw	s0,24(sp)
800056a0:	44d2                	lw	s1,20(sp)
800056a2:	4942                	lw	s2,16(sp)
800056a4:	49b2                	lw	s3,12(sp)
800056a6:	6105                	addi	sp,sp,32
800056a8:	8082                	ret
800056aa:	800d                	srli	s0,s0,0x3
800056ac:	4601                	li	a2,0
800056ae:	b7f9                	j	8000567c <__floatundidf+0x164>
800056b0:	fff7c513          	not	a0,a5
800056b4:	00141593          	slli	a1,s0,0x1
800056b8:	00f4d4b3          	srl	s1,s1,a5
800056bc:	00a595b3          	sll	a1,a1,a0
800056c0:	8ccd                	or	s1,s1,a1
800056c2:	00f457b3          	srl	a5,s0,a5
800056c6:	bf15                	j	800055fa <__floatundidf+0xe2>
800056c8:	fff7c593          	not	a1,a5
800056cc:	0014d693          	srli	a3,s1,0x1
800056d0:	00b6d6b3          	srl	a3,a3,a1
800056d4:	00f415b3          	sll	a1,s0,a5
800056d8:	8dd5                	or	a1,a1,a3
800056da:	00f496b3          	sll	a3,s1,a5
800056de:	b719                	j	800055e4 <__floatundidf+0xcc>
800056e0:	00f47693          	andi	a3,s0,15
800056e4:	4591                	li	a1,4
800056e6:	f8b689e3          	beq	a3,a1,80005678 <__floatundidf+0x160>
800056ea:	00440593          	addi	a1,s0,4
800056ee:	bf1d                	j	80005624 <__floatundidf+0x10c>
800056f0:	4605                	li	a2,1
800056f2:	b769                	j	8000567c <__floatundidf+0x164>
800056f4:	ff550693          	addi	a3,a0,-11
800056f8:	bd75                	j	800055b4 <__floatundidf+0x9c>

Disassembly of section .text.__clzsi2:

800056fa <__clzsi2>:
800056fa:	67c1                	lui	a5,0x10
800056fc:	02f57063          	bleu	a5,a0,8000571c <__clzsi2+0x22>
80005700:	0ff00793          	li	a5,255
80005704:	02000713          	li	a4,32
80005708:	02a7e863          	bltu	a5,a0,80005738 <__clzsi2+0x3e>
8000570c:	a9418793          	addi	a5,gp,-1388 # 90000294 <__clz_tab>
80005710:	953e                	add	a0,a0,a5
80005712:	00054503          	lbu	a0,0(a0)
80005716:	40a70533          	sub	a0,a4,a0
8000571a:	8082                	ret
8000571c:	010007b7          	lui	a5,0x1000
80005720:	02f56663          	bltu	a0,a5,8000574c <__clzsi2+0x52>
80005724:	a9418793          	addi	a5,gp,-1388 # 90000294 <__clz_tab>
80005728:	8161                	srli	a0,a0,0x18
8000572a:	953e                	add	a0,a0,a5
8000572c:	00054503          	lbu	a0,0(a0)
80005730:	4721                	li	a4,8
80005732:	40a70533          	sub	a0,a4,a0
80005736:	8082                	ret
80005738:	a9418793          	addi	a5,gp,-1388 # 90000294 <__clz_tab>
8000573c:	8121                	srli	a0,a0,0x8
8000573e:	953e                	add	a0,a0,a5
80005740:	00054503          	lbu	a0,0(a0)
80005744:	4761                	li	a4,24
80005746:	40a70533          	sub	a0,a4,a0
8000574a:	8082                	ret
8000574c:	a9418793          	addi	a5,gp,-1388 # 90000294 <__clz_tab>
80005750:	8141                	srli	a0,a0,0x10
80005752:	953e                	add	a0,a0,a5
80005754:	00054503          	lbu	a0,0(a0)
80005758:	4741                	li	a4,16
8000575a:	40a70533          	sub	a0,a4,a0
8000575e:	8082                	ret

Disassembly of section .sdata:

90000000 <__global_pointer$-0x800>:
90000000:	0000                	unimp
90000002:	0000                	unimp
90000004:	0000                	unimp
90000006:	4020                	lw	s0,64(s0)
90000008:	ed8d                	bnez	a1,90000042 <__clzsi2+0xfffa948>
9000000a:	a0b5                	j	90000076 <__clzsi2+0xfffa97c>
9000000c:	3eb0c6f7          	0x3eb0c6f7

Disassembly of section .rodata.str1.4:

90000010 <.rodata.str1.4>:
90000010:	3a642543          	fmadd.d	fa0,fs0,ft6,ft7,rdn
90000014:	7220                	flw	fs0,96(a2)
90000016:	6765                	lui	a4,0x19
90000018:	6220                	flw	fs0,64(a2)
9000001a:	6f6c                	flw	fa1,92(a4)
9000001c:	25206b63          	bltu	zero,s2,90000272 <__clzsi2+0xfffab78>
90000020:	7864                	flw	fs1,116(s0)
90000022:	6425                	lui	s0,0x9
90000024:	2578                	fld	fa4,200(a0)
90000026:	2c64                	fld	fs1,216(s0)
90000028:	6320                	flw	fs0,64(a4)
9000002a:	6361                	lui	t1,0x18
9000002c:	6568                	flw	fa0,76(a0)
9000002e:	6220                	flw	fs0,64(a2)
90000030:	6f6c                	flw	fa1,92(a4)
90000032:	25206b63          	bltu	zero,s2,90000288 <__clzsi2+0xfffab8e>
90000036:	7864                	flw	fs1,116(s0)
90000038:	6425                	lui	s0,0x9
9000003a:	2578                	fld	fa4,200(a0)
9000003c:	0a64                	addi	s1,sp,284
9000003e:	0000                	unimp
90000040:	3a642543          	fmadd.d	fa0,fs0,ft6,ft7,rdn
90000044:	2520                	fld	fs0,72(a0)
90000046:	2064                	fld	fs1,192(s0)
90000048:	6e69                	lui	t3,0x1a
9000004a:	75727473          	csrrci	s0,0x757,4
9000004e:	6f697463          	bleu	s6,s2,90000736 <_end+0x376>
90000052:	736e                	flw	ft6,248(sp)
90000054:	000a                	c.slli	zero,0x2
90000056:	0000                	unimp
90000058:	3a642543          	fmadd.d	fa0,fs0,ft6,ft7,rdn
9000005c:	2520                	fld	fs0,72(a0)
9000005e:	2064                	fld	fs1,192(s0)
90000060:	6c637963          	bleu	t1,t1,90000732 <_end+0x372>
90000064:	7365                	lui	t1,0xffff9
90000066:	000a                	c.slli	zero,0x2
90000068:	3a642543          	fmadd.d	fa0,fs0,ft6,ft7,rdn
9000006c:	2520                	fld	fs0,72(a0)
9000006e:	2064                	fld	fs1,192(s0)
90000070:	6c66                	flw	fs8,88(sp)
90000072:	0a73706f          	j	90037918 <__global_pointer$+0x37118>
90000076:	0000                	unimp
90000078:	3a642543          	fmadd.d	fa0,fs0,ft6,ft7,rdn
9000007c:	2520                	fld	fs0,72(a0)
9000007e:	2064                	fld	fs1,192(s0)
90000080:	664d                	lui	a2,0x13
90000082:	6f6c                	flw	fa1,92(a4)
90000084:	7370                	flw	fa2,100(a4)
90000086:	4020                	lw	s0,64(s0)
90000088:	3120                	fld	fs0,96(a0)
9000008a:	4720                	lw	s0,72(a4)
9000008c:	7a48                	flw	fa0,52(a2)
9000008e:	000a                	c.slli	zero,0x2
90000090:	3a642543          	fmadd.d	fa0,fs0,ft6,ft7,rdn
90000094:	6320                	flw	fs0,64(a4)
90000096:	756c255b          	0x756c255b
9000009a:	5b5d                	li	s6,-9
9000009c:	6c25                	lui	s8,0x9
9000009e:	5d75                	li	s10,-3
900000a0:	2520                	fld	fs0,72(a0)
900000a2:	2066                	fld	ft0,88(sp)
900000a4:	3d21                	jal	8ffffebc <__clzsi2+0xfffa7c2>
900000a6:	2520                	fld	fs0,72(a0)
900000a8:	0a66                	slli	s4,s4,0x19
900000aa:	0000                	unimp
900000ac:	6e28                	flw	fa0,88(a2)
900000ae:	6c75                	lui	s8,0x1d
900000b0:	296c                	fld	fa1,208(a0)
900000b2:	0000                	unimp
900000b4:	636d                	lui	t1,0x1b
900000b6:	6379                	lui	t1,0x1e
900000b8:	656c                	flw	fa1,76(a0)
900000ba:	0000                	unimp
900000bc:	696d                	lui	s2,0x1b
900000be:	736e                	flw	ft6,248(sp)
900000c0:	7274                	flw	fa3,100(a2)
900000c2:	7465                	lui	s0,0xffff9
900000c4:	0000                	unimp
900000c6:	0000                	unimp
900000c8:	6d49                	lui	s10,0x12
900000ca:	6c70                	flw	fa2,92(s0)
900000cc:	6d65                	lui	s10,0x19
900000ce:	6e65                	lui	t3,0x19
900000d0:	2074                	fld	fa3,192(s0)
900000d2:	616d                	addi	sp,sp,240
900000d4:	6e69                	lui	t3,0x1a
900000d6:	2928                	fld	fa0,80(a0)
900000d8:	202c                	fld	fa1,64(s0)
900000da:	6f66                	flw	ft10,88(sp)
900000dc:	000a216f          	jal	sp,900a20dc <__global_pointer$+0xa18dc>
900000e0:	7325                	lui	t1,0xfffe9
900000e2:	3d20                	fld	fs0,120(a0)
900000e4:	2520                	fld	fs0,72(a0)
900000e6:	0a64                	addi	s1,sp,284
900000e8:	0000                	unimp
	...

Disassembly of section .rodata:

900000ec <.rodata>:
900000ec:	4400                	lw	s0,8(s0)
900000ee:	f000                	fsw	fs0,32(s0)
900000f0:	4450                	lw	a2,12(s0)
900000f2:	f000                	fsw	fs0,32(s0)
900000f4:	4408                	lw	a0,8(s0)
900000f6:	f000                	fsw	fs0,32(s0)
900000f8:	4450                	lw	a2,12(s0)
900000fa:	f000                	fsw	fs0,32(s0)
900000fc:	4450                	lw	a2,12(s0)
900000fe:	f000                	fsw	fs0,32(s0)
90000100:	4450                	lw	a2,12(s0)
90000102:	f000                	fsw	fs0,32(s0)
90000104:	4450                	lw	a2,12(s0)
90000106:	f000                	fsw	fs0,32(s0)
90000108:	4318                	lw	a4,0(a4)
9000010a:	f000                	fsw	fs0,32(s0)
9000010c:	4450                	lw	a2,12(s0)
9000010e:	f000                	fsw	fs0,32(s0)
90000110:	4450                	lw	a2,12(s0)
90000112:	f000                	fsw	fs0,32(s0)
90000114:	4332                	lw	t1,12(sp)
90000116:	f000                	fsw	fs0,32(s0)
90000118:	433e                	lw	t1,204(sp)
9000011a:	f000                	fsw	fs0,32(s0)
9000011c:	4450                	lw	a2,12(s0)
9000011e:	f000                	fsw	fs0,32(s0)
90000120:	4350                	lw	a2,4(a4)
90000122:	f000                	fsw	fs0,32(s0)
90000124:	435c                	lw	a5,4(a4)
90000126:	f000                	fsw	fs0,32(s0)
90000128:	435c                	lw	a5,4(a4)
9000012a:	f000                	fsw	fs0,32(s0)
9000012c:	435c                	lw	a5,4(a4)
9000012e:	f000                	fsw	fs0,32(s0)
90000130:	435c                	lw	a5,4(a4)
90000132:	f000                	fsw	fs0,32(s0)
90000134:	435c                	lw	a5,4(a4)
90000136:	f000                	fsw	fs0,32(s0)
90000138:	435c                	lw	a5,4(a4)
9000013a:	f000                	fsw	fs0,32(s0)
9000013c:	435c                	lw	a5,4(a4)
9000013e:	f000                	fsw	fs0,32(s0)
90000140:	435c                	lw	a5,4(a4)
90000142:	f000                	fsw	fs0,32(s0)
90000144:	435c                	lw	a5,4(a4)
90000146:	f000                	fsw	fs0,32(s0)
90000148:	4450                	lw	a2,12(s0)
9000014a:	f000                	fsw	fs0,32(s0)
9000014c:	4450                	lw	a2,12(s0)
9000014e:	f000                	fsw	fs0,32(s0)
90000150:	4450                	lw	a2,12(s0)
90000152:	f000                	fsw	fs0,32(s0)
90000154:	4450                	lw	a2,12(s0)
90000156:	f000                	fsw	fs0,32(s0)
90000158:	4450                	lw	a2,12(s0)
9000015a:	f000                	fsw	fs0,32(s0)
9000015c:	4450                	lw	a2,12(s0)
9000015e:	f000                	fsw	fs0,32(s0)
90000160:	4450                	lw	a2,12(s0)
90000162:	f000                	fsw	fs0,32(s0)
90000164:	4450                	lw	a2,12(s0)
90000166:	f000                	fsw	fs0,32(s0)
90000168:	4450                	lw	a2,12(s0)
9000016a:	f000                	fsw	fs0,32(s0)
9000016c:	4450                	lw	a2,12(s0)
9000016e:	f000                	fsw	fs0,32(s0)
90000170:	4450                	lw	a2,12(s0)
90000172:	f000                	fsw	fs0,32(s0)
90000174:	4450                	lw	a2,12(s0)
90000176:	f000                	fsw	fs0,32(s0)
90000178:	4450                	lw	a2,12(s0)
9000017a:	f000                	fsw	fs0,32(s0)
9000017c:	4450                	lw	a2,12(s0)
9000017e:	f000                	fsw	fs0,32(s0)
90000180:	4450                	lw	a2,12(s0)
90000182:	f000                	fsw	fs0,32(s0)
90000184:	4450                	lw	a2,12(s0)
90000186:	f000                	fsw	fs0,32(s0)
90000188:	4450                	lw	a2,12(s0)
9000018a:	f000                	fsw	fs0,32(s0)
9000018c:	4450                	lw	a2,12(s0)
9000018e:	f000                	fsw	fs0,32(s0)
90000190:	4450                	lw	a2,12(s0)
90000192:	f000                	fsw	fs0,32(s0)
90000194:	4450                	lw	a2,12(s0)
90000196:	f000                	fsw	fs0,32(s0)
90000198:	4450                	lw	a2,12(s0)
9000019a:	f000                	fsw	fs0,32(s0)
9000019c:	4450                	lw	a2,12(s0)
9000019e:	f000                	fsw	fs0,32(s0)
900001a0:	4450                	lw	a2,12(s0)
900001a2:	f000                	fsw	fs0,32(s0)
900001a4:	4450                	lw	a2,12(s0)
900001a6:	f000                	fsw	fs0,32(s0)
900001a8:	4450                	lw	a2,12(s0)
900001aa:	f000                	fsw	fs0,32(s0)
900001ac:	4450                	lw	a2,12(s0)
900001ae:	f000                	fsw	fs0,32(s0)
900001b0:	4450                	lw	a2,12(s0)
900001b2:	f000                	fsw	fs0,32(s0)
900001b4:	4450                	lw	a2,12(s0)
900001b6:	f000                	fsw	fs0,32(s0)
900001b8:	4450                	lw	a2,12(s0)
900001ba:	f000                	fsw	fs0,32(s0)
900001bc:	4450                	lw	a2,12(s0)
900001be:	f000                	fsw	fs0,32(s0)
900001c0:	4450                	lw	a2,12(s0)
900001c2:	f000                	fsw	fs0,32(s0)
900001c4:	4450                	lw	a2,12(s0)
900001c6:	f000                	fsw	fs0,32(s0)
900001c8:	4450                	lw	a2,12(s0)
900001ca:	f000                	fsw	fs0,32(s0)
900001cc:	4450                	lw	a2,12(s0)
900001ce:	f000                	fsw	fs0,32(s0)
900001d0:	4450                	lw	a2,12(s0)
900001d2:	f000                	fsw	fs0,32(s0)
900001d4:	4450                	lw	a2,12(s0)
900001d6:	f000                	fsw	fs0,32(s0)
900001d8:	4450                	lw	a2,12(s0)
900001da:	f000                	fsw	fs0,32(s0)
900001dc:	4450                	lw	a2,12(s0)
900001de:	f000                	fsw	fs0,32(s0)
900001e0:	4450                	lw	a2,12(s0)
900001e2:	f000                	fsw	fs0,32(s0)
900001e4:	4450                	lw	a2,12(s0)
900001e6:	f000                	fsw	fs0,32(s0)
900001e8:	4450                	lw	a2,12(s0)
900001ea:	f000                	fsw	fs0,32(s0)
900001ec:	4390                	lw	a2,0(a5)
900001ee:	f000                	fsw	fs0,32(s0)
900001f0:	43a0                	lw	s0,64(a5)
900001f2:	f000                	fsw	fs0,32(s0)
900001f4:	4450                	lw	a2,12(s0)
900001f6:	f000                	fsw	fs0,32(s0)
900001f8:	4450                	lw	a2,12(s0)
900001fa:	f000                	fsw	fs0,32(s0)
900001fc:	4450                	lw	a2,12(s0)
900001fe:	f000                	fsw	fs0,32(s0)
90000200:	4450                	lw	a2,12(s0)
90000202:	f000                	fsw	fs0,32(s0)
90000204:	4450                	lw	a2,12(s0)
90000206:	f000                	fsw	fs0,32(s0)
90000208:	4450                	lw	a2,12(s0)
9000020a:	f000                	fsw	fs0,32(s0)
9000020c:	4450                	lw	a2,12(s0)
9000020e:	f000                	fsw	fs0,32(s0)
90000210:	43de                	lw	t2,212(sp)
90000212:	f000                	fsw	fs0,32(s0)
90000214:	4450                	lw	a2,12(s0)
90000216:	f000                	fsw	fs0,32(s0)
90000218:	4450                	lw	a2,12(s0)
9000021a:	f000                	fsw	fs0,32(s0)
9000021c:	423a                	lw	tp,140(sp)
9000021e:	f000                	fsw	fs0,32(s0)
90000220:	42f2                	lw	t0,28(sp)
90000222:	f000                	fsw	fs0,32(s0)
90000224:	4450                	lw	a2,12(s0)
90000226:	f000                	fsw	fs0,32(s0)
90000228:	4450                	lw	a2,12(s0)
9000022a:	f000                	fsw	fs0,32(s0)
9000022c:	4412                	lw	s0,4(sp)
9000022e:	f000                	fsw	fs0,32(s0)
90000230:	4450                	lw	a2,12(s0)
90000232:	f000                	fsw	fs0,32(s0)
90000234:	43e8                	lw	a0,68(a5)
90000236:	f000                	fsw	fs0,32(s0)
90000238:	4450                	lw	a2,12(s0)
9000023a:	f000                	fsw	fs0,32(s0)
9000023c:	4450                	lw	a2,12(s0)
9000023e:	f000                	fsw	fs0,32(s0)
90000240:	43fa                	lw	t2,156(sp)
90000242:	f000                	fsw	fs0,32(s0)

Disassembly of section .eh_frame:

90000244 <.eh_frame>:
90000244:	0010                	0x10
90000246:	0000                	unimp
90000248:	0000                	unimp
9000024a:	0000                	unimp
9000024c:	7a01                	lui	s4,0xfffe0
9000024e:	0052                	c.slli	zero,0x14
90000250:	7c01                	lui	s8,0xfffe0
90000252:	0101                	addi	sp,sp,0
90000254:	00020d1b          	0x20d1b
90000258:	0010                	0x10
9000025a:	0000                	unimp
9000025c:	0018                	0x18
9000025e:	0000                	unimp
90000260:	47dc                	lw	a5,12(a5)
90000262:	f000                	fsw	fs0,32(s0)
90000264:	03c6                	slli	t2,t2,0x11
90000266:	0000                	unimp
90000268:	0000                	unimp
9000026a:	0000                	unimp
9000026c:	0010                	0x10
9000026e:	0000                	unimp
90000270:	002c                	addi	a1,sp,8
90000272:	0000                	unimp
90000274:	4b8e                	lw	s7,192(sp)
90000276:	f000                	fsw	fs0,32(s0)
90000278:	0396                	slli	t2,t2,0x5
9000027a:	0000                	unimp
9000027c:	0000                	unimp
9000027e:	0000                	unimp
90000280:	0010                	0x10
90000282:	0000                	unimp
90000284:	0040                	addi	s0,sp,4
90000286:	0000                	unimp
90000288:	4f10                	lw	a2,24(a4)
9000028a:	f000                	fsw	fs0,32(s0)
9000028c:	0380                	addi	s0,sp,448
9000028e:	0000                	unimp
90000290:	0000                	unimp
	...

Disassembly of section .rodata.__clz_tab:

90000294 <__clz_tab>:
90000294:	0100                	addi	s0,sp,128
90000296:	0202                	slli	tp,tp,0x0
90000298:	03030303          	lb	t1,48(t1) # fffe9030 <__global_pointer$+0x6ffe8830>
9000029c:	0404                	addi	s1,sp,512
9000029e:	0404                	addi	s1,sp,512
900002a0:	0404                	addi	s1,sp,512
900002a2:	0404                	addi	s1,sp,512
900002a4:	0505                	addi	a0,a0,1
900002a6:	0505                	addi	a0,a0,1
900002a8:	0505                	addi	a0,a0,1
900002aa:	0505                	addi	a0,a0,1
900002ac:	0505                	addi	a0,a0,1
900002ae:	0505                	addi	a0,a0,1
900002b0:	0505                	addi	a0,a0,1
900002b2:	0505                	addi	a0,a0,1
900002b4:	0606                	slli	a2,a2,0x1
900002b6:	0606                	slli	a2,a2,0x1
900002b8:	0606                	slli	a2,a2,0x1
900002ba:	0606                	slli	a2,a2,0x1
900002bc:	0606                	slli	a2,a2,0x1
900002be:	0606                	slli	a2,a2,0x1
900002c0:	0606                	slli	a2,a2,0x1
900002c2:	0606                	slli	a2,a2,0x1
900002c4:	0606                	slli	a2,a2,0x1
900002c6:	0606                	slli	a2,a2,0x1
900002c8:	0606                	slli	a2,a2,0x1
900002ca:	0606                	slli	a2,a2,0x1
900002cc:	0606                	slli	a2,a2,0x1
900002ce:	0606                	slli	a2,a2,0x1
900002d0:	0606                	slli	a2,a2,0x1
900002d2:	0606                	slli	a2,a2,0x1
900002d4:	07070707          	0x7070707
900002d8:	07070707          	0x7070707
900002dc:	07070707          	0x7070707
900002e0:	07070707          	0x7070707
900002e4:	07070707          	0x7070707
900002e8:	07070707          	0x7070707
900002ec:	07070707          	0x7070707
900002f0:	07070707          	0x7070707
900002f4:	07070707          	0x7070707
900002f8:	07070707          	0x7070707
900002fc:	07070707          	0x7070707
90000300:	07070707          	0x7070707
90000304:	07070707          	0x7070707
90000308:	07070707          	0x7070707
9000030c:	07070707          	0x7070707
90000310:	07070707          	0x7070707
90000314:	0808                	addi	a0,sp,16
90000316:	0808                	addi	a0,sp,16
90000318:	0808                	addi	a0,sp,16
9000031a:	0808                	addi	a0,sp,16
9000031c:	0808                	addi	a0,sp,16
9000031e:	0808                	addi	a0,sp,16
90000320:	0808                	addi	a0,sp,16
90000322:	0808                	addi	a0,sp,16
90000324:	0808                	addi	a0,sp,16
90000326:	0808                	addi	a0,sp,16
90000328:	0808                	addi	a0,sp,16
9000032a:	0808                	addi	a0,sp,16
9000032c:	0808                	addi	a0,sp,16
9000032e:	0808                	addi	a0,sp,16
90000330:	0808                	addi	a0,sp,16
90000332:	0808                	addi	a0,sp,16
90000334:	0808                	addi	a0,sp,16
90000336:	0808                	addi	a0,sp,16
90000338:	0808                	addi	a0,sp,16
9000033a:	0808                	addi	a0,sp,16
9000033c:	0808                	addi	a0,sp,16
9000033e:	0808                	addi	a0,sp,16
90000340:	0808                	addi	a0,sp,16
90000342:	0808                	addi	a0,sp,16
90000344:	0808                	addi	a0,sp,16
90000346:	0808                	addi	a0,sp,16
90000348:	0808                	addi	a0,sp,16
9000034a:	0808                	addi	a0,sp,16
9000034c:	0808                	addi	a0,sp,16
9000034e:	0808                	addi	a0,sp,16
90000350:	0808                	addi	a0,sp,16
90000352:	0808                	addi	a0,sp,16
90000354:	0808                	addi	a0,sp,16
90000356:	0808                	addi	a0,sp,16
90000358:	0808                	addi	a0,sp,16
9000035a:	0808                	addi	a0,sp,16
9000035c:	0808                	addi	a0,sp,16
9000035e:	0808                	addi	a0,sp,16
90000360:	0808                	addi	a0,sp,16
90000362:	0808                	addi	a0,sp,16
90000364:	0808                	addi	a0,sp,16
90000366:	0808                	addi	a0,sp,16
90000368:	0808                	addi	a0,sp,16
9000036a:	0808                	addi	a0,sp,16
9000036c:	0808                	addi	a0,sp,16
9000036e:	0808                	addi	a0,sp,16
90000370:	0808                	addi	a0,sp,16
90000372:	0808                	addi	a0,sp,16
90000374:	0808                	addi	a0,sp,16
90000376:	0808                	addi	a0,sp,16
90000378:	0808                	addi	a0,sp,16
9000037a:	0808                	addi	a0,sp,16
9000037c:	0808                	addi	a0,sp,16
9000037e:	0808                	addi	a0,sp,16
90000380:	0808                	addi	a0,sp,16
90000382:	0808                	addi	a0,sp,16
90000384:	0808                	addi	a0,sp,16
90000386:	0808                	addi	a0,sp,16
90000388:	0808                	addi	a0,sp,16
9000038a:	0808                	addi	a0,sp,16
9000038c:	0808                	addi	a0,sp,16
9000038e:	0808                	addi	a0,sp,16
90000390:	0808                	addi	a0,sp,16
90000392:	0808                	addi	a0,sp,16

Disassembly of section .sbss:

90000394 <sense.3501>:
90000394:	0000                	unimp
	...

90000398 <count.3502>:
90000398:	0000                	unimp
	...

9000039c <counter_names>:
	...

900003a4 <counters>:
	...

Disassembly of section .tbss:

900003c0 <_tls_data>:
	...

Disassembly of section .comment:

00000000 <.comment>:
   0:	3a434347          	fmsub.d	ft6,ft6,ft4,ft7,rmm
   4:	2820                	fld	fs0,80(s0)
   6:	20554e47          	fmsub.s	ft8,fa0,ft5,ft4,rmm
   a:	434d                	li	t1,19
   c:	2055                	jal	b0 <_tbss_end+0x2c>
   e:	6345                	lui	t1,0x11
  10:	696c                	flw	fa1,84(a0)
  12:	7370                	flw	fa2,100(a4)
  14:	2065                	jal	bc <_tbss_end+0x38>
  16:	4952                	lw	s2,20(sp)
  18:	562d4353          	0x562d4353
  1c:	4520                	lw	s0,72(a0)
  1e:	626d                	lui	tp,0x1b
  20:	6465                	lui	s0,0x19
  22:	6564                	flw	fs1,76(a0)
  24:	2064                	fld	fs1,192(s0)
  26:	2c434347          	0x2c434347
  2a:	3620                	fld	fs0,104(a2)
  2c:	2d34                	fld	fa3,88(a0)
  2e:	6962                	flw	fs2,24(sp)
  30:	7374                	flw	fa3,100(a4)
  32:	2029                	jal	3c <_tdata_begin+0x3c>
  34:	2e322e37          	lui	t3,0x2e322
  38:	0030                	addi	a2,sp,8

Disassembly of section .debug_info:

00000000 <.debug_info>:
       0:	000008d7          	0x8d7
       4:	0004                	0x4
       6:	0000                	unimp
       8:	0000                	unimp
       a:	0104                	addi	s1,sp,128
       c:	00000027          	0x27
      10:	800c                	0x800c
      12:	0002                	c.slli	zero,0x0
      14:	2b00                	fld	fs0,16(a4)
      16:	50000003          	lb	zero,1280(zero) # 500 <_tbss_end+0x47c>
      1a:	0001                	nop
	...
      24:	0200                	addi	s0,sp,256
      26:	0704                	addi	s1,sp,896
      28:	01ad                	addi	gp,gp,11
      2a:	0000                	unimp
      2c:	0802                	slli	a6,a6,0x0
      2e:	0001a307          	flw	ft6,0(gp) # 90000800 <__global_pointer$>
      32:	0300                	addi	s0,sp,384
      34:	0504                	addi	s1,sp,640
      36:	6e69                	lui	t3,0x1a
      38:	0074                	addi	a3,sp,12
      3a:	0802                	slli	a6,a6,0x0
      3c:	2a05                	jal	16c <_tbss_end+0xe8>
      3e:	0001                	nop
      40:	0200                	addi	s0,sp,256
      42:	0410                	addi	a2,sp,512
      44:	0301                	addi	t1,t1,0
      46:	0000                	unimp
      48:	d504                	sw	s1,40(a0)
      4a:	0002                	c.slli	zero,0x0
      4c:	0200                	addi	s0,sp,256
      4e:	252a                	fld	fa0,136(sp)
      50:	0000                	unimp
      52:	0400                	addi	s0,sp,512
      54:	0199                	addi	gp,gp,6
      56:	0000                	unimp
      58:	2f02                	fld	ft10,0(sp)
      5a:	005e                	c.slli	zero,0x17
      5c:	0000                	unimp
      5e:	0405                	addi	s0,s0,1
      60:	0064                	addi	s1,sp,12
      62:	0000                	unimp
      64:	4806                	lw	a6,64(sp)
      66:	0000                	unimp
      68:	7300                	flw	fs0,32(a4)
      6a:	0000                	unimp
      6c:	0700                	addi	s0,sp,896
      6e:	00000073          	ecall
      72:	0500                	addi	s0,sp,640
      74:	7904                	flw	fs1,48(a0)
      76:	0000                	unimp
      78:	0800                	addi	s0,sp,16
      7a:	7204                	flw	fs1,32(a2)
      7c:	02000003          	lb	zero,32(zero) # 20 <_tdata_begin+0x20>
      80:	8536                	mv	a0,a3
      82:	0000                	unimp
      84:	0500                	addi	s0,sp,640
      86:	8b04                	0x8b04
      88:	0000                	unimp
      8a:	0600                	addi	s0,sp,768
      8c:	00000033          	add	zero,zero,zero
      90:	009f 0000 7307      	0x73070000009f
      96:	0000                	unimp
      98:	0700                	addi	s0,sp,896
      9a:	00000073          	ecall
      9e:	0900                	addi	s0,sp,144
      a0:	024a                	slli	tp,tp,0x12
      a2:	0000                	unimp
      a4:	bb02                	fsd	ft0,432(sp)
      a6:	00000053          	fadd.s	ft0,ft0,ft0,rne
      aa:	1709                	addi	a4,a4,-30
      ac:	0000                	unimp
      ae:	0200                	addi	s0,sp,256
      b0:	7abe                	flw	fs5,236(sp)
      b2:	0000                	unimp
      b4:	0200                	addi	s0,sp,256
      b6:	0801                	addi	a6,a6,0
      b8:	00000203          	lb	tp,0(zero) # 0 <_tdata_begin>
      bc:	1b0a                	slli	s6,s6,0x22
      be:	0001                	nop
      c0:	0700                	addi	s0,sp,896
      c2:	2504                	fld	fs1,8(a0)
      c4:	0000                	unimp
      c6:	0300                	addi	s0,sp,384
      c8:	f218                	fsw	fa4,32(a2)
      ca:	0000                	unimp
      cc:	0b00                	addi	s0,sp,400
      ce:	031c                	addi	a5,sp,384
      d0:	0000                	unimp
      d2:	0b00                	addi	s0,sp,400
      d4:	015f 0000 0b01      	0xb010000015f
      da:	01e2                	slli	gp,gp,0x18
      dc:	0000                	unimp
      de:	0b02                	slli	s6,s6,0x0
      e0:	0142                	slli	sp,sp,0x10
      e2:	0000                	unimp
      e4:	01ce0b03          	lb	s6,28(t3) # 1a01c <_tbss_end+0x19f98>
      e8:	0000                	unimp
      ea:	0b04                	addi	s1,sp,400
      ec:	01c4                	addi	s1,sp,196
      ee:	0000                	unimp
      f0:	0005                	c.nop	1
      f2:	ba09                	j	fffffa04 <__global_pointer$+0x6ffff204>
      f4:	0001                	nop
      f6:	0300                	addi	s0,sp,384
      f8:	bc20                	fsd	fs0,120(s0)
      fa:	0000                	unimp
      fc:	0a00                	addi	s0,sp,272
      fe:	0000016f          	jal	sp,fe <_tbss_end+0x7a>
     102:	00250407          	0x250407
     106:	0000                	unimp
     108:	01212203          	lw	tp,18(sp)
     10c:	0000                	unimp
     10e:	00018f0b          	0x18f0b
     112:	0000                	unimp
     114:	00037a0b          	0x37a0b
     118:	0100                	addi	s0,sp,128
     11a:	0001fc0b          	0x1fc0b
     11e:	0200                	addi	s0,sp,256
     120:	0900                	addi	s0,sp,144
     122:	0221                	addi	tp,tp,8
     124:	0000                	unimp
     126:	00fd2703          	lw	a4,15(s10) # 1900f <_tbss_end+0x18f8b>
     12a:	0000                	unimp
     12c:	420c                	lw	a1,0(a2)
     12e:	0001                	nop
     130:	3700                	fld	fs0,40(a4)
     132:	0001                	nop
     134:	0d00                	addi	s0,sp,656
     136:	0e00                	addi	s0,sp,784
     138:	012c                	addi	a1,sp,136
     13a:	0000                	unimp
     13c:	0405                	addi	s0,s0,1
     13e:	014e                	slli	sp,sp,0x13
     140:	0000                	unimp
     142:	3c0e                	fld	fs8,224(sp)
     144:	0001                	nop
     146:	0200                	addi	s0,sp,256
     148:	0801                	addi	a6,a6,0
     14a:	020c                	addi	a1,sp,256
     14c:	0000                	unimp
     14e:	470e                	lw	a4,192(sp)
     150:	0001                	nop
     152:	0900                	addi	s0,sp,144
     154:	0180                	addi	s0,sp,192
     156:	0000                	unimp
     158:	2504                	fld	fs1,8(a0)
     15a:	00000137          	lui	sp,0x0
     15e:	1109                	addi	sp,sp,-30
     160:	0002                	c.slli	zero,0x0
     162:	0400                	addi	s0,sp,512
     164:	3731                	jal	70 <buf.2810+0x30>
     166:	0001                	nop
     168:	0200                	addi	s0,sp,256
     16a:	0601                	addi	a2,a2,0
     16c:	0205                	addi	tp,tp,1
     16e:	0000                	unimp
     170:	4204                	lw	s1,0(a2)
     172:	0002                	c.slli	zero,0x0
     174:	0500                	addi	s0,sp,640
     176:	0000b57b          	0xb57b
     17a:	0e00                	addi	s0,sp,784
     17c:	0170                	addi	a2,sp,140
     17e:	0000                	unimp
     180:	0202                	slli	tp,tp,0x0
     182:	0405                	addi	s0,s0,1
     184:	0001                	nop
     186:	0200                	addi	s0,sp,256
     188:	0702                	slli	a4,a4,0x0
     18a:	025c                	addi	a5,sp,260
     18c:	0000                	unimp
     18e:	7904                	flw	fs1,48(a0)
     190:	0002                	c.slli	zero,0x0
     192:	0500                	addi	s0,sp,640
     194:	3380                	fld	fs0,32(a5)
     196:	0000                	unimp
     198:	0400                	addi	s0,sp,512
     19a:	0278                	addi	a4,sp,268
     19c:	0000                	unimp
     19e:	8105                	srli	a0,a0,0x1
     1a0:	0025                	c.nop	9
     1a2:	0000                	unimp
     1a4:	e004                	fsw	fs1,0(s0)
     1a6:	0002                	c.slli	zero,0x0
     1a8:	0500                	addi	s0,sp,640
     1aa:	3a84                	fld	fs1,48(a3)
     1ac:	0000                	unimp
     1ae:	0400                	addi	s0,sp,512
     1b0:	02df 0000 8505      	0x8505000002df
     1b6:	002c                	addi	a1,sp,8
     1b8:	0000                	unimp
     1ba:	0402                	slli	s0,s0,0x0
     1bc:	1104                	addi	s1,sp,160
     1be:	0000                	unimp
     1c0:	0200                	addi	s0,sp,256
     1c2:	0308                	addi	a0,sp,384
     1c4:	0009                	c.nop	2
     1c6:	0000                	unimp
     1c8:	0802                	slli	a6,a6,0x0
     1ca:	0604                	addi	s1,sp,768
     1cc:	02000003          	lb	zero,32(zero) # 20 <_tdata_begin+0x20>
     1d0:	0310                	addi	a2,sp,384
     1d2:	0000014b          	fnmsub.s	ft2,ft0,ft0,ft0,rne
     1d6:	2002                	fld	ft0,0(sp)
     1d8:	0002f903          	0x2f903
     1dc:	0f00                	addi	s0,sp,912
     1de:	0000                	unimp
     1e0:	0000                	unimp
     1e2:	0508                	addi	a0,sp,640
     1e4:	01ed                	addi	gp,gp,27
     1e6:	0205                	addi	tp,tp,1
     1e8:	0000                	unimp
     1ea:	6c10                	flw	fa2,24(s0)
     1ec:	0500776f          	jal	a4,723c <_tbss_end+0x71b8>
     1f0:	01ed                	addi	gp,gp,27
     1f2:	018e                	slli	gp,gp,0x3
     1f4:	0000                	unimp
     1f6:	1100                	addi	s0,sp,160
     1f8:	010e                	slli	sp,sp,0x3
     1fa:	0000                	unimp
     1fc:	ed05                	bnez	a0,234 <_tbss_end+0x1b0>
     1fe:	8e01                	sub	a2,a2,s0
     200:	0001                	nop
     202:	0400                	addi	s0,sp,512
     204:	1200                	addi	s0,sp,288
     206:	0508                	addi	a0,sp,640
     208:	01f4                	addi	a3,sp,204
     20a:	0224                	addi	s1,sp,264
     20c:	0000                	unimp
     20e:	05007313          	andi	t1,zero,80
     212:	01f6                	slli	gp,gp,0x1d
     214:	01dd                	addi	gp,gp,23
     216:	0000                	unimp
     218:	006c6c13          	ori	s8,s8,6
     21c:	f705                	bnez	a4,144 <_tbss_end+0xc0>
     21e:	a401                	j	41e <_tbss_end+0x39a>
     220:	0001                	nop
     222:	0000                	unimp
     224:	1314                	addi	a3,sp,416
     226:	0001                	nop
     228:	0500                	addi	s0,sp,640
     22a:	01f8                	addi	a4,sp,204
     22c:	0205                	addi	tp,tp,1
     22e:	0000                	unimp
     230:	240e                	fld	fs0,192(sp)
     232:	0002                	c.slli	zero,0x0
     234:	0c00                	addi	s0,sp,528
     236:	0000017b          	0x17b
     23a:	0245                	addi	tp,tp,17
     23c:	0000                	unimp
     23e:	2515                	jal	862 <_tbss_end+0x7de>
     240:	0000                	unimp
     242:	ff00                	fsw	fs0,56(a4)
     244:	0e00                	addi	s0,sp,784
     246:	0235                	addi	tp,tp,13
     248:	0000                	unimp
     24a:	ed16                	fsw	ft5,152(sp)
     24c:	0001                	nop
     24e:	0500                	addi	s0,sp,640
     250:	01fc                	addi	a5,sp,204
     252:	0245                	addi	tp,tp,17
     254:	0000                	unimp
     256:	d816                	sw	t0,48(sp)
     258:	0001                	nop
     25a:	0500                	addi	s0,sp,640
     25c:	0202                	slli	tp,tp,0x0
     25e:	0245                	addi	tp,tp,17
     260:	0000                	unimp
     262:	00026f17          	auipc	t5,0x26
     266:	0100                	addi	s0,sp,128
     268:	04e6                	slli	s1,s1,0x19
     26a:	01a4                	addi	s1,sp,200
     26c:	0000                	unimp
     26e:	4a3c                	lw	a5,80(a2)
     270:	8000                	0x8000
     272:	03c6                	slli	t2,t2,0x11
     274:	0000                	unimp
     276:	9c01                	0x9c01
     278:	000005a3          	sb	zero,11(zero) # b <_tdata_begin+0xb>
     27c:	7518                	flw	fa4,40(a0)
     27e:	0100                	addi	s0,sp,128
     280:	04e6                	slli	s1,s1,0x19
     282:	01a4                	addi	s1,sp,200
     284:	0000                	unimp
     286:	0000                	unimp
     288:	0000                	unimp
     28a:	7618                	flw	fa4,40(a2)
     28c:	0100                	addi	s0,sp,128
     28e:	04e6                	slli	s1,s1,0x19
     290:	01a4                	addi	s1,sp,200
     292:	0000                	unimp
     294:	0048                	addi	a0,sp,4
     296:	0000                	unimp
     298:	6319                	lui	t1,0x6
     29a:	0100                	addi	s0,sp,128
     29c:	04e8                	addi	a0,sp,588
     29e:	018e                	slli	gp,gp,0x3
     2a0:	0000                	unimp
     2a2:	0090                	addi	a2,sp,64
     2a4:	0000                	unimp
     2a6:	7519                	lui	a0,0xfffe6
     2a8:	0075                	c.nop	29
     2aa:	e901                	bnez	a0,2ba <_tbss_end+0x236>
     2ac:	2404                	fld	fs1,8(s0)
     2ae:	0002                	c.slli	zero,0x0
     2b0:	c700                	sw	s0,8(a4)
     2b2:	0000                	unimp
     2b4:	1900                	addi	s0,sp,176
     2b6:	7676                	flw	fa2,124(sp)
     2b8:	0100                	addi	s0,sp,128
     2ba:	04ea                	slli	s1,s1,0x1a
     2bc:	0224                	addi	s1,sp,264
     2be:	0000                	unimp
     2c0:	00ff                	0xff
     2c2:	0000                	unimp
     2c4:	7719                	lui	a4,0xfffe6
     2c6:	0100                	addi	s0,sp,128
     2c8:	01a404eb          	0x1a404eb
     2cc:	0000                	unimp
     2ce:	00000127          	0x127
     2d2:	a31a                	fsd	ft6,384(sp)
     2d4:	0005                	c.nop	1
     2d6:	5400                	lw	s0,40(s0)
     2d8:	004a                	c.slli	zero,0x12
     2da:	0080                	addi	s0,sp,64
     2dc:	0000                	unimp
     2de:	0100                	addi	s0,sp,128
     2e0:	c81b04f3          	0xc81b04f3
     2e4:	0005                	c.nop	1
     2e6:	5f00                	lw	s0,56(a4)
     2e8:	0001                	nop
     2ea:	1c00                	addi	s0,sp,560
     2ec:	05be                	slli	a1,a1,0xf
     2ee:	0000                	unimp
     2f0:	b41c                	fsd	fa5,40(s0)
     2f2:	0005                	c.nop	1
     2f4:	1d00                	addi	s0,sp,688
     2f6:	0000                	unimp
     2f8:	0000                	unimp
     2fa:	d31e                	sw	t2,164(sp)
     2fc:	0005                	c.nop	1
     2fe:	1e00                	addi	s0,sp,816
     300:	05de                	slli	a1,a1,0x17
     302:	0000                	unimp
     304:	e91e                	fsw	ft7,144(sp)
     306:	0005                	c.nop	1
     308:	1f00                	addi	s0,sp,944
     30a:	05f4                	addi	a3,sp,716
     30c:	0000                	unimp
     30e:	00000197          	auipc	gp,0x0
     312:	ff1f 0005 5a00      	0x5a000005ff1f
     318:	0002                	c.slli	zero,0x0
     31a:	1f00                	addi	s0,sp,944
     31c:	060a                	slli	a2,a2,0x2
     31e:	0000                	unimp
     320:	02f1                	addi	t0,t0,28
     322:	0000                	unimp
     324:	151f 0006 aa00      	0xaa000006151f
     32a:	1f000003          	lb	zero,496(zero) # 1f0 <_tbss_end+0x16c>
     32e:	0620                	addi	s0,sp,776
     330:	0000                	unimp
     332:	0420                	addi	s0,sp,520
     334:	0000                	unimp
     336:	2b1f 0006 4e00      	0x4e0000062b1f
     33c:	0004                	0x4
     33e:	1f00                	addi	s0,sp,944
     340:	0636                	slli	a2,a2,0xd
     342:	0000                	unimp
     344:	0462                	slli	s0,s0,0x18
     346:	0000                	unimp
     348:	411f 0006 8e00      	0x8e000006411f
     34e:	0004                	0x4
     350:	1f00                	addi	s0,sp,944
     352:	0000064b          	fnmsub.s	fa2,ft0,ft0,ft0,rne
     356:	04c2                	slli	s1,s1,0x10
     358:	0000                	unimp
     35a:	561e                	lw	a2,228(sp)
     35c:	0006                	c.slli	zero,0x1
     35e:	2000                	fld	fs0,0(s0)
     360:	0661                	addi	a2,a2,24
     362:	0000                	unimp
     364:	0020                	addi	s0,sp,8
     366:	0000                	unimp
     368:	037f                	0x37f
     36a:	0000                	unimp
     36c:	661f 0006 2200      	0x22000006661f
     372:	0005                	c.nop	1
     374:	1f00                	addi	s0,sp,944
     376:	0672                	slli	a2,a2,0x1c
     378:	0000                	unimp
     37a:	0000054b          	fnmsub.s	fa0,ft0,ft0,ft0,rne
     37e:	2100                	fld	fs0,0(a0)
     380:	067f                	0x67f
     382:	0000                	unimp
     384:	4aa2                	lw	s5,8(sp)
     386:	8000                	0x8000
     388:	004a                	c.slli	zero,0x12
     38a:	0000                	unimp
     38c:	03cc                	addi	a1,sp,452
     38e:	0000                	unimp
     390:	841f 0006 5e00      	0x5e000006841f
     396:	0005                	c.nop	1
     398:	1f00                	addi	s0,sp,944
     39a:	0690                	addi	a2,sp,832
     39c:	0000                	unimp
     39e:	0571                	addi	a0,a0,28
     3a0:	0000                	unimp
     3a2:	9c1f 0006 9500      	0x950000069c1f
     3a8:	0005                	c.nop	1
     3aa:	1e00                	addi	s0,sp,816
     3ac:	06a8                	addi	a0,sp,840
     3ae:	0000                	unimp
     3b0:	b41f 0006 e300      	0xe3000006b41f
     3b6:	0005                	c.nop	1
     3b8:	1f00                	addi	s0,sp,944
     3ba:	06c0                	addi	s0,sp,836
     3bc:	0000                	unimp
     3be:	0611                	addi	a2,a2,4
     3c0:	0000                	unimp
     3c2:	cc1f 0006 2f00      	0x2f000006cc1f
     3c8:	0006                	c.slli	zero,0x1
     3ca:	0000                	unimp
     3cc:	5120                	lw	s0,96(a0)
     3ce:	40000007          	0x40000007
     3d2:	0000                	unimp
     3d4:	1100                	addi	s0,sp,160
     3d6:	0004                	0x4
     3d8:	1f00                	addi	s0,sp,944
     3da:	0756                	slli	a4,a4,0x15
     3dc:	0000                	unimp
     3de:	067a                	slli	a2,a2,0x1e
     3e0:	0000                	unimp
     3e2:	621f 0007 a000      	0xa0000007621f
     3e8:	0006                	c.slli	zero,0x1
     3ea:	1e00                	addi	s0,sp,816
     3ec:	076e                	slli	a4,a4,0x1b
     3ee:	0000                	unimp
     3f0:	7a1e                	flw	fs4,228(sp)
     3f2:	1f000007          	0x1f000007
     3f6:	0786                	slli	a5,a5,0x1
     3f8:	0000                	unimp
     3fa:	06ca                	slli	a3,a3,0x12
     3fc:	0000                	unimp
     3fe:	921f 0007 f300      	0xf3000007921f
     404:	0006                	c.slli	zero,0x1
     406:	1f00                	addi	s0,sp,944
     408:	079e                	slli	a5,a5,0x7
     40a:	0000                	unimp
     40c:	0754                	addi	a3,sp,900
     40e:	0000                	unimp
     410:	2000                	fld	fs0,0(s0)
     412:	000007ab          	0x7ab
     416:	0060                	addi	s0,sp,12
     418:	0000                	unimp
     41a:	0431                	addi	s0,s0,12
     41c:	0000                	unimp
     41e:	b01f 0007 7d00      	0x7d000007b01f
     424:	1f000007          	0x1f000007
     428:	07bc                	addi	a5,sp,968
     42a:	0000                	unimp
     42c:	07bc                	addi	a5,sp,968
     42e:	0000                	unimp
     430:	2100                	fld	fs0,0(a0)
     432:	07c9                	addi	a5,a5,18
     434:	0000                	unimp
     436:	4b44                	lw	s1,20(a4)
     438:	8000                	0x8000
     43a:	000e                	c.slli	zero,0x3
     43c:	0000                	unimp
     43e:	044c                	addi	a1,sp,516
     440:	0000                	unimp
     442:	ce1f 0007 da00      	0xda000007ce1f
     448:	00000007          	0x7
     44c:	d920                	sw	s0,112(a0)
     44e:	0006                	c.slli	zero,0x1
     450:	8800                	0x8800
     452:	0000                	unimp
     454:	6c00                	flw	fs0,24(s0)
     456:	0004                	0x4
     458:	1f00                	addi	s0,sp,944
     45a:	06de                	slli	a3,a3,0x17
     45c:	0000                	unimp
     45e:	07ed                	addi	a5,a5,27
     460:	0000                	unimp
     462:	ea1f 0006 3700      	0x37000006ea1f
     468:	0008                	0x8
     46a:	0000                	unimp
     46c:	f720                	fsw	fs0,104(a4)
     46e:	0006                	c.slli	zero,0x1
     470:	a800                	fsd	fs0,16(s0)
     472:	0000                	unimp
     474:	b100                	fsd	fs0,32(a0)
     476:	0004                	0x4
     478:	1f00                	addi	s0,sp,944
     47a:	06fc                	addi	a5,sp,844
     47c:	0000                	unimp
     47e:	084a                	slli	a6,a6,0x12
     480:	0000                	unimp
     482:	081f 0007 5d00      	0x5d000007081f
     488:	0008                	0x8
     48a:	1e00                	addi	s0,sp,816
     48c:	0714                	addi	a3,sp,896
     48e:	0000                	unimp
     490:	201e                	fld	ft0,448(sp)
     492:	1f000007          	0x1f000007
     496:	072c                	addi	a1,sp,904
     498:	0000                	unimp
     49a:	0870                	addi	a2,sp,28
     49c:	0000                	unimp
     49e:	381f 0007 8e00      	0x8e000007381f
     4a4:	0008                	0x8
     4a6:	1f00                	addi	s0,sp,944
     4a8:	0744                	addi	s1,sp,900
     4aa:	0000                	unimp
     4ac:	08ac                	addi	a1,sp,88
     4ae:	0000                	unimp
     4b0:	2200                	fld	fs0,0(a2)
     4b2:	000007db          	0x7db
     4b6:	00d0                	addi	a2,sp,68
     4b8:	0000                	unimp
     4ba:	dc1f 0007 ca00      	0xca000007dc1f
     4c0:	0008                	0x8
     4c2:	1f00                	addi	s0,sp,944
     4c4:	000007e7          	jalr	a5,zero
     4c8:	0906                	slli	s2,s2,0x1
     4ca:	0000                	unimp
     4cc:	f220                	fsw	fs0,96(a2)
     4ce:	f0000007          	0xf0000007
     4d2:	0000                	unimp
     4d4:	1900                	addi	s0,sp,176
     4d6:	0005                	c.nop	1
     4d8:	1f00                	addi	s0,sp,944
     4da:	000007f7          	0x7f7
     4de:	0000092f          	0x92f
     4e2:	031f 0008 7a00      	0x7a000008031f
     4e8:	0009                	c.nop	2
     4ea:	1f00                	addi	s0,sp,944
     4ec:	0000080f          	0x80f
     4f0:	000009cb          	fnmsub.s	fs3,ft0,ft0,ft0,rne
     4f4:	1b1f 0008 0a00      	0xa0000081b1f
     4fa:	000a                	c.slli	zero,0x2
     4fc:	1f00                	addi	s0,sp,944
     4fe:	00000827          	0x827
     502:	0a3e                	slli	s4,s4,0xf
     504:	0000                	unimp
     506:	331f 0008 8200      	0x82000008331f
     50c:	000a                	c.slli	zero,0x2
     50e:	1f00                	addi	s0,sp,944
     510:	0000083f 00000ad3 	0xad30000083f
     518:	2000                	fld	fs0,0(s0)
     51a:	084c                	addi	a1,sp,20
     51c:	0000                	unimp
     51e:	0128                	addi	a0,sp,136
     520:	0000                	unimp
     522:	056d                	addi	a0,a0,27
     524:	0000                	unimp
     526:	511f 0008 1200      	0x12000008511f
     52c:	1f00000b          	0x1f00000b
     530:	085d                	addi	a6,a6,23
     532:	0000                	unimp
     534:	0b25                	addi	s6,s6,9
     536:	0000                	unimp
     538:	691f 0008 4a00      	0x4a000008691f
     53e:	1f00000b          	0x1f00000b
     542:	0875                	addi	a6,a6,29
     544:	0000                	unimp
     546:	0b5d                	addi	s6,s6,23
     548:	0000                	unimp
     54a:	811f 0008 7000      	0x70000008811f
     550:	1f00000b          	0x1f00000b
     554:	088d                	addi	a7,a7,3
     556:	0000                	unimp
     558:	00000b83          	lb	s7,0(zero) # 0 <_tdata_begin>
     55c:	991f 0008 d600      	0xd6000008991f
     562:	2300000b          	0x2300000b
     566:	08a5                	addi	a7,a7,9
     568:	0000                	unimp
     56a:	5b01                	li	s6,-32
     56c:	2100                	fld	fs0,0(a0)
     56e:	08b2                	slli	a7,a7,0xc
     570:	0000                	unimp
     572:	4da0                	lw	s0,88(a1)
     574:	8000                	0x8000
     576:	0012                	c.slli	zero,0x4
     578:	0000                	unimp
     57a:	0588                	addi	a0,sp,704
     57c:	0000                	unimp
     57e:	b71f 0008 e900      	0xe9000008b71f
     584:	0000000b          	0xb
     588:	c424                	sw	s1,72(s0)
     58a:	0008                	0x8
     58c:	b200                	fsd	fs0,32(a2)
     58e:	004d                	c.nop	19
     590:	0a80                	addi	s0,sp,336
     592:	0000                	unimp
     594:	1f00                	addi	s0,sp,944
     596:	08c5                	addi	a7,a7,17
     598:	0000                	unimp
     59a:	0bfc                	addi	a5,sp,476
     59c:	0000                	unimp
     59e:	0000                	unimp
     5a0:	0000                	unimp
     5a2:	2500                	fld	fs0,8(a0)
     5a4:	02ec                	addi	a1,sp,332
     5a6:	0000                	unimp
     5a8:	f601                	bnez	a2,4b0 <_tbss_end+0x42c>
     5aa:	0001af03          	lw	t5,0(gp) # 30e <_tbss_end+0x28a>
     5ae:	0300                	addi	s0,sp,384
     5b0:	08d4                	addi	a3,sp,84
     5b2:	0000                	unimp
     5b4:	6e26                	flw	ft8,72(sp)
     5b6:	0100                	addi	s0,sp,128
     5b8:	03f6                	slli	t2,t2,0x1d
     5ba:	000001af          	0x1af
     5be:	6426                	flw	fs0,72(sp)
     5c0:	0100                	addi	s0,sp,128
     5c2:	03f6                	slli	t2,t2,0x1d
     5c4:	000001af          	0x1af
     5c8:	7226                	flw	ft4,104(sp)
     5ca:	0070                	addi	a2,sp,12
     5cc:	f601                	bnez	a2,4d4 <_tbss_end+0x450>
     5ce:	0008d403          	lhu	s0,0(a7)
     5d2:	2700                	fld	fs0,8(a4)
     5d4:	6e6e                	flw	ft8,216(sp)
     5d6:	0100                	addi	s0,sp,128
     5d8:	03f8                	addi	a4,sp,460
     5da:	0230                	addi	a2,sp,264
     5dc:	0000                	unimp
     5de:	00646427          	0x646427
     5e2:	f901                	bnez	a0,4f2 <_tbss_end+0x46e>
     5e4:	00023003          	0x23003
     5e8:	2700                	fld	fs0,8(a4)
     5ea:	7272                	flw	ft4,60(sp)
     5ec:	0100                	addi	s0,sp,128
     5ee:	03fa                	slli	t2,t2,0x1e
     5f0:	0224                	addi	s1,sp,264
     5f2:	0000                	unimp
     5f4:	00306427          	0x306427
     5f8:	fb01                	bnez	a4,508 <_tbss_end+0x484>
     5fa:	00019903          	lh	s2,0(gp) # 90000800 <__global_pointer$>
     5fe:	2700                	fld	fs0,8(a4)
     600:	3164                	fld	fs1,224(a0)
     602:	0100                	addi	s0,sp,128
     604:	019903fb          	0x19903fb
     608:	0000                	unimp
     60a:	00306e27          	0x306e27
     60e:	fb01                	bnez	a4,51e <_tbss_end+0x49a>
     610:	00019903          	lh	s2,0(gp) # 90000800 <__global_pointer$>
     614:	2700                	fld	fs0,8(a4)
     616:	316e                	fld	ft2,248(sp)
     618:	0100                	addi	s0,sp,128
     61a:	019903fb          	0x19903fb
     61e:	0000                	unimp
     620:	00326e27          	0x326e27
     624:	fb01                	bnez	a4,534 <_tbss_end+0x4b0>
     626:	00019903          	lh	s2,0(gp) # 90000800 <__global_pointer$>
     62a:	2700                	fld	fs0,8(a4)
     62c:	3071                	jal	fffffeb8 <__global_pointer$+0x6ffff6b8>
     62e:	0100                	addi	s0,sp,128
     630:	03fc                	addi	a5,sp,460
     632:	0199                	addi	gp,gp,6
     634:	0000                	unimp
     636:	00317127          	0x317127
     63a:	fc01                	bnez	s0,552 <_tbss_end+0x4ce>
     63c:	00019903          	lh	s2,0(gp) # 90000800 <__global_pointer$>
     640:	2700                	fld	fs0,8(a4)
     642:	0062                	c.slli	zero,0x18
     644:	fd01                	bnez	a0,55c <_tbss_end+0x4d8>
     646:	00019903          	lh	s2,0(gp) # 90000800 <__global_pointer$>
     64a:	2700                	fld	fs0,8(a4)
     64c:	6d62                	flw	fs10,24(sp)
     64e:	0100                	addi	s0,sp,128
     650:	03fd                	addi	t2,t2,31
     652:	0199                	addi	gp,gp,6
     654:	0000                	unimp
     656:	00777727          	0x777727
     65a:	c601                	beqz	a2,662 <_tbss_end+0x5de>
     65c:	3004                	fld	fs1,32(s0)
     65e:	0002                	c.slli	zero,0x0
     660:	2800                	fld	fs0,16(s0)
     662:	067f                	0x67f
     664:	0000                	unimp
     666:	e729                	bnez	a4,6b0 <_tbss_end+0x62c>
     668:	0002                	c.slli	zero,0x0
     66a:	0100                	addi	s0,sp,128
     66c:	042d                	addi	s0,s0,11
     66e:	0199                	addi	gp,gp,6
     670:	0000                	unimp
     672:	615f5f27          	0x615f5f27
     676:	0100                	addi	s0,sp,128
     678:	042d                	addi	s0,s0,11
     67a:	0199                	addi	gp,gp,6
     67c:	0000                	unimp
     67e:	2800                	fld	fs0,16(s0)
     680:	06d9                	addi	a3,a3,22
     682:	0000                	unimp
     684:	3d29                	jal	49e <_tbss_end+0x41a>
     686:	0001                	nop
     688:	0100                	addi	s0,sp,128
     68a:	0439                	addi	s0,s0,14
     68c:	0199                	addi	gp,gp,6
     68e:	0000                	unimp
     690:	3829                	jal	fffffeaa <__global_pointer$+0x6ffff6aa>
     692:	0001                	nop
     694:	0100                	addi	s0,sp,128
     696:	0439                	addi	s0,s0,14
     698:	0199                	addi	gp,gp,6
     69a:	0000                	unimp
     69c:	d029                	beqz	s0,5de <_tbss_end+0x55a>
     69e:	0002                	c.slli	zero,0x0
     6a0:	0100                	addi	s0,sp,128
     6a2:	0439                	addi	s0,s0,14
     6a4:	0199                	addi	gp,gp,6
     6a6:	0000                	unimp
     6a8:	cb29                	beqz	a4,6fa <_tbss_end+0x676>
     6aa:	0002                	c.slli	zero,0x0
     6ac:	0100                	addi	s0,sp,128
     6ae:	0439                	addi	s0,s0,14
     6b0:	0199                	addi	gp,gp,6
     6b2:	0000                	unimp
     6b4:	1229                	addi	tp,tp,-22
     6b6:	01000003          	lb	zero,16(zero) # 10 <_tdata_begin+0x10>
     6ba:	0439                	addi	s0,s0,14
     6bc:	0199                	addi	gp,gp,6
     6be:	0000                	unimp
     6c0:	0d29                	addi	s10,s10,10
     6c2:	01000003          	lb	zero,16(zero) # 10 <_tdata_begin+0x10>
     6c6:	0439                	addi	s0,s0,14
     6c8:	0199                	addi	gp,gp,6
     6ca:	0000                	unimp
     6cc:	6d5f5f27          	0x6d5f5f27
     6d0:	0100                	addi	s0,sp,128
     6d2:	0439                	addi	s0,s0,14
     6d4:	0199                	addi	gp,gp,6
     6d6:	0000                	unimp
     6d8:	2800                	fld	fs0,16(s0)
     6da:	000006f7          	0x6f7
     6de:	e729                	bnez	a4,728 <_tbss_end+0x6a4>
     6e0:	0002                	c.slli	zero,0x0
     6e2:	0100                	addi	s0,sp,128
     6e4:	0445                	addi	s0,s0,17
     6e6:	0199                	addi	gp,gp,6
     6e8:	0000                	unimp
     6ea:	615f5f27          	0x615f5f27
     6ee:	0100                	addi	s0,sp,128
     6f0:	0445                	addi	s0,s0,17
     6f2:	0199                	addi	gp,gp,6
     6f4:	0000                	unimp
     6f6:	2800                	fld	fs0,16(s0)
     6f8:	0751                	addi	a4,a4,20
     6fa:	0000                	unimp
     6fc:	3d29                	jal	516 <_tbss_end+0x492>
     6fe:	0001                	nop
     700:	0100                	addi	s0,sp,128
     702:	045e                	slli	s0,s0,0x17
     704:	0199                	addi	gp,gp,6
     706:	0000                	unimp
     708:	3829                	jal	ffffff22 <__global_pointer$+0x6ffff722>
     70a:	0001                	nop
     70c:	0100                	addi	s0,sp,128
     70e:	045e                	slli	s0,s0,0x17
     710:	0199                	addi	gp,gp,6
     712:	0000                	unimp
     714:	d029                	beqz	s0,656 <_tbss_end+0x5d2>
     716:	0002                	c.slli	zero,0x0
     718:	0100                	addi	s0,sp,128
     71a:	045e                	slli	s0,s0,0x17
     71c:	0199                	addi	gp,gp,6
     71e:	0000                	unimp
     720:	cb29                	beqz	a4,772 <_tbss_end+0x6ee>
     722:	0002                	c.slli	zero,0x0
     724:	0100                	addi	s0,sp,128
     726:	045e                	slli	s0,s0,0x17
     728:	0199                	addi	gp,gp,6
     72a:	0000                	unimp
     72c:	1229                	addi	tp,tp,-22
     72e:	01000003          	lb	zero,16(zero) # 10 <_tdata_begin+0x10>
     732:	045e                	slli	s0,s0,0x17
     734:	0199                	addi	gp,gp,6
     736:	0000                	unimp
     738:	0d29                	addi	s10,s10,10
     73a:	01000003          	lb	zero,16(zero) # 10 <_tdata_begin+0x10>
     73e:	045e                	slli	s0,s0,0x17
     740:	0199                	addi	gp,gp,6
     742:	0000                	unimp
     744:	6d5f5f27          	0x6d5f5f27
     748:	0100                	addi	s0,sp,128
     74a:	045e                	slli	s0,s0,0x17
     74c:	0199                	addi	gp,gp,6
     74e:	0000                	unimp
     750:	2800                	fld	fs0,16(s0)
     752:	000007ab          	0x7ab
     756:	3d29                	jal	570 <_tbss_end+0x4ec>
     758:	0001                	nop
     75a:	0100                	addi	s0,sp,128
     75c:	01990463          	beq	s2,s9,764 <_tbss_end+0x6e0>
     760:	0000                	unimp
     762:	3829                	jal	ffffff7c <__global_pointer$+0x6ffff77c>
     764:	0001                	nop
     766:	0100                	addi	s0,sp,128
     768:	01990463          	beq	s2,s9,770 <_tbss_end+0x6ec>
     76c:	0000                	unimp
     76e:	d029                	beqz	s0,6b0 <_tbss_end+0x62c>
     770:	0002                	c.slli	zero,0x0
     772:	0100                	addi	s0,sp,128
     774:	01990463          	beq	s2,s9,77c <_tbss_end+0x6f8>
     778:	0000                	unimp
     77a:	cb29                	beqz	a4,7cc <_tbss_end+0x748>
     77c:	0002                	c.slli	zero,0x0
     77e:	0100                	addi	s0,sp,128
     780:	01990463          	beq	s2,s9,788 <_tbss_end+0x704>
     784:	0000                	unimp
     786:	1229                	addi	tp,tp,-22
     788:	01000003          	lb	zero,16(zero) # 10 <_tdata_begin+0x10>
     78c:	01990463          	beq	s2,s9,794 <_tbss_end+0x710>
     790:	0000                	unimp
     792:	0d29                	addi	s10,s10,10
     794:	01000003          	lb	zero,16(zero) # 10 <_tdata_begin+0x10>
     798:	01990463          	beq	s2,s9,7a0 <_tbss_end+0x71c>
     79c:	0000                	unimp
     79e:	6d5f5f27          	0x6d5f5f27
     7a2:	0100                	addi	s0,sp,128
     7a4:	01990463          	beq	s2,s9,7ac <_tbss_end+0x728>
     7a8:	0000                	unimp
     7aa:	2800                	fld	fs0,16(s0)
     7ac:	07c9                	addi	a5,a5,18
     7ae:	0000                	unimp
     7b0:	e729                	bnez	a4,7fa <_tbss_end+0x776>
     7b2:	0002                	c.slli	zero,0x0
     7b4:	0100                	addi	s0,sp,128
     7b6:	0486                	slli	s1,s1,0x1
     7b8:	0199                	addi	gp,gp,6
     7ba:	0000                	unimp
     7bc:	615f5f27          	0x615f5f27
     7c0:	0100                	addi	s0,sp,128
     7c2:	0486                	slli	s1,s1,0x1
     7c4:	0199                	addi	gp,gp,6
     7c6:	0000                	unimp
     7c8:	2800                	fld	fs0,16(s0)
     7ca:	000007db          	0x7db
     7ce:	785f5f27          	0x785f5f27
     7d2:	0100                	addi	s0,sp,128
     7d4:	0494                	addi	a3,sp,576
     7d6:	0199                	addi	gp,gp,6
     7d8:	0000                	unimp
     7da:	2a00                	fld	fs0,16(a2)
     7dc:	00316d27          	0x316d27
     7e0:	a401                	j	9e0 <_tbss_end+0x95c>
     7e2:	9904                	0x9904
     7e4:	0001                	nop
     7e6:	2700                	fld	fs0,8(a4)
     7e8:	306d                	jal	92 <_tbss_end+0xe>
     7ea:	0100                	addi	s0,sp,128
     7ec:	04a4                	addi	s1,sp,584
     7ee:	0199                	addi	gp,gp,6
     7f0:	0000                	unimp
     7f2:	4c28                	lw	a0,88(s0)
     7f4:	0008                	0x8
     7f6:	2900                	fld	fs0,16(a0)
     7f8:	013d                	addi	sp,sp,15
     7fa:	0000                	unimp
     7fc:	af01                	j	f0c <_tbss_end+0xe88>
     7fe:	9904                	0x9904
     800:	0001                	nop
     802:	2900                	fld	fs0,16(a0)
     804:	0138                	addi	a4,sp,136
     806:	0000                	unimp
     808:	af01                	j	f18 <_tbss_end+0xe94>
     80a:	9904                	0x9904
     80c:	0001                	nop
     80e:	2900                	fld	fs0,16(a0)
     810:	02d0                	addi	a2,sp,324
     812:	0000                	unimp
     814:	af01                	j	f24 <_tbss_end+0xea0>
     816:	9904                	0x9904
     818:	0001                	nop
     81a:	2900                	fld	fs0,16(a0)
     81c:	000002cb          	fnmsub.s	ft5,ft0,ft0,ft0,rne
     820:	af01                	j	f30 <_tbss_end+0xeac>
     822:	9904                	0x9904
     824:	0001                	nop
     826:	2900                	fld	fs0,16(a0)
     828:	0312                	slli	t1,t1,0x4
     82a:	0000                	unimp
     82c:	af01                	j	f3c <_tbss_end+0xeb8>
     82e:	9904                	0x9904
     830:	0001                	nop
     832:	2900                	fld	fs0,16(a0)
     834:	030d                	addi	t1,t1,3
     836:	0000                	unimp
     838:	af01                	j	f48 <_tbss_end+0xec4>
     83a:	9904                	0x9904
     83c:	0001                	nop
     83e:	2700                	fld	fs0,8(a4)
     840:	5f5f 006d af01      	0xaf01006d5f5f
     846:	9904                	0x9904
     848:	0001                	nop
     84a:	0000                	unimp
     84c:	b228                	fsd	fa0,96(a2)
     84e:	0008                	0x8
     850:	2900                	fld	fs0,16(a0)
     852:	022e                	slli	tp,tp,0xb
     854:	0000                	unimp
     856:	b001                	j	56 <buf.2810+0x16>
     858:	9904                	0x9904
     85a:	0001                	nop
     85c:	2900                	fld	fs0,16(a0)
     85e:	00000233          	add	tp,zero,zero
     862:	b001                	j	62 <buf.2810+0x22>
     864:	9904                	0x9904
     866:	0001                	nop
     868:	2900                	fld	fs0,16(a0)
     86a:	0238                	addi	a4,sp,264
     86c:	0000                	unimp
     86e:	b001                	j	6e <buf.2810+0x2e>
     870:	9904                	0x9904
     872:	0001                	nop
     874:	2900                	fld	fs0,16(a0)
     876:	023d                	addi	tp,tp,15
     878:	0000                	unimp
     87a:	b001                	j	7a <buf.2810+0x3a>
     87c:	9904                	0x9904
     87e:	0001                	nop
     880:	2900                	fld	fs0,16(a0)
     882:	0326                	slli	t1,t1,0x9
     884:	0000                	unimp
     886:	b001                	j	86 <_tbss_end+0x2>
     888:	9904                	0x9904
     88a:	0001                	nop
     88c:	2900                	fld	fs0,16(a0)
     88e:	016a                	slli	sp,sp,0x1a
     890:	0000                	unimp
     892:	b001                	j	92 <_tbss_end+0xe>
     894:	9904                	0x9904
     896:	0001                	nop
     898:	2900                	fld	fs0,16(a0)
     89a:	00000317          	auipc	t1,0x0
     89e:	b001                	j	9e <_tbss_end+0x1a>
     8a0:	9904                	0x9904
     8a2:	0001                	nop
     8a4:	2900                	fld	fs0,16(a0)
     8a6:	015a                	slli	sp,sp,0x16
     8a8:	0000                	unimp
     8aa:	b001                	j	aa <_tbss_end+0x26>
     8ac:	9904                	0x9904
     8ae:	0001                	nop
     8b0:	0000                	unimp
     8b2:	c428                	sw	a0,72(s0)
     8b4:	0008                	0x8
     8b6:	2700                	fld	fs0,8(a4)
     8b8:	5f5f 0078 b501      	0xb50100785f5f
     8be:	9904                	0x9904
     8c0:	0001                	nop
     8c2:	0000                	unimp
     8c4:	272a                	fld	fa4,136(sp)
     8c6:	5f5f 0078 bd01      	0xbd0100785f5f
     8cc:	9904                	0x9904
     8ce:	0001                	nop
     8d0:	0000                	unimp
     8d2:	0000                	unimp
     8d4:	0405                	addi	s0,s0,1
     8d6:	000001af          	0x1af
     8da:	6600                	flw	fs0,8(a2)
     8dc:	0008                	0x8
     8de:	0400                	addi	s0,sp,512
     8e0:	f200                	fsw	fs0,32(a2)
     8e2:	0001                	nop
     8e4:	0400                	addi	s0,sp,512
     8e6:	2701                	jal	fe6 <_tbss_end+0xf62>
     8e8:	0000                	unimp
     8ea:	0c00                	addi	s0,sp,528
     8ec:	0280                	addi	s0,sp,320
     8ee:	0000                	unimp
     8f0:	0000032b          	0x32b
     8f4:	0308                	addi	a0,sp,384
     8f6:	0000                	unimp
     8f8:	0000                	unimp
     8fa:	0000                	unimp
     8fc:	0348                	addi	a0,sp,388
     8fe:	0000                	unimp
     900:	0802                	slli	a6,a6,0x0
     902:	0001a307          	flw	ft6,0(gp) # 90000800 <__global_pointer$>
     906:	0200                	addi	s0,sp,256
     908:	0704                	addi	s1,sp,896
     90a:	01ad                	addi	gp,gp,11
     90c:	0000                	unimp
     90e:	69050403          	lb	s0,1680(a0) # fffe6690 <__global_pointer$+0x6ffe5e90>
     912:	746e                	flw	fs0,248(sp)
     914:	0200                	addi	s0,sp,256
     916:	0508                	addi	a0,sp,640
     918:	012a                	slli	sp,sp,0xa
     91a:	0000                	unimp
     91c:	1002                	c.slli	zero,0x20
     91e:	0104                	addi	s1,sp,128
     920:	04000003          	lb	zero,64(zero) # 40 <buf.2810>
     924:	02d5                	addi	t0,t0,21
     926:	0000                	unimp
     928:	2a02                	fld	fs4,0(sp)
     92a:	002c                	addi	a1,sp,8
     92c:	0000                	unimp
     92e:	9904                	0x9904
     930:	0001                	nop
     932:	0200                	addi	s0,sp,256
     934:	00005e2f          	0x5e2f
     938:	0500                	addi	s0,sp,640
     93a:	6404                	flw	fs1,8(s0)
     93c:	0000                	unimp
     93e:	0600                	addi	s0,sp,768
     940:	0048                	addi	a0,sp,4
     942:	0000                	unimp
     944:	00000073          	ecall
     948:	00007307          	0x7307
     94c:	0000                	unimp
     94e:	0405                	addi	s0,s0,1
     950:	0079                	c.nop	30
     952:	0000                	unimp
     954:	0408                	addi	a0,sp,512
     956:	0372                	slli	t1,t1,0x1c
     958:	0000                	unimp
     95a:	3602                	fld	fa2,32(sp)
     95c:	0085                	addi	ra,ra,1
     95e:	0000                	unimp
     960:	0405                	addi	s0,s0,1
     962:	0000008b          	0x8b
     966:	3306                	fld	ft6,96(sp)
     968:	0000                	unimp
     96a:	9f00                	0x9f00
     96c:	0000                	unimp
     96e:	0700                	addi	s0,sp,896
     970:	00000073          	ecall
     974:	00007307          	0x7307
     978:	0000                	unimp
     97a:	4a09                	li	s4,2
     97c:	0002                	c.slli	zero,0x0
     97e:	0200                	addi	s0,sp,256
     980:	000053bb          	0x53bb
     984:	0900                	addi	s0,sp,144
     986:	00000017          	auipc	zero,0x0
     98a:	be02                	fsd	ft0,312(sp)
     98c:	007a                	c.slli	zero,0x1e
     98e:	0000                	unimp
     990:	0102                	slli	sp,sp,0x0
     992:	0308                	addi	a0,sp,384
     994:	0002                	c.slli	zero,0x0
     996:	0a00                	addi	s0,sp,272
     998:	0000011b          	0x11b
     99c:	002c0407          	0x2c0407
     9a0:	0000                	unimp
     9a2:	00f21803          	lh	a6,15(tp) # 1b00f <_tbss_end+0x1af8b>
     9a6:	0000                	unimp
     9a8:	00031c0b          	0x31c0b
     9ac:	0000                	unimp
     9ae:	00015f0b          	0x15f0b
     9b2:	0100                	addi	s0,sp,128
     9b4:	0001e20b          	0x1e20b
     9b8:	0200                	addi	s0,sp,256
     9ba:	0001420b          	0x1420b
     9be:	0300                	addi	s0,sp,384
     9c0:	0001ce0b          	0x1ce0b
     9c4:	0400                	addi	s0,sp,512
     9c6:	0001c40b          	0x1c40b
     9ca:	0500                	addi	s0,sp,640
     9cc:	0900                	addi	s0,sp,144
     9ce:	01ba                	slli	gp,gp,0xe
     9d0:	0000                	unimp
     9d2:	00bc2003          	lw	zero,11(s8) # fffe000b <__global_pointer$+0x6ffdf80b>
     9d6:	0000                	unimp
     9d8:	6f0a                	flw	ft10,128(sp)
     9da:	0001                	nop
     9dc:	0700                	addi	s0,sp,896
     9de:	2c04                	fld	fs1,24(s0)
     9e0:	0000                	unimp
     9e2:	0300                	addi	s0,sp,384
     9e4:	2122                	fld	ft2,8(sp)
     9e6:	0001                	nop
     9e8:	0b00                	addi	s0,sp,400
     9ea:	0000018f          	0x18f
     9ee:	0b00                	addi	s0,sp,400
     9f0:	037a                	slli	t1,t1,0x1e
     9f2:	0000                	unimp
     9f4:	0b01                	addi	s6,s6,0
     9f6:	01fc                	addi	a5,sp,204
     9f8:	0000                	unimp
     9fa:	0002                	c.slli	zero,0x0
     9fc:	2109                	jal	dfe <_tbss_end+0xd7a>
     9fe:	0002                	c.slli	zero,0x0
     a00:	0300                	addi	s0,sp,384
     a02:	0000fd27          	0xfd27
     a06:	0c00                	addi	s0,sp,528
     a08:	0142                	slli	sp,sp,0x10
     a0a:	0000                	unimp
     a0c:	00000137          	lui	sp,0x0
     a10:	000d                	c.nop	3
     a12:	2c0e                	fld	fs8,192(sp)
     a14:	0001                	nop
     a16:	0500                	addi	s0,sp,640
     a18:	4e04                	lw	s1,24(a2)
     a1a:	0001                	nop
     a1c:	0e00                	addi	s0,sp,784
     a1e:	013c                	addi	a5,sp,136
     a20:	0000                	unimp
     a22:	0102                	slli	sp,sp,0x0
     a24:	0c08                	addi	a0,sp,528
     a26:	0002                	c.slli	zero,0x0
     a28:	0e00                	addi	s0,sp,784
     a2a:	00000147          	fmsub.s	ft2,ft0,ft0,ft0,rne
     a2e:	8009                	srli	s0,s0,0x2
     a30:	0001                	nop
     a32:	0400                	addi	s0,sp,512
     a34:	3725                	jal	95c <_tbss_end+0x8d8>
     a36:	0001                	nop
     a38:	0900                	addi	s0,sp,144
     a3a:	0211                	addi	tp,tp,4
     a3c:	0000                	unimp
     a3e:	3104                	fld	fs1,32(a0)
     a40:	00000137          	lui	sp,0x0
     a44:	0102                	slli	sp,sp,0x0
     a46:	0506                	slli	a0,a0,0x1
     a48:	0002                	c.slli	zero,0x0
     a4a:	0400                	addi	s0,sp,512
     a4c:	0242                	slli	tp,tp,0x10
     a4e:	0000                	unimp
     a50:	7b05                	lui	s6,0xfffe1
     a52:	00b5                	addi	ra,ra,13
     a54:	0000                	unimp
     a56:	700e                	flw	ft0,224(sp)
     a58:	0001                	nop
     a5a:	0200                	addi	s0,sp,256
     a5c:	0502                	slli	a0,a0,0x0
     a5e:	0104                	addi	s1,sp,128
     a60:	0000                	unimp
     a62:	0202                	slli	tp,tp,0x0
     a64:	00025c07          	0x25c07
     a68:	0400                	addi	s0,sp,512
     a6a:	0279                	addi	tp,tp,30
     a6c:	0000                	unimp
     a6e:	8005                	srli	s0,s0,0x1
     a70:	00000033          	add	zero,zero,zero
     a74:	7804                	flw	fs1,48(s0)
     a76:	0002                	c.slli	zero,0x0
     a78:	0500                	addi	s0,sp,640
     a7a:	2c81                	jal	cca <_tbss_end+0xc46>
     a7c:	0000                	unimp
     a7e:	0400                	addi	s0,sp,512
     a80:	02e0                	addi	s0,sp,332
     a82:	0000                	unimp
     a84:	8405                	srai	s0,s0,0x1
     a86:	003a                	c.slli	zero,0xe
     a88:	0000                	unimp
     a8a:	df04                	sw	s1,56(a4)
     a8c:	0002                	c.slli	zero,0x0
     a8e:	0500                	addi	s0,sp,640
     a90:	2585                	jal	10f0 <_tbss_end+0x106c>
     a92:	0000                	unimp
     a94:	0200                	addi	s0,sp,256
     a96:	0404                	addi	s1,sp,512
     a98:	0011                	c.nop	4
     a9a:	0000                	unimp
     a9c:	0802                	slli	a6,a6,0x0
     a9e:	00000903          	lb	s2,0(zero) # 986 <_tbss_end+0x902>
     aa2:	0200                	addi	s0,sp,256
     aa4:	0408                	addi	a0,sp,512
     aa6:	0306                	slli	t1,t1,0x1
     aa8:	0000                	unimp
     aaa:	1002                	c.slli	zero,0x20
     aac:	00014b03          	lbu	s6,0(sp) # 0 <_tdata_begin>
     ab0:	0200                	addi	s0,sp,256
     ab2:	0320                	addi	s0,sp,392
     ab4:	02f9                	addi	t0,t0,30
     ab6:	0000                	unimp
     ab8:	0000000f          	fence	unknown,unknown
     abc:	0800                	addi	s0,sp,16
     abe:	ed05                	bnez	a0,af6 <_tbss_end+0xa72>
     ac0:	0501                	addi	a0,a0,0
     ac2:	0002                	c.slli	zero,0x0
     ac4:	1000                	addi	s0,sp,32
     ac6:	6f6c                	flw	fa1,92(a4)
     ac8:	ed050077          	0xed050077
     acc:	8e01                	sub	a2,a2,s0
     ace:	0001                	nop
     ad0:	0000                	unimp
     ad2:	0e11                	addi	t3,t3,4
     ad4:	0001                	nop
     ad6:	0500                	addi	s0,sp,640
     ad8:	01ed                	addi	gp,gp,27
     ada:	018e                	slli	gp,gp,0x3
     adc:	0000                	unimp
     ade:	0004                	0x4
     ae0:	0812                	slli	a6,a6,0x4
     ae2:	f405                	bnez	s0,a0a <_tbss_end+0x986>
     ae4:	2401                	jal	ce4 <_tbss_end+0xc60>
     ae6:	0002                	c.slli	zero,0x0
     ae8:	1300                	addi	s0,sp,416
     aea:	f6050073          	0xf6050073
     aee:	dd01                	beqz	a0,a06 <_tbss_end+0x982>
     af0:	0001                	nop
     af2:	1300                	addi	s0,sp,416
     af4:	6c6c                	flw	fa1,92(s0)
     af6:	0500                	addi	s0,sp,640
     af8:	01a401f7          	0x1a401f7
     afc:	0000                	unimp
     afe:	1400                	addi	s0,sp,544
     b00:	00000113          	li	sp,0
     b04:	f805                	bnez	s0,a34 <_tbss_end+0x9b0>
     b06:	0501                	addi	a0,a0,0
     b08:	0002                	c.slli	zero,0x0
     b0a:	0e00                	addi	s0,sp,784
     b0c:	0224                	addi	s1,sp,264
     b0e:	0000                	unimp
     b10:	7b0c                	flw	fa1,48(a4)
     b12:	0001                	nop
     b14:	4500                	lw	s0,8(a0)
     b16:	0002                	c.slli	zero,0x0
     b18:	1500                	addi	s0,sp,672
     b1a:	002c                	addi	a1,sp,8
     b1c:	0000                	unimp
     b1e:	00ff                	0xff
     b20:	350e                	fld	fa0,224(sp)
     b22:	0002                	c.slli	zero,0x0
     b24:	1600                	addi	s0,sp,800
     b26:	01ed                	addi	gp,gp,27
     b28:	0000                	unimp
     b2a:	fc05                	bnez	s0,a62 <_tbss_end+0x9de>
     b2c:	4501                	li	a0,0
     b2e:	0002                	c.slli	zero,0x0
     b30:	1600                	addi	s0,sp,800
     b32:	01d8                	addi	a4,sp,196
     b34:	0000                	unimp
     b36:	0205                	addi	tp,tp,1
     b38:	4502                	lw	a0,0(sp)
     b3a:	0002                	c.slli	zero,0x0
     b3c:	1700                	addi	s0,sp,928
     b3e:	0384                	addi	s1,sp,448
     b40:	0000                	unimp
     b42:	2501                	jal	1142 <_tbss_end+0x10be>
     b44:	af05                	j	1274 <_tbss_end+0x11f0>
     b46:	0001                	nop
     b48:	0200                	addi	s0,sp,256
     b4a:	004e                	c.slli	zero,0x13
     b4c:	9680                	0x9680
     b4e:	01000003          	lb	zero,16(zero) # 10 <_tdata_begin+0x10>
     b52:	329c                	fld	fa5,32(a3)
     b54:	0005                	c.nop	1
     b56:	1800                	addi	s0,sp,48
     b58:	006e                	c.slli	zero,0x1b
     b5a:	2501                	jal	115a <_tbss_end+0x10d6>
     b5c:	af05                	j	128c <_tbss_end+0x1208>
     b5e:	0001                	nop
     b60:	0f00                	addi	s0,sp,912
     b62:	000c                	0xc
     b64:	1800                	addi	s0,sp,48
     b66:	0064                	addi	s1,sp,12
     b68:	2501                	jal	1168 <_tbss_end+0x10e4>
     b6a:	af05                	j	129a <_tbss_end+0x1216>
     b6c:	0001                	nop
     b6e:	3700                	fld	fs0,40(a4)
     b70:	000d                	c.nop	3
     b72:	1900                	addi	s0,sp,176
     b74:	0532                	slli	a0,a0,0xc
     b76:	0000                	unimp
     b78:	4e02                	lw	t3,0(sp)
     b7a:	8000                	0x8000
     b7c:	0160                	addi	s0,sp,140
     b7e:	0000                	unimp
     b80:	2701                	jal	1280 <_tbss_end+0x11fc>
     b82:	1a05                	addi	s4,s4,-31
     b84:	00000557          	0x557
     b88:	0dff                	0xdff
     b8a:	0000                	unimp
     b8c:	4d1a                	lw	s10,132(sp)
     b8e:	0005                	c.nop	1
     b90:	6700                	flw	fs0,8(a4)
     b92:	000e                	c.slli	zero,0x3
     b94:	1a00                	addi	s0,sp,304
     b96:	00000543          	fmadd.s	fa0,ft0,ft0,ft0,rne
     b9a:	00000f2f          	0xf2f
     b9e:	0001601b          	0x1601b
     ba2:	1c00                	addi	s0,sp,560
     ba4:	0562                	slli	a0,a0,0x18
     ba6:	0000                	unimp
     ba8:	6d1c                	flw	fa5,24(a0)
     baa:	0005                	c.nop	1
     bac:	1c00                	addi	s0,sp,560
     bae:	0578                	addi	a4,sp,652
     bb0:	0000                	unimp
     bb2:	831d                	srli	a4,a4,0x7
     bb4:	0005                	c.nop	1
     bb6:	1700                	addi	s0,sp,928
     bb8:	0010                	0x10
     bba:	1d00                	addi	s0,sp,688
     bbc:	058e                	slli	a1,a1,0x3
     bbe:	0000                	unimp
     bc0:	1125                	addi	sp,sp,-23
     bc2:	0000                	unimp
     bc4:	991d                	andi	a0,a0,-25
     bc6:	0005                	c.nop	1
     bc8:	c700                	sw	s0,8(a4)
     bca:	0011                	c.nop	4
     bcc:	1d00                	addi	s0,sp,688
     bce:	05a4                	addi	s1,sp,712
     bd0:	0000                	unimp
     bd2:	00001283          	lh	t0,0(zero) # 0 <_tdata_begin>
     bd6:	af1d                	j	130c <_tbss_end+0x1288>
     bd8:	0005                	c.nop	1
     bda:	5100                	lw	s0,32(a0)
     bdc:	1d000013          	li	zero,464
     be0:	05ba                	slli	a1,a1,0xe
     be2:	0000                	unimp
     be4:	0000136f          	jal	t1,1be4 <_tbss_end+0x1b60>
     be8:	c51d                	beqz	a0,c16 <_tbss_end+0xb92>
     bea:	0005                	c.nop	1
     bec:	d400                	sw	s0,40(s0)
     bee:	1d000013          	li	zero,464
     bf2:	05d0                	addi	a2,sp,708
     bf4:	0000                	unimp
     bf6:	1406                	slli	s0,s0,0x21
     bf8:	0000                	unimp
     bfa:	da1d                	beqz	a2,b30 <_tbss_end+0xaac>
     bfc:	0005                	c.nop	1
     bfe:	2400                	fld	fs0,8(s0)
     c00:	0014                	0x14
     c02:	1c00                	addi	s0,sp,560
     c04:	05e5                	addi	a1,a1,25
     c06:	0000                	unimp
     c08:	f01e                	fsw	ft7,32(sp)
     c0a:	0005                	c.nop	1
     c0c:	a800                	fsd	fs0,16(s0)
     c0e:	0001                	nop
     c10:	4d00                	lw	s0,24(a0)
     c12:	1d000003          	lb	zero,464(zero) # 1d0 <_tbss_end+0x14c>
     c16:	05f5                	addi	a1,a1,29
     c18:	0000                	unimp
     c1a:	14a5                	addi	s1,s1,-23
     c1c:	0000                	unimp
     c1e:	011d                	addi	sp,sp,7
     c20:	0006                	c.slli	zero,0x1
     c22:	ff00                	fsw	fs0,56(a4)
     c24:	0014                	0x14
     c26:	0000                	unimp
     c28:	0e1e                	slli	t3,t3,0x7
     c2a:	0006                	c.slli	zero,0x1
     c2c:	c800                	sw	s0,16(s0)
     c2e:	0001                	nop
     c30:	9a00                	0x9a00
     c32:	1d000003          	lb	zero,464(zero) # 1d0 <_tbss_end+0x14c>
     c36:	00000613          	li	a2,0
     c3a:	1512                	slli	a0,a0,0x24
     c3c:	0000                	unimp
     c3e:	1f1d                	addi	t5,t5,-25
     c40:	0006                	c.slli	zero,0x1
     c42:	3b00                	fld	fs0,48(a4)
     c44:	0015                	c.nop	5
     c46:	1d00                	addi	s0,sp,688
     c48:	0000062b          	0x62b
     c4c:	0000157b          	0x157b
     c50:	371d                	jal	b76 <_tbss_end+0xaf2>
     c52:	0006                	c.slli	zero,0x1
     c54:	c500                	sw	s0,8(a0)
     c56:	0015                	c.nop	5
     c58:	1d00                	addi	s0,sp,688
     c5a:	00000643          	fmadd.s	fa2,ft0,ft0,ft0,rne
     c5e:	15f9                	addi	a1,a1,-2
     c60:	0000                	unimp
     c62:	4f1d                	li	t5,7
     c64:	0006                	c.slli	zero,0x1
     c66:	4d00                	lw	s0,24(a0)
     c68:	0016                	c.slli	zero,0x5
     c6a:	1d00                	addi	s0,sp,688
     c6c:	0000065b          	0x65b
     c70:	0000166b          	0x166b
     c74:	1e00                	addi	s0,sp,816
     c76:	073a                	slli	a4,a4,0xe
     c78:	0000                	unimp
     c7a:	01e8                	addi	a0,sp,204
     c7c:	0000                	unimp
     c7e:	03ba                	slli	t2,t2,0xe
     c80:	0000                	unimp
     c82:	3f1d                	jal	bb8 <_tbss_end+0xb34>
     c84:	9f000007          	0x9f000007
     c88:	0016                	c.slli	zero,0x5
     c8a:	1d00                	addi	s0,sp,688
     c8c:	0000074b          	fnmsub.s	fa4,ft0,ft0,ft0,rne
     c90:	16de                	slli	a3,a3,0x37
     c92:	0000                	unimp
     c94:	1e00                	addi	s0,sp,816
     c96:	0668                	addi	a0,sp,780
     c98:	0000                	unimp
     c9a:	0208                	addi	a0,sp,256
     c9c:	0000                	unimp
     c9e:	03da                	slli	t2,t2,0x16
     ca0:	0000                	unimp
     ca2:	6d1d                	lui	s10,0x7
     ca4:	0006                	c.slli	zero,0x1
     ca6:	0700                	addi	s0,sp,896
     ca8:	1d000017          	auipc	zero,0x1d000
     cac:	0679                	addi	a2,a2,30
     cae:	0000                	unimp
     cb0:	1782                	slli	a5,a5,0x20
     cb2:	0000                	unimp
     cb4:	1e00                	addi	s0,sp,816
     cb6:	06e0                	addi	s0,sp,844
     cb8:	0000                	unimp
     cba:	0228                	addi	a0,sp,264
     cbc:	0000                	unimp
     cbe:	00000427          	0x427
     cc2:	e51d                	bnez	a0,cf0 <_tbss_end+0xc6c>
     cc4:	0006                	c.slli	zero,0x1
     cc6:	a000                	fsd	fs0,0(s0)
     cc8:	1d000017          	auipc	zero,0x1d000
     ccc:	06f1                	addi	a3,a3,28
     cce:	0000                	unimp
     cd0:	17d5                	addi	a5,a5,-11
     cd2:	0000                	unimp
     cd4:	fd1d                	bnez	a0,c12 <_tbss_end+0xb8e>
     cd6:	0006                	c.slli	zero,0x1
     cd8:	1000                	addi	s0,sp,32
     cda:	0018                	0x18
     cdc:	1d00                	addi	s0,sp,688
     cde:	0709                	addi	a4,a4,2
     ce0:	0000                	unimp
     ce2:	185a                	slli	a6,a6,0x36
     ce4:	0000                	unimp
     ce6:	151d                	addi	a0,a0,-25
     ce8:	8e000007          	0x8e000007
     cec:	0018                	0x18
     cee:	1d00                	addi	s0,sp,688
     cf0:	0721                	addi	a4,a4,8
     cf2:	0000                	unimp
     cf4:	18d4                	addi	a3,sp,116
     cf6:	0000                	unimp
     cf8:	2d1d                	jal	132e <_tbss_end+0x12aa>
     cfa:	f2000007          	0xf2000007
     cfe:	0018                	0x18
     d00:	0000                	unimp
     d02:	6a1e                	flw	fs4,196(sp)
     d04:	48000007          	0x48000007
     d08:	0002                	c.slli	zero,0x0
     d0a:	e600                	fsw	fs0,8(a2)
     d0c:	0004                	0x4
     d0e:	1d00                	addi	s0,sp,688
     d10:	0000076b          	0x76b
     d14:	1926                	slli	s2,s2,0x29
     d16:	0000                	unimp
     d18:	761d                	lui	a2,0xfffe7
     d1a:	44000007          	0x44000007
     d1e:	0019                	c.nop	6
     d20:	1e00                	addi	s0,sp,816
     d22:	0781                	addi	a5,a5,0
     d24:	0000                	unimp
     d26:	0268                	addi	a0,sp,268
     d28:	0000                	unimp
     d2a:	00000493          	li	s1,0
     d2e:	861d                	srai	a2,a2,0x7
     d30:	80000007          	0x80000007
     d34:	0019                	c.nop	6
     d36:	1d00                	addi	s0,sp,688
     d38:	0792                	slli	a5,a5,0x4
     d3a:	0000                	unimp
     d3c:	19ad                	addi	s3,s3,-21
     d3e:	0000                	unimp
     d40:	9e1d                	0x9e1d
     d42:	dc000007          	0xdc000007
     d46:	0019                	c.nop	6
     d48:	1d00                	addi	s0,sp,688
     d4a:	07aa                	slli	a5,a5,0xa
     d4c:	0000                	unimp
     d4e:	1a26                	slli	s4,s4,0x29
     d50:	0000                	unimp
     d52:	b61d                	j	878 <_tbss_end+0x7f4>
     d54:	65000007          	0x65000007
     d58:	001a                	c.slli	zero,0x6
     d5a:	1d00                	addi	s0,sp,688
     d5c:	07c2                	slli	a5,a5,0x10
     d5e:	0000                	unimp
     d60:	00001aab          	0x1aab
     d64:	ce1d                	beqz	a2,da2 <_tbss_end+0xd1e>
     d66:	fa000007          	0xfa000007
     d6a:	001a                	c.slli	zero,0x6
     d6c:	0000                	unimp
     d6e:	db1f 0007 a000      	0xa0000007db1f
     d74:	0002                	c.slli	zero,0x0
     d76:	1d00                	addi	s0,sp,688
     d78:	07e0                	addi	s0,sp,972
     d7a:	0000                	unimp
     d7c:	1b39                	addi	s6,s6,-18
     d7e:	0000                	unimp
     d80:	ec1d                	bnez	s0,dbe <_tbss_end+0xd3a>
     d82:	57000007          	0x57000007
     d86:	1d00001b          	0x1d00001b
     d8a:	07f8                	addi	a4,sp,972
     d8c:	0000                	unimp
     d8e:	00001ba3          	sh	zero,23(zero) # 1d000cdf <_tbss_end+0x1d000c5b>
     d92:	041d                	addi	s0,s0,7
     d94:	0008                	0x8
     d96:	c100                	sw	s0,0(a0)
     d98:	1d00001b          	0x1d00001b
     d9c:	0810                	addi	a2,sp,16
     d9e:	0000                	unimp
     da0:	1bd4                	addi	a3,sp,500
     da2:	0000                	unimp
     da4:	1c1d                	addi	s8,s8,-25
     da6:	0008                	0x8
     da8:	2700                	fld	fs0,8(a4)
     daa:	001c                	0x1c
     dac:	1d00                	addi	s0,sp,688
     dae:	0828                	addi	a0,sp,24
     db0:	0000                	unimp
     db2:	1c3a                	slli	s8,s8,0x2e
     db4:	0000                	unimp
     db6:	341d                	jal	7dc <_tbss_end+0x758>
     db8:	0008                	0x8
     dba:	6b00                	flw	fs0,16(a4)
     dbc:	001c                	0x1c
     dbe:	0000                	unimp
     dc0:	1f00                	addi	s0,sp,944
     dc2:	0686                	slli	a3,a3,0x1
     dc4:	0000                	unimp
     dc6:	02d0                	addi	a2,sp,324
     dc8:	0000                	unimp
     dca:	8b1d                	andi	a4,a4,7
     dcc:	0006                	c.slli	zero,0x1
     dce:	7e00                	flw	fs0,56(a2)
     dd0:	001c                	0x1c
     dd2:	1d00                	addi	s0,sp,688
     dd4:	00000697          	auipc	a3,0x0
     dd8:	1c9c                	addi	a5,sp,624
     dda:	0000                	unimp
     ddc:	a31d                	j	1302 <_tbss_end+0x127e>
     dde:	0006                	c.slli	zero,0x1
     de0:	ba00                	fsd	fs0,48(a2)
     de2:	001c                	0x1c
     de4:	1d00                	addi	s0,sp,688
     de6:	000006af          	0x6af
     dea:	1cf9                	addi	s9,s9,-2
     dec:	0000                	unimp
     dee:	bb1d                	j	b24 <_tbss_end+0xaa0>
     df0:	0006                	c.slli	zero,0x1
     df2:	2d00                	fld	fs0,24(a0)
     df4:	001d                	c.nop	7
     df6:	1d00                	addi	s0,sp,688
     df8:	000006c7          	fmsub.s	fa3,ft0,ft0,ft0,rne
     dfc:	1d86                	slli	s11,s11,0x21
     dfe:	0000                	unimp
     e00:	d31d                	beqz	a4,d26 <_tbss_end+0xca2>
     e02:	0006                	c.slli	zero,0x1
     e04:	cc00                	sw	s0,24(s0)
     e06:	001d                	c.nop	7
     e08:	0000                	unimp
     e0a:	0000                	unimp
     e0c:	2000                	fld	fs0,0(s0)
     e0e:	02ec                	addi	a1,sp,332
     e10:	0000                	unimp
     e12:	f601                	bnez	a2,d1a <_tbss_end+0xc96>
     e14:	0001af03          	lw	t5,0(gp) # 90000800 <__global_pointer$>
     e18:	0300                	addi	s0,sp,384
     e1a:	00000863          	beqz	zero,e2a <_tbss_end+0xda6>
     e1e:	6e21                	lui	t3,0x8
     e20:	0100                	addi	s0,sp,128
     e22:	03f6                	slli	t2,t2,0x1d
     e24:	000001af          	0x1af
     e28:	6421                	lui	s0,0x8
     e2a:	0100                	addi	s0,sp,128
     e2c:	03f6                	slli	t2,t2,0x1d
     e2e:	000001af          	0x1af
     e32:	7221                	lui	tp,0xfffe8
     e34:	0070                	addi	a2,sp,12
     e36:	f601                	bnez	a2,d3e <_tbss_end+0xcba>
     e38:	00086303          	0x86303
     e3c:	2200                	fld	fs0,0(a2)
     e3e:	6e6e                	flw	ft8,216(sp)
     e40:	0100                	addi	s0,sp,128
     e42:	03f8                	addi	a4,sp,460
     e44:	0230                	addi	a2,sp,264
     e46:	0000                	unimp
     e48:	6422                	flw	fs0,8(sp)
     e4a:	0064                	addi	s1,sp,12
     e4c:	f901                	bnez	a0,d5c <_tbss_end+0xcd8>
     e4e:	00023003          	0x23003
     e52:	2200                	fld	fs0,0(a2)
     e54:	7272                	flw	ft4,60(sp)
     e56:	0100                	addi	s0,sp,128
     e58:	03fa                	slli	t2,t2,0x1e
     e5a:	0224                	addi	s1,sp,264
     e5c:	0000                	unimp
     e5e:	6422                	flw	fs0,8(sp)
     e60:	0030                	addi	a2,sp,8
     e62:	fb01                	bnez	a4,d72 <_tbss_end+0xcee>
     e64:	00019903          	lh	s2,0(gp) # 90000800 <__global_pointer$>
     e68:	2200                	fld	fs0,0(a2)
     e6a:	3164                	fld	fs1,224(a0)
     e6c:	0100                	addi	s0,sp,128
     e6e:	019903fb          	0x19903fb
     e72:	0000                	unimp
     e74:	6e22                	flw	ft8,8(sp)
     e76:	0030                	addi	a2,sp,8
     e78:	fb01                	bnez	a4,d88 <_tbss_end+0xd04>
     e7a:	00019903          	lh	s2,0(gp) # 90000800 <__global_pointer$>
     e7e:	2200                	fld	fs0,0(a2)
     e80:	316e                	fld	ft2,248(sp)
     e82:	0100                	addi	s0,sp,128
     e84:	019903fb          	0x19903fb
     e88:	0000                	unimp
     e8a:	6e22                	flw	ft8,8(sp)
     e8c:	0032                	c.slli	zero,0xc
     e8e:	fb01                	bnez	a4,d9e <_tbss_end+0xd1a>
     e90:	00019903          	lh	s2,0(gp) # 90000800 <__global_pointer$>
     e94:	2200                	fld	fs0,0(a2)
     e96:	3071                	jal	722 <_tbss_end+0x69e>
     e98:	0100                	addi	s0,sp,128
     e9a:	03fc                	addi	a5,sp,460
     e9c:	0199                	addi	gp,gp,6
     e9e:	0000                	unimp
     ea0:	7122                	flw	ft2,40(sp)
     ea2:	0031                	c.nop	12
     ea4:	fc01                	bnez	s0,dbc <_tbss_end+0xd38>
     ea6:	00019903          	lh	s2,0(gp) # 90000800 <__global_pointer$>
     eaa:	2200                	fld	fs0,0(a2)
     eac:	0062                	c.slli	zero,0x18
     eae:	fd01                	bnez	a0,dc6 <_tbss_end+0xd42>
     eb0:	00019903          	lh	s2,0(gp) # 90000800 <__global_pointer$>
     eb4:	2200                	fld	fs0,0(a2)
     eb6:	6d62                	flw	fs10,24(sp)
     eb8:	0100                	addi	s0,sp,128
     eba:	03fd                	addi	t2,t2,31
     ebc:	0199                	addi	gp,gp,6
     ebe:	0000                	unimp
     ec0:	7722                	flw	fa4,40(sp)
     ec2:	c6010077          	0xc6010077
     ec6:	3004                	fld	fs1,32(s0)
     ec8:	0002                	c.slli	zero,0x0
     eca:	2300                	fld	fs0,0(a4)
     ecc:	060e                	slli	a2,a2,0x3
     ece:	0000                	unimp
     ed0:	e724                	fsw	fs1,72(a4)
     ed2:	0002                	c.slli	zero,0x0
     ed4:	0100                	addi	s0,sp,128
     ed6:	042d                	addi	s0,s0,11
     ed8:	0199                	addi	gp,gp,6
     eda:	0000                	unimp
     edc:	5f22                	lw	t5,40(sp)
     ede:	615f 0100 042d      	0x42d0100615f
     ee4:	0199                	addi	gp,gp,6
     ee6:	0000                	unimp
     ee8:	2300                	fld	fs0,0(a4)
     eea:	0668                	addi	a0,sp,780
     eec:	0000                	unimp
     eee:	3d24                	fld	fs1,120(a0)
     ef0:	0001                	nop
     ef2:	0100                	addi	s0,sp,128
     ef4:	0439                	addi	s0,s0,14
     ef6:	0199                	addi	gp,gp,6
     ef8:	0000                	unimp
     efa:	3824                	fld	fs1,112(s0)
     efc:	0001                	nop
     efe:	0100                	addi	s0,sp,128
     f00:	0439                	addi	s0,s0,14
     f02:	0199                	addi	gp,gp,6
     f04:	0000                	unimp
     f06:	d024                	sw	s1,96(s0)
     f08:	0002                	c.slli	zero,0x0
     f0a:	0100                	addi	s0,sp,128
     f0c:	0439                	addi	s0,s0,14
     f0e:	0199                	addi	gp,gp,6
     f10:	0000                	unimp
     f12:	cb24                	sw	s1,80(a4)
     f14:	0002                	c.slli	zero,0x0
     f16:	0100                	addi	s0,sp,128
     f18:	0439                	addi	s0,s0,14
     f1a:	0199                	addi	gp,gp,6
     f1c:	0000                	unimp
     f1e:	1224                	addi	s1,sp,296
     f20:	01000003          	lb	zero,16(zero) # 10 <_tdata_begin+0x10>
     f24:	0439                	addi	s0,s0,14
     f26:	0199                	addi	gp,gp,6
     f28:	0000                	unimp
     f2a:	0d24                	addi	s1,sp,664
     f2c:	01000003          	lb	zero,16(zero) # 10 <_tdata_begin+0x10>
     f30:	0439                	addi	s0,s0,14
     f32:	0199                	addi	gp,gp,6
     f34:	0000                	unimp
     f36:	5f22                	lw	t5,40(sp)
     f38:	6d5f 0100 0439      	0x43901006d5f
     f3e:	0199                	addi	gp,gp,6
     f40:	0000                	unimp
     f42:	2300                	fld	fs0,0(a4)
     f44:	0686                	slli	a3,a3,0x1
     f46:	0000                	unimp
     f48:	e724                	fsw	fs1,72(a4)
     f4a:	0002                	c.slli	zero,0x0
     f4c:	0100                	addi	s0,sp,128
     f4e:	0445                	addi	s0,s0,17
     f50:	0199                	addi	gp,gp,6
     f52:	0000                	unimp
     f54:	5f22                	lw	t5,40(sp)
     f56:	615f 0100 0445      	0x4450100615f
     f5c:	0199                	addi	gp,gp,6
     f5e:	0000                	unimp
     f60:	2300                	fld	fs0,0(a4)
     f62:	06e0                	addi	s0,sp,844
     f64:	0000                	unimp
     f66:	3d24                	fld	fs1,120(a0)
     f68:	0001                	nop
     f6a:	0100                	addi	s0,sp,128
     f6c:	045e                	slli	s0,s0,0x17
     f6e:	0199                	addi	gp,gp,6
     f70:	0000                	unimp
     f72:	3824                	fld	fs1,112(s0)
     f74:	0001                	nop
     f76:	0100                	addi	s0,sp,128
     f78:	045e                	slli	s0,s0,0x17
     f7a:	0199                	addi	gp,gp,6
     f7c:	0000                	unimp
     f7e:	d024                	sw	s1,96(s0)
     f80:	0002                	c.slli	zero,0x0
     f82:	0100                	addi	s0,sp,128
     f84:	045e                	slli	s0,s0,0x17
     f86:	0199                	addi	gp,gp,6
     f88:	0000                	unimp
     f8a:	cb24                	sw	s1,80(a4)
     f8c:	0002                	c.slli	zero,0x0
     f8e:	0100                	addi	s0,sp,128
     f90:	045e                	slli	s0,s0,0x17
     f92:	0199                	addi	gp,gp,6
     f94:	0000                	unimp
     f96:	1224                	addi	s1,sp,296
     f98:	01000003          	lb	zero,16(zero) # 10 <_tdata_begin+0x10>
     f9c:	045e                	slli	s0,s0,0x17
     f9e:	0199                	addi	gp,gp,6
     fa0:	0000                	unimp
     fa2:	0d24                	addi	s1,sp,664
     fa4:	01000003          	lb	zero,16(zero) # 10 <_tdata_begin+0x10>
     fa8:	045e                	slli	s0,s0,0x17
     faa:	0199                	addi	gp,gp,6
     fac:	0000                	unimp
     fae:	5f22                	lw	t5,40(sp)
     fb0:	6d5f 0100 045e      	0x45e01006d5f
     fb6:	0199                	addi	gp,gp,6
     fb8:	0000                	unimp
     fba:	2300                	fld	fs0,0(a4)
     fbc:	073a                	slli	a4,a4,0xe
     fbe:	0000                	unimp
     fc0:	3d24                	fld	fs1,120(a0)
     fc2:	0001                	nop
     fc4:	0100                	addi	s0,sp,128
     fc6:	01990463          	beq	s2,s9,fce <_tbss_end+0xf4a>
     fca:	0000                	unimp
     fcc:	3824                	fld	fs1,112(s0)
     fce:	0001                	nop
     fd0:	0100                	addi	s0,sp,128
     fd2:	01990463          	beq	s2,s9,fda <_tbss_end+0xf56>
     fd6:	0000                	unimp
     fd8:	d024                	sw	s1,96(s0)
     fda:	0002                	c.slli	zero,0x0
     fdc:	0100                	addi	s0,sp,128
     fde:	01990463          	beq	s2,s9,fe6 <_tbss_end+0xf62>
     fe2:	0000                	unimp
     fe4:	cb24                	sw	s1,80(a4)
     fe6:	0002                	c.slli	zero,0x0
     fe8:	0100                	addi	s0,sp,128
     fea:	01990463          	beq	s2,s9,ff2 <_tbss_end+0xf6e>
     fee:	0000                	unimp
     ff0:	1224                	addi	s1,sp,296
     ff2:	01000003          	lb	zero,16(zero) # 10 <_tdata_begin+0x10>
     ff6:	01990463          	beq	s2,s9,ffe <_tbss_end+0xf7a>
     ffa:	0000                	unimp
     ffc:	0d24                	addi	s1,sp,664
     ffe:	01000003          	lb	zero,16(zero) # 10 <_tdata_begin+0x10>
    1002:	01990463          	beq	s2,s9,100a <_tbss_end+0xf86>
    1006:	0000                	unimp
    1008:	5f22                	lw	t5,40(sp)
    100a:	6d5f 0100 0463      	0x46301006d5f
    1010:	0199                	addi	gp,gp,6
    1012:	0000                	unimp
    1014:	2300                	fld	fs0,0(a4)
    1016:	0758                	addi	a4,sp,900
    1018:	0000                	unimp
    101a:	e724                	fsw	fs1,72(a4)
    101c:	0002                	c.slli	zero,0x0
    101e:	0100                	addi	s0,sp,128
    1020:	0486                	slli	s1,s1,0x1
    1022:	0199                	addi	gp,gp,6
    1024:	0000                	unimp
    1026:	5f22                	lw	t5,40(sp)
    1028:	615f 0100 0486      	0x4860100615f
    102e:	0199                	addi	gp,gp,6
    1030:	0000                	unimp
    1032:	2300                	fld	fs0,0(a4)
    1034:	076a                	slli	a4,a4,0x1a
    1036:	0000                	unimp
    1038:	5f22                	lw	t5,40(sp)
    103a:	785f 0100 0494      	0x4940100785f
    1040:	0199                	addi	gp,gp,6
    1042:	0000                	unimp
    1044:	2500                	fld	fs0,8(a0)
    1046:	6d22                	flw	fs10,8(sp)
    1048:	0031                	c.nop	12
    104a:	a401                	j	124a <_tbss_end+0x11c6>
    104c:	9904                	0x9904
    104e:	0001                	nop
    1050:	2200                	fld	fs0,0(a2)
    1052:	306d                	jal	8fc <_tbss_end+0x878>
    1054:	0100                	addi	s0,sp,128
    1056:	04a4                	addi	s1,sp,584
    1058:	0199                	addi	gp,gp,6
    105a:	0000                	unimp
    105c:	0007db23          	0x7db23
    1060:	2400                	fld	fs0,8(s0)
    1062:	013d                	addi	sp,sp,15
    1064:	0000                	unimp
    1066:	af01                	j	1776 <_tbss_end+0x16f2>
    1068:	9904                	0x9904
    106a:	0001                	nop
    106c:	2400                	fld	fs0,8(s0)
    106e:	0138                	addi	a4,sp,136
    1070:	0000                	unimp
    1072:	af01                	j	1782 <_tbss_end+0x16fe>
    1074:	9904                	0x9904
    1076:	0001                	nop
    1078:	2400                	fld	fs0,8(s0)
    107a:	02d0                	addi	a2,sp,324
    107c:	0000                	unimp
    107e:	af01                	j	178e <_tbss_end+0x170a>
    1080:	9904                	0x9904
    1082:	0001                	nop
    1084:	2400                	fld	fs0,8(s0)
    1086:	000002cb          	fnmsub.s	ft5,ft0,ft0,ft0,rne
    108a:	af01                	j	179a <_tbss_end+0x1716>
    108c:	9904                	0x9904
    108e:	0001                	nop
    1090:	2400                	fld	fs0,8(s0)
    1092:	0312                	slli	t1,t1,0x4
    1094:	0000                	unimp
    1096:	af01                	j	17a6 <_tbss_end+0x1722>
    1098:	9904                	0x9904
    109a:	0001                	nop
    109c:	2400                	fld	fs0,8(s0)
    109e:	030d                	addi	t1,t1,3
    10a0:	0000                	unimp
    10a2:	af01                	j	17b2 <_tbss_end+0x172e>
    10a4:	9904                	0x9904
    10a6:	0001                	nop
    10a8:	2200                	fld	fs0,0(a2)
    10aa:	5f5f 006d af01      	0xaf01006d5f5f
    10b0:	9904                	0x9904
    10b2:	0001                	nop
    10b4:	0000                	unimp
    10b6:	00084123          	0x84123
    10ba:	2400                	fld	fs0,8(s0)
    10bc:	022e                	slli	tp,tp,0xb
    10be:	0000                	unimp
    10c0:	b001                	j	8c0 <_tbss_end+0x83c>
    10c2:	9904                	0x9904
    10c4:	0001                	nop
    10c6:	2400                	fld	fs0,8(s0)
    10c8:	00000233          	add	tp,zero,zero
    10cc:	b001                	j	8cc <_tbss_end+0x848>
    10ce:	9904                	0x9904
    10d0:	0001                	nop
    10d2:	2400                	fld	fs0,8(s0)
    10d4:	0238                	addi	a4,sp,264
    10d6:	0000                	unimp
    10d8:	b001                	j	8d8 <_tbss_end+0x854>
    10da:	9904                	0x9904
    10dc:	0001                	nop
    10de:	2400                	fld	fs0,8(s0)
    10e0:	023d                	addi	tp,tp,15
    10e2:	0000                	unimp
    10e4:	b001                	j	8e4 <_tbss_end+0x860>
    10e6:	9904                	0x9904
    10e8:	0001                	nop
    10ea:	2400                	fld	fs0,8(s0)
    10ec:	0326                	slli	t1,t1,0x9
    10ee:	0000                	unimp
    10f0:	b001                	j	8f0 <_tbss_end+0x86c>
    10f2:	9904                	0x9904
    10f4:	0001                	nop
    10f6:	2400                	fld	fs0,8(s0)
    10f8:	016a                	slli	sp,sp,0x1a
    10fa:	0000                	unimp
    10fc:	b001                	j	8fc <_tbss_end+0x878>
    10fe:	9904                	0x9904
    1100:	0001                	nop
    1102:	2400                	fld	fs0,8(s0)
    1104:	00000317          	auipc	t1,0x0
    1108:	b001                	j	908 <_tbss_end+0x884>
    110a:	9904                	0x9904
    110c:	0001                	nop
    110e:	2400                	fld	fs0,8(s0)
    1110:	015a                	slli	sp,sp,0x16
    1112:	0000                	unimp
    1114:	b001                	j	914 <_tbss_end+0x890>
    1116:	9904                	0x9904
    1118:	0001                	nop
    111a:	0000                	unimp
    111c:	00085323          	0x85323
    1120:	2200                	fld	fs0,0(a2)
    1122:	5f5f 0078 b501      	0xb50100785f5f
    1128:	9904                	0x9904
    112a:	0001                	nop
    112c:	0000                	unimp
    112e:	2225                	jal	1256 <_tbss_end+0x11d2>
    1130:	5f5f 0078 bd01      	0xbd0100785f5f
    1136:	9904                	0x9904
    1138:	0001                	nop
    113a:	0000                	unimp
    113c:	0000                	unimp
    113e:	0405                	addi	s0,s0,1
    1140:	000001af          	0x1af
    1144:	ab00                	fsd	fs0,16(a4)
    1146:	0008                	0x8
    1148:	0400                	addi	s0,sp,512
    114a:	ad00                	fsd	fs0,24(a0)
    114c:	04000003          	lb	zero,64(zero) # 40 <buf.2810>
    1150:	2701                	jal	1850 <_tbss_end+0x17cc>
    1152:	0000                	unimp
    1154:	0c00                	addi	s0,sp,528
    1156:	0280                	addi	s0,sp,320
    1158:	0000                	unimp
    115a:	0000032b          	0x32b
    115e:	0480                	addi	s0,sp,576
    1160:	0000                	unimp
    1162:	0000                	unimp
    1164:	0000                	unimp
    1166:	0680                	addi	s0,sp,832
    1168:	0000                	unimp
    116a:	0802                	slli	a6,a6,0x0
    116c:	0001a307          	flw	ft6,0(gp) # 90000800 <__global_pointer$>
    1170:	0200                	addi	s0,sp,256
    1172:	0704                	addi	s1,sp,896
    1174:	01ad                	addi	gp,gp,11
    1176:	0000                	unimp
    1178:	69050403          	lb	s0,1680(a0)
    117c:	746e                	flw	fs0,248(sp)
    117e:	0200                	addi	s0,sp,256
    1180:	0508                	addi	a0,sp,640
    1182:	012a                	slli	sp,sp,0xa
    1184:	0000                	unimp
    1186:	1002                	c.slli	zero,0x20
    1188:	0104                	addi	s1,sp,128
    118a:	04000003          	lb	zero,64(zero) # 40 <buf.2810>
    118e:	02d5                	addi	t0,t0,21
    1190:	0000                	unimp
    1192:	2a02                	fld	fs4,0(sp)
    1194:	002c                	addi	a1,sp,8
    1196:	0000                	unimp
    1198:	9904                	0x9904
    119a:	0001                	nop
    119c:	0200                	addi	s0,sp,256
    119e:	00005e2f          	0x5e2f
    11a2:	0500                	addi	s0,sp,640
    11a4:	6404                	flw	fs1,8(s0)
    11a6:	0000                	unimp
    11a8:	0600                	addi	s0,sp,768
    11aa:	0048                	addi	a0,sp,4
    11ac:	0000                	unimp
    11ae:	00000073          	ecall
    11b2:	00007307          	0x7307
    11b6:	0000                	unimp
    11b8:	0405                	addi	s0,s0,1
    11ba:	0079                	c.nop	30
    11bc:	0000                	unimp
    11be:	0408                	addi	a0,sp,512
    11c0:	0372                	slli	t1,t1,0x1c
    11c2:	0000                	unimp
    11c4:	3602                	fld	fa2,32(sp)
    11c6:	0085                	addi	ra,ra,1
    11c8:	0000                	unimp
    11ca:	0405                	addi	s0,s0,1
    11cc:	0000008b          	0x8b
    11d0:	3306                	fld	ft6,96(sp)
    11d2:	0000                	unimp
    11d4:	9f00                	0x9f00
    11d6:	0000                	unimp
    11d8:	0700                	addi	s0,sp,896
    11da:	00000073          	ecall
    11de:	00007307          	0x7307
    11e2:	0000                	unimp
    11e4:	4a09                	li	s4,2
    11e6:	0002                	c.slli	zero,0x0
    11e8:	0200                	addi	s0,sp,256
    11ea:	000053bb          	0x53bb
    11ee:	0900                	addi	s0,sp,144
    11f0:	00000017          	auipc	zero,0x0
    11f4:	be02                	fsd	ft0,312(sp)
    11f6:	007a                	c.slli	zero,0x1e
    11f8:	0000                	unimp
    11fa:	0102                	slli	sp,sp,0x0
    11fc:	0308                	addi	a0,sp,384
    11fe:	0002                	c.slli	zero,0x0
    1200:	0a00                	addi	s0,sp,272
    1202:	0000011b          	0x11b
    1206:	002c0407          	0x2c0407
    120a:	0000                	unimp
    120c:	00f21803          	lh	a6,15(tp) # fffe800f <__global_pointer$+0x6ffe780f>
    1210:	0000                	unimp
    1212:	00031c0b          	0x31c0b
    1216:	0000                	unimp
    1218:	00015f0b          	0x15f0b
    121c:	0100                	addi	s0,sp,128
    121e:	0001e20b          	0x1e20b
    1222:	0200                	addi	s0,sp,256
    1224:	0001420b          	0x1420b
    1228:	0300                	addi	s0,sp,384
    122a:	0001ce0b          	0x1ce0b
    122e:	0400                	addi	s0,sp,512
    1230:	0001c40b          	0x1c40b
    1234:	0500                	addi	s0,sp,640
    1236:	0900                	addi	s0,sp,144
    1238:	01ba                	slli	gp,gp,0xe
    123a:	0000                	unimp
    123c:	00bc2003          	lw	zero,11(s8)
    1240:	0000                	unimp
    1242:	6f0a                	flw	ft10,128(sp)
    1244:	0001                	nop
    1246:	0700                	addi	s0,sp,896
    1248:	2c04                	fld	fs1,24(s0)
    124a:	0000                	unimp
    124c:	0300                	addi	s0,sp,384
    124e:	2122                	fld	ft2,8(sp)
    1250:	0001                	nop
    1252:	0b00                	addi	s0,sp,400
    1254:	0000018f          	0x18f
    1258:	0b00                	addi	s0,sp,400
    125a:	037a                	slli	t1,t1,0x1e
    125c:	0000                	unimp
    125e:	0b01                	addi	s6,s6,0
    1260:	01fc                	addi	a5,sp,204
    1262:	0000                	unimp
    1264:	0002                	c.slli	zero,0x0
    1266:	2109                	jal	1668 <_tbss_end+0x15e4>
    1268:	0002                	c.slli	zero,0x0
    126a:	0300                	addi	s0,sp,384
    126c:	0000fd27          	0xfd27
    1270:	0c00                	addi	s0,sp,528
    1272:	0142                	slli	sp,sp,0x10
    1274:	0000                	unimp
    1276:	00000137          	lui	sp,0x0
    127a:	000d                	c.nop	3
    127c:	2c0e                	fld	fs8,192(sp)
    127e:	0001                	nop
    1280:	0500                	addi	s0,sp,640
    1282:	4e04                	lw	s1,24(a2)
    1284:	0001                	nop
    1286:	0e00                	addi	s0,sp,784
    1288:	013c                	addi	a5,sp,136
    128a:	0000                	unimp
    128c:	0102                	slli	sp,sp,0x0
    128e:	0c08                	addi	a0,sp,528
    1290:	0002                	c.slli	zero,0x0
    1292:	0e00                	addi	s0,sp,784
    1294:	00000147          	fmsub.s	ft2,ft0,ft0,ft0,rne
    1298:	8009                	srli	s0,s0,0x2
    129a:	0001                	nop
    129c:	0400                	addi	s0,sp,512
    129e:	3725                	jal	11c6 <_tbss_end+0x1142>
    12a0:	0001                	nop
    12a2:	0900                	addi	s0,sp,144
    12a4:	0211                	addi	tp,tp,4
    12a6:	0000                	unimp
    12a8:	3104                	fld	fs1,32(a0)
    12aa:	00000137          	lui	sp,0x0
    12ae:	0102                	slli	sp,sp,0x0
    12b0:	0506                	slli	a0,a0,0x1
    12b2:	0002                	c.slli	zero,0x0
    12b4:	0400                	addi	s0,sp,512
    12b6:	0242                	slli	tp,tp,0x10
    12b8:	0000                	unimp
    12ba:	7b05                	lui	s6,0xfffe1
    12bc:	00b5                	addi	ra,ra,13
    12be:	0000                	unimp
    12c0:	700e                	flw	ft0,224(sp)
    12c2:	0001                	nop
    12c4:	0200                	addi	s0,sp,256
    12c6:	0502                	slli	a0,a0,0x0
    12c8:	0104                	addi	s1,sp,128
    12ca:	0000                	unimp
    12cc:	0202                	slli	tp,tp,0x0
    12ce:	00025c07          	0x25c07
    12d2:	0400                	addi	s0,sp,512
    12d4:	0279                	addi	tp,tp,30
    12d6:	0000                	unimp
    12d8:	8005                	srli	s0,s0,0x1
    12da:	00000033          	add	zero,zero,zero
    12de:	7804                	flw	fs1,48(s0)
    12e0:	0002                	c.slli	zero,0x0
    12e2:	0500                	addi	s0,sp,640
    12e4:	2c81                	jal	1534 <_tbss_end+0x14b0>
    12e6:	0000                	unimp
    12e8:	0400                	addi	s0,sp,512
    12ea:	02e0                	addi	s0,sp,332
    12ec:	0000                	unimp
    12ee:	8405                	srai	s0,s0,0x1
    12f0:	003a                	c.slli	zero,0xe
    12f2:	0000                	unimp
    12f4:	df04                	sw	s1,56(a4)
    12f6:	0002                	c.slli	zero,0x0
    12f8:	0500                	addi	s0,sp,640
    12fa:	2585                	jal	195a <_tbss_end+0x18d6>
    12fc:	0000                	unimp
    12fe:	0200                	addi	s0,sp,256
    1300:	0404                	addi	s1,sp,512
    1302:	0011                	c.nop	4
    1304:	0000                	unimp
    1306:	0802                	slli	a6,a6,0x0
    1308:	00000903          	lb	s2,0(zero) # 11f0 <_tbss_end+0x116c>
    130c:	0200                	addi	s0,sp,256
    130e:	0408                	addi	a0,sp,512
    1310:	0306                	slli	t1,t1,0x1
    1312:	0000                	unimp
    1314:	1002                	c.slli	zero,0x20
    1316:	00014b03          	lbu	s6,0(sp) # 0 <_tdata_begin>
    131a:	0200                	addi	s0,sp,256
    131c:	0320                	addi	s0,sp,392
    131e:	02f9                	addi	t0,t0,30
    1320:	0000                	unimp
    1322:	0000000f          	fence	unknown,unknown
    1326:	0800                	addi	s0,sp,16
    1328:	ed05                	bnez	a0,1360 <_tbss_end+0x12dc>
    132a:	0501                	addi	a0,a0,0
    132c:	0002                	c.slli	zero,0x0
    132e:	1000                	addi	s0,sp,32
    1330:	6f6c                	flw	fa1,92(a4)
    1332:	ed050077          	0xed050077
    1336:	8e01                	sub	a2,a2,s0
    1338:	0001                	nop
    133a:	0000                	unimp
    133c:	0e11                	addi	t3,t3,4
    133e:	0001                	nop
    1340:	0500                	addi	s0,sp,640
    1342:	01ed                	addi	gp,gp,27
    1344:	018e                	slli	gp,gp,0x3
    1346:	0000                	unimp
    1348:	0004                	0x4
    134a:	0812                	slli	a6,a6,0x4
    134c:	f405                	bnez	s0,1274 <_tbss_end+0x11f0>
    134e:	2401                	jal	154e <_tbss_end+0x14ca>
    1350:	0002                	c.slli	zero,0x0
    1352:	1300                	addi	s0,sp,416
    1354:	f6050073          	0xf6050073
    1358:	dd01                	beqz	a0,1270 <_tbss_end+0x11ec>
    135a:	0001                	nop
    135c:	1300                	addi	s0,sp,416
    135e:	6c6c                	flw	fa1,92(s0)
    1360:	0500                	addi	s0,sp,640
    1362:	01a401f7          	0x1a401f7
    1366:	0000                	unimp
    1368:	1400                	addi	s0,sp,544
    136a:	00000113          	li	sp,0
    136e:	f805                	bnez	s0,129e <_tbss_end+0x121a>
    1370:	0501                	addi	a0,a0,0
    1372:	0002                	c.slli	zero,0x0
    1374:	0e00                	addi	s0,sp,784
    1376:	0224                	addi	s1,sp,264
    1378:	0000                	unimp
    137a:	7b0c                	flw	fa1,48(a4)
    137c:	0001                	nop
    137e:	4500                	lw	s0,8(a0)
    1380:	0002                	c.slli	zero,0x0
    1382:	1500                	addi	s0,sp,672
    1384:	002c                	addi	a1,sp,8
    1386:	0000                	unimp
    1388:	00ff                	0xff
    138a:	350e                	fld	fa0,224(sp)
    138c:	0002                	c.slli	zero,0x0
    138e:	1600                	addi	s0,sp,800
    1390:	01ed                	addi	gp,gp,27
    1392:	0000                	unimp
    1394:	fc05                	bnez	s0,12cc <_tbss_end+0x1248>
    1396:	4501                	li	a0,0
    1398:	0002                	c.slli	zero,0x0
    139a:	1600                	addi	s0,sp,800
    139c:	01d8                	addi	a4,sp,196
    139e:	0000                	unimp
    13a0:	0205                	addi	tp,tp,1
    13a2:	4502                	lw	a0,0(sp)
    13a4:	0002                	c.slli	zero,0x0
    13a6:	1700                	addi	s0,sp,928
    13a8:	038e                	slli	t2,t2,0x3
    13aa:	0000                	unimp
    13ac:	1901                	addi	s2,s2,-32
    13ae:	af05                	j	1ade <_tbss_end+0x1a5a>
    13b0:	0001                	nop
    13b2:	9800                	0x9800
    13b4:	0051                	c.nop	20
    13b6:	8080                	0x8080
    13b8:	01000003          	lb	zero,16(zero) # 10 <_tdata_begin+0x10>
    13bc:	779c                	flw	fa5,40(a5)
    13be:	0005                	c.nop	1
    13c0:	1800                	addi	s0,sp,48
    13c2:	0075                	c.nop	29
    13c4:	1901                	addi	s2,s2,-32
    13c6:	af05                	j	1af6 <_tbss_end+0x1a72>
    13c8:	0001                	nop
    13ca:	0000                	unimp
    13cc:	001e                	c.slli	zero,0x7
    13ce:	1800                	addi	s0,sp,48
    13d0:	0076                	c.slli	zero,0x1d
    13d2:	1901                	addi	s2,s2,-32
    13d4:	af05                	j	1b04 <_tbss_end+0x1a80>
    13d6:	0001                	nop
    13d8:	c800                	sw	s0,16(s0)
    13da:	001e                	c.slli	zero,0x7
    13dc:	1900                	addi	s0,sp,176
    13de:	1b010077          	0x1b010077
    13e2:	af05                	j	1b12 <_tbss_end+0x1a8e>
    13e4:	0001                	nop
    13e6:	1a00                	addi	s0,sp,304
    13e8:	00000577          	0x577
    13ec:	5198                	lw	a4,32(a1)
    13ee:	8000                	0x8000
    13f0:	0318                	addi	a4,sp,384
    13f2:	0000                	unimp
    13f4:	1d01                	addi	s10,s10,-32
    13f6:	1b05                	addi	s6,s6,-31
    13f8:	059c                	addi	a5,sp,704
    13fa:	0000                	unimp
    13fc:	1f70                	addi	a2,sp,956
    13fe:	0000                	unimp
    1400:	0005921b          	0x5921b
    1404:	9800                	0x9800
    1406:	001f 1b00 0588      	0x5881b00001f
    140c:	0000                	unimp
    140e:	2040                	fld	fs0,128(s0)
    1410:	0000                	unimp
    1412:	181c                	addi	a5,sp,48
    1414:	1d000003          	lb	zero,464(zero) # 1d0 <_tbss_end+0x14c>
    1418:	000005a7          	0x5a7
    141c:	b21d                	j	d42 <_tbss_end+0xcbe>
    141e:	0005                	c.nop	1
    1420:	1d00                	addi	s0,sp,688
    1422:	05bd                	addi	a1,a1,15
    1424:	0000                	unimp
    1426:	c81e                	sw	t2,16(sp)
    1428:	0005                	c.nop	1
    142a:	f800                	fsw	fs0,48(s0)
    142c:	0020                	addi	s0,sp,8
    142e:	1e00                	addi	s0,sp,816
    1430:	000005d3          	fadd.s	fa1,ft0,ft0,rne
    1434:	21c6                	fld	ft3,80(sp)
    1436:	0000                	unimp
    1438:	de1e                	sw	t2,60(sp)
    143a:	0005                	c.nop	1
    143c:	6800                	flw	fs0,16(s0)
    143e:	0022                	c.slli	zero,0x8
    1440:	1e00                	addi	s0,sp,816
    1442:	05e9                	addi	a1,a1,26
    1444:	0000                	unimp
    1446:	2315                	jal	196a <_tbss_end+0x18e6>
    1448:	0000                	unimp
    144a:	f41e                	fsw	ft7,40(sp)
    144c:	0005                	c.nop	1
    144e:	e300                	fsw	fs0,0(a4)
    1450:	1e000023          	sb	zero,480(zero) # 1e0 <_tbss_end+0x15c>
    1454:	05ff                	0x5ff
    1456:	0000                	unimp
    1458:	2411                	jal	165c <_tbss_end+0x15d8>
    145a:	0000                	unimp
    145c:	0a1e                	slli	s4,s4,0x7
    145e:	0006                	c.slli	zero,0x1
    1460:	2500                	fld	fs0,8(a0)
    1462:	0024                	addi	s1,sp,8
    1464:	1e00                	addi	s0,sp,816
    1466:	0615                	addi	a2,a2,5
    1468:	0000                	unimp
    146a:	2451                	jal	16ee <_tbss_end+0x166a>
    146c:	0000                	unimp
    146e:	1f1e                	slli	t5,t5,0x27
    1470:	0006                	c.slli	zero,0x1
    1472:	9000                	0x9000
    1474:	0024                	addi	s1,sp,8
    1476:	1d00                	addi	s0,sp,688
    1478:	062a                	slli	a2,a2,0xa
    147a:	0000                	unimp
    147c:	351f 0006 4000      	0x40000006351f
    1482:	57000003          	lb	zero,1392(zero) # 570 <_tbss_end+0x4ec>
    1486:	1e000003          	lb	zero,480(zero) # 1e0 <_tbss_end+0x15c>
    148a:	063a                	slli	a2,a2,0xe
    148c:	0000                	unimp
    148e:	000024fb          	0x24fb
    1492:	461e                	lw	a2,196(sp)
    1494:	0006                	c.slli	zero,0x1
    1496:	2400                	fld	fs0,8(s0)
    1498:	0025                	c.nop	9
    149a:	0000                	unimp
    149c:	531f 0006 6000      	0x60000006531f
    14a2:	a0000003          	lb	zero,-1536(zero) # fffffa00 <__global_pointer$+0x6ffff200>
    14a6:	1e000003          	lb	zero,480(zero) # 1e0 <_tbss_end+0x15c>
    14aa:	0658                	addi	a4,sp,772
    14ac:	0000                	unimp
    14ae:	00002537          	lui	a0,0x2
    14b2:	641e                	flw	fs0,196(sp)
    14b4:	0006                	c.slli	zero,0x1
    14b6:	5500                	lw	s0,40(a0)
    14b8:	0025                	c.nop	9
    14ba:	1e00                	addi	s0,sp,816
    14bc:	0670                	addi	a2,sp,780
    14be:	0000                	unimp
    14c0:	2584                	fld	fs1,8(a1)
    14c2:	0000                	unimp
    14c4:	7c1d                	lui	s8,0xfffe7
    14c6:	0006                	c.slli	zero,0x1
    14c8:	1e00                	addi	s0,sp,816
    14ca:	0688                	addi	a0,sp,832
    14cc:	0000                	unimp
    14ce:	25d2                	fld	fa1,272(sp)
    14d0:	0000                	unimp
    14d2:	941e                	add	s0,s0,t2
    14d4:	0006                	c.slli	zero,0x1
    14d6:	0b00                	addi	s0,sp,400
    14d8:	0026                	c.slli	zero,0x9
    14da:	1e00                	addi	s0,sp,816
    14dc:	06a0                	addi	s0,sp,840
    14de:	0000                	unimp
    14e0:	2629                	jal	17ea <_tbss_end+0x1766>
    14e2:	0000                	unimp
    14e4:	1f00                	addi	s0,sp,944
    14e6:	0725                	addi	a4,a4,9
    14e8:	0000                	unimp
    14ea:	0378                	addi	a4,sp,396
    14ec:	0000                	unimp
    14ee:	03e5                	addi	t2,t2,25
    14f0:	0000                	unimp
    14f2:	2a1e                	fld	fs4,448(sp)
    14f4:	6b000007          	0x6b000007
    14f8:	0026                	c.slli	zero,0x9
    14fa:	1e00                	addi	s0,sp,816
    14fc:	0736                	slli	a4,a4,0xd
    14fe:	0000                	unimp
    1500:	2682                	fld	fa3,0(sp)
    1502:	0000                	unimp
    1504:	421d                	li	tp,7
    1506:	1d000007          	0x1d000007
    150a:	074e                	slli	a4,a4,0x13
    150c:	0000                	unimp
    150e:	5a1e                	lw	s4,228(sp)
    1510:	9b000007          	0x9b000007
    1514:	0026                	c.slli	zero,0x9
    1516:	1e00                	addi	s0,sp,816
    1518:	0766                	slli	a4,a4,0x19
    151a:	0000                	unimp
    151c:	26b9                	jal	186a <_tbss_end+0x17e6>
    151e:	0000                	unimp
    1520:	721e                	flw	ft4,228(sp)
    1522:	ed000007          	0xed000007
    1526:	0026                	c.slli	zero,0x9
    1528:	0000                	unimp
    152a:	7f1f 0007 9000      	0x900000077f1f
    1530:	05000003          	lb	zero,80(zero) # 50 <buf.2810+0x10>
    1534:	0004                	0x4
    1536:	1e00                	addi	s0,sp,816
    1538:	0784                	addi	s1,sp,960
    153a:	0000                	unimp
    153c:	0000270b          	0x270b
    1540:	901e                	c.add	zero,t2
    1542:	3f000007          	0x3f000007
    1546:	00000027          	0x27
    154a:	9d20                	0x9d20
    154c:	82000007          	0x82000007
    1550:	0052                	c.slli	zero,0x14
    1552:	0e80                	addi	s0,sp,848
    1554:	0000                	unimp
    1556:	2000                	fld	fs0,0(s0)
    1558:	0004                	0x4
    155a:	1e00                	addi	s0,sp,816
    155c:	07a2                	slli	a5,a5,0x8
    155e:	0000                	unimp
    1560:	275d                	jal	1d06 <_tbss_end+0x1c82>
    1562:	0000                	unimp
    1564:	1f00                	addi	s0,sp,944
    1566:	06ad                	addi	a3,a3,11
    1568:	0000                	unimp
    156a:	03b0                	addi	a2,sp,456
    156c:	0000                	unimp
    156e:	0440                	addi	s0,sp,516
    1570:	0000                	unimp
    1572:	b21e                	fsd	ft7,288(sp)
    1574:	0006                	c.slli	zero,0x1
    1576:	7000                	flw	fs0,32(s0)
    1578:	1e000027          	0x1e000027
    157c:	06be                	slli	a3,a3,0xf
    157e:	0000                	unimp
    1580:	27ba                	fld	fa5,392(sp)
    1582:	0000                	unimp
    1584:	1f00                	addi	s0,sp,944
    1586:	000007af          	0x7af
    158a:	03d0                	addi	a2,sp,452
    158c:	0000                	unimp
    158e:	00000533          	add	a0,zero,zero
    1592:	b01e                	fsd	ft7,32(sp)
    1594:	cd000007          	0xcd000007
    1598:	1e000027          	0x1e000027
    159c:	000007bb          	0x7bb
    15a0:	2814                	fld	fa3,16(s0)
    15a2:	0000                	unimp
    15a4:	c61f 0007 f800      	0xf8000007c61f
    15aa:	ac000003          	lb	zero,-1344(zero) # fffffac0 <__global_pointer$+0x6ffff2c0>
    15ae:	0004                	0x4
    15b0:	1e00                	addi	s0,sp,816
    15b2:	000007cb          	fnmsub.s	fa5,ft0,ft0,ft0,rne
    15b6:	2848                	fld	fa0,144(s0)
    15b8:	0000                	unimp
    15ba:	d71e                	sw	t2,172(sp)
    15bc:	a2000007          	0xa2000007
    15c0:	0028                	addi	a0,sp,8
    15c2:	1e00                	addi	s0,sp,816
    15c4:	000007e3          	beqz	zero,1dd2 <_tbss_end+0x1d4e>
    15c8:	2904                	fld	fs1,16(a0)
    15ca:	0000                	unimp
    15cc:	ef1e                	fsw	ft7,156(sp)
    15ce:	4e000007          	0x4e000007
    15d2:	0029                	c.nop	10
    15d4:	1e00                	addi	s0,sp,816
    15d6:	000007fb          	0x7fb
    15da:	298d                	jal	1a4c <_tbss_end+0x19c8>
    15dc:	0000                	unimp
    15de:	071e                	slli	a4,a4,0x7
    15e0:	0008                	0x8
    15e2:	d100                	sw	s0,32(a0)
    15e4:	0029                	c.nop	10
    15e6:	1e00                	addi	s0,sp,816
    15e8:	00000813          	li	a6,0
    15ec:	2a2d                	jal	1726 <_tbss_end+0x16a2>
    15ee:	0000                	unimp
    15f0:	1f00                	addi	s0,sp,944
    15f2:	0820                	addi	s0,sp,24
    15f4:	0000                	unimp
    15f6:	0430                	addi	a2,sp,520
    15f8:	0000                	unimp
    15fa:	0500                	addi	s0,sp,640
    15fc:	0000                	unimp
    15fe:	251e                	fld	fa0,448(sp)
    1600:	0008                	0x8
    1602:	7700                	flw	fs0,40(a4)
    1604:	002a                	c.slli	zero,0xa
    1606:	1e00                	addi	s0,sp,816
    1608:	0831                	addi	a6,a6,12
    160a:	0000                	unimp
    160c:	2a8a                	fld	fs5,128(sp)
    160e:	0000                	unimp
    1610:	3d1e                	fld	fs10,480(sp)
    1612:	0008                	0x8
    1614:	af00                	fsd	fs0,24(a4)
    1616:	002a                	c.slli	zero,0xa
    1618:	1e00                	addi	s0,sp,816
    161a:	0849                	addi	a6,a6,18
    161c:	0000                	unimp
    161e:	2ac2                	fld	fs5,16(sp)
    1620:	0000                	unimp
    1622:	551e                	lw	a0,228(sp)
    1624:	0008                	0x8
    1626:	d500                	sw	s0,40(a0)
    1628:	002a                	c.slli	zero,0xa
    162a:	1e00                	addi	s0,sp,816
    162c:	0861                	addi	a6,a6,24
    162e:	0000                	unimp
    1630:	2ae8                	fld	fa0,208(a3)
    1632:	0000                	unimp
    1634:	6d1e                	flw	fs10,196(sp)
    1636:	0008                	0x8
    1638:	3b00                	fld	fs0,48(a4)
    163a:	2100002b          	0x2100002b
    163e:	0879                	addi	a6,a6,30
    1640:	0000                	unimp
    1642:	5b01                	li	s6,-32
    1644:	2000                	fld	fs0,0(s0)
    1646:	0886                	slli	a7,a7,0x1
    1648:	0000                	unimp
    164a:	54aa                	lw	s1,168(sp)
    164c:	8000                	0x8000
    164e:	0012                	c.slli	zero,0x4
    1650:	0000                	unimp
    1652:	0000051b          	0x51b
    1656:	8b1e                	mv	s6,t2
    1658:	0008                	0x8
    165a:	4e00                	lw	s0,24(a2)
    165c:	0000002b          	0x2b
    1660:	9822                	add	a6,a6,s0
    1662:	0008                	0x8
    1664:	bc00                	fsd	fs0,56(s0)
    1666:	0054                	addi	a3,sp,4
    1668:	0a80                	addi	s0,sp,336
    166a:	0000                	unimp
    166c:	1e00                	addi	s0,sp,816
    166e:	0899                	addi	a7,a7,6
    1670:	0000                	unimp
    1672:	2b61                	jal	1c0a <_tbss_end+0x1b86>
    1674:	0000                	unimp
    1676:	0000                	unimp
    1678:	0006cb23          	0x6cb23
    167c:	5800                	lw	s0,48(s0)
    167e:	0004                	0x4
    1680:	1e00                	addi	s0,sp,816
    1682:	06d0                	addi	a2,sp,836
    1684:	0000                	unimp
    1686:	2b74                	fld	fa3,208(a4)
    1688:	0000                	unimp
    168a:	dc1e                	sw	t2,56(sp)
    168c:	0006                	c.slli	zero,0x1
    168e:	8700                	0x8700
    1690:	1d00002b          	0x1d00002b
    1694:	06e8                	addi	a0,sp,844
    1696:	0000                	unimp
    1698:	f41d                	bnez	s0,15c6 <_tbss_end+0x1542>
    169a:	0006                	c.slli	zero,0x1
    169c:	1e00                	addi	s0,sp,816
    169e:	0700                	addi	s0,sp,896
    16a0:	0000                	unimp
    16a2:	2b9a                	fld	fs7,384(sp)
    16a4:	0000                	unimp
    16a6:	0c1e                	slli	s8,s8,0x7
    16a8:	b8000007          	0xb8000007
    16ac:	1e00002b          	0x1e00002b
    16b0:	0718                	addi	a4,sp,896
    16b2:	0000                	unimp
    16b4:	2bd6                	fld	fs7,336(sp)
    16b6:	0000                	unimp
    16b8:	0000                	unimp
    16ba:	0000                	unimp
    16bc:	ec24                	fsw	fs1,88(s0)
    16be:	0002                	c.slli	zero,0x0
    16c0:	0100                	addi	s0,sp,128
    16c2:	03f6                	slli	t2,t2,0x1d
    16c4:	000001af          	0x1af
    16c8:	0008a803          	lw	a6,0(a7)
    16cc:	2500                	fld	fs0,8(a0)
    16ce:	006e                	c.slli	zero,0x1b
    16d0:	f601                	bnez	a2,15d8 <_tbss_end+0x1554>
    16d2:	0001af03          	lw	t5,0(gp) # 90000800 <__global_pointer$>
    16d6:	2500                	fld	fs0,8(a0)
    16d8:	0064                	addi	s1,sp,12
    16da:	f601                	bnez	a2,15e2 <_tbss_end+0x155e>
    16dc:	0001af03          	lw	t5,0(gp) # 90000800 <__global_pointer$>
    16e0:	2500                	fld	fs0,8(a0)
    16e2:	7072                	flw	ft0,60(sp)
    16e4:	0100                	addi	s0,sp,128
    16e6:	03f6                	slli	t2,t2,0x1d
    16e8:	08a8                	addi	a0,sp,88
    16ea:	0000                	unimp
    16ec:	6e19                	lui	t3,0x6
    16ee:	006e                	c.slli	zero,0x1b
    16f0:	f801                	bnez	s0,1600 <_tbss_end+0x157c>
    16f2:	00023003          	0x23003
    16f6:	1900                	addi	s0,sp,176
    16f8:	6464                	flw	fs1,76(s0)
    16fa:	0100                	addi	s0,sp,128
    16fc:	03f9                	addi	t2,t2,30
    16fe:	0230                	addi	a2,sp,264
    1700:	0000                	unimp
    1702:	7219                	lui	tp,0xfffe6
    1704:	0072                	c.slli	zero,0x1c
    1706:	fa01                	bnez	a2,1616 <_tbss_end+0x1592>
    1708:	00022403          	lw	s0,0(tp) # fffe6000 <__global_pointer$+0x6ffe5800>
    170c:	1900                	addi	s0,sp,176
    170e:	3064                	fld	fs1,224(s0)
    1710:	0100                	addi	s0,sp,128
    1712:	019903fb          	0x19903fb
    1716:	0000                	unimp
    1718:	6419                	lui	s0,0x6
    171a:	0031                	c.nop	12
    171c:	fb01                	bnez	a4,162c <_tbss_end+0x15a8>
    171e:	00019903          	lh	s2,0(gp) # 90000800 <__global_pointer$>
    1722:	1900                	addi	s0,sp,176
    1724:	306e                	fld	ft0,248(sp)
    1726:	0100                	addi	s0,sp,128
    1728:	019903fb          	0x19903fb
    172c:	0000                	unimp
    172e:	6e19                	lui	t3,0x6
    1730:	0031                	c.nop	12
    1732:	fb01                	bnez	a4,1642 <_tbss_end+0x15be>
    1734:	00019903          	lh	s2,0(gp) # 90000800 <__global_pointer$>
    1738:	1900                	addi	s0,sp,176
    173a:	326e                	fld	ft4,248(sp)
    173c:	0100                	addi	s0,sp,128
    173e:	019903fb          	0x19903fb
    1742:	0000                	unimp
    1744:	7119                	addi	sp,sp,-128
    1746:	0030                	addi	a2,sp,8
    1748:	fc01                	bnez	s0,1660 <_tbss_end+0x15dc>
    174a:	00019903          	lh	s2,0(gp) # 90000800 <__global_pointer$>
    174e:	1900                	addi	s0,sp,176
    1750:	3171                	jal	13dc <_tbss_end+0x1358>
    1752:	0100                	addi	s0,sp,128
    1754:	03fc                	addi	a5,sp,460
    1756:	0199                	addi	gp,gp,6
    1758:	0000                	unimp
    175a:	6219                	lui	tp,0x6
    175c:	0100                	addi	s0,sp,128
    175e:	03fd                	addi	t2,t2,31
    1760:	0199                	addi	gp,gp,6
    1762:	0000                	unimp
    1764:	6219                	lui	tp,0x6
    1766:	006d                	c.nop	27
    1768:	fd01                	bnez	a0,1680 <_tbss_end+0x15fc>
    176a:	00019903          	lh	s2,0(gp) # 90000800 <__global_pointer$>
    176e:	1900                	addi	s0,sp,176
    1770:	01007777          	0x1007777
    1774:	04c6                	slli	s1,s1,0x11
    1776:	0230                	addi	a2,sp,264
    1778:	0000                	unimp
    177a:	5326                	lw	t1,104(sp)
    177c:	0006                	c.slli	zero,0x1
    177e:	2700                	fld	fs0,8(a4)
    1780:	000002e7          	jalr	t0,zero
    1784:	2d01                	jal	1d94 <_tbss_end+0x1d10>
    1786:	9904                	0x9904
    1788:	0001                	nop
    178a:	1900                	addi	s0,sp,176
    178c:	5f5f 0061 2d01      	0x2d0100615f5f
    1792:	9904                	0x9904
    1794:	0001                	nop
    1796:	0000                	unimp
    1798:	ad26                	fsd	fs1,152(sp)
    179a:	0006                	c.slli	zero,0x1
    179c:	2700                	fld	fs0,8(a4)
    179e:	013d                	addi	sp,sp,15
    17a0:	0000                	unimp
    17a2:	3901                	jal	13b2 <_tbss_end+0x132e>
    17a4:	9904                	0x9904
    17a6:	0001                	nop
    17a8:	2700                	fld	fs0,8(a4)
    17aa:	0138                	addi	a4,sp,136
    17ac:	0000                	unimp
    17ae:	3901                	jal	13be <_tbss_end+0x133a>
    17b0:	9904                	0x9904
    17b2:	0001                	nop
    17b4:	2700                	fld	fs0,8(a4)
    17b6:	02d0                	addi	a2,sp,324
    17b8:	0000                	unimp
    17ba:	3901                	jal	13ca <_tbss_end+0x1346>
    17bc:	9904                	0x9904
    17be:	0001                	nop
    17c0:	2700                	fld	fs0,8(a4)
    17c2:	000002cb          	fnmsub.s	ft5,ft0,ft0,ft0,rne
    17c6:	3901                	jal	13d6 <_tbss_end+0x1352>
    17c8:	9904                	0x9904
    17ca:	0001                	nop
    17cc:	2700                	fld	fs0,8(a4)
    17ce:	0312                	slli	t1,t1,0x4
    17d0:	0000                	unimp
    17d2:	3901                	jal	13e2 <_tbss_end+0x135e>
    17d4:	9904                	0x9904
    17d6:	0001                	nop
    17d8:	2700                	fld	fs0,8(a4)
    17da:	030d                	addi	t1,t1,3
    17dc:	0000                	unimp
    17de:	3901                	jal	13ee <_tbss_end+0x136a>
    17e0:	9904                	0x9904
    17e2:	0001                	nop
    17e4:	1900                	addi	s0,sp,176
    17e6:	5f5f 006d 3901      	0x3901006d5f5f
    17ec:	9904                	0x9904
    17ee:	0001                	nop
    17f0:	0000                	unimp
    17f2:	cb26                	sw	s1,148(sp)
    17f4:	0006                	c.slli	zero,0x1
    17f6:	2700                	fld	fs0,8(a4)
    17f8:	000002e7          	jalr	t0,zero
    17fc:	4501                	li	a0,0
    17fe:	9904                	0x9904
    1800:	0001                	nop
    1802:	1900                	addi	s0,sp,176
    1804:	5f5f 0061 4501      	0x450100615f5f
    180a:	9904                	0x9904
    180c:	0001                	nop
    180e:	0000                	unimp
    1810:	2526                	fld	fa0,72(sp)
    1812:	27000007          	0x27000007
    1816:	013d                	addi	sp,sp,15
    1818:	0000                	unimp
    181a:	5e01                	li	t3,-32
    181c:	9904                	0x9904
    181e:	0001                	nop
    1820:	2700                	fld	fs0,8(a4)
    1822:	0138                	addi	a4,sp,136
    1824:	0000                	unimp
    1826:	5e01                	li	t3,-32
    1828:	9904                	0x9904
    182a:	0001                	nop
    182c:	2700                	fld	fs0,8(a4)
    182e:	02d0                	addi	a2,sp,324
    1830:	0000                	unimp
    1832:	5e01                	li	t3,-32
    1834:	9904                	0x9904
    1836:	0001                	nop
    1838:	2700                	fld	fs0,8(a4)
    183a:	000002cb          	fnmsub.s	ft5,ft0,ft0,ft0,rne
    183e:	5e01                	li	t3,-32
    1840:	9904                	0x9904
    1842:	0001                	nop
    1844:	2700                	fld	fs0,8(a4)
    1846:	0312                	slli	t1,t1,0x4
    1848:	0000                	unimp
    184a:	5e01                	li	t3,-32
    184c:	9904                	0x9904
    184e:	0001                	nop
    1850:	2700                	fld	fs0,8(a4)
    1852:	030d                	addi	t1,t1,3
    1854:	0000                	unimp
    1856:	5e01                	li	t3,-32
    1858:	9904                	0x9904
    185a:	0001                	nop
    185c:	1900                	addi	s0,sp,176
    185e:	5f5f 006d 5e01      	0x5e01006d5f5f
    1864:	9904                	0x9904
    1866:	0001                	nop
    1868:	0000                	unimp
    186a:	7f26                	flw	ft10,104(sp)
    186c:	27000007          	0x27000007
    1870:	013d                	addi	sp,sp,15
    1872:	0000                	unimp
    1874:	6301                	0x6301
    1876:	9904                	0x9904
    1878:	0001                	nop
    187a:	2700                	fld	fs0,8(a4)
    187c:	0138                	addi	a4,sp,136
    187e:	0000                	unimp
    1880:	6301                	0x6301
    1882:	9904                	0x9904
    1884:	0001                	nop
    1886:	2700                	fld	fs0,8(a4)
    1888:	02d0                	addi	a2,sp,324
    188a:	0000                	unimp
    188c:	6301                	0x6301
    188e:	9904                	0x9904
    1890:	0001                	nop
    1892:	2700                	fld	fs0,8(a4)
    1894:	000002cb          	fnmsub.s	ft5,ft0,ft0,ft0,rne
    1898:	6301                	0x6301
    189a:	9904                	0x9904
    189c:	0001                	nop
    189e:	2700                	fld	fs0,8(a4)
    18a0:	0312                	slli	t1,t1,0x4
    18a2:	0000                	unimp
    18a4:	6301                	0x6301
    18a6:	9904                	0x9904
    18a8:	0001                	nop
    18aa:	2700                	fld	fs0,8(a4)
    18ac:	030d                	addi	t1,t1,3
    18ae:	0000                	unimp
    18b0:	6301                	0x6301
    18b2:	9904                	0x9904
    18b4:	0001                	nop
    18b6:	1900                	addi	s0,sp,176
    18b8:	5f5f 006d 6301      	0x6301006d5f5f
    18be:	9904                	0x9904
    18c0:	0001                	nop
    18c2:	0000                	unimp
    18c4:	9d26                	add	s10,s10,s1
    18c6:	27000007          	0x27000007
    18ca:	000002e7          	jalr	t0,zero
    18ce:	8601                	srai	a2,a2,0x0
    18d0:	9904                	0x9904
    18d2:	0001                	nop
    18d4:	1900                	addi	s0,sp,176
    18d6:	5f5f 0061 8601      	0x860100615f5f
    18dc:	9904                	0x9904
    18de:	0001                	nop
    18e0:	0000                	unimp
    18e2:	af26                	fsd	fs1,408(sp)
    18e4:	19000007          	0x19000007
    18e8:	5f5f 0078 9401      	0x940100785f5f
    18ee:	9904                	0x9904
    18f0:	0001                	nop
    18f2:	0000                	unimp
    18f4:	1928                	addi	a0,sp,184
    18f6:	316d                	jal	15a0 <_tbss_end+0x151c>
    18f8:	0100                	addi	s0,sp,128
    18fa:	04a4                	addi	s1,sp,584
    18fc:	0199                	addi	gp,gp,6
    18fe:	0000                	unimp
    1900:	6d19                	lui	s10,0x6
    1902:	0030                	addi	a2,sp,8
    1904:	a401                	j	1b04 <_tbss_end+0x1a80>
    1906:	9904                	0x9904
    1908:	0001                	nop
    190a:	2600                	fld	fs0,8(a2)
    190c:	0820                	addi	s0,sp,24
    190e:	0000                	unimp
    1910:	00013d27          	fsd	ft0,26(sp)
    1914:	0100                	addi	s0,sp,128
    1916:	019904af          	0x19904af
    191a:	0000                	unimp
    191c:	00013827          	fsd	ft0,16(sp)
    1920:	0100                	addi	s0,sp,128
    1922:	019904af          	0x19904af
    1926:	0000                	unimp
    1928:	0002d027          	0x2d027
    192c:	0100                	addi	s0,sp,128
    192e:	019904af          	0x19904af
    1932:	0000                	unimp
    1934:	0002cb27          	fsq	ft0,22(t0)
    1938:	0100                	addi	s0,sp,128
    193a:	019904af          	0x19904af
    193e:	0000                	unimp
    1940:	00031227          	0x31227
    1944:	0100                	addi	s0,sp,128
    1946:	019904af          	0x19904af
    194a:	0000                	unimp
    194c:	00030d27          	0x30d27
    1950:	0100                	addi	s0,sp,128
    1952:	019904af          	0x19904af
    1956:	0000                	unimp
    1958:	5f19                	li	t5,-26
    195a:	6d5f 0100 04af      	0x4af01006d5f
    1960:	0199                	addi	gp,gp,6
    1962:	0000                	unimp
    1964:	2600                	fld	fs0,8(a2)
    1966:	0886                	slli	a7,a7,0x1
    1968:	0000                	unimp
    196a:	00022e27          	fsw	ft0,28(tp) # 601c <_tbss_end+0x5f98>
    196e:	0100                	addi	s0,sp,128
    1970:	04b0                	addi	a2,sp,584
    1972:	0199                	addi	gp,gp,6
    1974:	0000                	unimp
    1976:	00023327          	fsd	ft0,6(tp) # 6 <_tdata_begin+0x6>
    197a:	0100                	addi	s0,sp,128
    197c:	04b0                	addi	a2,sp,584
    197e:	0199                	addi	gp,gp,6
    1980:	0000                	unimp
    1982:	00023827          	fsd	ft0,16(tp) # 10 <_tdata_begin+0x10>
    1986:	0100                	addi	s0,sp,128
    1988:	04b0                	addi	a2,sp,584
    198a:	0199                	addi	gp,gp,6
    198c:	0000                	unimp
    198e:	00023d27          	fsd	ft0,26(tp) # 1a <_tdata_begin+0x1a>
    1992:	0100                	addi	s0,sp,128
    1994:	04b0                	addi	a2,sp,584
    1996:	0199                	addi	gp,gp,6
    1998:	0000                	unimp
    199a:	00032627          	fsw	ft0,12(t1) # 1110 <_tbss_end+0x108c>
    199e:	0100                	addi	s0,sp,128
    19a0:	04b0                	addi	a2,sp,584
    19a2:	0199                	addi	gp,gp,6
    19a4:	0000                	unimp
    19a6:	00016a27          	0x16a27
    19aa:	0100                	addi	s0,sp,128
    19ac:	04b0                	addi	a2,sp,584
    19ae:	0199                	addi	gp,gp,6
    19b0:	0000                	unimp
    19b2:	00031727          	0x31727
    19b6:	0100                	addi	s0,sp,128
    19b8:	04b0                	addi	a2,sp,584
    19ba:	0199                	addi	gp,gp,6
    19bc:	0000                	unimp
    19be:	00015a27          	0x15a27
    19c2:	0100                	addi	s0,sp,128
    19c4:	04b0                	addi	a2,sp,584
    19c6:	0199                	addi	gp,gp,6
    19c8:	0000                	unimp
    19ca:	2600                	fld	fs0,8(a2)
    19cc:	0898                	addi	a4,sp,80
    19ce:	0000                	unimp
    19d0:	5f19                	li	t5,-26
    19d2:	785f 0100 04b5      	0x4b50100785f
    19d8:	0199                	addi	gp,gp,6
    19da:	0000                	unimp
    19dc:	2800                	fld	fs0,16(s0)
    19de:	5f19                	li	t5,-26
    19e0:	785f 0100 04bd      	0x4bd0100785f
    19e6:	0199                	addi	gp,gp,6
    19e8:	0000                	unimp
    19ea:	0000                	unimp
    19ec:	0500                	addi	s0,sp,640
    19ee:	af04                	fsd	fs1,24(a4)
    19f0:	0001                	nop
    19f2:	0000                	unimp
    19f4:	02c9                	addi	t0,t0,18
    19f6:	0000                	unimp
    19f8:	0004                	0x4
    19fa:	0589                	addi	a1,a1,2
    19fc:	0000                	unimp
    19fe:	0104                	addi	s1,sp,128
    1a00:	03b6                	slli	t2,t2,0xd
    1a02:	0000                	unimp
    1a04:	700c                	flw	fa1,32(s0)
    1a06:	0004                	0x4
    1a08:	2b00                	fld	fs0,16(a4)
    1a0a:	58000003          	lb	zero,1408(zero) # 580 <_tbss_end+0x4fc>
    1a0e:	0005                	c.nop	1
    1a10:	0000                	unimp
    1a12:	0000                	unimp
    1a14:	9400                	0x9400
    1a16:	0009                	c.nop	2
    1a18:	0200                	addi	s0,sp,256
    1a1a:	0708                	addi	a0,sp,896
    1a1c:	000001a3          	sb	zero,3(zero) # 3 <_tdata_begin+0x3>
    1a20:	69050403          	lb	s0,1680(a0) # 2690 <_tbss_end+0x260c>
    1a24:	746e                	flw	fs0,248(sp)
    1a26:	0200                	addi	s0,sp,256
    1a28:	0601                	addi	a2,a2,0
    1a2a:	0205                	addi	tp,tp,1
    1a2c:	0000                	unimp
    1a2e:	0802                	slli	a6,a6,0x0
    1a30:	2a05                	jal	1b60 <_tbss_end+0x1adc>
    1a32:	0001                	nop
    1a34:	0400                	addi	s0,sp,512
    1a36:	0242                	slli	tp,tp,0x10
    1a38:	0000                	unimp
    1a3a:	4a02                	lw	s4,0(sp)
    1a3c:	5201                	li	tp,-32
    1a3e:	0000                	unimp
    1a40:	0500                	addi	s0,sp,640
    1a42:	0041                	c.nop	16
    1a44:	0000                	unimp
    1a46:	0102                	slli	sp,sp,0x0
    1a48:	0308                	addi	a0,sp,384
    1a4a:	0002                	c.slli	zero,0x0
    1a4c:	0200                	addi	s0,sp,256
    1a4e:	0704                	addi	s1,sp,896
    1a50:	01ad                	addi	gp,gp,11
    1a52:	0000                	unimp
    1a54:	df04                	sw	s1,56(a4)
    1a56:	0002                	c.slli	zero,0x0
    1a58:	0200                	addi	s0,sp,256
    1a5a:	014c                	addi	a1,sp,132
    1a5c:	0025                	c.nop	9
    1a5e:	0000                	unimp
    1a60:	0202                	slli	tp,tp,0x0
    1a62:	00025c07          	0x25c07
    1a66:	0600                	addi	s0,sp,768
    1a68:	004d                	c.nop	19
    1a6a:	0000                	unimp
    1a6c:	00000083          	lb	ra,0(zero) # 0 <_tdata_begin>
    1a70:	00005907          	0x5907
    1a74:	ff00                	fsw	fs0,56(a4)
    1a76:	0500                	addi	s0,sp,640
    1a78:	00000073          	ecall
    1a7c:	d808                	sw	a0,48(s0)
    1a7e:	0001                	nop
    1a80:	0400                	addi	s0,sp,512
    1a82:	833c                	0x833c
    1a84:	0000                	unimp
    1a86:	0900                	addi	s0,sp,144
    1a88:	050c                	addi	a1,sp,640
    1a8a:	0000                	unimp
    1a8c:	009e4803          	lbu	a6,9(t3) # 6009 <_tbss_end+0x5f85>
    1a90:	0000                	unimp
    1a92:	0802                	slli	a6,a6,0x0
    1a94:	0604                	addi	s1,sp,768
    1a96:	0a000003          	lb	zero,160(zero) # a0 <_tbss_end+0x1c>
    1a9a:	0308                	addi	a0,sp,384
    1a9c:	0000ea4f          	fnmadd.s	fs4,ft1,ft0,ft0,unknown
    1aa0:	0b00                	addi	s0,sp,400
    1aa2:	04f8                	addi	a4,sp,588
    1aa4:	0000                	unimp
    1aa6:	00595703          	lhu	a4,5(s2) # 1b005 <_tbss_end+0x1af81>
    1aaa:	0000                	unimp
    1aac:	2004                	fld	fs1,0(s0)
    1aae:	0000                	unimp
    1ab0:	00039d0b          	0x39d0b
    1ab4:	0300                	addi	s0,sp,384
    1ab6:	5958                	lw	a4,52(a0)
    1ab8:	0000                	unimp
    1aba:	0400                	addi	s0,sp,512
    1abc:	0c14                	addi	a3,sp,528
    1abe:	0c04                	addi	s1,sp,528
    1ac0:	7865                	lui	a6,0xffff9
    1ac2:	0070                	addi	a2,sp,12
    1ac4:	00595903          	lhu	s2,5(s2)
    1ac8:	0000                	unimp
    1aca:	0b04                	addi	s1,sp,400
    1acc:	0401                	addi	s0,s0,0
    1ace:	0004dc0b          	0x4dc0b
    1ad2:	0300                	addi	s0,sp,384
    1ad4:	595a                	lw	s2,180(sp)
    1ad6:	0000                	unimp
    1ad8:	0400                	addi	s0,sp,512
    1ada:	0001                	nop
    1adc:	0004                	0x4
    1ade:	680d                	lui	a6,0x3
    1ae0:	0005                	c.nop	1
    1ae2:	0800                	addi	s0,sp,16
    1ae4:	010d4c03          	lbu	s8,16(s10) # 6010 <_tbss_end+0x5f8c>
    1ae8:	0000                	unimp
    1aea:	660e                	flw	fa2,192(sp)
    1aec:	746c                	flw	fa1,108(s0)
    1aee:	0300                	addi	s0,sp,384
    1af0:	934e                	add	t1,t1,s3
    1af2:	0000                	unimp
    1af4:	0f00                	addi	s0,sp,912
    1af6:	059e                	slli	a1,a1,0x7
    1af8:	0000                	unimp
    1afa:	00a55c03          	lhu	s8,10(a0)
    1afe:	0000                	unimp
    1b00:	1000                	addi	s0,sp,32
    1b02:	04fe                	slli	s1,s1,0x1f
    1b04:	0000                	unimp
    1b06:	2301                	jal	2006 <_tbss_end+0x1f82>
    1b08:	00000093          	li	ra,0
    1b0c:	5518                	lw	a4,40(a0)
    1b0e:	8000                	0x8000
    1b10:	01e2                	slli	gp,gp,0x18
    1b12:	0000                	unimp
    1b14:	9c01                	0x9c01
    1b16:	02be                	slli	t0,t0,0xf
    1b18:	0000                	unimp
    1b1a:	6911                	lui	s2,0x4
    1b1c:	0100                	addi	s0,sp,128
    1b1e:	00006023          	0x6023
    1b22:	f400                	fsw	fs0,40(s0)
    1b24:	1200002b          	0x1200002b
    1b28:	000004f3          	0x4f3
    1b2c:	2501                	jal	212c <_tbss_end+0x20a8>
    1b2e:	002c                	addi	a1,sp,8
    1b30:	0000                	unimp
    1b32:	2c5c                	fld	fa5,152(s0)
    1b34:	0000                	unimp
    1b36:	b312                	fsd	ft4,416(sp)
    1b38:	0005                	c.nop	1
    1b3a:	0100                	addi	s0,sp,128
    1b3c:	2c25                	jal	1d74 <_tbss_end+0x1cf0>
    1b3e:	0000                	unimp
    1b40:	cf00                	sw	s0,24(a4)
    1b42:	002c                	addi	a1,sp,8
    1b44:	1300                	addi	s0,sp,416
    1b46:	5f41                	li	t5,-16
    1b48:	26010063          	beqz	sp,1da8 <_tbss_end+0x1d24>
    1b4c:	02be                	slli	t0,t0,0xf
    1b4e:	0000                	unimp
    1b50:	4114                	lw	a3,0(a0)
    1b52:	735f 0100 be26      	0xbe260100735f
    1b58:	0002                	c.slli	zero,0x0
    1b5a:	f800                	fsw	fs0,48(s0)
    1b5c:	002c                	addi	a1,sp,8
    1b5e:	1400                	addi	s0,sp,544
    1b60:	5f41                	li	t5,-16
    1b62:	0065                	c.nop	25
    1b64:	2601                	jal	1e64 <_tbss_end+0x1de0>
    1b66:	02be                	slli	t0,t0,0xf
    1b68:	0000                	unimp
    1b6a:	2d18                	fld	fa4,24(a0)
    1b6c:	0000                	unimp
    1b6e:	9812                	add	a6,a6,tp
    1b70:	01000003          	lb	zero,16(zero) # 10 <_tdata_begin+0x10>
    1b74:	c526                	sw	s1,136(sp)
    1b76:	0002                	c.slli	zero,0x0
    1b78:	a600                	fsd	fs0,8(a2)
    1b7a:	002d                	c.nop	11
    1b7c:	1200                	addi	s0,sp,288
    1b7e:	04e1                	addi	s1,s1,24
    1b80:	0000                	unimp
    1b82:	2601                	jal	1e82 <_tbss_end+0x1dfe>
    1b84:	02c5                	addi	t0,t0,17
    1b86:	0000                	unimp
    1b88:	2e66                	fld	ft8,88(sp)
    1b8a:	0000                	unimp
    1b8c:	01006113          	ori	sp,zero,16
    1b90:	00009327          	0x9327
    1b94:	1500                	addi	s0,sp,672
    1b96:	0490                	addi	a2,sp,576
    1b98:	0000                	unimp
    1b9a:	02ac                	addi	a1,sp,328
    1b9c:	0000                	unimp
    1b9e:	e616                	fsw	ft5,12(sp)
    1ba0:	0004                	0x4
    1ba2:	0100                	addi	s0,sp,128
    1ba4:	142a                	slli	s0,s0,0x2a
    1ba6:	0056                	c.slli	zero,0x15
    1ba8:	1780                	addi	s0,sp,992
    1baa:	04b8                	addi	a4,sp,584
    1bac:	0000                	unimp
    1bae:	2c12                	fld	fs8,256(sp)
    1bb0:	0005                	c.nop	1
    1bb2:	0100                	addi	s0,sp,128
    1bb4:	602a                	flw	ft0,136(sp)
    1bb6:	0000                	unimp
    1bb8:	1200                	addi	s0,sp,288
    1bba:	1500002f          	0x1500002f
    1bbe:	04e0                	addi	s0,sp,588
    1bc0:	0000                	unimp
    1bc2:	01e2                	slli	gp,gp,0x18
    1bc4:	0000                	unimp
    1bc6:	a312                	fsd	ft4,384(sp)
    1bc8:	0005                	c.nop	1
    1bca:	0100                	addi	s0,sp,128
    1bcc:	2c2a                	fld	fs8,136(sp)
    1bce:	0000                	unimp
    1bd0:	ea00                	fsw	fs0,16(a2)
    1bd2:	0000002f          	0x2f
    1bd6:	00050017          	auipc	zero,0x50
    1bda:	1200                	addi	s0,sp,288
    1bdc:	00000513          	li	a0,0
    1be0:	2a01                	jal	1cf0 <_tbss_end+0x1c6c>
    1be2:	002c                	addi	a1,sp,8
    1be4:	0000                	unimp
    1be6:	3076                	fld	ft0,376(sp)
    1be8:	0000                	unimp
    1bea:	6218                	flw	fa4,0(a2)
    1bec:	0002                	c.slli	zero,0x0
    1bee:	1900                	addi	s0,sp,176
    1bf0:	0574                	addi	a3,sp,652
    1bf2:	0000                	unimp
    1bf4:	2a01                	jal	1d04 <_tbss_end+0x1c80>
    1bf6:	02be                	slli	t0,t0,0xf
    1bf8:	0000                	unimp
    1bfa:	c719                	beqz	a4,1c08 <_tbss_end+0x1b84>
    1bfc:	0004                	0x4
    1bfe:	0100                	addi	s0,sp,128
    1c00:	be2a                	fsd	fa0,312(sp)
    1c02:	0002                	c.slli	zero,0x0
    1c04:	1900                	addi	s0,sp,176
    1c06:	0589                	addi	a1,a1,2
    1c08:	0000                	unimp
    1c0a:	2a01                	jal	1d1a <_tbss_end+0x1c96>
    1c0c:	02be                	slli	t0,t0,0xf
    1c0e:	0000                	unimp
    1c10:	3c19                	jal	1626 <_tbss_end+0x15a2>
    1c12:	0005                	c.nop	1
    1c14:	0100                	addi	s0,sp,128
    1c16:	c52a                	sw	a0,136(sp)
    1c18:	0002                	c.slli	zero,0x0
    1c1a:	1900                	addi	s0,sp,176
    1c1c:	0552                	slli	a0,a0,0x14
    1c1e:	0000                	unimp
    1c20:	2a01                	jal	1d30 <_tbss_end+0x1cac>
    1c22:	02c5                	addi	t0,t0,17
    1c24:	0000                	unimp
    1c26:	4318                	lw	a4,0(a4)
    1c28:	0002                	c.slli	zero,0x0
    1c2a:	1300                	addi	s0,sp,416
    1c2c:	5f5f 0078 2a01      	0x2a0100785f5f
    1c32:	02c5                	addi	t0,t0,17
    1c34:	0000                	unimp
    1c36:	1800                	addi	s0,sp,48
    1c38:	0254                	addi	a3,sp,260
    1c3a:	0000                	unimp
    1c3c:	785f5f13          	0x785f5f13
    1c40:	0100                	addi	s0,sp,128
    1c42:	c52a                	sw	a0,136(sp)
    1c44:	0002                	c.slli	zero,0x0
    1c46:	0000                	unimp
    1c48:	131a                	slli	t1,t1,0x26
    1c4a:	5f5f 0078 2a01      	0x2a0100785f5f
    1c50:	02c5                	addi	t0,t0,17
    1c52:	0000                	unimp
    1c54:	0000                	unimp
    1c56:	0056ea1b          	0x56ea1b
    1c5a:	0680                	addi	s0,sp,832
    1c5c:	0000                	unimp
    1c5e:	7f00                	flw	fs0,56(a4)
    1c60:	0002                	c.slli	zero,0x0
    1c62:	1400                	addi	s0,sp,544
    1c64:	5f5f 0078 2a01      	0x2a0100785f5f
    1c6a:	02c5                	addi	t0,t0,17
    1c6c:	0000                	unimp
    1c6e:	30a2                	fld	ft1,40(sp)
    1c70:	0000                	unimp
    1c72:	1b00                	addi	s0,sp,432
    1c74:	5620                	lw	s0,104(a2)
    1c76:	8000                	0x8000
    1c78:	0014                	0x14
    1c7a:	0000                	unimp
    1c7c:	029c                	addi	a5,sp,320
    1c7e:	0000                	unimp
    1c80:	5f14                	lw	a3,56(a4)
    1c82:	785f 0100 c52a      	0xc52a0100785f
    1c88:	0002                	c.slli	zero,0x0
    1c8a:	b500                	fsd	fs0,40(a0)
    1c8c:	0030                	addi	a2,sp,8
    1c8e:	0000                	unimp
    1c90:	131a                	slli	t1,t1,0x26
    1c92:	5f5f 0078 2a01      	0x2a0100785f5f
    1c98:	02c5                	addi	t0,t0,17
    1c9a:	0000                	unimp
    1c9c:	0000                	unimp
    1c9e:	0000                	unimp
    1ca0:	00053817          	auipc	a6,0x53
    1ca4:	1900                	addi	s0,sp,176
    1ca6:	000003a3          	sb	zero,7(zero) # 51bdd <_tbss_end+0x51b59>
    1caa:	2b01                	jal	21ba <_tbss_end+0x2136>
    1cac:	00ea                	slli	ra,ra,0x1a
    1cae:	0000                	unimp
    1cb0:	0000                	unimp
    1cb2:	0402                	slli	s0,s0,0x0
    1cb4:	2f05                	jal	23e4 <_tbss_end+0x2360>
    1cb6:	0001                	nop
    1cb8:	0200                	addi	s0,sp,256
    1cba:	0704                	addi	s1,sp,896
    1cbc:	01a8                	addi	a0,sp,200
    1cbe:	0000                	unimp
    1cc0:	e100                	fsw	fs0,0(a0)
    1cc2:	0001                	nop
    1cc4:	0400                	addi	s0,sp,512
    1cc6:	ee00                	fsw	fs0,24(a2)
    1cc8:	0006                	c.slli	zero,0x1
    1cca:	0400                	addi	s0,sp,512
    1ccc:	b601                	j	17cc <_tbss_end+0x1748>
    1cce:	0c000003          	lb	zero,192(zero) # c0 <_tbss_end+0x3c>
    1cd2:	0280                	addi	s0,sp,320
    1cd4:	0000                	unimp
    1cd6:	0000032b          	0x32b
    1cda:	0b8d                	addi	s7,s7,3
    1cdc:	0000                	unimp
    1cde:	0402                	slli	s0,s0,0x0
    1ce0:	6905                	lui	s2,0x1
    1ce2:	746e                	flw	fs0,248(sp)
    1ce4:	0300                	addi	s0,sp,384
    1ce6:	0704                	addi	s1,sp,896
    1ce8:	01ad                	addi	gp,gp,11
    1cea:	0000                	unimp
    1cec:	2a050803          	lb	a6,672(a0)
    1cf0:	0001                	nop
    1cf2:	0300                	addi	s0,sp,384
    1cf4:	0410                	addi	a2,sp,512
    1cf6:	0301                	addi	t1,t1,0
    1cf8:	0000                	unimp
    1cfa:	d504                	sw	s1,40(a0)
    1cfc:	0002                	c.slli	zero,0x0
    1cfe:	0100                	addi	s0,sp,128
    1d00:	242a                	fld	fs0,136(sp)
    1d02:	0000                	unimp
    1d04:	0400                	addi	s0,sp,512
    1d06:	0199                	addi	gp,gp,6
    1d08:	0000                	unimp
    1d0a:	2f01                	jal	241a <_tbss_end+0x2396>
    1d0c:	0000004f          	fnmadd.s	ft0,ft0,ft0,ft0,rne
    1d10:	0405                	addi	s0,s0,1
    1d12:	0055                	c.nop	21
    1d14:	0000                	unimp
    1d16:	3906                	fld	fs2,96(sp)
    1d18:	0000                	unimp
    1d1a:	6400                	flw	fs0,8(s0)
    1d1c:	0000                	unimp
    1d1e:	0700                	addi	s0,sp,896
    1d20:	0064                	addi	s1,sp,12
    1d22:	0000                	unimp
    1d24:	0500                	addi	s0,sp,640
    1d26:	6a04                	flw	fs1,16(a2)
    1d28:	0000                	unimp
    1d2a:	0800                	addi	s0,sp,16
    1d2c:	7204                	flw	fs1,32(a2)
    1d2e:	01000003          	lb	zero,16(zero) # 10 <_tdata_begin+0x10>
    1d32:	7636                	flw	fa2,108(sp)
    1d34:	0000                	unimp
    1d36:	0500                	addi	s0,sp,640
    1d38:	7c04                	flw	fs1,56(s0)
    1d3a:	0000                	unimp
    1d3c:	0600                	addi	s0,sp,768
    1d3e:	001d                	c.nop	7
    1d40:	0000                	unimp
    1d42:	0090                	addi	a2,sp,64
    1d44:	0000                	unimp
    1d46:	00006407          	0x6407
    1d4a:	0700                	addi	s0,sp,896
    1d4c:	0064                	addi	s1,sp,12
    1d4e:	0000                	unimp
    1d50:	0900                	addi	s0,sp,144
    1d52:	024a                	slli	tp,tp,0x12
    1d54:	0000                	unimp
    1d56:	bb01                	j	1a66 <_tbss_end+0x19e2>
    1d58:	0044                	addi	s1,sp,4
    1d5a:	0000                	unimp
    1d5c:	1709                	addi	a4,a4,-30
    1d5e:	0000                	unimp
    1d60:	0100                	addi	s0,sp,128
    1d62:	6bbe                	flw	fs7,204(sp)
    1d64:	0000                	unimp
    1d66:	0300                	addi	s0,sp,384
    1d68:	0801                	addi	a6,a6,0
    1d6a:	00000203          	lb	tp,0(zero) # 0 <_tdata_begin>
    1d6e:	1b0a                	slli	s6,s6,0x22
    1d70:	0001                	nop
    1d72:	0700                	addi	s0,sp,896
    1d74:	2404                	fld	fs1,8(s0)
    1d76:	0000                	unimp
    1d78:	0200                	addi	s0,sp,256
    1d7a:	e318                	fsw	fa4,0(a4)
    1d7c:	0000                	unimp
    1d7e:	0b00                	addi	s0,sp,400
    1d80:	031c                	addi	a5,sp,384
    1d82:	0000                	unimp
    1d84:	0b00                	addi	s0,sp,400
    1d86:	015f 0000 0b01      	0xb010000015f
    1d8c:	01e2                	slli	gp,gp,0x18
    1d8e:	0000                	unimp
    1d90:	0b02                	slli	s6,s6,0x0
    1d92:	0142                	slli	sp,sp,0x10
    1d94:	0000                	unimp
    1d96:	01ce0b03          	lb	s6,28(t3)
    1d9a:	0000                	unimp
    1d9c:	0b04                	addi	s1,sp,400
    1d9e:	01c4                	addi	s1,sp,196
    1da0:	0000                	unimp
    1da2:	0005                	c.nop	1
    1da4:	ba09                	j	16b6 <_tbss_end+0x1632>
    1da6:	0001                	nop
    1da8:	0200                	addi	s0,sp,256
    1daa:	ad20                	fsd	fs0,88(a0)
    1dac:	0000                	unimp
    1dae:	0a00                	addi	s0,sp,272
    1db0:	0000016f          	jal	sp,1db0 <_tbss_end+0x1d2c>
    1db4:	00240407          	0x240407
    1db8:	0000                	unimp
    1dba:	2202                	fld	ft4,0(sp)
    1dbc:	0112                	slli	sp,sp,0x4
    1dbe:	0000                	unimp
    1dc0:	00018f0b          	0x18f0b
    1dc4:	0000                	unimp
    1dc6:	00037a0b          	0x37a0b
    1dca:	0100                	addi	s0,sp,128
    1dcc:	0001fc0b          	0x1fc0b
    1dd0:	0200                	addi	s0,sp,256
    1dd2:	0900                	addi	s0,sp,144
    1dd4:	0221                	addi	tp,tp,8
    1dd6:	0000                	unimp
    1dd8:	2702                	fld	fa4,0(sp)
    1dda:	00ee                	slli	ra,ra,0x1b
    1ddc:	0000                	unimp
    1dde:	330c                	fld	fa1,32(a4)
    1de0:	0001                	nop
    1de2:	2800                	fld	fs0,16(s0)
    1de4:	0001                	nop
    1de6:	0d00                	addi	s0,sp,656
    1de8:	0e00                	addi	s0,sp,784
    1dea:	011d                	addi	sp,sp,7
    1dec:	0000                	unimp
    1dee:	0405                	addi	s0,s0,1
    1df0:	0000013f 00012d0e 	0x12d0e0000013f
    1df8:	0300                	addi	s0,sp,384
    1dfa:	0801                	addi	a6,a6,0
    1dfc:	020c                	addi	a1,sp,256
    1dfe:	0000                	unimp
    1e00:	380e                	fld	fa6,224(sp)
    1e02:	0001                	nop
    1e04:	0900                	addi	s0,sp,144
    1e06:	0180                	addi	s0,sp,192
    1e08:	0000                	unimp
    1e0a:	01282503          	lw	a0,18(a6) # 54cb2 <_tbss_end+0x54c2e>
    1e0e:	0000                	unimp
    1e10:	1109                	addi	sp,sp,-30
    1e12:	0002                	c.slli	zero,0x0
    1e14:	0300                	addi	s0,sp,384
    1e16:	2831                	jal	1e32 <_tbss_end+0x1dae>
    1e18:	0001                	nop
    1e1a:	0300                	addi	s0,sp,384
    1e1c:	0601                	addi	a2,a2,0
    1e1e:	0205                	addi	tp,tp,1
    1e20:	0000                	unimp
    1e22:	4204                	lw	s1,0(a2)
    1e24:	0002                	c.slli	zero,0x0
    1e26:	0400                	addi	s0,sp,512
    1e28:	0000a67b          	0xa67b
    1e2c:	0e00                	addi	s0,sp,784
    1e2e:	0161                	addi	sp,sp,24
    1e30:	0000                	unimp
    1e32:	04050203          	lb	tp,64(a0)
    1e36:	0001                	nop
    1e38:	0300                	addi	s0,sp,384
    1e3a:	0702                	slli	a4,a4,0x0
    1e3c:	025c                	addi	a5,sp,260
    1e3e:	0000                	unimp
    1e40:	a3070803          	lb	a6,-1488(a4) # fffe5a30 <__global_pointer$+0x6ffe5230>
    1e44:	0001                	nop
    1e46:	0300                	addi	s0,sp,384
    1e48:	0404                	addi	s1,sp,512
    1e4a:	0011                	c.nop	4
    1e4c:	0000                	unimp
    1e4e:	09030803          	lb	a6,144(t1)
    1e52:	0000                	unimp
    1e54:	0300                	addi	s0,sp,384
    1e56:	0408                	addi	a0,sp,512
    1e58:	0306                	slli	t1,t1,0x1
    1e5a:	0000                	unimp
    1e5c:	4b031003          	lh	zero,1200(t1)
    1e60:	0001                	nop
    1e62:	0300                	addi	s0,sp,384
    1e64:	0320                	addi	s0,sp,392
    1e66:	02f9                	addi	t0,t0,30
    1e68:	0000                	unimp
    1e6a:	6c0c                	flw	fa1,24(s0)
    1e6c:	0001                	nop
    1e6e:	b900                	fsd	fs0,48(a0)
    1e70:	0001                	nop
    1e72:	0f00                	addi	s0,sp,912
    1e74:	0024                	addi	s1,sp,8
    1e76:	0000                	unimp
    1e78:	00ff                	0xff
    1e7a:	a90e                	fsd	ft3,144(sp)
    1e7c:	0001                	nop
    1e7e:	1000                	addi	s0,sp,32
    1e80:	01ed                	addi	gp,gp,27
    1e82:	0000                	unimp
    1e84:	fc04                	fsw	fs1,56(s0)
    1e86:	b901                	j	1a96 <_tbss_end+0x1a12>
    1e88:	0001                	nop
    1e8a:	1000                	addi	s0,sp,32
    1e8c:	01d8                	addi	a4,sp,196
    1e8e:	0000                	unimp
    1e90:	0204                	addi	s1,sp,256
    1e92:	b902                	fsd	ft0,176(sp)
    1e94:	0001                	nop
    1e96:	1100                	addi	s0,sp,160
    1e98:	01ca                	slli	gp,gp,0x12
    1e9a:	0000                	unimp
    1e9c:	b105                	j	1abc <_tbss_end+0x1a38>
    1e9e:	0502                	slli	a0,a0,0x0
    1ea0:	00029403          	lh	s0,0(t0)
    1ea4:	0090                	addi	a2,sp,64
    1ea6:	0248                	addi	a0,sp,260
    1ea8:	0000                	unimp
    1eaa:	0004                	0x4
    1eac:	07aa                	slli	a5,a5,0xa
    1eae:	0000                	unimp
    1eb0:	0104                	addi	s1,sp,128
    1eb2:	03b6                	slli	t2,t2,0xd
    1eb4:	0000                	unimp
    1eb6:	800c                	0x800c
    1eb8:	0002                	c.slli	zero,0x0
    1eba:	2b00                	fld	fs0,16(a4)
    1ebc:	90000003          	lb	zero,-1792(zero) # fffff900 <__global_pointer$+0x6ffff100>
    1ec0:	0005                	c.nop	1
    1ec2:	0000                	unimp
    1ec4:	0000                	unimp
    1ec6:	e900                	fsw	fs0,16(a0)
    1ec8:	000c                	0xc
    1eca:	0200                	addi	s0,sp,256
    1ecc:	0504                	addi	s1,sp,640
    1ece:	6e69                	lui	t3,0x1a
    1ed0:	0074                	addi	a3,sp,12
    1ed2:	ad070403          	lb	s0,-1328(a4)
    1ed6:	0001                	nop
    1ed8:	0300                	addi	s0,sp,384
    1eda:	0508                	addi	a0,sp,640
    1edc:	012a                	slli	sp,sp,0xa
    1ede:	0000                	unimp
    1ee0:	01041003          	lh	zero,16(s0) # 6010 <_tbss_end+0x5f8c>
    1ee4:	04000003          	lb	zero,64(zero) # 40 <buf.2810>
    1ee8:	02d5                	addi	t0,t0,21
    1eea:	0000                	unimp
    1eec:	2a02                	fld	fs4,0(sp)
    1eee:	002c                	addi	a1,sp,8
    1ef0:	0000                	unimp
    1ef2:	9904                	0x9904
    1ef4:	0001                	nop
    1ef6:	0200                	addi	s0,sp,256
    1ef8:	0000572f          	0x572f
    1efc:	0500                	addi	s0,sp,640
    1efe:	5d04                	lw	s1,56(a0)
    1f00:	0000                	unimp
    1f02:	0600                	addi	s0,sp,768
    1f04:	0041                	c.nop	16
    1f06:	0000                	unimp
    1f08:	006c                	addi	a1,sp,12
    1f0a:	0000                	unimp
    1f0c:	00006c07          	0x6c07
    1f10:	0000                	unimp
    1f12:	0405                	addi	s0,s0,1
    1f14:	0072                	c.slli	zero,0x1c
    1f16:	0000                	unimp
    1f18:	0408                	addi	a0,sp,512
    1f1a:	0372                	slli	t1,t1,0x1c
    1f1c:	0000                	unimp
    1f1e:	3602                	fld	fa2,32(sp)
    1f20:	007e                	c.slli	zero,0x1f
    1f22:	0000                	unimp
    1f24:	0405                	addi	s0,s0,1
    1f26:	0084                	addi	s1,sp,64
    1f28:	0000                	unimp
    1f2a:	2506                	fld	fa0,64(sp)
    1f2c:	0000                	unimp
    1f2e:	9800                	0x9800
    1f30:	0000                	unimp
    1f32:	0700                	addi	s0,sp,896
    1f34:	006c                	addi	a1,sp,12
    1f36:	0000                	unimp
    1f38:	00006c07          	0x6c07
    1f3c:	0000                	unimp
    1f3e:	4a09                	li	s4,2
    1f40:	0002                	c.slli	zero,0x0
    1f42:	0200                	addi	s0,sp,256
    1f44:	00004cbb          	0x4cbb
    1f48:	0900                	addi	s0,sp,144
    1f4a:	00000017          	auipc	zero,0x0
    1f4e:	be02                	fsd	ft0,312(sp)
    1f50:	00000073          	ecall
    1f54:	03080103          	lb	sp,48(a6)
    1f58:	0002                	c.slli	zero,0x0
    1f5a:	0a00                	addi	s0,sp,272
    1f5c:	0000011b          	0x11b
    1f60:	002c0407          	0x2c0407
    1f64:	0000                	unimp
    1f66:	00eb1803          	lh	a6,14(s6) # fffe100e <__global_pointer$+0x6ffe080e>
    1f6a:	0000                	unimp
    1f6c:	00031c0b          	0x31c0b
    1f70:	0000                	unimp
    1f72:	00015f0b          	0x15f0b
    1f76:	0100                	addi	s0,sp,128
    1f78:	0001e20b          	0x1e20b
    1f7c:	0200                	addi	s0,sp,256
    1f7e:	0001420b          	0x1420b
    1f82:	0300                	addi	s0,sp,384
    1f84:	0001ce0b          	0x1ce0b
    1f88:	0400                	addi	s0,sp,512
    1f8a:	0001c40b          	0x1c40b
    1f8e:	0500                	addi	s0,sp,640
    1f90:	0900                	addi	s0,sp,144
    1f92:	01ba                	slli	gp,gp,0xe
    1f94:	0000                	unimp
    1f96:	00b52003          	lw	zero,11(a0)
    1f9a:	0000                	unimp
    1f9c:	6f0a                	flw	ft10,128(sp)
    1f9e:	0001                	nop
    1fa0:	0700                	addi	s0,sp,896
    1fa2:	2c04                	fld	fs1,24(s0)
    1fa4:	0000                	unimp
    1fa6:	0300                	addi	s0,sp,384
    1fa8:	1a22                	slli	s4,s4,0x28
    1faa:	0001                	nop
    1fac:	0b00                	addi	s0,sp,400
    1fae:	0000018f          	0x18f
    1fb2:	0b00                	addi	s0,sp,400
    1fb4:	037a                	slli	t1,t1,0x1e
    1fb6:	0000                	unimp
    1fb8:	0b01                	addi	s6,s6,0
    1fba:	01fc                	addi	a5,sp,204
    1fbc:	0000                	unimp
    1fbe:	0002                	c.slli	zero,0x0
    1fc0:	2109                	jal	23c2 <_tbss_end+0x233e>
    1fc2:	0002                	c.slli	zero,0x0
    1fc4:	0300                	addi	s0,sp,384
    1fc6:	0000f627          	0xf627
    1fca:	0c00                	addi	s0,sp,528
    1fcc:	0000013b          	0x13b
    1fd0:	0130                	addi	a2,sp,136
    1fd2:	0000                	unimp
    1fd4:	000d                	c.nop	3
    1fd6:	250e                	fld	fa0,192(sp)
    1fd8:	0001                	nop
    1fda:	0500                	addi	s0,sp,640
    1fdc:	4704                	lw	s1,8(a4)
    1fde:	0001                	nop
    1fe0:	0e00                	addi	s0,sp,784
    1fe2:	0135                	addi	sp,sp,13
    1fe4:	0000                	unimp
    1fe6:	0c080103          	lb	sp,192(a6)
    1fea:	0002                	c.slli	zero,0x0
    1fec:	0e00                	addi	s0,sp,784
    1fee:	0140                	addi	s0,sp,132
    1ff0:	0000                	unimp
    1ff2:	8009                	srli	s0,s0,0x2
    1ff4:	0001                	nop
    1ff6:	0400                	addi	s0,sp,512
    1ff8:	3025                	jal	1820 <_tbss_end+0x179c>
    1ffa:	0001                	nop
    1ffc:	0900                	addi	s0,sp,144
    1ffe:	0211                	addi	tp,tp,4
    2000:	0000                	unimp
    2002:	3104                	fld	fs1,32(a0)
    2004:	0130                	addi	a2,sp,136
    2006:	0000                	unimp
    2008:	05060103          	lb	sp,80(a2) # fffe7050 <__global_pointer$+0x6ffe6850>
    200c:	0002                	c.slli	zero,0x0
    200e:	0400                	addi	s0,sp,512
    2010:	0242                	slli	tp,tp,0x10
    2012:	0000                	unimp
    2014:	7b05                	lui	s6,0xfffe1
    2016:	00ae                	slli	ra,ra,0xb
    2018:	0000                	unimp
    201a:	690e                	flw	fs2,192(sp)
    201c:	0001                	nop
    201e:	0300                	addi	s0,sp,384
    2020:	0502                	slli	a0,a0,0x0
    2022:	0104                	addi	s1,sp,128
    2024:	0000                	unimp
    2026:	5c070203          	lb	tp,1472(a4)
    202a:	0002                	c.slli	zero,0x0
    202c:	0400                	addi	s0,sp,512
    202e:	0279                	addi	tp,tp,30
    2030:	0000                	unimp
    2032:	8005                	srli	s0,s0,0x1
    2034:	0025                	c.nop	9
    2036:	0000                	unimp
    2038:	7804                	flw	fs1,48(s0)
    203a:	0002                	c.slli	zero,0x0
    203c:	0500                	addi	s0,sp,640
    203e:	2c81                	jal	228e <_tbss_end+0x220a>
    2040:	0000                	unimp
    2042:	0300                	addi	s0,sp,384
    2044:	0708                	addi	a0,sp,896
    2046:	000001a3          	sb	zero,3(zero) # 1f4d <_tbss_end+0x1ec9>
    204a:	11040403          	lb	s0,272(s0)
    204e:	0000                	unimp
    2050:	0300                	addi	s0,sp,384
    2052:	0308                	addi	a0,sp,384
    2054:	0009                	c.nop	2
    2056:	0000                	unimp
    2058:	06040803          	lb	a6,96(s0)
    205c:	03000003          	lb	zero,48(zero) # 30 <_tdata_begin+0x30>
    2060:	0310                	addi	a2,sp,384
    2062:	0000014b          	fnmsub.s	ft2,ft0,ft0,ft0,rne
    2066:	f9032003          	lw	zero,-112(t1)
    206a:	0002                	c.slli	zero,0x0
    206c:	0c00                	addi	s0,sp,528
    206e:	0174                	addi	a3,sp,140
    2070:	0000                	unimp
    2072:	000001d7          	0x1d7
    2076:	00002c0f          	0x2c0f
    207a:	ff00                	fsw	fs0,56(a4)
    207c:	0e00                	addi	s0,sp,784
    207e:	000001c7          	fmsub.s	ft3,ft0,ft0,ft0,rne
    2082:	ed10                	fsw	fa2,24(a0)
    2084:	0001                	nop
    2086:	0500                	addi	s0,sp,640
    2088:	01fc                	addi	a5,sp,204
    208a:	000001d7          	0x1d7
    208e:	d810                	sw	a2,48(s0)
    2090:	0001                	nop
    2092:	0500                	addi	s0,sp,640
    2094:	0202                	slli	tp,tp,0x0
    2096:	000001d7          	0x1d7
    209a:	b811                	j	18ae <_tbss_end+0x182a>
    209c:	0005                	c.nop	1
    209e:	0100                	addi	s0,sp,128
    20a0:	02c1                	addi	t0,t0,16
    20a2:	0025                	c.nop	9
    20a4:	0000                	unimp
    20a6:	56fa                	lw	a3,188(sp)
    20a8:	8000                	0x8000
    20aa:	0066                	c.slli	zero,0x19
    20ac:	0000                	unimp
    20ae:	9c01                	0x9c01
    20b0:	7812                	flw	fa6,36(sp)
    20b2:	0100                	addi	s0,sp,128
    20b4:	02c1                	addi	t0,t0,16
    20b6:	0192                	slli	gp,gp,0x4
    20b8:	0000                	unimp
    20ba:	000030d3          	fadd.s	ft1,ft0,ft0,rup
    20be:	74657213          	andi	tp,a0,1862
    20c2:	0100                	addi	s0,sp,128
    20c4:	018702c3          	fmadd.s	ft5,fa4,fs8,ft0,rne
    20c8:	0000                	unimp
    20ca:	0000313f 00056814 	0x568140000313f
    20d2:	1500                	addi	s0,sp,672
    20d4:	000002e7          	jalr	t0,zero
    20d8:	c501                	beqz	a0,20e0 <_tbss_end+0x205c>
    20da:	9202                	jalr	tp
    20dc:	0001                	nop
    20de:	7a00                	flw	fs0,48(a2)
    20e0:	0031                	c.nop	12
    20e2:	1600                	addi	s0,sp,800
    20e4:	5f5f 0061 c501      	0xc50100615f5f
    20ea:	9202                	jalr	tp
    20ec:	0001                	nop
    20ee:	0000                	unimp
	...

Disassembly of section .debug_abbrev:

00000000 <.debug_abbrev>:
   0:	1101                	addi	sp,sp,-32
   2:	2501                	jal	602 <_tbss_end+0x57e>
   4:	130e                	slli	t1,t1,0x23
   6:	1b0e030b          	0x1b0e030b
   a:	550e                	lw	a0,224(sp)
   c:	10011117          	auipc	sp,0x10011
  10:	02000017          	auipc	zero,0x2000
  14:	0024                	addi	s1,sp,8
  16:	0b3e0b0b          	0xb3e0b0b
  1a:	00000e03          	lb	t3,0(zero) # 2000010 <_tbss_end+0x1ffff8c>
  1e:	0b002403          	lw	s0,176(zero) # b0 <_tbss_end+0x2c>
  22:	030b3e0b          	0x30b3e0b
  26:	0008                	0x8
  28:	0400                	addi	s0,sp,512
  2a:	0016                	c.slli	zero,0x5
  2c:	0b3a0e03          	lb	t3,179(s4) # fffe00b3 <__global_pointer$+0x6ffdf8b3>
  30:	13490b3b          	0x13490b3b
  34:	0000                	unimp
  36:	0f05                	addi	t5,t5,1
  38:	0b00                	addi	s0,sp,400
  3a:	0013490b          	0x13490b
  3e:	0600                	addi	s0,sp,768
  40:	0115                	addi	sp,sp,5
  42:	13491927          	0x13491927
  46:	1301                	addi	t1,t1,-32
  48:	0000                	unimp
  4a:	49000507          	0x49000507
  4e:	08000013          	li	zero,128
  52:	0026                	c.slli	zero,0x9
  54:	0000                	unimp
  56:	3409                	jal	fffffa58 <__global_pointer$+0x6ffff258>
  58:	0300                	addi	s0,sp,384
  5a:	3a0e                	fld	fs4,224(sp)
  5c:	490b3b0b          	0x490b3b0b
  60:	3c193f13          	sltiu	t5,s2,961
  64:	0019                	c.nop	6
  66:	0a00                	addi	s0,sp,272
  68:	0104                	addi	s1,sp,128
  6a:	0b3e0e03          	lb	t3,179(t3) # 1a0b3 <_tbss_end+0x1a02f>
  6e:	13490b0b          	0x13490b0b
  72:	0b3a                	slli	s6,s6,0xe
  74:	13010b3b          	0x13010b3b
  78:	0000                	unimp
  7a:	0300280b          	0x300280b
  7e:	1c0e                	slli	s8,s8,0x23
  80:	0c00000b          	0xc00000b
  84:	0101                	addi	sp,sp,0
  86:	1349                	addi	t1,t1,-14
  88:	1301                	addi	t1,t1,-32
  8a:	0000                	unimp
  8c:	210d                	jal	4ae <_tbss_end+0x42a>
  8e:	0000                	unimp
  90:	0e00                	addi	s0,sp,784
  92:	0026                	c.slli	zero,0x9
  94:	1349                	addi	t1,t1,-14
  96:	0000                	unimp
  98:	0301130f          	0x301130f
  9c:	0b0e                	slli	s6,s6,0x3
  9e:	3b0b3a0b          	0x3b0b3a0b
  a2:	0105                	addi	sp,sp,1
  a4:	10000013          	li	zero,256
  a8:	000d                	c.nop	3
  aa:	0b3a0803          	lb	a6,179(s4)
  ae:	1349053b          	0x1349053b
  b2:	0b38                	addi	a4,sp,408
  b4:	0000                	unimp
  b6:	0d11                	addi	s10,s10,4
  b8:	0300                	addi	s0,sp,384
  ba:	3a0e                	fld	fs4,224(sp)
  bc:	49053b0b          	0x49053b0b
  c0:	000b3813          	sltiu	a6,s6,0
  c4:	1200                	addi	s0,sp,288
  c6:	0b0b0117          	auipc	sp,0xb0b0
  ca:	0b3a                	slli	s6,s6,0xe
  cc:	1301053b          	0x1301053b
  d0:	0000                	unimp
  d2:	03000d13          	li	s10,48
  d6:	3a08                	fld	fa0,48(a2)
  d8:	49053b0b          	0x49053b0b
  dc:	14000013          	li	zero,320
  e0:	0016                	c.slli	zero,0x5
  e2:	0b3a0e03          	lb	t3,179(s4)
  e6:	1349053b          	0x1349053b
  ea:	0000                	unimp
  ec:	2115                	jal	510 <_tbss_end+0x48c>
  ee:	4900                	lw	s0,16(a0)
  f0:	000b2f13          	slti	t5,s6,0
  f4:	1600                	addi	s0,sp,800
  f6:	0034                	addi	a3,sp,8
  f8:	0b3a0e03          	lb	t3,179(s4)
  fc:	1349053b          	0x1349053b
 100:	193c193f 2e170000 	0x2e170000193c193f
 108:	3f01                	jal	18 <_tdata_begin+0x18>
 10a:	0319                	addi	t1,t1,6
 10c:	3a0e                	fld	fs4,224(sp)
 10e:	27053b0b          	0x27053b0b
 112:	4919                	li	s2,6
 114:	12011113          	0x12011113
 118:	4006                	0x4006
 11a:	9718                	0x9718
 11c:	1942                	slli	s2,s2,0x30
 11e:	1301                	addi	t1,t1,-32
 120:	0000                	unimp
 122:	0518                	addi	a4,sp,640
 124:	0300                	addi	s0,sp,384
 126:	3a08                	fld	fa0,48(a2)
 128:	49053b0b          	0x49053b0b
 12c:	00170213          	addi	tp,a4,1
 130:	1900                	addi	s0,sp,176
 132:	0034                	addi	a3,sp,8
 134:	0b3a0803          	lb	a6,179(s4)
 138:	1349053b          	0x1349053b
 13c:	1702                	slli	a4,a4,0x20
 13e:	0000                	unimp
 140:	1d1a                	slli	s10,s10,0x26
 142:	3101                	jal	fffffd42 <__global_pointer$+0x6ffff542>
 144:	55015213          	0x55015213
 148:	590b5817          	auipc	a6,0x590b5
 14c:	0005                	c.nop	1
 14e:	1b00                	addi	s0,sp,432
 150:	0005                	c.nop	1
 152:	1331                	addi	t1,t1,-20
 154:	1702                	slli	a4,a4,0x20
 156:	0000                	unimp
 158:	051c                	addi	a5,sp,640
 15a:	3100                	fld	fs0,32(a0)
 15c:	1d000013          	li	zero,464
 160:	1755010b          	0x1755010b
 164:	0000                	unimp
 166:	341e                	fld	fs0,480(sp)
 168:	3100                	fld	fs0,32(a0)
 16a:	1f000013          	li	zero,496
 16e:	0034                	addi	a3,sp,8
 170:	1331                	addi	t1,t1,-20
 172:	1702                	slli	a4,a4,0x20
 174:	0000                	unimp
 176:	0b20                	addi	s0,sp,408
 178:	3101                	jal	fffffd78 <__global_pointer$+0x6ffff578>
 17a:	01175513          	srli	a0,a4,0x11
 17e:	21000013          	li	zero,528
 182:	1331010b          	0x1331010b
 186:	0111                	addi	sp,sp,4
 188:	0612                	slli	a2,a2,0x4
 18a:	1301                	addi	t1,t1,-32
 18c:	0000                	unimp
 18e:	0b22                	slli	s6,s6,0x8
 190:	3101                	jal	fffffd90 <__global_pointer$+0x6ffff590>
 192:	00175513          	srli	a0,a4,0x1
 196:	2300                	fld	fs0,0(a4)
 198:	0034                	addi	a3,sp,8
 19a:	1331                	addi	t1,t1,-20
 19c:	1802                	slli	a6,a6,0x20
 19e:	0000                	unimp
 1a0:	0b24                	addi	s1,sp,408
 1a2:	3101                	jal	fffffda2 <__global_pointer$+0x6ffff5a2>
 1a4:	12011113          	0x12011113
 1a8:	0006                	c.slli	zero,0x1
 1aa:	2500                	fld	fs0,8(a0)
 1ac:	012e                	slli	sp,sp,0xb
 1ae:	0b3a0e03          	lb	t3,179(s4)
 1b2:	1927053b          	0x1927053b
 1b6:	1349                	addi	t1,t1,-14
 1b8:	0b20                	addi	s0,sp,408
 1ba:	1301                	addi	t1,t1,-32
 1bc:	0000                	unimp
 1be:	0526                	slli	a0,a0,0x9
 1c0:	0300                	addi	s0,sp,384
 1c2:	3a08                	fld	fa0,48(a2)
 1c4:	49053b0b          	0x49053b0b
 1c8:	27000013          	li	zero,624
 1cc:	0034                	addi	a3,sp,8
 1ce:	0b3a0803          	lb	a6,179(s4)
 1d2:	1349053b          	0x1349053b
 1d6:	0000                	unimp
 1d8:	0b28                	addi	a0,sp,408
 1da:	0101                	addi	sp,sp,0
 1dc:	29000013          	li	zero,656
 1e0:	0034                	addi	a3,sp,8
 1e2:	0b3a0e03          	lb	t3,179(s4)
 1e6:	1349053b          	0x1349053b
 1ea:	0000                	unimp
 1ec:	0b2a                	slli	s6,s6,0xa
 1ee:	0001                	nop
 1f0:	0000                	unimp
 1f2:	1101                	addi	sp,sp,-32
 1f4:	2501                	jal	7f4 <_tbss_end+0x770>
 1f6:	130e                	slli	t1,t1,0x23
 1f8:	1b0e030b          	0x1b0e030b
 1fc:	550e                	lw	a0,224(sp)
 1fe:	10011117          	auipc	sp,0x10011
 202:	02000017          	auipc	zero,0x2000
 206:	0024                	addi	s1,sp,8
 208:	0b3e0b0b          	0xb3e0b0b
 20c:	00000e03          	lb	t3,0(zero) # 2000202 <_tbss_end+0x200017e>
 210:	0b002403          	lw	s0,176(zero) # b0 <_tbss_end+0x2c>
 214:	030b3e0b          	0x30b3e0b
 218:	0008                	0x8
 21a:	0400                	addi	s0,sp,512
 21c:	0016                	c.slli	zero,0x5
 21e:	0b3a0e03          	lb	t3,179(s4)
 222:	13490b3b          	0x13490b3b
 226:	0000                	unimp
 228:	0f05                	addi	t5,t5,1
 22a:	0b00                	addi	s0,sp,400
 22c:	0013490b          	0x13490b
 230:	0600                	addi	s0,sp,768
 232:	0115                	addi	sp,sp,5
 234:	13491927          	0x13491927
 238:	1301                	addi	t1,t1,-32
 23a:	0000                	unimp
 23c:	49000507          	0x49000507
 240:	08000013          	li	zero,128
 244:	0026                	c.slli	zero,0x9
 246:	0000                	unimp
 248:	3409                	jal	fffffc4a <__global_pointer$+0x6ffff44a>
 24a:	0300                	addi	s0,sp,384
 24c:	3a0e                	fld	fs4,224(sp)
 24e:	490b3b0b          	0x490b3b0b
 252:	3c193f13          	sltiu	t5,s2,961
 256:	0019                	c.nop	6
 258:	0a00                	addi	s0,sp,272
 25a:	0104                	addi	s1,sp,128
 25c:	0b3e0e03          	lb	t3,179(t3)
 260:	13490b0b          	0x13490b0b
 264:	0b3a                	slli	s6,s6,0xe
 266:	13010b3b          	0x13010b3b
 26a:	0000                	unimp
 26c:	0300280b          	0x300280b
 270:	1c0e                	slli	s8,s8,0x23
 272:	0c00000b          	0xc00000b
 276:	0101                	addi	sp,sp,0
 278:	1349                	addi	t1,t1,-14
 27a:	1301                	addi	t1,t1,-32
 27c:	0000                	unimp
 27e:	210d                	jal	6a0 <_tbss_end+0x61c>
 280:	0000                	unimp
 282:	0e00                	addi	s0,sp,784
 284:	0026                	c.slli	zero,0x9
 286:	1349                	addi	t1,t1,-14
 288:	0000                	unimp
 28a:	0301130f          	0x301130f
 28e:	0b0e                	slli	s6,s6,0x3
 290:	3b0b3a0b          	0x3b0b3a0b
 294:	0105                	addi	sp,sp,1
 296:	10000013          	li	zero,256
 29a:	000d                	c.nop	3
 29c:	0b3a0803          	lb	a6,179(s4)
 2a0:	1349053b          	0x1349053b
 2a4:	0b38                	addi	a4,sp,408
 2a6:	0000                	unimp
 2a8:	0d11                	addi	s10,s10,4
 2aa:	0300                	addi	s0,sp,384
 2ac:	3a0e                	fld	fs4,224(sp)
 2ae:	49053b0b          	0x49053b0b
 2b2:	000b3813          	sltiu	a6,s6,0
 2b6:	1200                	addi	s0,sp,288
 2b8:	0b0b0117          	auipc	sp,0xb0b0
 2bc:	0b3a                	slli	s6,s6,0xe
 2be:	1301053b          	0x1301053b
 2c2:	0000                	unimp
 2c4:	03000d13          	li	s10,48
 2c8:	3a08                	fld	fa0,48(a2)
 2ca:	49053b0b          	0x49053b0b
 2ce:	14000013          	li	zero,320
 2d2:	0016                	c.slli	zero,0x5
 2d4:	0b3a0e03          	lb	t3,179(s4)
 2d8:	1349053b          	0x1349053b
 2dc:	0000                	unimp
 2de:	2115                	jal	702 <_tbss_end+0x67e>
 2e0:	4900                	lw	s0,16(a0)
 2e2:	000b2f13          	slti	t5,s6,0
 2e6:	1600                	addi	s0,sp,800
 2e8:	0034                	addi	a3,sp,8
 2ea:	0b3a0e03          	lb	t3,179(s4)
 2ee:	1349053b          	0x1349053b
 2f2:	193c193f 2e170000 	0x2e170000193c193f
 2fa:	3f01                	jal	20a <_tbss_end+0x186>
 2fc:	0319                	addi	t1,t1,6
 2fe:	3a0e                	fld	fs4,224(sp)
 300:	27053b0b          	0x27053b0b
 304:	4919                	li	s2,6
 306:	12011113          	0x12011113
 30a:	4006                	0x4006
 30c:	9718                	0x9718
 30e:	1942                	slli	s2,s2,0x30
 310:	1301                	addi	t1,t1,-32
 312:	0000                	unimp
 314:	0518                	addi	a4,sp,640
 316:	0300                	addi	s0,sp,384
 318:	3a08                	fld	fa0,48(a2)
 31a:	49053b0b          	0x49053b0b
 31e:	00170213          	addi	tp,a4,1
 322:	1900                	addi	s0,sp,176
 324:	011d                	addi	sp,sp,7
 326:	1331                	addi	t1,t1,-20
 328:	0152                	slli	sp,sp,0x14
 32a:	1755                	addi	a4,a4,-11
 32c:	0b58                	addi	a4,sp,404
 32e:	0559                	addi	a0,a0,22
 330:	0000                	unimp
 332:	051a                	slli	a0,a0,0x6
 334:	3100                	fld	fs0,32(a0)
 336:	00170213          	addi	tp,a4,1
 33a:	1b00                	addi	s0,sp,432
 33c:	1755010b          	0x1755010b
 340:	0000                	unimp
 342:	341c                	fld	fa5,40(s0)
 344:	3100                	fld	fs0,32(a0)
 346:	1d000013          	li	zero,464
 34a:	0034                	addi	a3,sp,8
 34c:	1331                	addi	t1,t1,-20
 34e:	1702                	slli	a4,a4,0x20
 350:	0000                	unimp
 352:	0b1e                	slli	s6,s6,0x7
 354:	3101                	jal	ffffff54 <__global_pointer$+0x6ffff754>
 356:	01175513          	srli	a0,a4,0x11
 35a:	1f000013          	li	zero,496
 35e:	1331010b          	0x1331010b
 362:	1755                	addi	a4,a4,-11
 364:	0000                	unimp
 366:	2e20                	fld	fs0,88(a2)
 368:	0301                	addi	t1,t1,0
 36a:	3a0e                	fld	fs4,224(sp)
 36c:	27053b0b          	0x27053b0b
 370:	4919                	li	s2,6
 372:	010b2013          	slti	zero,s6,16
 376:	21000013          	li	zero,528
 37a:	0005                	c.nop	1
 37c:	0b3a0803          	lb	a6,179(s4)
 380:	1349053b          	0x1349053b
 384:	0000                	unimp
 386:	3422                	fld	fs0,40(sp)
 388:	0300                	addi	s0,sp,384
 38a:	3a08                	fld	fa0,48(a2)
 38c:	49053b0b          	0x49053b0b
 390:	23000013          	li	zero,560
 394:	1301010b          	0x1301010b
 398:	0000                	unimp
 39a:	3424                	fld	fs1,104(s0)
 39c:	0300                	addi	s0,sp,384
 39e:	3a0e                	fld	fs4,224(sp)
 3a0:	49053b0b          	0x49053b0b
 3a4:	25000013          	li	zero,592
 3a8:	0000010b          	0x10b
 3ac:	0100                	addi	s0,sp,128
 3ae:	0111                	addi	sp,sp,4
 3b0:	0e25                	addi	t3,t3,9
 3b2:	0e030b13          	addi	s6,t1,224
 3b6:	17550e1b          	0x17550e1b
 3ba:	0111                	addi	sp,sp,4
 3bc:	1710                	addi	a2,sp,928
 3be:	0000                	unimp
 3c0:	2402                	fld	fs0,0(sp)
 3c2:	0b00                	addi	s0,sp,400
 3c4:	030b3e0b          	0x30b3e0b
 3c8:	000e                	c.slli	zero,0x3
 3ca:	0300                	addi	s0,sp,384
 3cc:	0024                	addi	s1,sp,8
 3ce:	0b3e0b0b          	0xb3e0b0b
 3d2:	00000803          	lb	a6,0(zero) # 0 <_tdata_begin>
 3d6:	1604                	addi	s1,sp,800
 3d8:	0300                	addi	s0,sp,384
 3da:	3a0e                	fld	fs4,224(sp)
 3dc:	490b3b0b          	0x490b3b0b
 3e0:	05000013          	li	zero,80
 3e4:	0b0b000f          	0xb0b000f
 3e8:	1349                	addi	t1,t1,-14
 3ea:	0000                	unimp
 3ec:	1506                	slli	a0,a0,0x21
 3ee:	2701                	jal	aee <_tbss_end+0xa6a>
 3f0:	4919                	li	s2,6
 3f2:	00130113          	addi	sp,t1,1
 3f6:	0700                	addi	s0,sp,896
 3f8:	0005                	c.nop	1
 3fa:	1349                	addi	t1,t1,-14
 3fc:	0000                	unimp
 3fe:	2608                	fld	fa0,8(a2)
 400:	0000                	unimp
 402:	0900                	addi	s0,sp,144
 404:	0034                	addi	a3,sp,8
 406:	0b3a0e03          	lb	t3,179(s4)
 40a:	13490b3b          	0x13490b3b
 40e:	193c193f 040a0000 	0x40a0000193c193f
 416:	0301                	addi	t1,t1,0
 418:	3e0e                	fld	ft8,224(sp)
 41a:	490b0b0b          	0x490b0b0b
 41e:	3b0b3a13          	sltiu	s4,s6,944
 422:	0013010b          	0x13010b
 426:	0b00                	addi	s0,sp,400
 428:	0028                	addi	a0,sp,8
 42a:	0b1c0e03          	lb	t3,177(s8) # fffe70b1 <__global_pointer$+0x6ffe68b1>
 42e:	0000                	unimp
 430:	010c                	addi	a1,sp,128
 432:	4901                	li	s2,0
 434:	00130113          	addi	sp,t1,1
 438:	0d00                	addi	s0,sp,656
 43a:	0021                	c.nop	8
 43c:	0000                	unimp
 43e:	260e                	fld	fa2,192(sp)
 440:	4900                	lw	s0,16(a0)
 442:	0f000013          	li	zero,240
 446:	0e030113          	addi	sp,t1,224
 44a:	0b3a0b0b          	0xb3a0b0b
 44e:	1301053b          	0x1301053b
 452:	0000                	unimp
 454:	0d10                	addi	a2,sp,656
 456:	0300                	addi	s0,sp,384
 458:	3a08                	fld	fa0,48(a2)
 45a:	49053b0b          	0x49053b0b
 45e:	000b3813          	sltiu	a6,s6,0
 462:	1100                	addi	s0,sp,160
 464:	000d                	c.nop	3
 466:	0b3a0e03          	lb	t3,179(s4)
 46a:	1349053b          	0x1349053b
 46e:	0b38                	addi	a4,sp,408
 470:	0000                	unimp
 472:	1712                	slli	a4,a4,0x24
 474:	0b01                	addi	s6,s6,0
 476:	3b0b3a0b          	0x3b0b3a0b
 47a:	0105                	addi	sp,sp,1
 47c:	13000013          	li	zero,304
 480:	000d                	c.nop	3
 482:	0b3a0803          	lb	a6,179(s4)
 486:	1349053b          	0x1349053b
 48a:	0000                	unimp
 48c:	1614                	addi	a3,sp,800
 48e:	0300                	addi	s0,sp,384
 490:	3a0e                	fld	fs4,224(sp)
 492:	49053b0b          	0x49053b0b
 496:	15000013          	li	zero,336
 49a:	0021                	c.nop	8
 49c:	1349                	addi	t1,t1,-14
 49e:	00000b2f          	0xb2f
 4a2:	3416                	fld	fs0,352(sp)
 4a4:	0300                	addi	s0,sp,384
 4a6:	3a0e                	fld	fs4,224(sp)
 4a8:	49053b0b          	0x49053b0b
 4ac:	3c193f13          	sltiu	t5,s2,961
 4b0:	0019                	c.nop	6
 4b2:	1700                	addi	s0,sp,928
 4b4:	012e                	slli	sp,sp,0xb
 4b6:	0e03193f 053b0b3a 	0x53b0b3a0e03193f
 4be:	13491927          	0x13491927
 4c2:	0111                	addi	sp,sp,4
 4c4:	0612                	slli	a2,a2,0x4
 4c6:	1840                	addi	s0,sp,52
 4c8:	01194297          	auipc	t0,0x1194
 4cc:	18000013          	li	zero,384
 4d0:	0005                	c.nop	1
 4d2:	0b3a0803          	lb	a6,179(s4)
 4d6:	1349053b          	0x1349053b
 4da:	1702                	slli	a4,a4,0x20
 4dc:	0000                	unimp
 4de:	3419                	jal	fffffee4 <__global_pointer$+0x6ffff6e4>
 4e0:	0300                	addi	s0,sp,384
 4e2:	3a08                	fld	fa0,48(a2)
 4e4:	49053b0b          	0x49053b0b
 4e8:	1a000013          	li	zero,416
 4ec:	011d                	addi	sp,sp,7
 4ee:	1331                	addi	t1,t1,-20
 4f0:	0152                	slli	sp,sp,0x14
 4f2:	1755                	addi	a4,a4,-11
 4f4:	0b58                	addi	a4,sp,404
 4f6:	0559                	addi	a0,a0,22
 4f8:	0000                	unimp
 4fa:	3100051b          	0x3100051b
 4fe:	00170213          	addi	tp,a4,1
 502:	1c00                	addi	s0,sp,560
 504:	1755010b          	0x1755010b
 508:	0000                	unimp
 50a:	341d                	jal	ffffff30 <__global_pointer$+0x6ffff730>
 50c:	3100                	fld	fs0,32(a0)
 50e:	1e000013          	li	zero,480
 512:	0034                	addi	a3,sp,8
 514:	1331                	addi	t1,t1,-20
 516:	1702                	slli	a4,a4,0x20
 518:	0000                	unimp
 51a:	0b1f 3101 5513      	0x551331010b1f
 520:	00130117          	auipc	sp,0x130
 524:	2000                	fld	fs0,0(s0)
 526:	1331010b          	0x1331010b
 52a:	0111                	addi	sp,sp,4
 52c:	0612                	slli	a2,a2,0x4
 52e:	1301                	addi	t1,t1,-32
 530:	0000                	unimp
 532:	3421                	jal	ffffff3a <__global_pointer$+0x6ffff73a>
 534:	3100                	fld	fs0,32(a0)
 536:	00180213          	addi	tp,a6,1 # 590b5149 <_tbss_end+0x590b50c5>
 53a:	2200                	fld	fs0,0(a2)
 53c:	1331010b          	0x1331010b
 540:	0111                	addi	sp,sp,4
 542:	0612                	slli	a2,a2,0x4
 544:	0000                	unimp
 546:	31010b23          	sb	a6,790(sp) # 130836 <_tbss_end+0x1307b2>
 54a:	00175513          	srli	a0,a4,0x1
 54e:	2400                	fld	fs0,8(s0)
 550:	012e                	slli	sp,sp,0xb
 552:	0b3a0e03          	lb	t3,179(s4)
 556:	1927053b          	0x1927053b
 55a:	1349                	addi	t1,t1,-14
 55c:	0b20                	addi	s0,sp,408
 55e:	1301                	addi	t1,t1,-32
 560:	0000                	unimp
 562:	0525                	addi	a0,a0,9
 564:	0300                	addi	s0,sp,384
 566:	3a08                	fld	fa0,48(a2)
 568:	49053b0b          	0x49053b0b
 56c:	26000013          	li	zero,608
 570:	1301010b          	0x1301010b
 574:	0000                	unimp
 576:	03003427          	fsd	fa6,40(zero) # 28 <_tdata_begin+0x28>
 57a:	3a0e                	fld	fs4,224(sp)
 57c:	49053b0b          	0x49053b0b
 580:	28000013          	li	zero,640
 584:	0000010b          	0x10b
 588:	0100                	addi	s0,sp,128
 58a:	0111                	addi	sp,sp,4
 58c:	0e25                	addi	t3,t3,9
 58e:	0e030b13          	addi	s6,t1,224
 592:	17550e1b          	0x17550e1b
 596:	0111                	addi	sp,sp,4
 598:	1710                	addi	a2,sp,928
 59a:	0000                	unimp
 59c:	2402                	fld	fs0,0(sp)
 59e:	0b00                	addi	s0,sp,400
 5a0:	030b3e0b          	0x30b3e0b
 5a4:	000e                	c.slli	zero,0x3
 5a6:	0300                	addi	s0,sp,384
 5a8:	0024                	addi	s1,sp,8
 5aa:	0b3e0b0b          	0xb3e0b0b
 5ae:	00000803          	lb	a6,0(zero) # 0 <_tdata_begin>
 5b2:	1604                	addi	s1,sp,800
 5b4:	0300                	addi	s0,sp,384
 5b6:	3a0e                	fld	fs4,224(sp)
 5b8:	49053b0b          	0x49053b0b
 5bc:	05000013          	li	zero,80
 5c0:	0026                	c.slli	zero,0x9
 5c2:	1349                	addi	t1,t1,-14
 5c4:	0000                	unimp
 5c6:	0106                	slli	sp,sp,0x1
 5c8:	4901                	li	s2,0
 5ca:	00130113          	addi	sp,t1,1
 5ce:	0700                	addi	s0,sp,896
 5d0:	0021                	c.nop	8
 5d2:	1349                	addi	t1,t1,-14
 5d4:	00000b2f          	0xb2f
 5d8:	3408                	fld	fa0,40(s0)
 5da:	0300                	addi	s0,sp,384
 5dc:	3a0e                	fld	fs4,224(sp)
 5de:	490b3b0b          	0x490b3b0b
 5e2:	3c193f13          	sltiu	t5,s2,961
 5e6:	0019                	c.nop	6
 5e8:	0900                	addi	s0,sp,144
 5ea:	0016                	c.slli	zero,0x5
 5ec:	0b3a0e03          	lb	t3,179(s4)
 5f0:	13490b3b          	0x13490b3b
 5f4:	0000                	unimp
 5f6:	130a                	slli	t1,t1,0x22
 5f8:	0b01                	addi	s6,s6,0
 5fa:	3b0b3a0b          	0x3b0b3a0b
 5fe:	0013010b          	0x13010b
 602:	0b00                	addi	s0,sp,400
 604:	000d                	c.nop	3
 606:	0b3a0e03          	lb	t3,179(s4)
 60a:	13490b3b          	0x13490b3b
 60e:	0b0d0b0b          	0xb0d0b0b
 612:	0b0c                	addi	a1,sp,400
 614:	0b38                	addi	a4,sp,408
 616:	0000                	unimp
 618:	0d0c                	addi	a1,sp,656
 61a:	0300                	addi	s0,sp,384
 61c:	3a08                	fld	fa0,48(a2)
 61e:	490b3b0b          	0x490b3b0b
 622:	0d0b0b13          	addi	s6,s6,208 # fffe10d0 <__global_pointer$+0x6ffe08d0>
 626:	380b0c0b          	0x380b0c0b
 62a:	0d00000b          	0xd00000b
 62e:	0e030117          	auipc	sp,0xe030
 632:	0b3a0b0b          	0xb3a0b0b
 636:	13010b3b          	0x13010b3b
 63a:	0000                	unimp
 63c:	0d0e                	slli	s10,s10,0x3
 63e:	0300                	addi	s0,sp,384
 640:	3a08                	fld	fa0,48(a2)
 642:	490b3b0b          	0x490b3b0b
 646:	0f000013          	li	zero,240
 64a:	000d                	c.nop	3
 64c:	0b3a0e03          	lb	t3,179(s4)
 650:	13490b3b          	0x13490b3b
 654:	0000                	unimp
 656:	2e10                	fld	fa2,24(a2)
 658:	3f01                	jal	568 <_tbss_end+0x4e4>
 65a:	0319                	addi	t1,t1,6
 65c:	3a0e                	fld	fs4,224(sp)
 65e:	270b3b0b          	0x270b3b0b
 662:	4919                	li	s2,6
 664:	12011113          	0x12011113
 668:	4006                	0x4006
 66a:	9618                	0x9618
 66c:	1942                	slli	s2,s2,0x30
 66e:	1301                	addi	t1,t1,-32
 670:	0000                	unimp
 672:	0511                	addi	a0,a0,4
 674:	0300                	addi	s0,sp,384
 676:	3a08                	fld	fa0,48(a2)
 678:	490b3b0b          	0x490b3b0b
 67c:	00170213          	addi	tp,a4,1
 680:	1200                	addi	s0,sp,288
 682:	0034                	addi	a3,sp,8
 684:	0b3a0e03          	lb	t3,179(s4)
 688:	13490b3b          	0x13490b3b
 68c:	1702                	slli	a4,a4,0x20
 68e:	0000                	unimp
 690:	03003413          	sltiu	s0,zero,48
 694:	3a08                	fld	fa0,48(a2)
 696:	490b3b0b          	0x490b3b0b
 69a:	14000013          	li	zero,320
 69e:	0034                	addi	a3,sp,8
 6a0:	0b3a0803          	lb	a6,179(s4)
 6a4:	13490b3b          	0x13490b3b
 6a8:	1702                	slli	a4,a4,0x20
 6aa:	0000                	unimp
 6ac:	0b15                	addi	s6,s6,5
 6ae:	5501                	li	a0,-32
 6b0:	00130117          	auipc	sp,0x130
 6b4:	1600                	addi	s0,sp,800
 6b6:	000a                	c.slli	zero,0x2
 6b8:	0b3a0e03          	lb	t3,179(s4)
 6bc:	01110b3b          	0x1110b3b
 6c0:	0000                	unimp
 6c2:	55010b17          	auipc	s6,0x55010
 6c6:	18000017          	auipc	zero,0x18000
 6ca:	1301010b          	0x1301010b
 6ce:	0000                	unimp
 6d0:	3419                	jal	d6 <_tbss_end+0x52>
 6d2:	0300                	addi	s0,sp,384
 6d4:	3a0e                	fld	fs4,224(sp)
 6d6:	490b3b0b          	0x490b3b0b
 6da:	1a000013          	li	zero,416
 6de:	0000010b          	0x10b
 6e2:	11010b1b          	0x11010b1b
 6e6:	1201                	addi	tp,tp,-32
 6e8:	0106                	slli	sp,sp,0x1
 6ea:	00000013          	nop
 6ee:	1101                	addi	sp,sp,-32
 6f0:	2501                	jal	cf0 <_tbss_end+0xc6c>
 6f2:	130e                	slli	t1,t1,0x23
 6f4:	1b0e030b          	0x1b0e030b
 6f8:	100e                	c.slli	zero,0x23
 6fa:	02000017          	auipc	zero,0x2000
 6fe:	0024                	addi	s1,sp,8
 700:	0b3e0b0b          	0xb3e0b0b
 704:	00000803          	lb	a6,0(zero) # 20006fa <_tbss_end+0x2000676>
 708:	0b002403          	lw	s0,176(zero) # b0 <_tbss_end+0x2c>
 70c:	030b3e0b          	0x30b3e0b
 710:	000e                	c.slli	zero,0x3
 712:	0400                	addi	s0,sp,512
 714:	0016                	c.slli	zero,0x5
 716:	0b3a0e03          	lb	t3,179(s4)
 71a:	13490b3b          	0x13490b3b
 71e:	0000                	unimp
 720:	0f05                	addi	t5,t5,1
 722:	0b00                	addi	s0,sp,400
 724:	0013490b          	0x13490b
 728:	0600                	addi	s0,sp,768
 72a:	0115                	addi	sp,sp,5
 72c:	13491927          	0x13491927
 730:	1301                	addi	t1,t1,-32
 732:	0000                	unimp
 734:	49000507          	0x49000507
 738:	08000013          	li	zero,128
 73c:	0026                	c.slli	zero,0x9
 73e:	0000                	unimp
 740:	3409                	jal	142 <_tbss_end+0xbe>
 742:	0300                	addi	s0,sp,384
 744:	3a0e                	fld	fs4,224(sp)
 746:	490b3b0b          	0x490b3b0b
 74a:	3c193f13          	sltiu	t5,s2,961
 74e:	0019                	c.nop	6
 750:	0a00                	addi	s0,sp,272
 752:	0104                	addi	s1,sp,128
 754:	0b3e0e03          	lb	t3,179(t3)
 758:	13490b0b          	0x13490b0b
 75c:	0b3a                	slli	s6,s6,0xe
 75e:	13010b3b          	0x13010b3b
 762:	0000                	unimp
 764:	0300280b          	0x300280b
 768:	1c0e                	slli	s8,s8,0x23
 76a:	0c00000b          	0xc00000b
 76e:	0101                	addi	sp,sp,0
 770:	1349                	addi	t1,t1,-14
 772:	1301                	addi	t1,t1,-32
 774:	0000                	unimp
 776:	210d                	jal	b98 <_tbss_end+0xb14>
 778:	0000                	unimp
 77a:	0e00                	addi	s0,sp,784
 77c:	0026                	c.slli	zero,0x9
 77e:	1349                	addi	t1,t1,-14
 780:	0000                	unimp
 782:	4900210f          	0x4900210f
 786:	000b2f13          	slti	t5,s6,0
 78a:	1000                	addi	s0,sp,32
 78c:	0034                	addi	a3,sp,8
 78e:	0b3a0e03          	lb	t3,179(s4)
 792:	1349053b          	0x1349053b
 796:	193c193f 34110000 	0x34110000193c193f
 79e:	4700                	lw	s0,8(a4)
 7a0:	3b0b3a13          	sltiu	s4,s6,944
 7a4:	0205                	addi	tp,tp,1
 7a6:	0018                	0x18
 7a8:	0000                	unimp
 7aa:	1101                	addi	sp,sp,-32
 7ac:	2501                	jal	dac <_tbss_end+0xd28>
 7ae:	130e                	slli	t1,t1,0x23
 7b0:	1b0e030b          	0x1b0e030b
 7b4:	550e                	lw	a0,224(sp)
 7b6:	10011117          	auipc	sp,0x10011
 7ba:	02000017          	auipc	zero,0x2000
 7be:	0024                	addi	s1,sp,8
 7c0:	0b3e0b0b          	0xb3e0b0b
 7c4:	00000803          	lb	a6,0(zero) # 20007ba <_tbss_end+0x2000736>
 7c8:	0b002403          	lw	s0,176(zero) # b0 <_tbss_end+0x2c>
 7cc:	030b3e0b          	0x30b3e0b
 7d0:	000e                	c.slli	zero,0x3
 7d2:	0400                	addi	s0,sp,512
 7d4:	0016                	c.slli	zero,0x5
 7d6:	0b3a0e03          	lb	t3,179(s4)
 7da:	13490b3b          	0x13490b3b
 7de:	0000                	unimp
 7e0:	0f05                	addi	t5,t5,1
 7e2:	0b00                	addi	s0,sp,400
 7e4:	0013490b          	0x13490b
 7e8:	0600                	addi	s0,sp,768
 7ea:	0115                	addi	sp,sp,5
 7ec:	13491927          	0x13491927
 7f0:	1301                	addi	t1,t1,-32
 7f2:	0000                	unimp
 7f4:	49000507          	0x49000507
 7f8:	08000013          	li	zero,128
 7fc:	0026                	c.slli	zero,0x9
 7fe:	0000                	unimp
 800:	3409                	jal	202 <_tbss_end+0x17e>
 802:	0300                	addi	s0,sp,384
 804:	3a0e                	fld	fs4,224(sp)
 806:	490b3b0b          	0x490b3b0b
 80a:	3c193f13          	sltiu	t5,s2,961
 80e:	0019                	c.nop	6
 810:	0a00                	addi	s0,sp,272
 812:	0104                	addi	s1,sp,128
 814:	0b3e0e03          	lb	t3,179(t3)
 818:	13490b0b          	0x13490b0b
 81c:	0b3a                	slli	s6,s6,0xe
 81e:	13010b3b          	0x13010b3b
 822:	0000                	unimp
 824:	0300280b          	0x300280b
 828:	1c0e                	slli	s8,s8,0x23
 82a:	0c00000b          	0xc00000b
 82e:	0101                	addi	sp,sp,0
 830:	1349                	addi	t1,t1,-14
 832:	1301                	addi	t1,t1,-32
 834:	0000                	unimp
 836:	210d                	jal	c58 <_tbss_end+0xbd4>
 838:	0000                	unimp
 83a:	0e00                	addi	s0,sp,784
 83c:	0026                	c.slli	zero,0x9
 83e:	1349                	addi	t1,t1,-14
 840:	0000                	unimp
 842:	4900210f          	0x4900210f
 846:	000b2f13          	slti	t5,s6,0
 84a:	1000                	addi	s0,sp,32
 84c:	0034                	addi	a3,sp,8
 84e:	0b3a0e03          	lb	t3,179(s4)
 852:	1349053b          	0x1349053b
 856:	193c193f 2e110000 	0x2e110000193c193f
 85e:	3f01                	jal	76e <_tbss_end+0x6ea>
 860:	0319                	addi	t1,t1,6
 862:	3a0e                	fld	fs4,224(sp)
 864:	27053b0b          	0x27053b0b
 868:	4919                	li	s2,6
 86a:	12011113          	0x12011113
 86e:	4006                	0x4006
 870:	9718                	0x9718
 872:	1942                	slli	s2,s2,0x30
 874:	0000                	unimp
 876:	0512                	slli	a0,a0,0x4
 878:	0300                	addi	s0,sp,384
 87a:	3a08                	fld	fa0,48(a2)
 87c:	49053b0b          	0x49053b0b
 880:	00170213          	addi	tp,a4,1
 884:	1300                	addi	s0,sp,416
 886:	0034                	addi	a3,sp,8
 888:	0b3a0803          	lb	a6,179(s4)
 88c:	1349053b          	0x1349053b
 890:	1702                	slli	a4,a4,0x20
 892:	0000                	unimp
 894:	0b14                	addi	a3,sp,400
 896:	5501                	li	a0,-32
 898:	15000017          	auipc	zero,0x15000
 89c:	0034                	addi	a3,sp,8
 89e:	0b3a0e03          	lb	t3,179(s4)
 8a2:	1349053b          	0x1349053b
 8a6:	1702                	slli	a4,a4,0x20
 8a8:	0000                	unimp
 8aa:	3416                	fld	fs0,352(sp)
 8ac:	0300                	addi	s0,sp,384
 8ae:	3a08                	fld	fa0,48(a2)
 8b0:	49053b0b          	0x49053b0b
 8b4:	00000013          	nop

Disassembly of section .debug_loc:

00000000 <.debug_loc>:
       0:	4a3c                	lw	a5,80(a2)
       2:	8000                	0x8000
       4:	4a42                	lw	s4,16(sp)
       6:	8000                	0x8000
       8:	0006                	c.slli	zero,0x1
       a:	935a                	add	t1,t1,s6
       c:	5b04                	lw	s1,48(a4)
       e:	4a420493          	addi	s1,tp,1188 # 4a4 <_tbss_end+0x420>
      12:	8000                	0x8000
      14:	4b58                	lw	a4,20(a4)
      16:	8000                	0x8000
      18:	0006                	c.slli	zero,0x1
      1a:	0af503f3          	0xaf503f3
      1e:	9f2c                	0x9f2c
      20:	4b58                	lw	a4,20(a4)
      22:	8000                	0x8000
      24:	4b5c                	lw	a5,20(a4)
      26:	8000                	0x8000
      28:	0006                	c.slli	zero,0x1
      2a:	935a                	add	t1,t1,s6
      2c:	5b04                	lw	s1,48(a4)
      2e:	4b5c0493          	addi	s1,s8,1205
      32:	8000                	0x8000
      34:	4e02                	lw	t3,0(sp)
      36:	8000                	0x8000
      38:	0006                	c.slli	zero,0x1
      3a:	0af503f3          	0xaf503f3
      3e:	9f2c                	0x9f2c
	...
      48:	4a3c                	lw	a5,80(a2)
      4a:	8000                	0x8000
      4c:	4a4a                	lw	s4,144(sp)
      4e:	8000                	0x8000
      50:	0006                	c.slli	zero,0x1
      52:	935c                	0x935c
      54:	5d04                	lw	s1,56(a0)
      56:	4a4a0493          	addi	s1,s4,1188
      5a:	8000                	0x8000
      5c:	4b58                	lw	a4,20(a4)
      5e:	8000                	0x8000
      60:	0006                	c.slli	zero,0x1
      62:	0cf503f3          	0xcf503f3
      66:	9f2c                	0x9f2c
      68:	4b58                	lw	a4,20(a4)
      6a:	8000                	0x8000
      6c:	4b6a                	lw	s6,152(sp)
      6e:	8000                	0x8000
      70:	0006                	c.slli	zero,0x1
      72:	935c                	0x935c
      74:	5d04                	lw	s1,56(a0)
      76:	4b6a0493          	addi	s1,s4,1206
      7a:	8000                	0x8000
      7c:	4e02                	lw	t3,0(sp)
      7e:	8000                	0x8000
      80:	0006                	c.slli	zero,0x1
      82:	0cf503f3          	0xcf503f3
      86:	9f2c                	0x9f2c
	...
      90:	4a3c                	lw	a5,80(a2)
      92:	8000                	0x8000
      94:	4a42                	lw	s4,16(sp)
      96:	8000                	0x8000
      98:	0002                	c.slli	zero,0x0
      9a:	9f30                	0x9f30
      9c:	4a42                	lw	s4,16(sp)
      9e:	8000                	0x8000
      a0:	4b58                	lw	a4,20(a4)
      a2:	8000                	0x8000
      a4:	0001                	nop
      a6:	5860                	lw	s0,116(s0)
      a8:	6a80004b          	fnmsub.d	ft0,ft0,fs0,fa3,rne
      ac:	0380004b          	fnmsub.d	ft0,ft0,fs8,ft0,rne
      b0:	0900                	addi	s0,sp,144
      b2:	9fff                	0x9fff
      b4:	4b6a                	lw	s6,152(sp)
      b6:	8000                	0x8000
      b8:	4e02                	lw	t3,0(sp)
      ba:	8000                	0x8000
      bc:	0001                	nop
      be:	0060                	addi	s0,sp,12
      c0:	0000                	unimp
      c2:	0000                	unimp
      c4:	0000                	unimp
      c6:	3c00                	fld	fs0,56(s0)
      c8:	004a                	c.slli	zero,0x12
      ca:	4280                	lw	s0,0(a3)
      cc:	004a                	c.slli	zero,0x12
      ce:	0680                	addi	s0,sp,832
      d0:	5a00                	lw	s0,48(a2)
      d2:	935b0493          	addi	s1,s6,-1739 # 5500fff7 <_tbss_end+0x5500ff73>
      d6:	5804                	lw	s1,48(s0)
      d8:	5c80004b          	0x5c80004b
      dc:	0680004b          	fnmsub.q	ft0,ft0,fs0,ft0,rne
      e0:	5a00                	lw	s0,48(a2)
      e2:	935b0493          	addi	s1,s6,-1739
      e6:	6604                	flw	fs1,8(a2)
      e8:	6a80004b          	fnmsub.d	ft0,ft0,fs0,fa3,rne
      ec:	0680004b          	fnmsub.q	ft0,ft0,fs0,ft0,rne
      f0:	5a00                	lw	s0,48(a2)
      f2:	935b0493          	addi	s1,s6,-1739
      f6:	0004                	0x4
      f8:	0000                	unimp
      fa:	0000                	unimp
      fc:	0000                	unimp
      fe:	3c00                	fld	fs0,56(s0)
     100:	004a                	c.slli	zero,0x12
     102:	4a80                	lw	s0,16(a3)
     104:	004a                	c.slli	zero,0x12
     106:	0680                	addi	s0,sp,832
     108:	5c00                	lw	s0,56(s0)
     10a:	935d0493          	addi	s1,s10,-1739
     10e:	5804                	lw	s1,48(s0)
     110:	6a80004b          	fnmsub.d	ft0,ft0,fs0,fa3,rne
     114:	0680004b          	fnmsub.q	ft0,ft0,fs0,ft0,rne
     118:	5c00                	lw	s0,56(s0)
     11a:	935d0493          	addi	s1,s10,-1739
     11e:	0004                	0x4
     120:	0000                	unimp
     122:	0000                	unimp
     124:	0000                	unimp
     126:	f600                	fsw	fs0,40(a2)
     128:	004a                	c.slli	zero,0x12
     12a:	fe80                	fsw	fs0,56(a3)
     12c:	004a                	c.slli	zero,0x12
     12e:	0680                	addi	s0,sp,832
     130:	5a00                	lw	s0,48(a2)
     132:	935b0493          	addi	s1,s6,-1739
     136:	0404                	addi	s1,sp,512
     138:	004c                	addi	a1,sp,4
     13a:	0680                	addi	s0,sp,832
     13c:	004c                	addi	a1,sp,4
     13e:	0680                	addi	s0,sp,832
     140:	5a00                	lw	s0,48(a2)
     142:	935b0493          	addi	s1,s6,-1739
     146:	cc04                	sw	s1,24(s0)
     148:	004d                	c.nop	19
     14a:	ce80                	sw	s0,24(a3)
     14c:	004d                	c.nop	19
     14e:	0680                	addi	s0,sp,832
     150:	5a00                	lw	s0,48(a2)
     152:	935b0493          	addi	s1,s6,-1739
     156:	0004                	0x4
     158:	0000                	unimp
     15a:	0000                	unimp
     15c:	0000                	unimp
     15e:	5400                	lw	s0,40(s0)
     160:	004a                	c.slli	zero,0x12
     162:	f680                	fsw	fs0,40(a3)
     164:	004a                	c.slli	zero,0x12
     166:	0680                	addi	s0,sp,832
     168:	f200                	fsw	fs0,32(a2)
     16a:	02c4                	addi	s1,sp,324
     16c:	0000                	unimp
     16e:	0a00                	addi	s0,sp,272
     170:	5880004b          	fnmsub.s	ft0,ft0,fs0,fa1,rne
     174:	0680004b          	fnmsub.q	ft0,ft0,fs0,ft0,rne
     178:	f200                	fsw	fs0,32(a2)
     17a:	02c4                	addi	s1,sp,324
     17c:	0000                	unimp
     17e:	6a00                	flw	fs0,16(a2)
     180:	0280004b          	fnmsub.d	ft0,ft0,fs0,ft0,rne
     184:	004e                	c.slli	zero,0x13
     186:	0680                	addi	s0,sp,832
     188:	f200                	fsw	fs0,32(a2)
     18a:	02c4                	addi	s1,sp,324
	...
     194:	0000                	unimp
     196:	5800                	lw	s0,48(s0)
     198:	004a                	c.slli	zero,0x12
     19a:	9a80                	0x9a80
     19c:	004a                	c.slli	zero,0x12
     19e:	0180                	addi	s0,sp,192
     1a0:	5c00                	lw	s0,56(s0)
     1a2:	4a9a                	lw	s5,132(sp)
     1a4:	8000                	0x8000
     1a6:	4af6                	lw	s5,92(sp)
     1a8:	8000                	0x8000
     1aa:	0001                	nop
     1ac:	0a61                	addi	s4,s4,24
     1ae:	5880004b          	fnmsub.s	ft0,ft0,fs0,fa1,rne
     1b2:	0180004b          	fnmsub.s	ft0,ft0,fs8,ft0,rne
     1b6:	5c00                	lw	s0,56(s0)
     1b8:	4b6a                	lw	s6,152(sp)
     1ba:	8000                	0x8000
     1bc:	4b72                	lw	s6,28(sp)
     1be:	8000                	0x8000
     1c0:	0001                	nop
     1c2:	725c                	flw	fa5,36(a2)
     1c4:	1080004b          	fnmsub.s	ft0,ft0,fs0,ft2,rne
     1c8:	004c                	addi	a1,sp,4
     1ca:	0180                	addi	s0,sp,192
     1cc:	6100                	flw	fs0,0(a0)
     1ce:	4c10                	lw	a2,24(s0)
     1d0:	8000                	0x8000
     1d2:	4c14                	lw	a3,24(s0)
     1d4:	8000                	0x8000
     1d6:	0001                	nop
     1d8:	145d                	addi	s0,s0,-9
     1da:	004c                	addi	a1,sp,4
     1dc:	1880                	addi	s0,sp,112
     1de:	004c                	addi	a1,sp,4
     1e0:	0180                	addi	s0,sp,192
     1e2:	6100                	flw	fs0,0(a0)
     1e4:	4c18                	lw	a4,24(s0)
     1e6:	8000                	0x8000
     1e8:	4c3a                	lw	s8,140(sp)
     1ea:	8000                	0x8000
     1ec:	0001                	nop
     1ee:	3a5c                	fld	fa5,176(a2)
     1f0:	004c                	addi	a1,sp,4
     1f2:	b280                	fsd	fs0,32(a3)
     1f4:	004c                	addi	a1,sp,4
     1f6:	0180                	addi	s0,sp,192
     1f8:	6100                	flw	fs0,0(a0)
     1fa:	4cb2                	lw	s9,12(sp)
     1fc:	8000                	0x8000
     1fe:	4ce4                	lw	s1,92(s1)
     200:	8000                	0x8000
     202:	0001                	nop
     204:	e45c                	fsw	fa5,12(s0)
     206:	004c                	addi	a1,sp,4
     208:	9e80                	0x9e80
     20a:	004d                	c.nop	19
     20c:	0180                	addi	s0,sp,192
     20e:	5f00                	lw	s0,56(a4)
     210:	4da0                	lw	s0,88(a1)
     212:	8000                	0x8000
     214:	4da4                	lw	s1,88(a1)
     216:	8000                	0x8000
     218:	0001                	nop
     21a:	ce5f 004d d680      	0xd680004dce5f
     220:	004d                	c.nop	19
     222:	0180                	addi	s0,sp,192
     224:	6100                	flw	fs0,0(a0)
     226:	4dd6                	lw	s11,84(sp)
     228:	8000                	0x8000
     22a:	4dec                	lw	a1,92(a1)
     22c:	8000                	0x8000
     22e:	0001                	nop
     230:	ec5c                	fsw	fa5,28(s0)
     232:	004d                	c.nop	19
     234:	f480                	fsw	fs0,40(s1)
     236:	004d                	c.nop	19
     238:	0180                	addi	s0,sp,192
     23a:	5f00                	lw	s0,56(a4)
     23c:	4df4                	lw	a3,92(a1)
     23e:	8000                	0x8000
     240:	4df8                	lw	a4,92(a1)
     242:	8000                	0x8000
     244:	0001                	nop
     246:	f861                	bnez	s0,216 <_tbss_end+0x192>
     248:	004d                	c.nop	19
     24a:	fe80                	fsw	fs0,56(a3)
     24c:	004d                	c.nop	19
     24e:	0180                	addi	s0,sp,192
     250:	5f00                	lw	s0,56(a4)
	...
     25a:	4a58                	lw	a4,20(a2)
     25c:	8000                	0x8000
     25e:	4a74                	lw	a3,84(a2)
     260:	8000                	0x8000
     262:	0001                	nop
     264:	0a5d                	addi	s4,s4,23
     266:	4e80004b          	fnmsub.q	ft0,ft0,fs0,fs1,rne
     26a:	0180004b          	fnmsub.s	ft0,ft0,fs8,ft0,rne
     26e:	5d00                	lw	s0,56(a0)
     270:	4b6a                	lw	s6,152(sp)
     272:	8000                	0x8000
     274:	4b84                	lw	s1,16(a5)
     276:	8000                	0x8000
     278:	0001                	nop
     27a:	065d                	addi	a2,a2,23
     27c:	004c                	addi	a1,sp,4
     27e:	0c80                	addi	s0,sp,592
     280:	004c                	addi	a1,sp,4
     282:	0180                	addi	s0,sp,192
     284:	5d00                	lw	s0,56(a0)
     286:	4c0c                	lw	a1,24(s0)
     288:	8000                	0x8000
     28a:	4c16                	lw	s8,68(sp)
     28c:	8000                	0x8000
     28e:	0001                	nop
     290:	185f 004c 1e80      	0x1e80004c185f
     296:	004c                	addi	a1,sp,4
     298:	0180                	addi	s0,sp,192
     29a:	5d00                	lw	s0,56(a0)
     29c:	4c1e                	lw	s8,196(sp)
     29e:	8000                	0x8000
     2a0:	4c28                	lw	a0,88(s0)
     2a2:	8000                	0x8000
     2a4:	0001                	nop
     2a6:	2a5f 004c 3a80      	0x3a80004c2a5f
     2ac:	004c                	addi	a1,sp,4
     2ae:	0180                	addi	s0,sp,192
     2b0:	5d00                	lw	s0,56(a0)
     2b2:	4cb2                	lw	s9,12(sp)
     2b4:	8000                	0x8000
     2b6:	4cba                	lw	s9,140(sp)
     2b8:	8000                	0x8000
     2ba:	0001                	nop
     2bc:	be5d                	j	fffffe72 <__global_pointer$+0x6ffff672>
     2be:	004c                	addi	a1,sp,4
     2c0:	d280                	sw	s0,32(a3)
     2c2:	004d                	c.nop	19
     2c4:	0180                	addi	s0,sp,192
     2c6:	5d00                	lw	s0,56(a0)
     2c8:	4dd6                	lw	s11,84(sp)
     2ca:	8000                	0x8000
     2cc:	4de2                	lw	s11,24(sp)
     2ce:	8000                	0x8000
     2d0:	0001                	nop
     2d2:	e65d                	bnez	a2,380 <_tbss_end+0x2fc>
     2d4:	004d                	c.nop	19
     2d6:	f480                	fsw	fs0,40(s1)
     2d8:	004d                	c.nop	19
     2da:	0180                	addi	s0,sp,192
     2dc:	5d00                	lw	s0,56(a0)
     2de:	4df8                	lw	a4,92(a1)
     2e0:	8000                	0x8000
     2e2:	4e02                	lw	t3,0(sp)
     2e4:	8000                	0x8000
     2e6:	0001                	nop
     2e8:	005d                	c.nop	23
     2ea:	0000                	unimp
     2ec:	0000                	unimp
     2ee:	0000                	unimp
     2f0:	5a00                	lw	s0,48(a2)
     2f2:	004a                	c.slli	zero,0x12
     2f4:	a280                	fsd	fs0,0(a3)
     2f6:	004a                	c.slli	zero,0x12
     2f8:	0180                	addi	s0,sp,192
     2fa:	5a00                	lw	s0,48(a2)
     2fc:	4aa2                	lw	s5,8(sp)
     2fe:	8000                	0x8000
     300:	4af0                	lw	a2,84(a3)
     302:	8000                	0x8000
     304:	0001                	nop
     306:	f06c                	fsw	fa1,100(s0)
     308:	004a                	c.slli	zero,0x12
     30a:	f480                	fsw	fs0,40(s1)
     30c:	004a                	c.slli	zero,0x12
     30e:	0180                	addi	s0,sp,192
     310:	5a00                	lw	s0,48(a2)
     312:	4af4                	lw	a3,84(a3)
     314:	8000                	0x8000
     316:	4af6                	lw	s5,92(sp)
     318:	8000                	0x8000
     31a:	000d                	c.nop	3
     31c:	007f                	0x7f
     31e:	0081                	addi	ra,ra,0
     320:	2440                	fld	fs0,136(s0)
     322:	2540                	fld	fs0,136(a0)
     324:	007d                	c.nop	31
     326:	1c1e                	slli	s8,s8,0x27
     328:	0a9f 004b 5280      	0x5280004b0a9f
     32e:	0180004b          	fnmsub.s	ft0,ft0,fs8,ft0,rne
     332:	5a00                	lw	s0,48(a2)
     334:	4b6a                	lw	s6,152(sp)
     336:	8000                	0x8000
     338:	4bae                	lw	s7,200(sp)
     33a:	8000                	0x8000
     33c:	0001                	nop
     33e:	ae5a                	fsd	fs6,280(sp)
     340:	d880004b          	fnmsub.s	ft0,ft0,fs0,fs11,rne
     344:	0180004b          	fnmsub.s	ft0,ft0,fs8,ft0,rne
     348:	6c00                	flw	fs0,24(s0)
     34a:	4bfe                	lw	s7,220(sp)
     34c:	8000                	0x8000
     34e:	4c02                	lw	s8,0(sp)
     350:	8000                	0x8000
     352:	0001                	nop
     354:	065a                	slli	a2,a2,0x16
     356:	004c                	addi	a1,sp,4
     358:	6480                	flw	fs0,8(s1)
     35a:	004c                	addi	a1,sp,4
     35c:	0180                	addi	s0,sp,192
     35e:	5a00                	lw	s0,48(a2)
     360:	4c64                	lw	s1,92(s0)
     362:	8000                	0x8000
     364:	4cb2                	lw	s9,12(sp)
     366:	8000                	0x8000
     368:	0001                	nop
     36a:	b26c                	fsd	fa1,224(a2)
     36c:	004c                	addi	a1,sp,4
     36e:	ba80                	fsd	fs0,48(a3)
     370:	004d                	c.nop	19
     372:	0180                	addi	s0,sp,192
     374:	5a00                	lw	s0,48(a2)
     376:	4dbc                	lw	a5,88(a1)
     378:	8000                	0x8000
     37a:	4dce                	lw	s11,208(sp)
     37c:	8000                	0x8000
     37e:	0001                	nop
     380:	ce5f 004d f480      	0xf480004dce5f
     386:	004d                	c.nop	19
     388:	0180                	addi	s0,sp,192
     38a:	5a00                	lw	s0,48(a2)
     38c:	4df4                	lw	a3,92(a1)
     38e:	8000                	0x8000
     390:	4df8                	lw	a4,92(a1)
     392:	8000                	0x8000
     394:	0001                	nop
     396:	f86c                	fsw	fa1,116(s0)
     398:	004d                	c.nop	19
     39a:	0280                	addi	s0,sp,320
     39c:	004e                	c.slli	zero,0x13
     39e:	0180                	addi	s0,sp,192
     3a0:	5a00                	lw	s0,48(a2)
	...
     3aa:	4a9e                	lw	s5,196(sp)
     3ac:	8000                	0x8000
     3ae:	4af6                	lw	s5,92(sp)
     3b0:	8000                	0x8000
     3b2:	0001                	nop
     3b4:	526d                	li	tp,-5
     3b6:	5880004b          	fnmsub.s	ft0,ft0,fs0,fa1,rne
     3ba:	0180004b          	fnmsub.s	ft0,ft0,fs8,ft0,rne
     3be:	6d00                	flw	fs0,24(a0)
     3c0:	4ba6                	lw	s7,72(sp)
     3c2:	8000                	0x8000
     3c4:	4bba                	lw	s7,140(sp)
     3c6:	8000                	0x8000
     3c8:	0001                	nop
     3ca:	004c5c5b          	0x4c5c5b
     3ce:	9c80                	0x9c80
     3d0:	004c                	addi	a1,sp,4
     3d2:	0180                	addi	s0,sp,192
     3d4:	5b00                	lw	s0,48(a4)
     3d6:	4cb0                	lw	a2,88(s1)
     3d8:	8000                	0x8000
     3da:	4cb2                	lw	s9,12(sp)
     3dc:	8000                	0x8000
     3de:	0001                	nop
     3e0:	004ce45b          	0x4ce45b
     3e4:	1680                	addi	s0,sp,864
     3e6:	004d                	c.nop	19
     3e8:	0180                	addi	s0,sp,192
     3ea:	5b00                	lw	s0,48(a4)
     3ec:	4d60                	lw	s0,92(a0)
     3ee:	8000                	0x8000
     3f0:	4dbc                	lw	a5,88(a1)
     3f2:	8000                	0x8000
     3f4:	0001                	nop
     3f6:	bc5e                	fsd	fs7,56(sp)
     3f8:	004d                	c.nop	19
     3fa:	cc80                	sw	s0,24(s1)
     3fc:	004d                	c.nop	19
     3fe:	0180                	addi	s0,sp,192
     400:	5b00                	lw	s0,48(a4)
     402:	4df0                	lw	a2,92(a1)
     404:	8000                	0x8000
     406:	4df4                	lw	a3,92(a1)
     408:	8000                	0x8000
     40a:	0001                	nop
     40c:	004df85b          	0x4df85b
     410:	0280                	addi	s0,sp,320
     412:	004e                	c.slli	zero,0x13
     414:	0180                	addi	s0,sp,192
     416:	5e00                	lw	s0,56(a2)
	...
     420:	4c42                	lw	s8,16(sp)
     422:	8000                	0x8000
     424:	4c68                	lw	a0,92(s0)
     426:	8000                	0x8000
     428:	0001                	nop
     42a:	e45e                	fsw	fs7,8(sp)
     42c:	004c                	addi	a1,sp,4
     42e:	ec80                	fsw	fs0,24(s1)
     430:	004c                	addi	a1,sp,4
     432:	0180                	addi	s0,sp,192
     434:	6100                	flw	fs0,0(a0)
     436:	4cec                	lw	a1,92(s1)
     438:	8000                	0x8000
     43a:	4cf0                	lw	a2,92(s1)
     43c:	8000                	0x8000
     43e:	0006                	c.slli	zero,0x1
     440:	008d                	addi	ra,ra,3
     442:	008e                	slli	ra,ra,0x3
     444:	9f25                	0x9f25
	...
     44e:	4b44                	lw	s1,20(a4)
     450:	8000                	0x8000
     452:	4b52                	lw	s6,20(sp)
     454:	8000                	0x8000
     456:	0002                	c.slli	zero,0x0
     458:	9f31                	0x9f31
	...
     462:	4b52                	lw	s6,20(sp)
     464:	8000                	0x8000
     466:	4b58                	lw	a4,20(a4)
     468:	8000                	0x8000
     46a:	0002                	c.slli	zero,0x0
     46c:	9f30                	0x9f30
     46e:	4ba6                	lw	s7,72(sp)
     470:	8000                	0x8000
     472:	4bae                	lw	s7,200(sp)
     474:	8000                	0x8000
     476:	0002                	c.slli	zero,0x0
     478:	9f31                	0x9f31
     47a:	4db2                	lw	s11,12(sp)
     47c:	8000                	0x8000
     47e:	4dce                	lw	s11,208(sp)
     480:	8000                	0x8000
     482:	0002                	c.slli	zero,0x0
     484:	9f30                	0x9f30
	...
     48e:	4c3a                	lw	s8,140(sp)
     490:	8000                	0x8000
     492:	4c52                	lw	s8,20(sp)
     494:	8000                	0x8000
     496:	0001                	nop
     498:	b25f 004c c080      	0xc080004cb25f
     49e:	004d                	c.nop	19
     4a0:	0180                	addi	s0,sp,192
     4a2:	6e00                	flw	fs0,24(a2)
     4a4:	4dec                	lw	a1,92(a1)
     4a6:	8000                	0x8000
     4a8:	4df4                	lw	a3,92(a1)
     4aa:	8000                	0x8000
     4ac:	0001                	nop
     4ae:	f86e                	fsw	fs11,48(sp)
     4b0:	004d                	c.nop	19
     4b2:	0280                	addi	s0,sp,320
     4b4:	004e                	c.slli	zero,0x13
     4b6:	0180                	addi	s0,sp,192
     4b8:	6e00                	flw	fs0,24(a2)
	...
     4c2:	4a8a                	lw	s5,128(sp)
     4c4:	8000                	0x8000
     4c6:	4af6                	lw	s5,92(sp)
     4c8:	8000                	0x8000
     4ca:	0001                	nop
     4cc:	3656                	fld	fa2,368(sp)
     4ce:	5880004b          	fnmsub.s	ft0,ft0,fs0,fa1,rne
     4d2:	0180004b          	fnmsub.s	ft0,ft0,fs8,ft0,rne
     4d6:	6c00                	flw	fs0,24(s0)
     4d8:	4b9a                	lw	s7,132(sp)
     4da:	8000                	0x8000
     4dc:	4c06                	lw	s8,64(sp)
     4de:	8000                	0x8000
     4e0:	0001                	nop
     4e2:	3a56                	fld	fs4,368(sp)
     4e4:	004c                	addi	a1,sp,4
     4e6:	b280                	fsd	fs0,32(a3)
     4e8:	004c                	addi	a1,sp,4
     4ea:	0180                	addi	s0,sp,192
     4ec:	5600                	lw	s0,40(a2)
     4ee:	4cb2                	lw	s9,12(sp)
     4f0:	8000                	0x8000
     4f2:	4dce                	lw	s11,208(sp)
     4f4:	8000                	0x8000
     4f6:	0001                	nop
     4f8:	ec6c                	fsw	fa1,92(s0)
     4fa:	004d                	c.nop	19
     4fc:	f480                	fsw	fs0,40(s1)
     4fe:	004d                	c.nop	19
     500:	0180                	addi	s0,sp,192
     502:	6c00                	flw	fs0,24(s0)
     504:	4df4                	lw	a3,92(a1)
     506:	8000                	0x8000
     508:	4df8                	lw	a4,92(a1)
     50a:	8000                	0x8000
     50c:	0001                	nop
     50e:	f856                	fsw	fs5,48(sp)
     510:	004d                	c.nop	19
     512:	0280                	addi	s0,sp,320
     514:	004e                	c.slli	zero,0x13
     516:	0180                	addi	s0,sp,192
     518:	6c00                	flw	fs0,24(s0)
	...
     522:	4a62                	lw	s4,24(sp)
     524:	8000                	0x8000
     526:	4aa6                	lw	s5,72(sp)
     528:	8000                	0x8000
     52a:	0001                	nop
     52c:	185c                	addi	a5,sp,52
     52e:	004c                	addi	a1,sp,4
     530:	2a80                	fld	fs0,16(a3)
     532:	004c                	addi	a1,sp,4
     534:	0180                	addi	s0,sp,192
     536:	5c00                	lw	s0,56(s0)
     538:	4dde                	lw	s11,212(sp)
     53a:	8000                	0x8000
     53c:	4de6                	lw	s11,88(sp)
     53e:	8000                	0x8000
     540:	0001                	nop
     542:	005c                	addi	a5,sp,4
     544:	0000                	unimp
     546:	0000                	unimp
     548:	0000                	unimp
     54a:	7600                	flw	fs0,40(a2)
     54c:	004a                	c.slli	zero,0x12
     54e:	8680                	0x8680
     550:	004a                	c.slli	zero,0x12
     552:	0180                	addi	s0,sp,192
     554:	5f00                	lw	s0,56(a4)
	...
     55e:	4aa6                	lw	s5,72(sp)
     560:	8000                	0x8000
     562:	4af6                	lw	s5,92(sp)
     564:	8000                	0x8000
     566:	0001                	nop
     568:	005c                	addi	a5,sp,4
     56a:	0000                	unimp
     56c:	0000                	unimp
     56e:	0000                	unimp
     570:	b000                	fsd	fs0,32(s0)
     572:	004a                	c.slli	zero,0x12
     574:	e480                	fsw	fs0,8(s1)
     576:	004a                	c.slli	zero,0x12
     578:	0180                	addi	s0,sp,192
     57a:	5a00                	lw	s0,48(a2)
     57c:	4ae4                	lw	s1,84(a3)
     57e:	8000                	0x8000
     580:	4af6                	lw	s5,92(sp)
     582:	8000                	0x8000
     584:	00810007          	0x810007
     588:	2440                	fld	fs0,136(s0)
     58a:	2540                	fld	fs0,136(a0)
     58c:	009f 0000 0000      	0x9f
     592:	0000                	unimp
     594:	b800                	fsd	fs0,48(s0)
     596:	004a                	c.slli	zero,0x12
     598:	c480                	sw	s0,8(s1)
     59a:	004a                	c.slli	zero,0x12
     59c:	0c80                	addi	s0,sp,592
     59e:	8d00                	0x8d00
     5a0:	f700                	fsw	fs0,40(a4)
     5a2:	7c25                	lui	s8,0xfffe9
     5a4:	f700                	fsw	fs0,40(a4)
     5a6:	1b25                	addi	s6,s6,-23
     5a8:	c49f00f7          	0xc49f00f7
     5ac:	004a                	c.slli	zero,0x12
     5ae:	ce80                	sw	s0,24(a3)
     5b0:	004a                	c.slli	zero,0x12
     5b2:	0e80                	addi	s0,sp,848
     5b4:	8d00                	0x8d00
     5b6:	f700                	fsw	fs0,40(a4)
     5b8:	7c25                	lui	s8,0xfffe9
     5ba:	f700                	fsw	fs0,40(a4)
     5bc:	1b25                	addi	s6,s6,-23
     5be:	1c3100f7          	0x1c3100f7
     5c2:	ce9f 004a d080      	0xd080004ace9f
     5c8:	004a                	c.slli	zero,0x12
     5ca:	0e80                	addi	s0,sp,848
     5cc:	8d00                	0x8d00
     5ce:	f700                	fsw	fs0,40(a4)
     5d0:	7c25                	lui	s8,0xfffe9
     5d2:	f700                	fsw	fs0,40(a4)
     5d4:	1b25                	addi	s6,s6,-23
     5d6:	1c3200f7          	0x1c3200f7
     5da:	009f 0000 0000      	0x9f
     5e0:	0000                	unimp
     5e2:	b800                	fsd	fs0,48(s0)
     5e4:	004a                	c.slli	zero,0x12
     5e6:	be80                	fsd	fs0,56(a3)
     5e8:	004a                	c.slli	zero,0x12
     5ea:	0180                	addi	s0,sp,192
     5ec:	5d00                	lw	s0,56(a0)
     5ee:	4abe                	lw	s5,204(sp)
     5f0:	8000                	0x8000
     5f2:	4ac0                	lw	s0,20(a3)
     5f4:	8000                	0x8000
     5f6:	0006                	c.slli	zero,0x1
     5f8:	008d                	addi	ra,ra,3
     5fa:	007c                	addi	a5,sp,12
     5fc:	9f1d                	0x9f1d
     5fe:	4ac0                	lw	s0,20(a3)
     600:	8000                	0x8000
     602:	4ae0                	lw	s0,84(a3)
     604:	8000                	0x8000
     606:	0001                	nop
     608:	005e                	c.slli	zero,0x17
     60a:	0000                	unimp
     60c:	0000                	unimp
     60e:	0000                	unimp
     610:	e000                	fsw	fs0,0(s0)
     612:	004a                	c.slli	zero,0x12
     614:	e680                	fsw	fs0,8(a3)
     616:	004a                	c.slli	zero,0x12
     618:	0180                	addi	s0,sp,192
     61a:	5e00                	lw	s0,56(a2)
     61c:	4ae8                	lw	a0,84(a3)
     61e:	8000                	0x8000
     620:	4af6                	lw	s5,92(sp)
     622:	8000                	0x8000
     624:	0001                	nop
     626:	005f 0000 0000      	0x5f
     62c:	0000                	unimp
     62e:	bc00                	fsd	fs0,56(s0)
     630:	004a                	c.slli	zero,0x12
     632:	da80                	sw	s0,48(a3)
     634:	004a                	c.slli	zero,0x12
     636:	0180                	addi	s0,sp,192
     638:	5f00                	lw	s0,56(a4)
     63a:	4ada                	lw	s5,148(sp)
     63c:	8000                	0x8000
     63e:	4ae4                	lw	s1,84(a3)
     640:	8000                	0x8000
     642:	008d000f          	0x8d000f
     646:	007c25f7          	0x7c25f7
     64a:	f71b25f7          	0xf71b25f7
     64e:	7a00                	flw	fs0,48(a2)
     650:	1e00                	addi	s0,sp,816
     652:	e49f 004a f080      	0xf080004ae49f
     658:	004a                	c.slli	zero,0x12
     65a:	0180                	addi	s0,sp,192
     65c:	5a00                	lw	s0,48(a2)
     65e:	4af0                	lw	a2,84(a3)
     660:	8000                	0x8000
     662:	4af6                	lw	s5,92(sp)
     664:	8000                	0x8000
     666:	000a                	c.slli	zero,0x2
     668:	0081                	addi	ra,ra,0
     66a:	2440                	fld	fs0,136(s0)
     66c:	2540                	fld	fs0,136(a0)
     66e:	007d                	c.nop	31
     670:	9f1e                	add	t5,t5,t2
	...
     67a:	4bae                	lw	s7,200(sp)
     67c:	8000                	0x8000
     67e:	4bee                	lw	s7,216(sp)
     680:	8000                	0x8000
     682:	0005                	c.nop	1
     684:	0081                	addi	ra,ra,0
     686:	2540                	fld	fs0,136(a0)
     688:	f49f 004d f880      	0xf880004df49f
     68e:	004d                	c.nop	19
     690:	0580                	addi	s0,sp,704
     692:	8100                	0x8100
     694:	4000                	lw	s0,0(s0)
     696:	9f25                	0x9f25
	...
     6a0:	4bae                	lw	s7,200(sp)
     6a2:	8000                	0x8000
     6a4:	4bee                	lw	s7,216(sp)
     6a6:	8000                	0x8000
     6a8:	00810007          	0x810007
     6ac:	ff0a                	fsw	ft2,188(sp)
     6ae:	1aff                	0x1aff
     6b0:	f49f 004d f880      	0xf880004df49f
     6b6:	004d                	c.nop	19
     6b8:	0780                	addi	s0,sp,960
     6ba:	8100                	0x8100
     6bc:	0a00                	addi	s0,sp,272
     6be:	ffff                	0xffff
     6c0:	9f1a                	add	t5,t5,t1
	...
     6ca:	4bba                	lw	s7,140(sp)
     6cc:	8000                	0x8000
     6ce:	4bc0                	lw	s0,20(a5)
     6d0:	8000                	0x8000
     6d2:	0001                	nop
     6d4:	004bc25b          	0x4bc25b
     6d8:	e080                	fsw	fs0,0(s1)
     6da:	0180004b          	fnmsub.s	ft0,ft0,fs8,ft0,rne
     6de:	5e00                	lw	s0,56(a2)
     6e0:	4df4                	lw	a3,92(a1)
     6e2:	8000                	0x8000
     6e4:	4df8                	lw	a4,92(a1)
     6e6:	8000                	0x8000
     6e8:	0001                	nop
     6ea:	005e                	c.slli	zero,0x17
     6ec:	0000                	unimp
     6ee:	0000                	unimp
     6f0:	0000                	unimp
     6f2:	ec00                	fsw	fs0,24(s0)
     6f4:	004a                	c.slli	zero,0x12
     6f6:	f080                	fsw	fs0,32(s1)
     6f8:	004a                	c.slli	zero,0x12
     6fa:	0180                	addi	s0,sp,192
     6fc:	5f00                	lw	s0,56(a4)
     6fe:	4af0                	lw	a2,84(a3)
     700:	8000                	0x8000
     702:	4af4                	lw	a3,84(a3)
     704:	8000                	0x8000
     706:	0001                	nop
     708:	f45a                	fsw	fs6,40(sp)
     70a:	004a                	c.slli	zero,0x12
     70c:	f680                	fsw	fs0,40(a3)
     70e:	004a                	c.slli	zero,0x12
     710:	0d80                	addi	s0,sp,720
     712:	7f00                	flw	fs0,56(a4)
     714:	8100                	0x8100
     716:	4000                	lw	s0,0(s0)
     718:	4024                	lw	s1,64(s0)
     71a:	7d25                	lui	s10,0xfffe9
     71c:	1e00                	addi	s0,sp,816
     71e:	9f1c                	0x9f1c
     720:	4be0                	lw	s0,84(a5)
     722:	8000                	0x8000
     724:	4be6                	lw	s7,88(sp)
     726:	8000                	0x8000
     728:	0001                	nop
     72a:	ea5e                	fsw	fs7,20(sp)
     72c:	ee80004b          	fnmsub.q	ft0,ft0,fs0,ft9,rne
     730:	0180004b          	fnmsub.s	ft0,ft0,fs8,ft0,rne
     734:	5f00                	lw	s0,56(a4)
     736:	4bf0                	lw	a2,84(a5)
     738:	8000                	0x8000
     73a:	4bfe                	lw	s7,220(sp)
     73c:	8000                	0x8000
     73e:	0001                	nop
     740:	fe5f 004b 0280      	0x280004bfe5f
     746:	004c                	addi	a1,sp,4
     748:	0180                	addi	s0,sp,192
     74a:	5a00                	lw	s0,48(a2)
	...
     754:	4bbe                	lw	s7,204(sp)
     756:	8000                	0x8000
     758:	4be4                	lw	s1,84(a5)
     75a:	8000                	0x8000
     75c:	0001                	nop
     75e:	e45d                	bnez	s0,80c <_tbss_end+0x788>
     760:	ee80004b          	fnmsub.q	ft0,ft0,fs0,ft9,rne
     764:	0180004b          	fnmsub.s	ft0,ft0,fs8,ft0,rne
     768:	5a00                	lw	s0,48(a2)
     76a:	4df4                	lw	a3,92(a1)
     76c:	8000                	0x8000
     76e:	4df8                	lw	a4,92(a1)
     770:	8000                	0x8000
     772:	0001                	nop
     774:	005d                	c.nop	23
     776:	0000                	unimp
     778:	0000                	unimp
     77a:	0000                	unimp
     77c:	0e00                	addi	s0,sp,784
     77e:	4e80004b          	fnmsub.q	ft0,ft0,fs0,fs1,rne
     782:	0180004b          	fnmsub.s	ft0,ft0,fs8,ft0,rne
     786:	5d00                	lw	s0,56(a0)
     788:	4c2a                	lw	s8,136(sp)
     78a:	8000                	0x8000
     78c:	4c3a                	lw	s8,140(sp)
     78e:	8000                	0x8000
     790:	0001                	nop
     792:	b25d                	j	138 <_tbss_end+0xb4>
     794:	004c                	addi	a1,sp,4
     796:	ba80                	fsd	fs0,48(a3)
     798:	004c                	addi	a1,sp,4
     79a:	0180                	addi	s0,sp,192
     79c:	5d00                	lw	s0,56(a0)
     79e:	4dd6                	lw	s11,84(sp)
     7a0:	8000                	0x8000
     7a2:	4dde                	lw	s11,212(sp)
     7a4:	8000                	0x8000
     7a6:	0001                	nop
     7a8:	e65d                	bnez	a2,856 <_tbss_end+0x7d2>
     7aa:	004d                	c.nop	19
     7ac:	ec80                	fsw	fs0,24(s1)
     7ae:	004d                	c.nop	19
     7b0:	0180                	addi	s0,sp,192
     7b2:	5d00                	lw	s0,56(a0)
	...
     7bc:	4b22                	lw	s6,8(sp)
     7be:	8000                	0x8000
     7c0:	4b58                	lw	a4,20(a4)
     7c2:	8000                	0x8000
     7c4:	0001                	nop
     7c6:	b25e                	fsd	fs7,288(sp)
     7c8:	004c                	addi	a1,sp,4
     7ca:	c680                	sw	s0,8(a3)
     7cc:	004c                	addi	a1,sp,4
     7ce:	0180                	addi	s0,sp,192
     7d0:	5e00                	lw	s0,56(a2)
	...
     7da:	4b48                	lw	a0,20(a4)
     7dc:	8000                	0x8000
     7de:	4b52                	lw	s6,20(sp)
     7e0:	8000                	0x8000
     7e2:	0001                	nop
     7e4:	0061                	c.nop	24
     7e6:	0000                	unimp
     7e8:	0000                	unimp
     7ea:	0000                	unimp
     7ec:	7200                	flw	fs0,32(a2)
     7ee:	ae80004b          	fnmsub.q	ft0,ft0,fs0,fs5,rne
     7f2:	0180004b          	fnmsub.s	ft0,ft0,fs8,ft0,rne
     7f6:	6100                	flw	fs0,0(a0)
     7f8:	4c06                	lw	s8,64(sp)
     7fa:	8000                	0x8000
     7fc:	4c10                	lw	a2,24(s0)
     7fe:	8000                	0x8000
     800:	0001                	nop
     802:	1061                	c.nop	-8
     804:	004c                	addi	a1,sp,4
     806:	1480                	addi	s0,sp,608
     808:	004c                	addi	a1,sp,4
     80a:	0180                	addi	s0,sp,192
     80c:	5d00                	lw	s0,56(a0)
     80e:	4c14                	lw	a3,24(s0)
     810:	8000                	0x8000
     812:	4c18                	lw	a4,24(s0)
     814:	8000                	0x8000
     816:	0001                	nop
     818:	3a61                	jal	1b0 <_tbss_end+0x12c>
     81a:	004c                	addi	a1,sp,4
     81c:	3e80                	fld	fs0,56(a3)
     81e:	004c                	addi	a1,sp,4
     820:	0180                	addi	s0,sp,192
     822:	6100                	flw	fs0,0(a0)
     824:	4dce                	lw	s11,208(sp)
     826:	8000                	0x8000
     828:	4dd6                	lw	s11,84(sp)
     82a:	8000                	0x8000
     82c:	0001                	nop
     82e:	0061                	c.nop	24
     830:	0000                	unimp
     832:	0000                	unimp
     834:	0000                	unimp
     836:	8600                	0x8600
     838:	9680004b          	fnmsub.q	ft0,ft0,fs0,fs2,rne
     83c:	0180004b          	fnmsub.s	ft0,ft0,fs8,ft0,rne
     840:	5f00                	lw	s0,56(a4)
	...
     84a:	4c64                	lw	s1,92(s0)
     84c:	8000                	0x8000
     84e:	4cb2                	lw	s9,12(sp)
     850:	8000                	0x8000
     852:	0001                	nop
     854:	005c                	addi	a5,sp,4
     856:	0000                	unimp
     858:	0000                	unimp
     85a:	0000                	unimp
     85c:	6400                	flw	fs0,8(s0)
     85e:	004c                	addi	a1,sp,4
     860:	b280                	fsd	fs0,32(a3)
     862:	004c                	addi	a1,sp,4
     864:	0180                	addi	s0,sp,192
     866:	6d00                	flw	fs0,24(a0)
	...
     870:	4c68                	lw	a0,92(s0)
     872:	8000                	0x8000
     874:	4c74                	lw	a3,92(s0)
     876:	8000                	0x8000
     878:	0001                	nop
     87a:	745e                	flw	fs0,244(sp)
     87c:	004c                	addi	a1,sp,4
     87e:	9480                	0x9480
     880:	004c                	addi	a1,sp,4
     882:	0180                	addi	s0,sp,192
     884:	5d00                	lw	s0,56(a0)
	...
     88e:	4c94                	lw	a3,24(s1)
     890:	8000                	0x8000
     892:	4c9e                	lw	s9,196(sp)
     894:	8000                	0x8000
     896:	0001                	nop
     898:	9e5d                	0x9e5d
     89a:	004c                	addi	a1,sp,4
     89c:	b280                	fsd	fs0,32(a3)
     89e:	004c                	addi	a1,sp,4
     8a0:	0180                	addi	s0,sp,192
     8a2:	5b00                	lw	s0,48(a4)
	...
     8ac:	4c6c                	lw	a1,92(s0)
     8ae:	8000                	0x8000
     8b0:	4c8e                	lw	s9,192(sp)
     8b2:	8000                	0x8000
     8b4:	0001                	nop
     8b6:	985f 004c b280      	0xb280004c985f
     8bc:	004c                	addi	a1,sp,4
     8be:	0180                	addi	s0,sp,192
     8c0:	5e00                	lw	s0,56(a2)
	...
     8ca:	4d8e                	lw	s11,192(sp)
     8cc:	8000                	0x8000
     8ce:	4da8                	lw	a0,88(a1)
     8d0:	8000                	0x8000
     8d2:	0001                	nop
     8d4:	a856                	fsd	fs5,16(sp)
     8d6:	004d                	c.nop	19
     8d8:	ac80                	fsd	fs0,24(s1)
     8da:	004d                	c.nop	19
     8dc:	1480                	addi	s0,sp,608
     8de:	7b00                	flw	fs0,48(a4)
     8e0:	7c00                	flw	fs0,56(s0)
     8e2:	4000                	lw	s0,0(s0)
     8e4:	7f22244b          	fnmsub.q	fs0,ft4,fs2,fa5,rdn
     8e8:	4000                	lw	s0,0(s0)
     8ea:	2d22244b          	0x2d22244b
     8ee:	ff08                	fsw	fa0,56(a4)
     8f0:	1c1a                	slli	s8,s8,0x26
     8f2:	f89f 004d 0280      	0x280004df89f
     8f8:	004e                	c.slli	zero,0x13
     8fa:	0180                	addi	s0,sp,192
     8fc:	5600                	lw	s0,40(a2)
	...
     906:	4d90                	lw	a2,24(a1)
     908:	8000                	0x8000
     90a:	4da8                	lw	a0,88(a1)
     90c:	8000                	0x8000
     90e:	0001                	nop
     910:	a85c                	fsd	fa5,144(s0)
     912:	004d                	c.nop	19
     914:	b680                	fsd	fs0,40(a3)
     916:	004d                	c.nop	19
     918:	0180                	addi	s0,sp,192
     91a:	5f00                	lw	s0,56(a4)
     91c:	4df8                	lw	a4,92(a1)
     91e:	8000                	0x8000
     920:	4e02                	lw	t3,0(sp)
     922:	8000                	0x8000
     924:	0001                	nop
     926:	005c                	addi	a5,sp,4
     928:	0000                	unimp
     92a:	0000                	unimp
     92c:	0000                	unimp
     92e:	e800                	fsw	fs0,16(s0)
     930:	004c                	addi	a1,sp,4
     932:	2480                	fld	fs0,8(s1)
     934:	004d                	c.nop	19
     936:	0180                	addi	s0,sp,192
     938:	5e00                	lw	s0,56(a2)
     93a:	4d24                	lw	s1,88(a0)
     93c:	8000                	0x8000
     93e:	4dce                	lw	s11,208(sp)
     940:	8000                	0x8000
     942:	0005                	c.nop	1
     944:	007d                	c.nop	31
     946:	2540                	fld	fs0,136(a0)
     948:	ec9f 004d f080      	0xf080004dec9f
     94e:	004d                	c.nop	19
     950:	0580                	addi	s0,sp,704
     952:	7d00                	flw	fs0,56(a0)
     954:	4000                	lw	s0,0(s0)
     956:	9f25                	0x9f25
     958:	4df0                	lw	a2,92(a1)
     95a:	8000                	0x8000
     95c:	4df4                	lw	a3,92(a1)
     95e:	8000                	0x8000
     960:	0001                	nop
     962:	f85e                	fsw	fs7,48(sp)
     964:	004d                	c.nop	19
     966:	0280                	addi	s0,sp,320
     968:	004e                	c.slli	zero,0x13
     96a:	0580                	addi	s0,sp,704
     96c:	7d00                	flw	fs0,56(a0)
     96e:	4000                	lw	s0,0(s0)
     970:	9f25                	0x9f25
	...
     97a:	4ce8                	lw	a0,92(s1)
     97c:	8000                	0x8000
     97e:	4d20                	lw	s0,88(a0)
     980:	8000                	0x8000
     982:	0001                	nop
     984:	004d206f          	j	d2988 <_tbss_end+0xd2904>
     988:	ce80                	sw	s0,24(a3)
     98a:	004d                	c.nop	19
     98c:	0780                	addi	s0,sp,960
     98e:	7d00                	flw	fs0,56(a0)
     990:	4000                	lw	s0,0(s0)
     992:	4024                	lw	s1,64(s0)
     994:	9f25                	0x9f25
     996:	4dec                	lw	a1,92(a1)
     998:	8000                	0x8000
     99a:	4df0                	lw	a2,92(a1)
     99c:	8000                	0x8000
     99e:	007d0007          	0x7d0007
     9a2:	2440                	fld	fs0,136(s0)
     9a4:	2540                	fld	fs0,136(a0)
     9a6:	f09f 004d f480      	0xf480004df09f
     9ac:	004d                	c.nop	19
     9ae:	0180                	addi	s0,sp,192
     9b0:	6f00                	flw	fs0,24(a4)
     9b2:	4df8                	lw	a4,92(a1)
     9b4:	8000                	0x8000
     9b6:	4e02                	lw	t3,0(sp)
     9b8:	8000                	0x8000
     9ba:	007d0007          	0x7d0007
     9be:	2440                	fld	fs0,136(s0)
     9c0:	2540                	fld	fs0,136(a0)
     9c2:	009f 0000 0000      	0x9f
     9c8:	0000                	unimp
     9ca:	ec00                	fsw	fs0,24(s0)
     9cc:	004c                	addi	a1,sp,4
     9ce:	0080                	addi	s0,sp,64
     9d0:	004d                	c.nop	19
     9d2:	0180                	addi	s0,sp,192
     9d4:	5600                	lw	s0,40(a2)
     9d6:	4d00                	lw	s0,24(a0)
     9d8:	8000                	0x8000
     9da:	4d0a                	lw	s10,128(sp)
     9dc:	8000                	0x8000
     9de:	0001                	nop
     9e0:	0a61                	addi	s4,s4,24
     9e2:	004d                	c.nop	19
     9e4:	3e80                	fld	fs0,56(a3)
     9e6:	004d                	c.nop	19
     9e8:	0180                	addi	s0,sp,192
     9ea:	5600                	lw	s0,40(a2)
     9ec:	4dec                	lw	a1,92(a1)
     9ee:	8000                	0x8000
     9f0:	4df0                	lw	a2,92(a1)
     9f2:	8000                	0x8000
     9f4:	0001                	nop
     9f6:	f056                	fsw	fs5,32(sp)
     9f8:	004d                	c.nop	19
     9fa:	f480                	fsw	fs0,40(s1)
     9fc:	004d                	c.nop	19
     9fe:	0180                	addi	s0,sp,192
     a00:	6100                	flw	fs0,0(a0)
	...
     a0a:	4d1c                	lw	a5,24(a0)
     a0c:	8000                	0x8000
     a0e:	4d30                	lw	a2,88(a0)
     a10:	8000                	0x8000
     a12:	0001                	nop
     a14:	3061                	jal	29c <_tbss_end+0x218>
     a16:	004d                	c.nop	19
     a18:	3a80                	fld	fs0,48(a3)
     a1a:	004d                	c.nop	19
     a1c:	0180                	addi	s0,sp,192
     a1e:	5c00                	lw	s0,56(s0)
     a20:	4d3a                	lw	s10,140(sp)
     a22:	8000                	0x8000
     a24:	4d48                	lw	a0,28(a0)
     a26:	8000                	0x8000
     a28:	0001                	nop
     a2a:	ec61                	bnez	s0,b02 <_tbss_end+0xa7e>
     a2c:	004d                	c.nop	19
     a2e:	f080                	fsw	fs0,32(s1)
     a30:	004d                	c.nop	19
     a32:	0180                	addi	s0,sp,192
     a34:	5c00                	lw	s0,56(s0)
	...
     a3e:	4cec                	lw	a1,92(s1)
     a40:	8000                	0x8000
     a42:	4cf2                	lw	s9,28(sp)
     a44:	8000                	0x8000
     a46:	0001                	nop
     a48:	f661                	bnez	a2,a10 <_tbss_end+0x98c>
     a4a:	004c                	addi	a1,sp,4
     a4c:	fc80                	fsw	fs0,56(s1)
     a4e:	004c                	addi	a1,sp,4
     a50:	0180                	addi	s0,sp,192
     a52:	5c00                	lw	s0,56(s0)
     a54:	4cfc                	lw	a5,92(s1)
     a56:	8000                	0x8000
     a58:	4d00                	lw	s0,24(a0)
     a5a:	8000                	0x8000
     a5c:	0006                	c.slli	zero,0x1
     a5e:	0081                	addi	ra,ra,0
     a60:	0075                	c.nop	29
     a62:	9f21                	0x9f21
     a64:	4d00                	lw	s0,24(a0)
     a66:	8000                	0x8000
     a68:	4d1c                	lw	a5,24(a0)
     a6a:	8000                	0x8000
     a6c:	0001                	nop
     a6e:	f05c                	fsw	fa5,36(s0)
     a70:	004d                	c.nop	19
     a72:	f480                	fsw	fs0,40(s1)
     a74:	004d                	c.nop	19
     a76:	0180                	addi	s0,sp,192
     a78:	5c00                	lw	s0,56(s0)
	...
     a82:	4d1c                	lw	a5,24(a0)
     a84:	8000                	0x8000
     a86:	4d26                	lw	s10,72(sp)
     a88:	8000                	0x8000
     a8a:	0001                	nop
     a8c:	265c                	fld	fa5,136(a2)
     a8e:	004d                	c.nop	19
     a90:	2c80                	fld	fs0,24(s1)
     a92:	004d                	c.nop	19
     a94:	0180                	addi	s0,sp,192
     a96:	5e00                	lw	s0,56(a2)
     a98:	4d2c                	lw	a1,88(a0)
     a9a:	8000                	0x8000
     a9c:	4d30                	lw	a2,88(a0)
     a9e:	8000                	0x8000
     aa0:	0008                	0x8
     aa2:	007c                	addi	a5,sp,12
     aa4:	2440                	fld	fs0,136(s0)
     aa6:	9f21007b          	0x9f21007b
     aaa:	4d30                	lw	a2,88(a0)
     aac:	8000                	0x8000
     aae:	4dce                	lw	s11,208(sp)
     ab0:	8000                	0x8000
     ab2:	0001                	nop
     ab4:	ec5e                	fsw	fs7,24(sp)
     ab6:	004d                	c.nop	19
     ab8:	f080                	fsw	fs0,32(s1)
     aba:	004d                	c.nop	19
     abc:	0180                	addi	s0,sp,192
     abe:	5e00                	lw	s0,56(a2)
     ac0:	4df8                	lw	a4,92(a1)
     ac2:	8000                	0x8000
     ac4:	4e02                	lw	t3,0(sp)
     ac6:	8000                	0x8000
     ac8:	0001                	nop
     aca:	005e                	c.slli	zero,0x17
     acc:	0000                	unimp
     ace:	0000                	unimp
     ad0:	0000                	unimp
     ad2:	f000                	fsw	fs0,32(s0)
     ad4:	004c                	addi	a1,sp,4
     ad6:	2080                	fld	fs0,0(s1)
     ad8:	004d                	c.nop	19
     ada:	0180                	addi	s0,sp,192
     adc:	6d00                	flw	fs0,24(a0)
     ade:	4d20                	lw	s0,88(a0)
     ae0:	8000                	0x8000
     ae2:	4dce                	lw	s11,208(sp)
     ae4:	8000                	0x8000
     ae6:	0001                	nop
     ae8:	004dec6f          	jal	s8,deaec <_tbss_end+0xdea68>
     aec:	f080                	fsw	fs0,32(s1)
     aee:	004d                	c.nop	19
     af0:	0180                	addi	s0,sp,192
     af2:	6f00                	flw	fs0,24(a4)
     af4:	4df0                	lw	a2,92(a1)
     af6:	8000                	0x8000
     af8:	4df4                	lw	a3,92(a1)
     afa:	8000                	0x8000
     afc:	0001                	nop
     afe:	f86d                	bnez	s0,af0 <_tbss_end+0xa6c>
     b00:	004d                	c.nop	19
     b02:	0280                	addi	s0,sp,320
     b04:	004e                	c.slli	zero,0x13
     b06:	0180                	addi	s0,sp,192
     b08:	6f00                	flw	fs0,24(a4)
	...
     b12:	4d60                	lw	s0,92(a0)
     b14:	8000                	0x8000
     b16:	4d8c                	lw	a1,24(a1)
     b18:	8000                	0x8000
     b1a:	0001                	nop
     b1c:	0055                	c.nop	21
     b1e:	0000                	unimp
     b20:	0000                	unimp
     b22:	0000                	unimp
     b24:	7400                	flw	fs0,40(s0)
     b26:	004d                	c.nop	19
     b28:	8680                	0x8680
     b2a:	004d                	c.nop	19
     b2c:	0180                	addi	s0,sp,192
     b2e:	5c00                	lw	s0,56(s0)
     b30:	4d86                	lw	s11,64(sp)
     b32:	8000                	0x8000
     b34:	4d8c                	lw	a1,24(a1)
     b36:	8000                	0x8000
     b38:	0008                	0x8
     b3a:	0075                	c.nop	29
     b3c:	2540                	fld	fs0,136(a0)
     b3e:	008d                	addi	ra,ra,3
     b40:	9f22                	add	t5,t5,s0
	...
     b4a:	4d64                	lw	s1,92(a0)
     b4c:	8000                	0x8000
     b4e:	4d7c                	lw	a5,92(a0)
     b50:	8000                	0x8000
     b52:	0001                	nop
     b54:	0061                	c.nop	24
     b56:	0000                	unimp
     b58:	0000                	unimp
     b5a:	0000                	unimp
     b5c:	7400                	flw	fs0,40(s0)
     b5e:	004d                	c.nop	19
     b60:	8e80                	0x8e80
     b62:	004d                	c.nop	19
     b64:	0180                	addi	s0,sp,192
     b66:	5600                	lw	s0,40(a2)
	...
     b70:	4d60                	lw	s0,92(a0)
     b72:	8000                	0x8000
     b74:	4d6c                	lw	a1,92(a0)
     b76:	8000                	0x8000
     b78:	0001                	nop
     b7a:	006d                	c.nop	27
     b7c:	0000                	unimp
     b7e:	0000                	unimp
     b80:	0000                	unimp
     b82:	6000                	flw	fs0,0(s0)
     b84:	004d                	c.nop	19
     b86:	6480                	flw	fs0,8(s1)
     b88:	004d                	c.nop	19
     b8a:	0180                	addi	s0,sp,192
     b8c:	6100                	flw	fs0,0(a0)
     b8e:	4d64                	lw	s1,92(a0)
     b90:	8000                	0x8000
     b92:	4d7e                	lw	s10,220(sp)
     b94:	8000                	0x8000
     b96:	0006                	c.slli	zero,0x1
     b98:	007f7f77          	0x7f7f77
     b9c:	9f1a                	add	t5,t5,t1
     b9e:	4d7e                	lw	s10,220(sp)
     ba0:	8000                	0x8000
     ba2:	4d9e                	lw	s11,196(sp)
     ba4:	8000                	0x8000
     ba6:	0006                	c.slli	zero,0x1
     ba8:	007f                	0x7f
     baa:	0081                	addi	ra,ra,0
     bac:	9f1a                	add	t5,t5,t1
     bae:	4da0                	lw	s0,88(a1)
     bb0:	8000                	0x8000
     bb2:	4da4                	lw	s1,88(a1)
     bb4:	8000                	0x8000
     bb6:	0006                	c.slli	zero,0x1
     bb8:	007f                	0x7f
     bba:	0081                	addi	ra,ra,0
     bbc:	9f1a                	add	t5,t5,t1
     bbe:	4df8                	lw	a4,92(a1)
     bc0:	8000                	0x8000
     bc2:	4dfe                	lw	s11,220(sp)
     bc4:	8000                	0x8000
     bc6:	0006                	c.slli	zero,0x1
     bc8:	007f                	0x7f
     bca:	0081                	addi	ra,ra,0
     bcc:	9f1a                	add	t5,t5,t1
	...
     bd6:	4d60                	lw	s0,92(a0)
     bd8:	8000                	0x8000
     bda:	4d74                	lw	a3,92(a0)
     bdc:	8000                	0x8000
     bde:	0001                	nop
     be0:	0056                	c.slli	zero,0x15
     be2:	0000                	unimp
     be4:	0000                	unimp
     be6:	0000                	unimp
     be8:	a400                	fsd	fs0,8(s0)
     bea:	004d                	c.nop	19
     bec:	b280                	fsd	fs0,32(a3)
     bee:	004d                	c.nop	19
     bf0:	0180                	addi	s0,sp,192
     bf2:	5f00                	lw	s0,56(a4)
	...
     bfc:	4db6                	lw	s11,76(sp)
     bfe:	8000                	0x8000
     c00:	4dce                	lw	s11,208(sp)
     c02:	8000                	0x8000
     c04:	0001                	nop
     c06:	005f 0000 0000      	0x5f
     c0c:	0000                	unimp
     c0e:	0200                	addi	s0,sp,256
     c10:	004e                	c.slli	zero,0x13
     c12:	5480                	lw	s0,40(s1)
     c14:	004e                	c.slli	zero,0x13
     c16:	0680                	addi	s0,sp,832
     c18:	5a00                	lw	s0,48(a2)
     c1a:	935b0493          	addi	s1,s6,-1739
     c1e:	5404                	lw	s1,40(s0)
     c20:	004e                	c.slli	zero,0x13
     c22:	b880                	fsd	fs0,48(s1)
     c24:	004e                	c.slli	zero,0x13
     c26:	0680                	addi	s0,sp,832
     c28:	f300                	fsw	fs0,32(a4)
     c2a:	250af503          	0x250af503
     c2e:	b89f 004e f080      	0xf080004eb89f
     c34:	004e                	c.slli	zero,0x13
     c36:	0680                	addi	s0,sp,832
     c38:	5a00                	lw	s0,48(a2)
     c3a:	935b0493          	addi	s1,s6,-1739
     c3e:	f004                	fsw	fs1,32(s0)
     c40:	004e                	c.slli	zero,0x13
     c42:	f880                	fsw	fs0,48(s1)
     c44:	004e                	c.slli	zero,0x13
     c46:	0680                	addi	s0,sp,832
     c48:	f300                	fsw	fs0,32(a4)
     c4a:	250af503          	0x250af503
     c4e:	f89f 004e 4680      	0x4680004ef89f
     c54:	0680004f          	fnmadd.q	ft0,ft0,fs0,ft0,rne
     c58:	5a00                	lw	s0,48(a2)
     c5a:	935b0493          	addi	s1,s6,-1739
     c5e:	4604                	lw	s1,8(a2)
     c60:	9a80004f          	fnmadd.d	ft0,ft0,fs0,fs3,rne
     c64:	0680004f          	fnmadd.q	ft0,ft0,fs0,ft0,rne
     c68:	f300                	fsw	fs0,32(a4)
     c6a:	250af503          	0x250af503
     c6e:	9a9f 004f 9e80      	0x9e80004f9a9f
     c74:	0680004f          	fnmadd.q	ft0,ft0,fs0,ft0,rne
     c78:	5a00                	lw	s0,48(a2)
     c7a:	935b0493          	addi	s1,s6,-1739
     c7e:	9e04                	0x9e04
     c80:	a080004f          	fnmadd.s	ft0,ft0,fs0,fs4,rne
     c84:	0680004f          	fnmadd.q	ft0,ft0,fs0,ft0,rne
     c88:	f300                	fsw	fs0,32(a4)
     c8a:	250af503          	0x250af503
     c8e:	a09f 004f d480      	0xd480004fa09f
     c94:	0680004f          	fnmadd.q	ft0,ft0,fs0,ft0,rne
     c98:	5a00                	lw	s0,48(a2)
     c9a:	935b0493          	addi	s1,s6,-1739
     c9e:	d404                	sw	s1,40(s0)
     ca0:	dc80004f          	0xdc80004f
     ca4:	0680004f          	fnmadd.q	ft0,ft0,fs0,ft0,rne
     ca8:	f300                	fsw	fs0,32(a4)
     caa:	250af503          	0x250af503
     cae:	dc9f 004f a080      	0xa080004fdc9f
     cb4:	0050                	addi	a2,sp,4
     cb6:	0680                	addi	s0,sp,832
     cb8:	5a00                	lw	s0,48(a2)
     cba:	935b0493          	addi	s1,s6,-1739
     cbe:	a004                	fsd	fs1,0(s0)
     cc0:	0050                	addi	a2,sp,4
     cc2:	a480                	fsd	fs0,8(s1)
     cc4:	0050                	addi	a2,sp,4
     cc6:	0680                	addi	s0,sp,832
     cc8:	f300                	fsw	fs0,32(a4)
     cca:	250af503          	0x250af503
     cce:	a49f 0050 4880      	0x48800050a49f
     cd4:	0051                	c.nop	20
     cd6:	0680                	addi	s0,sp,832
     cd8:	5a00                	lw	s0,48(a2)
     cda:	935b0493          	addi	s1,s6,-1739
     cde:	4804                	lw	s1,16(s0)
     ce0:	0051                	c.nop	20
     ce2:	4c80                	lw	s0,24(s1)
     ce4:	0051                	c.nop	20
     ce6:	0680                	addi	s0,sp,832
     ce8:	f300                	fsw	fs0,32(a4)
     cea:	250af503          	0x250af503
     cee:	4c9f 0051 6e80      	0x6e8000514c9f
     cf4:	0051                	c.nop	20
     cf6:	0680                	addi	s0,sp,832
     cf8:	5a00                	lw	s0,48(a2)
     cfa:	935b0493          	addi	s1,s6,-1739
     cfe:	6e04                	flw	fs1,24(a2)
     d00:	0051                	c.nop	20
     d02:	7080                	flw	fs0,32(s1)
     d04:	0051                	c.nop	20
     d06:	0680                	addi	s0,sp,832
     d08:	f300                	fsw	fs0,32(a4)
     d0a:	250af503          	0x250af503
     d0e:	709f 0051 8c80      	0x8c800051709f
     d14:	0051                	c.nop	20
     d16:	0680                	addi	s0,sp,832
     d18:	5a00                	lw	s0,48(a2)
     d1a:	935b0493          	addi	s1,s6,-1739
     d1e:	8c04                	0x8c04
     d20:	0051                	c.nop	20
     d22:	9880                	0x9880
     d24:	0051                	c.nop	20
     d26:	0680                	addi	s0,sp,832
     d28:	f300                	fsw	fs0,32(a4)
     d2a:	250af503          	0x250af503
     d2e:	009f 0000 0000      	0x9f
     d34:	0000                	unimp
     d36:	0200                	addi	s0,sp,256
     d38:	004e                	c.slli	zero,0x13
     d3a:	5080                	lw	s0,32(s1)
     d3c:	004e                	c.slli	zero,0x13
     d3e:	0680                	addi	s0,sp,832
     d40:	5c00                	lw	s0,56(s0)
     d42:	935d0493          	addi	s1,s10,-1739 # fffe8935 <__global_pointer$+0x6ffe8135>
     d46:	5004                	lw	s1,32(s0)
     d48:	004e                	c.slli	zero,0x13
     d4a:	b880                	fsd	fs0,48(s1)
     d4c:	004e                	c.slli	zero,0x13
     d4e:	0680                	addi	s0,sp,832
     d50:	f300                	fsw	fs0,32(a4)
     d52:	250cf503          	0x250cf503
     d56:	b89f 004e 3e80      	0x3e80004eb89f
     d5c:	0680004f          	fnmadd.q	ft0,ft0,fs0,ft0,rne
     d60:	5c00                	lw	s0,56(s0)
     d62:	935d0493          	addi	s1,s10,-1739
     d66:	3e04                	fld	fs1,56(a2)
     d68:	9a80004f          	fnmadd.d	ft0,ft0,fs0,fs3,rne
     d6c:	0680004f          	fnmadd.q	ft0,ft0,fs0,ft0,rne
     d70:	f300                	fsw	fs0,32(a4)
     d72:	250cf503          	0x250cf503
     d76:	9a9f 004f d480      	0xd480004f9a9f
     d7c:	0680004f          	fnmadd.q	ft0,ft0,fs0,ft0,rne
     d80:	5c00                	lw	s0,56(s0)
     d82:	935d0493          	addi	s1,s10,-1739
     d86:	d404                	sw	s1,40(s0)
     d88:	dc80004f          	0xdc80004f
     d8c:	0680004f          	fnmadd.q	ft0,ft0,fs0,ft0,rne
     d90:	f300                	fsw	fs0,32(a4)
     d92:	250cf503          	0x250cf503
     d96:	dc9f 004f 0e80      	0xe80004fdc9f
     d9c:	0050                	addi	a2,sp,4
     d9e:	0680                	addi	s0,sp,832
     da0:	5c00                	lw	s0,56(s0)
     da2:	935d0493          	addi	s1,s10,-1739
     da6:	0e04                	addi	s1,sp,784
     da8:	0050                	addi	a2,sp,4
     daa:	a480                	fsd	fs0,8(s1)
     dac:	0050                	addi	a2,sp,4
     dae:	0680                	addi	s0,sp,832
     db0:	f300                	fsw	fs0,32(a4)
     db2:	250cf503          	0x250cf503
     db6:	a49f 0050 ac80      	0xac800050a49f
     dbc:	0050                	addi	a2,sp,4
     dbe:	0680                	addi	s0,sp,832
     dc0:	5c00                	lw	s0,56(s0)
     dc2:	935d0493          	addi	s1,s10,-1739
     dc6:	ac04                	fsd	fs1,24(s0)
     dc8:	0050                	addi	a2,sp,4
     dca:	4c80                	lw	s0,24(s1)
     dcc:	0051                	c.nop	20
     dce:	0680                	addi	s0,sp,832
     dd0:	f300                	fsw	fs0,32(a4)
     dd2:	250cf503          	0x250cf503
     dd6:	4c9f 0051 7080      	0x708000514c9f
     ddc:	0051                	c.nop	20
     dde:	0680                	addi	s0,sp,832
     de0:	5c00                	lw	s0,56(s0)
     de2:	935d0493          	addi	s1,s10,-1739
     de6:	7004                	flw	fs1,32(s0)
     de8:	0051                	c.nop	20
     dea:	9880                	0x9880
     dec:	0051                	c.nop	20
     dee:	0680                	addi	s0,sp,832
     df0:	f300                	fsw	fs0,32(a4)
     df2:	250cf503          	0x250cf503
     df6:	009f 0000 0000      	0x9f
     dfc:	0000                	unimp
     dfe:	0200                	addi	s0,sp,256
     e00:	004e                	c.slli	zero,0x13
     e02:	b680                	fsd	fs0,40(a3)
     e04:	004e                	c.slli	zero,0x13
     e06:	0280                	addi	s0,sp,320
     e08:	3000                	fld	fs0,32(s0)
     e0a:	b89f 004e f680      	0xf680004eb89f
     e10:	004e                	c.slli	zero,0x13
     e12:	0280                	addi	s0,sp,320
     e14:	3000                	fld	fs0,32(s0)
     e16:	f89f 004e 9880      	0x9880004ef89f
     e1c:	0280004f          	fnmadd.d	ft0,ft0,fs0,ft0,rne
     e20:	3000                	fld	fs0,32(s0)
     e22:	9a9f 004f 9e80      	0x9e80004f9a9f
     e28:	0280004f          	fnmadd.d	ft0,ft0,fs0,ft0,rne
     e2c:	3000                	fld	fs0,32(s0)
     e2e:	a09f 004f a280      	0xa280004fa09f
     e34:	0050                	addi	a2,sp,4
     e36:	0280                	addi	s0,sp,320
     e38:	3000                	fld	fs0,32(s0)
     e3a:	a49f 0050 4a80      	0x4a800050a49f
     e40:	0051                	c.nop	20
     e42:	0280                	addi	s0,sp,320
     e44:	3000                	fld	fs0,32(s0)
     e46:	4c9f 0051 6e80      	0x6e8000514c9f
     e4c:	0051                	c.nop	20
     e4e:	0280                	addi	s0,sp,320
     e50:	3000                	fld	fs0,32(s0)
     e52:	709f 0051 9880      	0x98800051709f
     e58:	0051                	c.nop	20
     e5a:	0280                	addi	s0,sp,320
     e5c:	3000                	fld	fs0,32(s0)
     e5e:	009f 0000 0000      	0x9f
     e64:	0000                	unimp
     e66:	0200                	addi	s0,sp,256
     e68:	004e                	c.slli	zero,0x13
     e6a:	2280                	fld	fs0,0(a3)
     e6c:	004e                	c.slli	zero,0x13
     e6e:	0680                	addi	s0,sp,832
     e70:	5c00                	lw	s0,56(s0)
     e72:	935d0493          	addi	s1,s10,-1739
     e76:	b804                	fsd	fs1,48(s0)
     e78:	004e                	c.slli	zero,0x13
     e7a:	f680                	fsw	fs0,40(a3)
     e7c:	004e                	c.slli	zero,0x13
     e7e:	0680                	addi	s0,sp,832
     e80:	5c00                	lw	s0,56(s0)
     e82:	935d0493          	addi	s1,s10,-1739
     e86:	f804                	fsw	fs1,48(s0)
     e88:	004e                	c.slli	zero,0x13
     e8a:	1280                	addi	s0,sp,352
     e8c:	0680004f          	fnmadd.q	ft0,ft0,fs0,ft0,rne
     e90:	5c00                	lw	s0,56(s0)
     e92:	935d0493          	addi	s1,s10,-1739
     e96:	9a04                	0x9a04
     e98:	9e80004f          	fnmadd.q	ft0,ft0,fs0,fs3,rne
     e9c:	0680004f          	fnmadd.q	ft0,ft0,fs0,ft0,rne
     ea0:	5c00                	lw	s0,56(s0)
     ea2:	935d0493          	addi	s1,s10,-1739
     ea6:	a004                	fsd	fs1,0(s0)
     ea8:	b680004f          	fnmadd.q	ft0,ft0,fs0,fs6,rne
     eac:	0680004f          	fnmadd.q	ft0,ft0,fs0,ft0,rne
     eb0:	5c00                	lw	s0,56(s0)
     eb2:	935d0493          	addi	s1,s10,-1739
     eb6:	b604                	fsd	fs1,40(a2)
     eb8:	c080004f          	fnmadd.s	ft0,ft0,fs0,fs8,rne
     ebc:	0680004f          	fnmadd.q	ft0,ft0,fs0,ft0,rne
     ec0:	5c00                	lw	s0,56(s0)
     ec2:	935f0493          	addi	s1,t5,-1739 # 25b97 <_tbss_end+0x25b13>
     ec6:	c204                	sw	s1,0(a2)
     ec8:	c880004f          	fnmadd.s	ft0,ft0,fs0,fs9,rne
     ecc:	0680004f          	fnmadd.q	ft0,ft0,fs0,ft0,rne
     ed0:	5c00                	lw	s0,56(s0)
     ed2:	935d0493          	addi	s1,s10,-1739
     ed6:	c804                	sw	s1,16(s0)
     ed8:	d280004f          	fnmadd.d	ft0,ft0,fs0,fs10,rne
     edc:	0680004f          	fnmadd.q	ft0,ft0,fs0,ft0,rne
     ee0:	5c00                	lw	s0,56(s0)
     ee2:	935f0493          	addi	s1,t5,-1739
     ee6:	dc04                	sw	s1,56(s0)
     ee8:	e480004f          	0xe480004f
     eec:	0680004f          	fnmadd.q	ft0,ft0,fs0,ft0,rne
     ef0:	5c00                	lw	s0,56(s0)
     ef2:	935d0493          	addi	s1,s10,-1739
     ef6:	4c04                	lw	s1,24(s0)
     ef8:	0051                	c.nop	20
     efa:	5e80                	lw	s0,56(a3)
     efc:	0051                	c.nop	20
     efe:	0680                	addi	s0,sp,832
     f00:	5c00                	lw	s0,56(s0)
     f02:	935d0493          	addi	s1,s10,-1739
     f06:	6204                	flw	fs1,0(a2)
     f08:	0051                	c.nop	20
     f0a:	6680                	flw	fs0,8(a3)
     f0c:	0051                	c.nop	20
     f0e:	0680                	addi	s0,sp,832
     f10:	5c00                	lw	s0,56(s0)
     f12:	935d0493          	addi	s1,s10,-1739
     f16:	6a04                	flw	fs1,16(a2)
     f18:	0051                	c.nop	20
     f1a:	6e80                	flw	fs0,24(a3)
     f1c:	0051                	c.nop	20
     f1e:	0680                	addi	s0,sp,832
     f20:	5c00                	lw	s0,56(s0)
     f22:	935d0493          	addi	s1,s10,-1739
     f26:	0004                	0x4
     f28:	0000                	unimp
     f2a:	0000                	unimp
     f2c:	0000                	unimp
     f2e:	0200                	addi	s0,sp,256
     f30:	004e                	c.slli	zero,0x13
     f32:	5480                	lw	s0,40(s1)
     f34:	004e                	c.slli	zero,0x13
     f36:	0680                	addi	s0,sp,832
     f38:	5a00                	lw	s0,48(a2)
     f3a:	935b0493          	addi	s1,s6,-1739
     f3e:	b804                	fsd	fs1,48(s0)
     f40:	004e                	c.slli	zero,0x13
     f42:	e480                	fsw	fs0,8(s1)
     f44:	004e                	c.slli	zero,0x13
     f46:	0680                	addi	s0,sp,832
     f48:	5600                	lw	s0,40(a2)
     f4a:	935b0493          	addi	s1,s6,-1739
     f4e:	e404                	fsw	fs1,8(s0)
     f50:	004e                	c.slli	zero,0x13
     f52:	f080                	fsw	fs0,32(s1)
     f54:	004e                	c.slli	zero,0x13
     f56:	0680                	addi	s0,sp,832
     f58:	5a00                	lw	s0,48(a2)
     f5a:	935b0493          	addi	s1,s6,-1739
     f5e:	f804                	fsw	fs1,48(s0)
     f60:	004e                	c.slli	zero,0x13
     f62:	3e80                	fld	fs0,56(a3)
     f64:	0680004f          	fnmadd.q	ft0,ft0,fs0,ft0,rne
     f68:	5600                	lw	s0,40(a2)
     f6a:	935b0493          	addi	s1,s6,-1739
     f6e:	9a04                	0x9a04
     f70:	9c80004f          	0x9c80004f
     f74:	0680004f          	fnmadd.q	ft0,ft0,fs0,ft0,rne
     f78:	5600                	lw	s0,40(a2)
     f7a:	935b0493          	addi	s1,s6,-1739
     f7e:	9c04                	0x9c04
     f80:	9e80004f          	fnmadd.q	ft0,ft0,fs0,fs3,rne
     f84:	0680004f          	fnmadd.q	ft0,ft0,fs0,ft0,rne
     f88:	5600                	lw	s0,40(a2)
     f8a:	93600493          	li	s1,-1738
     f8e:	a004                	fsd	fs1,0(s0)
     f90:	d480004f          	0xd480004f
     f94:	0680004f          	fnmadd.q	ft0,ft0,fs0,ft0,rne
     f98:	5600                	lw	s0,40(a2)
     f9a:	935b0493          	addi	s1,s6,-1739
     f9e:	dc04                	sw	s1,56(s0)
     fa0:	1680004f          	fnmadd.q	ft0,ft0,fs0,ft2,rne
     fa4:	0050                	addi	a2,sp,4
     fa6:	0680                	addi	s0,sp,832
     fa8:	5a00                	lw	s0,48(a2)
     faa:	935b0493          	addi	s1,s6,-1739
     fae:	a404                	fsd	fs1,8(s0)
     fb0:	0050                	addi	a2,sp,4
     fb2:	ca80                	sw	s0,16(a3)
     fb4:	0050                	addi	a2,sp,4
     fb6:	0680                	addi	s0,sp,832
     fb8:	5600                	lw	s0,40(a2)
     fba:	935b0493          	addi	s1,s6,-1739
     fbe:	ca04                	sw	s1,16(a2)
     fc0:	0050                	addi	a2,sp,4
     fc2:	ce80                	sw	s0,24(a3)
     fc4:	0050                	addi	a2,sp,4
     fc6:	0680                	addi	s0,sp,832
     fc8:	5600                	lw	s0,40(a2)
     fca:	93600493          	li	s1,-1738
     fce:	ce04                	sw	s1,24(a2)
     fd0:	0050                	addi	a2,sp,4
     fd2:	fa80                	fsw	fs0,48(a3)
     fd4:	0050                	addi	a2,sp,4
     fd6:	0680                	addi	s0,sp,832
     fd8:	5a00                	lw	s0,48(a2)
     fda:	93600493          	li	s1,-1738
     fde:	4c04                	lw	s1,24(s0)
     fe0:	0051                	c.nop	20
     fe2:	6a80                	flw	fs0,16(a3)
     fe4:	0051                	c.nop	20
     fe6:	0680                	addi	s0,sp,832
     fe8:	5600                	lw	s0,40(a2)
     fea:	935b0493          	addi	s1,s6,-1739
     fee:	6a04                	flw	fs1,16(a2)
     ff0:	0051                	c.nop	20
     ff2:	6c80                	flw	fs0,24(s1)
     ff4:	0051                	c.nop	20
     ff6:	0680                	addi	s0,sp,832
     ff8:	5a00                	lw	s0,48(a2)
     ffa:	935b0493          	addi	s1,s6,-1739
     ffe:	8804                	0x8804
    1000:	0051                	c.nop	20
    1002:	8c80                	0x8c80
    1004:	0051                	c.nop	20
    1006:	0680                	addi	s0,sp,832
    1008:	5a00                	lw	s0,48(a2)
    100a:	93600493          	li	s1,-1738
    100e:	0004                	0x4
    1010:	0000                	unimp
    1012:	0000                	unimp
    1014:	0000                	unimp
    1016:	0600                	addi	s0,sp,768
    1018:	004e                	c.slli	zero,0x13
    101a:	3880                	fld	fs0,48(s1)
    101c:	004e                	c.slli	zero,0x13
    101e:	0180                	addi	s0,sp,192
    1020:	5c00                	lw	s0,56(s0)
    1022:	4e38                	lw	a4,88(a2)
    1024:	8000                	0x8000
    1026:	4e44                	lw	s1,28(a2)
    1028:	8000                	0x8000
    102a:	0006                	c.slli	zero,0x1
    102c:	007c                	addi	a5,sp,12
    102e:	007e                	c.slli	zero,0x1f
    1030:	9f24                	0x9f24
    1032:	4e44                	lw	s1,28(a2)
    1034:	8000                	0x8000
    1036:	4eb6                	lw	t4,76(sp)
    1038:	8000                	0x8000
    103a:	0001                	nop
    103c:	b861                	j	8d4 <_tbss_end+0x850>
    103e:	004e                	c.slli	zero,0x13
    1040:	f680                	fsw	fs0,40(a3)
    1042:	004e                	c.slli	zero,0x13
    1044:	0180                	addi	s0,sp,192
    1046:	5c00                	lw	s0,56(s0)
    1048:	4ef8                	lw	a4,92(a3)
    104a:	8000                	0x8000
    104c:	4efc                	lw	a5,92(a3)
    104e:	8000                	0x8000
    1050:	0001                	nop
    1052:	fc5c                	fsw	fa5,60(s0)
    1054:	004e                	c.slli	zero,0x13
    1056:	0080                	addi	s0,sp,64
    1058:	0b80004f          	fnmadd.d	ft0,ft0,fs8,ft1,rne
    105c:	3100                	fld	fs0,32(a0)
    105e:	007c2cf7          	0x7c2cf7
    1062:	f71b2cf7          	0xf71b2cf7
    1066:	9f00                	0x9f00
    1068:	4f00                	lw	s0,24(a4)
    106a:	8000                	0x8000
    106c:	4f98                	lw	a4,24(a5)
    106e:	8000                	0x8000
    1070:	0001                	nop
    1072:	9a61                	andi	a2,a2,-8
    1074:	9e80004f          	fnmadd.q	ft0,ft0,fs0,fs3,rne
    1078:	0180004f          	fnmadd.s	ft0,ft0,fs8,ft0,rne
    107c:	5c00                	lw	s0,56(s0)
    107e:	4fa0                	lw	s0,88(a5)
    1080:	8000                	0x8000
    1082:	4fb0                	lw	a2,88(a5)
    1084:	8000                	0x8000
    1086:	0001                	nop
    1088:	b05c                	fsd	fa5,160(s0)
    108a:	ba80004f          	fnmadd.d	ft0,ft0,fs0,fs7,rne
    108e:	0180004f          	fnmadd.s	ft0,ft0,fs8,ft0,rne
    1092:	6100                	flw	fs0,0(a0)
    1094:	4fba                	lw	t6,140(sp)
    1096:	8000                	0x8000
    1098:	4fbe                	lw	t6,204(sp)
    109a:	8000                	0x8000
    109c:	0001                	nop
    109e:	be5d                	j	c54 <_tbss_end+0xbd0>
    10a0:	c280004f          	fnmadd.d	ft0,ft0,fs0,fs8,rne
    10a4:	0180004f          	fnmadd.s	ft0,ft0,fs8,ft0,rne
    10a8:	6100                	flw	fs0,0(a0)
    10aa:	4fc2                	lw	t6,16(sp)
    10ac:	8000                	0x8000
    10ae:	4fd4                	lw	a3,28(a5)
    10b0:	8000                	0x8000
    10b2:	0001                	nop
    10b4:	d45c                	sw	a5,44(s0)
    10b6:	dc80004f          	0xdc80004f
    10ba:	0180004f          	fnmadd.s	ft0,ft0,fs8,ft0,rne
    10be:	6100                	flw	fs0,0(a0)
    10c0:	4fdc                	lw	a5,28(a5)
    10c2:	8000                	0x8000
    10c4:	506e                	0x506e
    10c6:	8000                	0x8000
    10c8:	0001                	nop
    10ca:	a45c                	fsd	fa5,136(s0)
    10cc:	0050                	addi	a2,sp,4
    10ce:	a880                	fsd	fs0,16(s1)
    10d0:	0050                	addi	a2,sp,4
    10d2:	0680                	addi	s0,sp,832
    10d4:	8100                	0x8100
    10d6:	8f00                	0x8f00
    10d8:	2400                	fld	fs0,8(s0)
    10da:	a89f 0050 2e80      	0x2e800050a89f
    10e0:	0051                	c.nop	20
    10e2:	0180                	addi	s0,sp,192
    10e4:	6100                	flw	fs0,0(a0)
    10e6:	514c                	lw	a1,36(a0)
    10e8:	8000                	0x8000
    10ea:	515a                	lw	sp,180(sp)
    10ec:	8000                	0x8000
    10ee:	0001                	nop
    10f0:	5a5c                	lw	a5,52(a2)
    10f2:	0051                	c.nop	20
    10f4:	6280                	flw	fs0,0(a3)
    10f6:	0051                	c.nop	20
    10f8:	0180                	addi	s0,sp,192
    10fa:	6100                	flw	fs0,0(a0)
    10fc:	5162                	lw	sp,56(sp)
    10fe:	8000                	0x8000
    1100:	516e                	lw	sp,248(sp)
    1102:	8000                	0x8000
    1104:	0001                	nop
    1106:	705c                	flw	fa5,36(s0)
    1108:	0051                	c.nop	20
    110a:	8480                	0x8480
    110c:	0051                	c.nop	20
    110e:	0180                	addi	s0,sp,192
    1110:	5c00                	lw	s0,56(s0)
    1112:	5184                	lw	s1,32(a1)
    1114:	8000                	0x8000
    1116:	5198                	lw	a4,32(a1)
    1118:	8000                	0x8000
    111a:	0001                	nop
    111c:	0061                	c.nop	24
    111e:	0000                	unimp
    1120:	0000                	unimp
    1122:	0000                	unimp
    1124:	0600                	addi	s0,sp,768
    1126:	004e                	c.slli	zero,0x13
    1128:	2280                	fld	fs0,0(a3)
    112a:	004e                	c.slli	zero,0x13
    112c:	0180                	addi	s0,sp,192
    112e:	5d00                	lw	s0,56(a0)
    1130:	4eb8                	lw	a4,88(a3)
    1132:	8000                	0x8000
    1134:	4ef6                	lw	t4,92(sp)
    1136:	8000                	0x8000
    1138:	0001                	nop
    113a:	f85d                	bnez	s0,10f0 <_tbss_end+0x106c>
    113c:	004e                	c.slli	zero,0x13
    113e:	1280                	addi	s0,sp,352
    1140:	0180004f          	fnmadd.s	ft0,ft0,fs8,ft0,rne
    1144:	5d00                	lw	s0,56(a0)
    1146:	4f9a                	lw	t6,132(sp)
    1148:	8000                	0x8000
    114a:	4f9e                	lw	t6,196(sp)
    114c:	8000                	0x8000
    114e:	0001                	nop
    1150:	a05d                	j	11f6 <_tbss_end+0x1172>
    1152:	b680004f          	fnmadd.q	ft0,ft0,fs0,fs6,rne
    1156:	0180004f          	fnmadd.s	ft0,ft0,fs8,ft0,rne
    115a:	5d00                	lw	s0,56(a0)
    115c:	4fb6                	lw	t6,76(sp)
    115e:	8000                	0x8000
    1160:	4fc0                	lw	s0,28(a5)
    1162:	8000                	0x8000
    1164:	0001                	nop
    1166:	c25f 004f c880      	0xc880004fc25f
    116c:	0180004f          	fnmadd.s	ft0,ft0,fs8,ft0,rne
    1170:	5d00                	lw	s0,56(a0)
    1172:	4fc8                	lw	a0,28(a5)
    1174:	8000                	0x8000
    1176:	4fd2                	lw	t6,20(sp)
    1178:	8000                	0x8000
    117a:	0001                	nop
    117c:	dc5f 004f e480      	0xe480004fdc5f
    1182:	0180004f          	fnmadd.s	ft0,ft0,fs8,ft0,rne
    1186:	5d00                	lw	s0,56(a0)
    1188:	4fe6                	lw	t6,88(sp)
    118a:	8000                	0x8000
    118c:	507e                	0x507e
    118e:	8000                	0x8000
    1190:	0001                	nop
    1192:	4c5d                	li	s8,23
    1194:	0051                	c.nop	20
    1196:	5e80                	lw	s0,56(a3)
    1198:	0051                	c.nop	20
    119a:	0180                	addi	s0,sp,192
    119c:	5d00                	lw	s0,56(a0)
    119e:	5162                	lw	sp,56(sp)
    11a0:	8000                	0x8000
    11a2:	5166                	lw	sp,120(sp)
    11a4:	8000                	0x8000
    11a6:	0001                	nop
    11a8:	6a5d                	lui	s4,0x17
    11aa:	0051                	c.nop	20
    11ac:	6e80                	flw	fs0,24(a3)
    11ae:	0051                	c.nop	20
    11b0:	0180                	addi	s0,sp,192
    11b2:	5d00                	lw	s0,56(a0)
    11b4:	5170                	lw	a2,100(a0)
    11b6:	8000                	0x8000
    11b8:	5184                	lw	s1,32(a1)
    11ba:	8000                	0x8000
    11bc:	0001                	nop
    11be:	005d                	c.nop	23
    11c0:	0000                	unimp
    11c2:	0000                	unimp
    11c4:	0000                	unimp
    11c6:	0800                	addi	s0,sp,16
    11c8:	004e                	c.slli	zero,0x13
    11ca:	4c80                	lw	s0,24(s1)
    11cc:	004e                	c.slli	zero,0x13
    11ce:	0180                	addi	s0,sp,192
    11d0:	5a00                	lw	s0,48(a2)
    11d2:	4e4c                	lw	a1,28(a2)
    11d4:	8000                	0x8000
    11d6:	4e8a                	lw	t4,128(sp)
    11d8:	8000                	0x8000
    11da:	0001                	nop
    11dc:	b856                	fsd	fs5,48(sp)
    11de:	004e                	c.slli	zero,0x13
    11e0:	e480                	fsw	fs0,8(s1)
    11e2:	004e                	c.slli	zero,0x13
    11e4:	0180                	addi	s0,sp,192
    11e6:	5600                	lw	s0,40(a2)
    11e8:	4ee4                	lw	s1,92(a3)
    11ea:	8000                	0x8000
    11ec:	4ef0                	lw	a2,92(a3)
    11ee:	8000                	0x8000
    11f0:	0001                	nop
    11f2:	f85a                	fsw	fs6,48(sp)
    11f4:	004e                	c.slli	zero,0x13
    11f6:	6e80                	flw	fs0,24(a3)
    11f8:	0180004f          	fnmadd.s	ft0,ft0,fs8,ft0,rne
    11fc:	5600                	lw	s0,40(a2)
    11fe:	4f9a                	lw	t6,132(sp)
    1200:	8000                	0x8000
    1202:	4f9e                	lw	t6,196(sp)
    1204:	8000                	0x8000
    1206:	0001                	nop
    1208:	a056                	fsd	fs5,0(sp)
    120a:	d480004f          	0xd480004f
    120e:	0180004f          	fnmadd.s	ft0,ft0,fs8,ft0,rne
    1212:	5600                	lw	s0,40(a2)
    1214:	4fdc                	lw	a5,28(a5)
    1216:	8000                	0x8000
    1218:	500e                	0x500e
    121a:	8000                	0x8000
    121c:	0001                	nop
    121e:	0e5a                	slli	t3,t3,0x16
    1220:	0050                	addi	a2,sp,4
    1222:	a080                	fsd	fs0,0(s1)
    1224:	0050                	addi	a2,sp,4
    1226:	0680                	addi	s0,sp,832
    1228:	7a00                	flw	fs0,48(a2)
    122a:	7600                	flw	fs0,40(a2)
    122c:	2400                	fld	fs0,8(s0)
    122e:	a49f 0050 2e80      	0x2e800050a49f
    1234:	0051                	c.nop	20
    1236:	0180                	addi	s0,sp,192
    1238:	5600                	lw	s0,40(a2)
    123a:	512e                	lw	sp,232(sp)
    123c:	8000                	0x8000
    123e:	5148                	lw	a0,36(a0)
    1240:	8000                	0x8000
    1242:	0006                	c.slli	zero,0x1
    1244:	007a                	c.slli	zero,0x1e
    1246:	0076                	c.slli	zero,0x1d
    1248:	9f24                	0x9f24
    124a:	514c                	lw	a1,36(a0)
    124c:	8000                	0x8000
    124e:	516a                	lw	sp,184(sp)
    1250:	8000                	0x8000
    1252:	0001                	nop
    1254:	6a56                	flw	fs4,84(sp)
    1256:	0051                	c.nop	20
    1258:	6e80                	flw	fs0,24(a3)
    125a:	0051                	c.nop	20
    125c:	0180                	addi	s0,sp,192
    125e:	5a00                	lw	s0,48(a2)
    1260:	5170                	lw	a2,100(a0)
    1262:	8000                	0x8000
    1264:	5184                	lw	s1,32(a1)
    1266:	8000                	0x8000
    1268:	0006                	c.slli	zero,0x1
    126a:	007a                	c.slli	zero,0x1e
    126c:	0076                	c.slli	zero,0x1d
    126e:	9f24                	0x9f24
    1270:	5184                	lw	s1,32(a1)
    1272:	8000                	0x8000
    1274:	5198                	lw	a4,32(a1)
    1276:	8000                	0x8000
    1278:	0001                	nop
    127a:	0056                	c.slli	zero,0x15
    127c:	0000                	unimp
    127e:	0000                	unimp
    1280:	0000                	unimp
    1282:	0a00                	addi	s0,sp,272
    1284:	004e                	c.slli	zero,0x13
    1286:	4880                	lw	s0,16(s1)
    1288:	004e                	c.slli	zero,0x13
    128a:	0180                	addi	s0,sp,192
    128c:	5b00                	lw	s0,48(a4)
    128e:	4e48                	lw	a0,28(a2)
    1290:	8000                	0x8000
    1292:	4e6c                	lw	a1,92(a2)
    1294:	8000                	0x8000
    1296:	0001                	nop
    1298:	b860                	fsd	fs0,240(s0)
    129a:	004e                	c.slli	zero,0x13
    129c:	f680                	fsw	fs0,40(a3)
    129e:	004e                	c.slli	zero,0x13
    12a0:	0180                	addi	s0,sp,192
    12a2:	5b00                	lw	s0,48(a4)
    12a4:	4ef8                	lw	a4,92(a3)
    12a6:	8000                	0x8000
    12a8:	4f34                	lw	a3,88(a4)
    12aa:	8000                	0x8000
    12ac:	0001                	nop
    12ae:	004f345b          	0x4f345b
    12b2:	4a80                	lw	s0,16(a3)
    12b4:	0180004f          	fnmadd.s	ft0,ft0,fs8,ft0,rne
    12b8:	5e00                	lw	s0,56(a2)
    12ba:	4f9a                	lw	t6,132(sp)
    12bc:	8000                	0x8000
    12be:	4f9c                	lw	a5,24(a5)
    12c0:	8000                	0x8000
    12c2:	0001                	nop
    12c4:	004f9c5b          	0x4f9c5b
    12c8:	9e80                	0x9e80
    12ca:	0180004f          	fnmadd.s	ft0,ft0,fs8,ft0,rne
    12ce:	6000                	flw	fs0,0(s0)
    12d0:	4fa0                	lw	s0,88(a5)
    12d2:	8000                	0x8000
    12d4:	4fd4                	lw	a3,28(a5)
    12d6:	8000                	0x8000
    12d8:	0001                	nop
    12da:	004fdc5b          	0x4fdc5b
    12de:	0e80                	addi	s0,sp,848
    12e0:	0050                	addi	a2,sp,4
    12e2:	0180                	addi	s0,sp,192
    12e4:	5b00                	lw	s0,48(a4)
    12e6:	500e                	0x500e
    12e8:	8000                	0x8000
    12ea:	5034                	lw	a3,96(s0)
    12ec:	8000                	0x8000
    12ee:	0001                	nop
    12f0:	7660                	flw	fs0,108(a2)
    12f2:	0050                	addi	a2,sp,4
    12f4:	a280                	fsd	fs0,0(a3)
    12f6:	0050                	addi	a2,sp,4
    12f8:	0180                	addi	s0,sp,192
    12fa:	5b00                	lw	s0,48(a4)
    12fc:	50a4                	lw	s1,96(s1)
    12fe:	8000                	0x8000
    1300:	50c6                	lw	ra,112(sp)
    1302:	8000                	0x8000
    1304:	0001                	nop
    1306:	0050c65b          	0x50c65b
    130a:	0a80                	addi	s0,sp,336
    130c:	0051                	c.nop	20
    130e:	0180                	addi	s0,sp,192
    1310:	5e00                	lw	s0,56(a2)
    1312:	512a                	lw	sp,168(sp)
    1314:	8000                	0x8000
    1316:	512e                	lw	sp,232(sp)
    1318:	8000                	0x8000
    131a:	0001                	nop
    131c:	2e5e                	fld	ft8,464(sp)
    131e:	0051                	c.nop	20
    1320:	4a80                	lw	s0,16(a3)
    1322:	0051                	c.nop	20
    1324:	0180                	addi	s0,sp,192
    1326:	5b00                	lw	s0,48(a4)
    1328:	514c                	lw	a1,36(a0)
    132a:	8000                	0x8000
    132c:	516c                	lw	a1,100(a0)
    132e:	8000                	0x8000
    1330:	0001                	nop
    1332:	00517a5b          	0x517a5b
    1336:	8480                	0x8480
    1338:	0051                	c.nop	20
    133a:	0180                	addi	s0,sp,192
    133c:	6000                	flw	fs0,0(s0)
    133e:	5188                	lw	a0,32(a1)
    1340:	8000                	0x8000
    1342:	518c                	lw	a1,32(a1)
    1344:	8000                	0x8000
    1346:	0001                	nop
    1348:	005e                	c.slli	zero,0x17
    134a:	0000                	unimp
    134c:	0000                	unimp
    134e:	0000                	unimp
    1350:	0e00                	addi	s0,sp,784
    1352:	0050                	addi	a2,sp,4
    1354:	1280                	addi	s0,sp,352
    1356:	0050                	addi	a2,sp,4
    1358:	0180                	addi	s0,sp,192
    135a:	6100                	flw	fs0,0(a0)
    135c:	50ac                	lw	a1,96(s1)
    135e:	8000                	0x8000
    1360:	50e4                	lw	s1,100(s1)
    1362:	8000                	0x8000
    1364:	0001                	nop
    1366:	005c                	addi	a5,sp,4
    1368:	0000                	unimp
    136a:	0000                	unimp
    136c:	0000                	unimp
    136e:	b000                	fsd	fs0,32(s0)
    1370:	004e                	c.slli	zero,0x13
    1372:	b280                	fsd	fs0,32(a3)
    1374:	004e                	c.slli	zero,0x13
    1376:	0880                	addi	s0,sp,80
    1378:	7a00                	flw	fs0,48(a2)
    137a:	4000                	lw	s0,0(s0)
    137c:	7e24                	flw	fs1,120(a2)
    137e:	2100                	fld	fs0,0(a0)
    1380:	b49f 004e b680      	0xb680004eb49f
    1386:	004e                	c.slli	zero,0x13
    1388:	0180                	addi	s0,sp,192
    138a:	5a00                	lw	s0,48(a2)
    138c:	4f94                	lw	a3,24(a5)
    138e:	8000                	0x8000
    1390:	4f96                	lw	t6,68(sp)
    1392:	8000                	0x8000
    1394:	0008                	0x8
    1396:	007a                	c.slli	zero,0x1e
    1398:	2440                	fld	fs0,136(s0)
    139a:	007c                	addi	a5,sp,12
    139c:	9f21                	0x9f21
    139e:	5076                	0x5076
    13a0:	8000                	0x8000
    13a2:	50a2                	lw	ra,40(sp)
    13a4:	8000                	0x8000
    13a6:	0001                	nop
    13a8:	2e6d                	jal	1762 <_tbss_end+0x16de>
    13aa:	0051                	c.nop	20
    13ac:	4480                	lw	s0,8(s1)
    13ae:	0051                	c.nop	20
    13b0:	0180                	addi	s0,sp,192
    13b2:	6d00                	flw	fs0,24(a0)
    13b4:	5144                	lw	s1,36(a0)
    13b6:	8000                	0x8000
    13b8:	5148                	lw	a0,36(a0)
    13ba:	8000                	0x8000
    13bc:	7f8d0003          	lb	zero,2040(s10)
    13c0:	489f 0051 4a80      	0x4a800051489f
    13c6:	0051                	c.nop	20
    13c8:	0180                	addi	s0,sp,192
    13ca:	5a00                	lw	s0,48(a2)
	...
    13d4:	4eb0                	lw	a2,88(a3)
    13d6:	8000                	0x8000
    13d8:	4eb6                	lw	t4,76(sp)
    13da:	8000                	0x8000
    13dc:	0002                	c.slli	zero,0x0
    13de:	9f30                	0x9f30
    13e0:	4f34                	lw	a3,88(a4)
    13e2:	8000                	0x8000
    13e4:	4f3e                	lw	t5,204(sp)
    13e6:	8000                	0x8000
    13e8:	0002                	c.slli	zero,0x0
    13ea:	9f31                	0x9f31
    13ec:	512a                	lw	sp,168(sp)
    13ee:	8000                	0x8000
    13f0:	512e                	lw	sp,232(sp)
    13f2:	8000                	0x8000
    13f4:	0008                	0x8
    13f6:	008c                	addi	a1,sp,64
    13f8:	2440                	fld	fs0,136(s0)
    13fa:	007f                	0x7f
    13fc:	9f21                	0x9f21
	...
    1406:	4fdc                	lw	a5,28(a5)
    1408:	8000                	0x8000
    140a:	5002                	0x5002
    140c:	8000                	0x8000
    140e:	0001                	nop
    1410:	a45e                	fsd	fs7,8(sp)
    1412:	0050                	addi	a2,sp,4
    1414:	d280                	sw	s0,32(a3)
    1416:	0050                	addi	a2,sp,4
    1418:	0180                	addi	s0,sp,192
    141a:	5d00                	lw	s0,56(a0)
	...
    1424:	4e36                	lw	t3,76(sp)
    1426:	8000                	0x8000
    1428:	4e62                	lw	t3,24(sp)
    142a:	8000                	0x8000
    142c:	0001                	nop
    142e:	e45e                	fsw	fs7,8(sp)
    1430:	004e                	c.slli	zero,0x13
    1432:	f680                	fsw	fs0,40(a3)
    1434:	004e                	c.slli	zero,0x13
    1436:	0180                	addi	s0,sp,192
    1438:	5600                	lw	s0,40(a2)
    143a:	4f28                	lw	a0,88(a4)
    143c:	8000                	0x8000
    143e:	4f98                	lw	a4,24(a5)
    1440:	8000                	0x8000
    1442:	0001                	nop
    1444:	004fd86f          	jal	a6,fe448 <_tbss_end+0xfe3c4>
    1448:	dc80                	sw	s0,56(s1)
    144a:	0180004f          	fnmadd.s	ft0,ft0,fs8,ft0,rne
    144e:	6f00                	flw	fs0,24(a4)
    1450:	4fdc                	lw	a5,28(a5)
    1452:	8000                	0x8000
    1454:	50a2                	lw	ra,40(sp)
    1456:	8000                	0x8000
    1458:	0001                	nop
    145a:	a456                	fsd	fs5,8(sp)
    145c:	0050                	addi	a2,sp,4
    145e:	2e80                	fld	fs0,24(a3)
    1460:	0051                	c.nop	20
    1462:	0180                	addi	s0,sp,192
    1464:	6f00                	flw	fs0,24(a4)
    1466:	512e                	lw	sp,232(sp)
    1468:	8000                	0x8000
    146a:	514a                	lw	sp,176(sp)
    146c:	8000                	0x8000
    146e:	0001                	nop
    1470:	6a56                	flw	fs4,84(sp)
    1472:	0051                	c.nop	20
    1474:	6e80                	flw	fs0,24(a3)
    1476:	0051                	c.nop	20
    1478:	0180                	addi	s0,sp,192
    147a:	5600                	lw	s0,40(a2)
    147c:	5170                	lw	a2,100(a0)
    147e:	8000                	0x8000
    1480:	5184                	lw	s1,32(a1)
    1482:	8000                	0x8000
    1484:	0001                	nop
    1486:	8456                	mv	s0,s5
    1488:	0051                	c.nop	20
    148a:	8c80                	0x8c80
    148c:	0051                	c.nop	20
    148e:	0180                	addi	s0,sp,192
    1490:	6f00                	flw	fs0,24(a4)
    1492:	5192                	lw	gp,36(sp)
    1494:	8000                	0x8000
    1496:	5198                	lw	a4,32(a1)
    1498:	8000                	0x8000
    149a:	0001                	nop
    149c:	0000006f          	j	149c <_tbss_end+0x1418>
    14a0:	0000                	unimp
    14a2:	0000                	unimp
    14a4:	1000                	addi	s0,sp,32
    14a6:	004e                	c.slli	zero,0x13
    14a8:	3880                	fld	fs0,48(s1)
    14aa:	004e                	c.slli	zero,0x13
    14ac:	0180                	addi	s0,sp,192
    14ae:	5c00                	lw	s0,56(s0)
    14b0:	4e38                	lw	a4,88(a2)
    14b2:	8000                	0x8000
    14b4:	4e44                	lw	s1,28(a2)
    14b6:	8000                	0x8000
    14b8:	0006                	c.slli	zero,0x1
    14ba:	007c                	addi	a5,sp,12
    14bc:	007e                	c.slli	zero,0x1f
    14be:	9f24                	0x9f24
    14c0:	4e44                	lw	s1,28(a2)
    14c2:	8000                	0x8000
    14c4:	4eb8                	lw	a4,88(a3)
    14c6:	8000                	0x8000
    14c8:	0001                	nop
    14ca:	c261                	beqz	a2,158a <_tbss_end+0x1506>
    14cc:	d480004f          	0xd480004f
    14d0:	0180004f          	fnmadd.s	ft0,ft0,fs8,ft0,rne
    14d4:	5c00                	lw	s0,56(s0)
    14d6:	4fd4                	lw	a3,28(a5)
    14d8:	8000                	0x8000
    14da:	4fd8                	lw	a4,28(a5)
    14dc:	8000                	0x8000
    14de:	0001                	nop
    14e0:	6261                	lui	tp,0x18
    14e2:	0051                	c.nop	20
    14e4:	6a80                	flw	fs0,16(a3)
    14e6:	0051                	c.nop	20
    14e8:	0180                	addi	s0,sp,192
    14ea:	5c00                	lw	s0,56(s0)
    14ec:	518c                	lw	a1,32(a1)
    14ee:	8000                	0x8000
    14f0:	5192                	lw	gp,36(sp)
    14f2:	8000                	0x8000
    14f4:	0001                	nop
    14f6:	0061                	c.nop	24
    14f8:	0000                	unimp
    14fa:	0000                	unimp
    14fc:	0000                	unimp
    14fe:	2400                	fld	fs0,8(s0)
    1500:	004e                	c.slli	zero,0x13
    1502:	3080                	fld	fs0,32(s1)
    1504:	004e                	c.slli	zero,0x13
    1506:	0180                	addi	s0,sp,192
    1508:	5f00                	lw	s0,56(a4)
	...
    1512:	4e50                	lw	a2,28(a2)
    1514:	8000                	0x8000
    1516:	4eb6                	lw	t4,76(sp)
    1518:	8000                	0x8000
    151a:	0001                	nop
    151c:	d45c                	sw	a5,44(s0)
    151e:	d880004f          	fnmadd.s	ft0,ft0,fs0,fs11,rne
    1522:	0180004f          	fnmadd.s	ft0,ft0,fs8,ft0,rne
    1526:	5c00                	lw	s0,56(s0)
    1528:	518c                	lw	a1,32(a1)
    152a:	8000                	0x8000
    152c:	5192                	lw	gp,36(sp)
    152e:	8000                	0x8000
    1530:	0001                	nop
    1532:	005c                	addi	a5,sp,4
    1534:	0000                	unimp
    1536:	0000                	unimp
    1538:	0000                	unimp
    153a:	5a00                	lw	s0,48(a2)
    153c:	004e                	c.slli	zero,0x13
    153e:	9680                	0x9680
    1540:	004e                	c.slli	zero,0x13
    1542:	0180                	addi	s0,sp,192
    1544:	5d00                	lw	s0,56(a0)
    1546:	4e96                	lw	t4,68(sp)
    1548:	8000                	0x8000
    154a:	4eb6                	lw	t4,76(sp)
    154c:	8000                	0x8000
    154e:	00810007          	0x810007
    1552:	2440                	fld	fs0,136(s0)
    1554:	2540                	fld	fs0,136(a0)
    1556:	d49f 004f d880      	0xd880004fd49f
    155c:	0780004f          	fnmadd.q	ft0,ft0,fs8,ft0,rne
    1560:	8100                	0x8100
    1562:	4000                	lw	s0,0(s0)
    1564:	4024                	lw	s1,64(s0)
    1566:	9f25                	0x9f25
    1568:	518c                	lw	a1,32(a1)
    156a:	8000                	0x8000
    156c:	5192                	lw	gp,36(sp)
    156e:	8000                	0x8000
    1570:	0001                	nop
    1572:	005d                	c.nop	23
    1574:	0000                	unimp
    1576:	0000                	unimp
    1578:	0000                	unimp
    157a:	6200                	flw	fs0,0(a2)
    157c:	004e                	c.slli	zero,0x13
    157e:	7680                	flw	fs0,40(a3)
    1580:	004e                	c.slli	zero,0x13
    1582:	0180                	addi	s0,sp,192
    1584:	5a00                	lw	s0,48(a2)
    1586:	4e76                	lw	t3,92(sp)
    1588:	8000                	0x8000
    158a:	4e80                	lw	s0,24(a3)
    158c:	8000                	0x8000
    158e:	0001                	nop
    1590:	805f 004e b280      	0xb280004e805f
    1596:	004e                	c.slli	zero,0x13
    1598:	0180                	addi	s0,sp,192
    159a:	5a00                	lw	s0,48(a2)
    159c:	4fd4                	lw	a3,28(a5)
    159e:	8000                	0x8000
    15a0:	4fd8                	lw	a4,28(a5)
    15a2:	8000                	0x8000
    15a4:	0001                	nop
    15a6:	8c5a                	mv	s8,s6
    15a8:	0051                	c.nop	20
    15aa:	8e80                	0x8e80
    15ac:	0051                	c.nop	20
    15ae:	0180                	addi	s0,sp,192
    15b0:	5f00                	lw	s0,56(a4)
    15b2:	518e                	lw	gp,224(sp)
    15b4:	8000                	0x8000
    15b6:	5192                	lw	gp,36(sp)
    15b8:	8000                	0x8000
    15ba:	0001                	nop
    15bc:	005a                	c.slli	zero,0x16
    15be:	0000                	unimp
    15c0:	0000                	unimp
    15c2:	0000                	unimp
    15c4:	9200                	0x9200
    15c6:	004e                	c.slli	zero,0x13
    15c8:	a680                	fsd	fs0,8(a3)
    15ca:	004e                	c.slli	zero,0x13
    15cc:	0180                	addi	s0,sp,192
    15ce:	5e00                	lw	s0,56(a2)
    15d0:	4ea6                	lw	t4,72(sp)
    15d2:	8000                	0x8000
    15d4:	4eb0                	lw	a2,88(a3)
    15d6:	8000                	0x8000
    15d8:	0001                	nop
    15da:	b05f 004e b680      	0xb680004eb05f
    15e0:	004e                	c.slli	zero,0x13
    15e2:	0180                	addi	s0,sp,192
    15e4:	5e00                	lw	s0,56(a2)
    15e6:	4fd4                	lw	a3,28(a5)
    15e8:	8000                	0x8000
    15ea:	4fd8                	lw	a4,28(a5)
    15ec:	8000                	0x8000
    15ee:	0001                	nop
    15f0:	005f 0000 0000      	0x5f
    15f6:	0000                	unimp
    15f8:	6200                	flw	fs0,0(a2)
    15fa:	004e                	c.slli	zero,0x13
    15fc:	6880                	flw	fs0,16(s1)
    15fe:	004e                	c.slli	zero,0x13
    1600:	0180                	addi	s0,sp,192
    1602:	5e00                	lw	s0,56(a2)
    1604:	4e68                	lw	a0,92(a2)
    1606:	8000                	0x8000
    1608:	4e6c                	lw	a1,92(a2)
    160a:	8000                	0x8000
    160c:	0006                	c.slli	zero,0x1
    160e:	0080                	addi	s0,sp,64
    1610:	007c                	addi	a5,sp,12
    1612:	9f1d                	0x9f1d
    1614:	4e6c                	lw	a1,92(a2)
    1616:	8000                	0x8000
    1618:	4e72                	lw	t3,28(sp)
    161a:	8000                	0x8000
    161c:	0001                	nop
    161e:	7260                	flw	fs0,100(a2)
    1620:	004e                	c.slli	zero,0x13
    1622:	7680                	flw	fs0,40(a3)
    1624:	004e                	c.slli	zero,0x13
    1626:	0680                	addi	s0,sp,832
    1628:	7e00                	flw	fs0,56(a2)
    162a:	7f00                	flw	fs0,56(a4)
    162c:	2100                	fld	fs0,0(a0)
    162e:	769f 004e 9280      	0x9280004e769f
    1634:	004e                	c.slli	zero,0x13
    1636:	0180                	addi	s0,sp,192
    1638:	6000                	flw	fs0,0(s0)
    163a:	518c                	lw	a1,32(a1)
    163c:	8000                	0x8000
    163e:	5192                	lw	gp,36(sp)
    1640:	8000                	0x8000
    1642:	0001                	nop
    1644:	0060                	addi	s0,sp,12
    1646:	0000                	unimp
    1648:	0000                	unimp
    164a:	0000                	unimp
    164c:	9200                	0x9200
    164e:	004e                	c.slli	zero,0x13
    1650:	9880                	0x9880
    1652:	004e                	c.slli	zero,0x13
    1654:	0180                	addi	s0,sp,192
    1656:	6000                	flw	fs0,0(s0)
    1658:	4e9c                	lw	a5,24(a3)
    165a:	8000                	0x8000
    165c:	4ea2                	lw	t4,8(sp)
    165e:	8000                	0x8000
    1660:	0001                	nop
    1662:	0060                	addi	s0,sp,12
    1664:	0000                	unimp
    1666:	0000                	unimp
    1668:	0000                	unimp
    166a:	6600                	flw	fs0,8(a2)
    166c:	004e                	c.slli	zero,0x13
    166e:	9680                	0x9680
    1670:	004e                	c.slli	zero,0x13
    1672:	0180                	addi	s0,sp,192
    1674:	5b00                	lw	s0,48(a4)
    1676:	4e96                	lw	t4,68(sp)
    1678:	8000                	0x8000
    167a:	4eb6                	lw	t4,76(sp)
    167c:	8000                	0x8000
    167e:	0001                	nop
    1680:	d45d                	beqz	s0,162e <_tbss_end+0x15aa>
    1682:	d880004f          	fnmadd.s	ft0,ft0,fs0,fs11,rne
    1686:	0180004f          	fnmadd.s	ft0,ft0,fs8,ft0,rne
    168a:	5d00                	lw	s0,56(a0)
    168c:	518c                	lw	a1,32(a1)
    168e:	8000                	0x8000
    1690:	5192                	lw	gp,36(sp)
    1692:	8000                	0x8000
    1694:	0001                	nop
    1696:	0000005b          	0x5b
    169a:	0000                	unimp
    169c:	0000                	unimp
    169e:	bc00                	fsd	fs0,56(s0)
    16a0:	004e                	c.slli	zero,0x13
    16a2:	f880                	fsw	fs0,48(s1)
    16a4:	004e                	c.slli	zero,0x13
    16a6:	0180                	addi	s0,sp,192
    16a8:	5d00                	lw	s0,56(a0)
    16aa:	4fa0                	lw	s0,88(a5)
    16ac:	8000                	0x8000
    16ae:	4fb0                	lw	a2,88(a5)
    16b0:	8000                	0x8000
    16b2:	0001                	nop
    16b4:	dc5d                	beqz	s0,1672 <_tbss_end+0x15ee>
    16b6:	e480004f          	0xe480004f
    16ba:	0180004f          	fnmadd.s	ft0,ft0,fs8,ft0,rne
    16be:	5d00                	lw	s0,56(a0)
    16c0:	514c                	lw	a1,36(a0)
    16c2:	8000                	0x8000
    16c4:	515a                	lw	sp,180(sp)
    16c6:	8000                	0x8000
    16c8:	0001                	nop
    16ca:	6a5d                	lui	s4,0x17
    16cc:	0051                	c.nop	20
    16ce:	7080                	flw	fs0,32(s1)
    16d0:	0051                	c.nop	20
    16d2:	0180                	addi	s0,sp,192
    16d4:	5d00                	lw	s0,56(a0)
	...
    16de:	4ed0                	lw	a2,28(a3)
    16e0:	8000                	0x8000
    16e2:	4ef8                	lw	a4,92(a3)
    16e4:	8000                	0x8000
    16e6:	0001                	nop
    16e8:	dc60                	sw	s0,124(s0)
    16ea:	fe80004f          	fnmadd.q	ft0,ft0,fs0,ft11,rne
    16ee:	0180004f          	fnmadd.s	ft0,ft0,fs8,ft0,rne
    16f2:	6000                	flw	fs0,0(s0)
    16f4:	516a                	lw	sp,184(sp)
    16f6:	8000                	0x8000
    16f8:	5170                	lw	a2,100(a0)
    16fa:	8000                	0x8000
    16fc:	0001                	nop
    16fe:	0060                	addi	s0,sp,12
	...
    1708:	9a80004f          	fnmadd.d	ft0,ft0,fs0,fs3,rne
    170c:	0180004f          	fnmadd.s	ft0,ft0,fs8,ft0,rne
    1710:	6100                	flw	fs0,0(a0)
    1712:	4fb0                	lw	a2,88(a5)
    1714:	8000                	0x8000
    1716:	4fba                	lw	t6,140(sp)
    1718:	8000                	0x8000
    171a:	0001                	nop
    171c:	ba61                	j	10b4 <_tbss_end+0x1030>
    171e:	be80004f          	fnmadd.q	ft0,ft0,fs0,fs7,rne
    1722:	0180004f          	fnmadd.s	ft0,ft0,fs8,ft0,rne
    1726:	5d00                	lw	s0,56(a0)
    1728:	4fbe                	lw	t6,204(sp)
    172a:	8000                	0x8000
    172c:	4fc2                	lw	t6,16(sp)
    172e:	8000                	0x8000
    1730:	0001                	nop
    1732:	d861                	beqz	s0,1702 <_tbss_end+0x167e>
    1734:	dc80004f          	0xdc80004f
    1738:	0180004f          	fnmadd.s	ft0,ft0,fs8,ft0,rne
    173c:	6100                	flw	fs0,0(a0)
    173e:	50a4                	lw	s1,96(s1)
    1740:	8000                	0x8000
    1742:	50a8                	lw	a0,96(s1)
    1744:	8000                	0x8000
    1746:	0006                	c.slli	zero,0x1
    1748:	0081                	addi	ra,ra,0
    174a:	9f24008f          	0x9f24008f
    174e:	50a8                	lw	a0,96(s1)
    1750:	8000                	0x8000
    1752:	512e                	lw	sp,232(sp)
    1754:	8000                	0x8000
    1756:	0001                	nop
    1758:	5a61                	li	s4,-8
    175a:	0051                	c.nop	20
    175c:	6280                	flw	fs0,0(a3)
    175e:	0051                	c.nop	20
    1760:	0180                	addi	s0,sp,192
    1762:	6100                	flw	fs0,0(a0)
    1764:	5184                	lw	s1,32(a1)
    1766:	8000                	0x8000
    1768:	518c                	lw	a1,32(a1)
    176a:	8000                	0x8000
    176c:	0001                	nop
    176e:	9261                	srli	a2,a2,0x38
    1770:	0051                	c.nop	20
    1772:	9880                	0x9880
    1774:	0051                	c.nop	20
    1776:	0180                	addi	s0,sp,192
    1778:	6100                	flw	fs0,0(a0)
	...
    1782:	4f14                	lw	a3,24(a4)
    1784:	8000                	0x8000
    1786:	4f3e                	lw	t5,204(sp)
    1788:	8000                	0x8000
    178a:	0001                	nop
    178c:	a45f 0050 b880      	0xb8800050a45f
    1792:	0050                	addi	a2,sp,4
    1794:	0180                	addi	s0,sp,192
    1796:	5f00                	lw	s0,56(a4)
	...
    17a0:	4f3e                	lw	t5,204(sp)
    17a2:	8000                	0x8000
    17a4:	4f98                	lw	a4,24(a5)
    17a6:	8000                	0x8000
    17a8:	0005                	c.nop	1
    17aa:	0081                	addi	ra,ra,0
    17ac:	2540                	fld	fs0,136(a0)
    17ae:	d89f 004f dc80      	0xdc80004fd89f
    17b4:	0580004f          	0x580004f
    17b8:	8100                	0x8100
    17ba:	4000                	lw	s0,0(s0)
    17bc:	9f25                	0x9f25
    17be:	5192                	lw	gp,36(sp)
    17c0:	8000                	0x8000
    17c2:	5198                	lw	a4,32(a1)
    17c4:	8000                	0x8000
    17c6:	0005                	c.nop	1
    17c8:	0081                	addi	ra,ra,0
    17ca:	2540                	fld	fs0,136(a0)
    17cc:	009f 0000 0000      	0x9f
    17d2:	0000                	unimp
    17d4:	3e00                	fld	fs0,56(a2)
    17d6:	9880004f          	fnmadd.s	ft0,ft0,fs0,fs3,rne
    17da:	0780004f          	fnmadd.q	ft0,ft0,fs8,ft0,rne
    17de:	8100                	0x8100
    17e0:	0a00                	addi	s0,sp,272
    17e2:	ffff                	0xffff
    17e4:	9f1a                	add	t5,t5,t1
    17e6:	4fd8                	lw	a4,28(a5)
    17e8:	8000                	0x8000
    17ea:	4fdc                	lw	a5,28(a5)
    17ec:	8000                	0x8000
    17ee:	00810007          	0x810007
    17f2:	ff0a                	fsw	ft2,188(sp)
    17f4:	1aff                	0x1aff
    17f6:	929f 0051 9880      	0x98800051929f
    17fc:	0051                	c.nop	20
    17fe:	0780                	addi	s0,sp,960
    1800:	8100                	0x8100
    1802:	0a00                	addi	s0,sp,272
    1804:	ffff                	0xffff
    1806:	9f1a                	add	t5,t5,t1
	...
    1810:	4f4a                	lw	t5,144(sp)
    1812:	8000                	0x8000
    1814:	4f5c                	lw	a5,28(a4)
    1816:	8000                	0x8000
    1818:	0001                	nop
    181a:	5c5a                	lw	s8,180(sp)
    181c:	6680004f          	fnmadd.q	ft0,ft0,fs0,fa2,rne
    1820:	0180004f          	fnmadd.s	ft0,ft0,fs8,ft0,rne
    1824:	5e00                	lw	s0,56(a2)
    1826:	4f66                	lw	t5,88(sp)
    1828:	8000                	0x8000
    182a:	4f96                	lw	t6,68(sp)
    182c:	8000                	0x8000
    182e:	0001                	nop
    1830:	d85a                	sw	s6,48(sp)
    1832:	dc80004f          	0xdc80004f
    1836:	0180004f          	fnmadd.s	ft0,ft0,fs8,ft0,rne
    183a:	5a00                	lw	s0,48(a2)
    183c:	5192                	lw	gp,36(sp)
    183e:	8000                	0x8000
    1840:	5194                	lw	a3,32(a1)
    1842:	8000                	0x8000
    1844:	0001                	nop
    1846:	945e                	add	s0,s0,s7
    1848:	0051                	c.nop	20
    184a:	9880                	0x9880
    184c:	0051                	c.nop	20
    184e:	0180                	addi	s0,sp,192
    1850:	5a00                	lw	s0,48(a2)
	...
    185a:	4f76                	lw	t5,92(sp)
    185c:	8000                	0x8000
    185e:	4f8a                	lw	t6,128(sp)
    1860:	8000                	0x8000
    1862:	0001                	nop
    1864:	8a5c                	0x8a5c
    1866:	9480004f          	0x9480004f
    186a:	0180004f          	fnmadd.s	ft0,ft0,fs8,ft0,rne
    186e:	5e00                	lw	s0,56(a2)
    1870:	4f94                	lw	a3,24(a5)
    1872:	8000                	0x8000
    1874:	4f98                	lw	a4,24(a5)
    1876:	8000                	0x8000
    1878:	0001                	nop
    187a:	d85c                	sw	a5,52(s0)
    187c:	dc80004f          	0xdc80004f
    1880:	0180004f          	fnmadd.s	ft0,ft0,fs8,ft0,rne
    1884:	5e00                	lw	s0,56(a2)
	...
    188e:	4f4a                	lw	t5,144(sp)
    1890:	8000                	0x8000
    1892:	4f50                	lw	a2,28(a4)
    1894:	8000                	0x8000
    1896:	0001                	nop
    1898:	525e                	lw	tp,244(sp)
    189a:	5880004f          	fnmadd.s	ft0,ft0,fs0,fa1,rne
    189e:	0180004f          	fnmadd.s	ft0,ft0,fs8,ft0,rne
    18a2:	5f00                	lw	s0,56(a4)
    18a4:	4f58                	lw	a4,28(a4)
    18a6:	8000                	0x8000
    18a8:	4f5c                	lw	a5,28(a4)
    18aa:	8000                	0x8000
    18ac:	0008                	0x8
    18ae:	0076                	c.slli	zero,0x1d
    18b0:	2540                	fld	fs0,136(a0)
    18b2:	007e                	c.slli	zero,0x1f
    18b4:	9f21                	0x9f21
    18b6:	4f5c                	lw	a5,28(a4)
    18b8:	8000                	0x8000
    18ba:	4f76                	lw	t5,92(sp)
    18bc:	8000                	0x8000
    18be:	0001                	nop
    18c0:	925f 0051 9880      	0x98800051925f
    18c6:	0051                	c.nop	20
    18c8:	0180                	addi	s0,sp,192
    18ca:	5f00                	lw	s0,56(a4)
	...
    18d4:	4f76                	lw	t5,92(sp)
    18d6:	8000                	0x8000
    18d8:	4f7c                	lw	a5,92(a4)
    18da:	8000                	0x8000
    18dc:	0001                	nop
    18de:	805f 004f 8680      	0x8680004f805f
    18e4:	0180004f          	fnmadd.s	ft0,ft0,fs8,ft0,rne
    18e8:	5f00                	lw	s0,56(a4)
	...
    18f2:	4f4e                	lw	t5,208(sp)
    18f4:	8000                	0x8000
    18f6:	4f7a                	lw	t5,156(sp)
    18f8:	8000                	0x8000
    18fa:	0001                	nop
    18fc:	7a5d                	lui	s4,0xffff7
    18fe:	9880004f          	fnmadd.s	ft0,ft0,fs0,fs3,rne
    1902:	0180004f          	fnmadd.s	ft0,ft0,fs8,ft0,rne
    1906:	6d00                	flw	fs0,24(a0)
    1908:	4fd8                	lw	a4,28(a5)
    190a:	8000                	0x8000
    190c:	4fdc                	lw	a5,28(a5)
    190e:	8000                	0x8000
    1910:	0001                	nop
    1912:	926d                	srli	a2,a2,0x3b
    1914:	0051                	c.nop	20
    1916:	9880                	0x9880
    1918:	0051                	c.nop	20
    191a:	0180                	addi	s0,sp,192
    191c:	5d00                	lw	s0,56(a0)
	...
    1926:	5096                	lw	ra,100(sp)
    1928:	8000                	0x8000
    192a:	50a2                	lw	ra,40(sp)
    192c:	8000                	0x8000
    192e:	0001                	nop
    1930:	2e5c                	fld	fa5,152(a2)
    1932:	0051                	c.nop	20
    1934:	4480                	lw	s0,8(s1)
    1936:	0051                	c.nop	20
    1938:	0180                	addi	s0,sp,192
    193a:	5c00                	lw	s0,56(s0)
	...
    1944:	5096                	lw	ra,100(sp)
    1946:	8000                	0x8000
    1948:	509e                	lw	ra,228(sp)
    194a:	8000                	0x8000
    194c:	0010                	0x10
    194e:	008c                	addi	a1,sp,64
    1950:	ff0a                	fsw	ft2,188(sp)
    1952:	1aff                	0x1aff
    1954:	007e                	c.slli	zero,0x1f
    1956:	ff0a                	fsw	ft2,188(sp)
    1958:	1aff                	0x1aff
    195a:	2440                	fld	fs0,136(s0)
    195c:	9f22                	add	t5,t5,s0
    195e:	512e                	lw	sp,232(sp)
    1960:	8000                	0x8000
    1962:	5134                	lw	a3,96(a0)
    1964:	8000                	0x8000
    1966:	0010                	0x10
    1968:	008c                	addi	a1,sp,64
    196a:	ff0a                	fsw	ft2,188(sp)
    196c:	1aff                	0x1aff
    196e:	007e                	c.slli	zero,0x1f
    1970:	ff0a                	fsw	ft2,188(sp)
    1972:	1aff                	0x1aff
    1974:	2440                	fld	fs0,136(s0)
    1976:	9f22                	add	t5,t5,s0
	...
    1980:	500e                	0x500e
    1982:	8000                	0x8000
    1984:	505a                	0x505a
    1986:	8000                	0x8000
    1988:	0001                	nop
    198a:	5a6e                	lw	s4,248(sp)
    198c:	0050                	addi	a2,sp,4
    198e:	7e80                	flw	fs0,56(a3)
    1990:	0050                	addi	a2,sp,4
    1992:	0580                	addi	s0,sp,704
    1994:	7d00                	flw	fs0,56(a0)
    1996:	4000                	lw	s0,0(s0)
    1998:	9f25                	0x9f25
    199a:	5170                	lw	a2,100(a0)
    199c:	8000                	0x8000
    199e:	5184                	lw	s1,32(a1)
    19a0:	8000                	0x8000
    19a2:	0001                	nop
    19a4:	006e                	c.slli	zero,0x1b
    19a6:	0000                	unimp
    19a8:	0000                	unimp
    19aa:	0000                	unimp
    19ac:	0e00                	addi	s0,sp,784
    19ae:	0050                	addi	a2,sp,4
    19b0:	7280                	flw	fs0,32(a3)
    19b2:	0050                	addi	a2,sp,4
    19b4:	0180                	addi	s0,sp,192
    19b6:	6c00                	flw	fs0,24(s0)
    19b8:	5072                	0x5072
    19ba:	8000                	0x8000
    19bc:	507e                	0x507e
    19be:	8000                	0x8000
    19c0:	007d0007          	0x7d0007
    19c4:	2440                	fld	fs0,136(s0)
    19c6:	2540                	fld	fs0,136(a0)
    19c8:	709f 0051 8480      	0x84800051709f
    19ce:	0051                	c.nop	20
    19d0:	0180                	addi	s0,sp,192
    19d2:	6c00                	flw	fs0,24(s0)
	...
    19dc:	5012                	0x5012
    19de:	8000                	0x8000
    19e0:	5026                	0x5026
    19e2:	8000                	0x8000
    19e4:	0001                	nop
    19e6:	266d                	jal	1d90 <_tbss_end+0x1d0c>
    19e8:	0050                	addi	a2,sp,4
    19ea:	2c80                	fld	fs0,24(s1)
    19ec:	0050                	addi	a2,sp,4
    19ee:	0180                	addi	s0,sp,192
    19f0:	5e00                	lw	s0,56(a2)
    19f2:	502c                	lw	a1,96(s0)
    19f4:	8000                	0x8000
    19f6:	5058                	lw	a4,36(s0)
    19f8:	8000                	0x8000
    19fa:	0001                	nop
    19fc:	706d                	c.lui	zero,0xffffb
    19fe:	0051                	c.nop	20
    1a00:	7a80                	flw	fs0,48(a3)
    1a02:	0051                	c.nop	20
    1a04:	0180                	addi	s0,sp,192
    1a06:	6d00                	flw	fs0,24(a0)
    1a08:	517a                	lw	sp,188(sp)
    1a0a:	8000                	0x8000
    1a0c:	5180                	lw	s0,32(a1)
    1a0e:	8000                	0x8000
    1a10:	0001                	nop
    1a12:	805e                	c.mv	zero,s7
    1a14:	0051                	c.nop	20
    1a16:	8480                	0x8480
    1a18:	0051                	c.nop	20
    1a1a:	0180                	addi	s0,sp,192
    1a1c:	6d00                	flw	fs0,24(a0)
	...
    1a26:	503c                	lw	a5,96(s0)
    1a28:	8000                	0x8000
    1a2a:	5050                	lw	a2,36(s0)
    1a2c:	8000                	0x8000
    1a2e:	0001                	nop
    1a30:	505e                	0x505e
    1a32:	0050                	addi	a2,sp,4
    1a34:	5680                	lw	s0,40(a3)
    1a36:	0050                	addi	a2,sp,4
    1a38:	0180                	addi	s0,sp,192
    1a3a:	5f00                	lw	s0,56(a4)
    1a3c:	5056                	0x5056
    1a3e:	8000                	0x8000
    1a40:	5066                	0x5066
    1a42:	8000                	0x8000
    1a44:	0001                	nop
    1a46:	705e                	flw	ft0,244(sp)
    1a48:	0051                	c.nop	20
    1a4a:	7680                	flw	fs0,40(a3)
    1a4c:	0051                	c.nop	20
    1a4e:	0180                	addi	s0,sp,192
    1a50:	5f00                	lw	s0,56(a4)
    1a52:	5176                	lw	sp,124(sp)
    1a54:	8000                	0x8000
    1a56:	517a                	lw	sp,188(sp)
    1a58:	8000                	0x8000
    1a5a:	0001                	nop
    1a5c:	005e                	c.slli	zero,0x17
    1a5e:	0000                	unimp
    1a60:	0000                	unimp
    1a62:	0000                	unimp
    1a64:	1200                	addi	s0,sp,288
    1a66:	0050                	addi	a2,sp,4
    1a68:	1880                	addi	s0,sp,112
    1a6a:	0050                	addi	a2,sp,4
    1a6c:	0180                	addi	s0,sp,192
    1a6e:	6100                	flw	fs0,0(a0)
    1a70:	501c                	lw	a5,32(s0)
    1a72:	8000                	0x8000
    1a74:	5022                	0x5022
    1a76:	8000                	0x8000
    1a78:	0001                	nop
    1a7a:	225f 0050 2680      	0x26800050225f
    1a80:	0050                	addi	a2,sp,4
    1a82:	0880                	addi	s0,sp,80
    1a84:	8000                	0x8000
    1a86:	4000                	lw	s0,0(s0)
    1a88:	8125                	srli	a0,a0,0x9
    1a8a:	2100                	fld	fs0,0(a0)
    1a8c:	269f 0050 3c80      	0x3c800050269f
    1a92:	0050                	addi	a2,sp,4
    1a94:	0180                	addi	s0,sp,192
    1a96:	5f00                	lw	s0,56(a4)
    1a98:	517a                	lw	sp,188(sp)
    1a9a:	8000                	0x8000
    1a9c:	5184                	lw	s1,32(a1)
    1a9e:	8000                	0x8000
    1aa0:	0001                	nop
    1aa2:	005f 0000 0000      	0x5f
    1aa8:	0000                	unimp
    1aaa:	3c00                	fld	fs0,56(s0)
    1aac:	0050                	addi	a2,sp,4
    1aae:	4280                	lw	s0,0(a3)
    1ab0:	0050                	addi	a2,sp,4
    1ab2:	0180                	addi	s0,sp,192
    1ab4:	5f00                	lw	s0,56(a4)
    1ab6:	5046                	0x5046
    1ab8:	8000                	0x8000
    1aba:	504c                	lw	a1,36(s0)
    1abc:	8000                	0x8000
    1abe:	0001                	nop
    1ac0:	00504c5b          	0x504c5b
    1ac4:	5080                	lw	s0,32(s1)
    1ac6:	0050                	addi	a2,sp,4
    1ac8:	0680                	addi	s0,sp,832
    1aca:	7f00                	flw	fs0,56(a4)
    1acc:	8000                	0x8000
    1ace:	2100                	fld	fs0,0(a0)
    1ad0:	509f 0050 a280      	0xa2800050509f
    1ad6:	0050                	addi	a2,sp,4
    1ad8:	0180                	addi	s0,sp,192
    1ada:	5b00                	lw	s0,48(a4)
    1adc:	512e                	lw	sp,232(sp)
    1ade:	8000                	0x8000
    1ae0:	514a                	lw	sp,176(sp)
    1ae2:	8000                	0x8000
    1ae4:	0001                	nop
    1ae6:	0051705b          	0x51705b
    1aea:	7a80                	flw	fs0,48(a3)
    1aec:	0051                	c.nop	20
    1aee:	0180                	addi	s0,sp,192
    1af0:	5b00                	lw	s0,48(a4)
	...
    1afa:	5016                	0x5016
    1afc:	8000                	0x8000
    1afe:	5040                	lw	s0,36(s0)
    1b00:	8000                	0x8000
    1b02:	0001                	nop
    1b04:	0050405b          	0x50405b
    1b08:	a280                	fsd	fs0,0(a3)
    1b0a:	0050                	addi	a2,sp,4
    1b0c:	0180                	addi	s0,sp,192
    1b0e:	6100                	flw	fs0,0(a0)
    1b10:	512e                	lw	sp,232(sp)
    1b12:	8000                	0x8000
    1b14:	514a                	lw	sp,176(sp)
    1b16:	8000                	0x8000
    1b18:	0001                	nop
    1b1a:	7061                	c.lui	zero,0xffff8
    1b1c:	0051                	c.nop	20
    1b1e:	7a80                	flw	fs0,48(a3)
    1b20:	0051                	c.nop	20
    1b22:	0180                	addi	s0,sp,192
    1b24:	6100                	flw	fs0,0(a0)
    1b26:	517a                	lw	sp,188(sp)
    1b28:	8000                	0x8000
    1b2a:	5184                	lw	s1,32(a1)
    1b2c:	8000                	0x8000
    1b2e:	0001                	nop
    1b30:	0000005b          	0x5b
    1b34:	0000                	unimp
    1b36:	0000                	unimp
    1b38:	7600                	flw	fs0,40(a2)
    1b3a:	0050                	addi	a2,sp,4
    1b3c:	9e80                	0x9e80
    1b3e:	0050                	addi	a2,sp,4
    1b40:	0180                	addi	s0,sp,192
    1b42:	6c00                	flw	fs0,24(s0)
    1b44:	512e                	lw	sp,232(sp)
    1b46:	8000                	0x8000
    1b48:	5138                	lw	a4,96(a0)
    1b4a:	8000                	0x8000
    1b4c:	0001                	nop
    1b4e:	006c                	addi	a1,sp,12
    1b50:	0000                	unimp
    1b52:	0000                	unimp
    1b54:	0000                	unimp
    1b56:	7600                	flw	fs0,40(a2)
    1b58:	0050                	addi	a2,sp,4
    1b5a:	7a80                	flw	fs0,48(a3)
    1b5c:	0050                	addi	a2,sp,4
    1b5e:	0680                	addi	s0,sp,832
    1b60:	7e00                	flw	fs0,56(a2)
    1b62:	7c00                	flw	fs0,56(s0)
    1b64:	1e00                	addi	s0,sp,816
    1b66:	7a9f 0050 8480      	0x848000507a9f
    1b6c:	0050                	addi	a2,sp,4
    1b6e:	0180                	addi	s0,sp,192
    1b70:	5e00                	lw	s0,56(a2)
    1b72:	5084                	lw	s1,32(s1)
    1b74:	8000                	0x8000
    1b76:	508a                	lw	ra,160(sp)
    1b78:	8000                	0x8000
    1b7a:	0009                	c.nop	2
    1b7c:	7f8e                	flw	ft11,224(sp)
    1b7e:	008d                	addi	ra,ra,3
    1b80:	7c1a                	flw	fs8,164(sp)
    1b82:	1e00                	addi	s0,sp,816
    1b84:	8a9f 0050 9e80      	0x9e8000508a9f
    1b8a:	0050                	addi	a2,sp,4
    1b8c:	0180                	addi	s0,sp,192
    1b8e:	5e00                	lw	s0,56(a2)
    1b90:	512e                	lw	sp,232(sp)
    1b92:	8000                	0x8000
    1b94:	5134                	lw	a3,96(a0)
    1b96:	8000                	0x8000
    1b98:	0001                	nop
    1b9a:	005e                	c.slli	zero,0x17
    1b9c:	0000                	unimp
    1b9e:	0000                	unimp
    1ba0:	0000                	unimp
    1ba2:	8200                	0x8200
    1ba4:	0050                	addi	a2,sp,4
    1ba6:	9e80                	0x9e80
    1ba8:	0050                	addi	a2,sp,4
    1baa:	0180                	addi	s0,sp,192
    1bac:	5f00                	lw	s0,56(a4)
    1bae:	512e                	lw	sp,232(sp)
    1bb0:	8000                	0x8000
    1bb2:	5130                	lw	a2,96(a0)
    1bb4:	8000                	0x8000
    1bb6:	0001                	nop
    1bb8:	005f 0000 0000      	0x5f
    1bbe:	0000                	unimp
    1bc0:	8a00                	0x8a00
    1bc2:	0050                	addi	a2,sp,4
    1bc4:	9680                	0x9680
    1bc6:	0050                	addi	a2,sp,4
    1bc8:	0180                	addi	s0,sp,192
    1bca:	5c00                	lw	s0,56(s0)
	...
    1bd4:	5076                	0x5076
    1bd6:	8000                	0x8000
    1bd8:	507a                	0x507a
    1bda:	8000                	0x8000
    1bdc:	0001                	nop
    1bde:	7a5e                	flw	fs4,244(sp)
    1be0:	0050                	addi	a2,sp,4
    1be2:	a280                	fsd	fs0,0(a3)
    1be4:	0050                	addi	a2,sp,4
    1be6:	0680                	addi	s0,sp,832
    1be8:	8e00                	0x8e00
    1bea:	8d7f                	0x8d7f
    1bec:	1a00                	addi	s0,sp,304
    1bee:	2e9f 0051 3280      	0x328000512e9f
    1bf4:	0051                	c.nop	20
    1bf6:	0680                	addi	s0,sp,832
    1bf8:	8e00                	0x8e00
    1bfa:	8d7f                	0x8d7f
    1bfc:	1a00                	addi	s0,sp,304
    1bfe:	329f 0051 3e80      	0x3e800051329f
    1c04:	0051                	c.nop	20
    1c06:	0680                	addi	s0,sp,832
    1c08:	8d00                	0x8d00
    1c0a:	7f00                	flw	fs0,56(a4)
    1c0c:	1a00                	addi	s0,sp,304
    1c0e:	3e9f 0051 4a80      	0x4a8000513e9f
    1c14:	0051                	c.nop	20
    1c16:	0680                	addi	s0,sp,832
    1c18:	8e00                	0x8e00
    1c1a:	8d7f                	0x8d7f
    1c1c:	1a00                	addi	s0,sp,304
    1c1e:	009f 0000 0000      	0x9f
    1c24:	0000                	unimp
    1c26:	7600                	flw	fs0,40(a2)
    1c28:	0050                	addi	a2,sp,4
    1c2a:	8280                	0x8280
    1c2c:	0050                	addi	a2,sp,4
    1c2e:	0180                	addi	s0,sp,192
    1c30:	5f00                	lw	s0,56(a4)
	...
    1c3a:	5076                	0x5076
    1c3c:	8000                	0x8000
    1c3e:	5094                	lw	a3,32(s1)
    1c40:	8000                	0x8000
    1c42:	0001                	nop
    1c44:	9460                	0x9460
    1c46:	0050                	addi	a2,sp,4
    1c48:	a280                	fsd	fs0,0(a3)
    1c4a:	0050                	addi	a2,sp,4
    1c4c:	0580                	addi	s0,sp,704
    1c4e:	8d00                	0x8d00
    1c50:	4000                	lw	s0,0(s0)
    1c52:	9f25                	0x9f25
    1c54:	512e                	lw	sp,232(sp)
    1c56:	8000                	0x8000
    1c58:	514a                	lw	sp,176(sp)
    1c5a:	8000                	0x8000
    1c5c:	0005                	c.nop	1
    1c5e:	008d                	addi	ra,ra,3
    1c60:	2540                	fld	fs0,136(a0)
    1c62:	009f 0000 0000      	0x9f
    1c68:	0000                	unimp
    1c6a:	7600                	flw	fs0,40(a2)
    1c6c:	0050                	addi	a2,sp,4
    1c6e:	8a80                	0x8a80
    1c70:	0050                	addi	a2,sp,4
    1c72:	0180                	addi	s0,sp,192
    1c74:	5c00                	lw	s0,56(s0)
	...
    1c7e:	50ce                	lw	ra,240(sp)
    1c80:	8000                	0x8000
    1c82:	512e                	lw	sp,232(sp)
    1c84:	8000                	0x8000
    1c86:	0001                	nop
    1c88:	846e                	mv	s0,s11
    1c8a:	0051                	c.nop	20
    1c8c:	8c80                	0x8c80
    1c8e:	0051                	c.nop	20
    1c90:	0180                	addi	s0,sp,192
    1c92:	6e00                	flw	fs0,24(a2)
	...
    1c9c:	50ce                	lw	ra,240(sp)
    1c9e:	8000                	0x8000
    1ca0:	512e                	lw	sp,232(sp)
    1ca2:	8000                	0x8000
    1ca4:	0001                	nop
    1ca6:	846d                	srai	s0,s0,0x1b
    1ca8:	0051                	c.nop	20
    1caa:	8c80                	0x8c80
    1cac:	0051                	c.nop	20
    1cae:	0180                	addi	s0,sp,192
    1cb0:	6d00                	flw	fs0,24(a0)
	...
    1cba:	50d2                	lw	ra,52(sp)
    1cbc:	8000                	0x8000
    1cbe:	50e4                	lw	s1,100(s1)
    1cc0:	8000                	0x8000
    1cc2:	0001                	nop
    1cc4:	e46c                	fsw	fa1,76(s0)
    1cc6:	0050                	addi	a2,sp,4
    1cc8:	ee80                	fsw	fs0,24(a3)
    1cca:	0050                	addi	a2,sp,4
    1ccc:	0180                	addi	s0,sp,192
    1cce:	5c00                	lw	s0,56(s0)
    1cd0:	50ee                	lw	ra,248(sp)
    1cd2:	8000                	0x8000
    1cd4:	512e                	lw	sp,232(sp)
    1cd6:	8000                	0x8000
    1cd8:	0001                	nop
    1cda:	846c                	0x846c
    1cdc:	0051                	c.nop	20
    1cde:	8880                	0x8880
    1ce0:	0051                	c.nop	20
    1ce2:	0180                	addi	s0,sp,192
    1ce4:	6c00                	flw	fs0,24(s0)
    1ce6:	5188                	lw	a0,32(a1)
    1ce8:	8000                	0x8000
    1cea:	518c                	lw	a1,32(a1)
    1cec:	8000                	0x8000
    1cee:	0001                	nop
    1cf0:	005c                	addi	a5,sp,4
    1cf2:	0000                	unimp
    1cf4:	0000                	unimp
    1cf6:	0000                	unimp
    1cf8:	0200                	addi	s0,sp,256
    1cfa:	0051                	c.nop	20
    1cfc:	1880                	addi	s0,sp,112
    1cfe:	0051                	c.nop	20
    1d00:	0180                	addi	s0,sp,192
    1d02:	5f00                	lw	s0,56(a4)
    1d04:	5118                	lw	a4,32(a0)
    1d06:	8000                	0x8000
    1d08:	5122                	lw	sp,40(sp)
    1d0a:	8000                	0x8000
    1d0c:	0001                	nop
    1d0e:	225d                	jal	1eb4 <_tbss_end+0x1e30>
    1d10:	0051                	c.nop	20
    1d12:	2e80                	fld	fs0,24(a3)
    1d14:	0051                	c.nop	20
    1d16:	0180                	addi	s0,sp,192
    1d18:	5f00                	lw	s0,56(a4)
    1d1a:	5184                	lw	s1,32(a1)
    1d1c:	8000                	0x8000
    1d1e:	5188                	lw	a0,32(a1)
    1d20:	8000                	0x8000
    1d22:	0001                	nop
    1d24:	005d                	c.nop	23
    1d26:	0000                	unimp
    1d28:	0000                	unimp
    1d2a:	0000                	unimp
    1d2c:	d200                	sw	s0,32(a2)
    1d2e:	0050                	addi	a2,sp,4
    1d30:	d880                	sw	s0,48(s1)
    1d32:	0050                	addi	a2,sp,4
    1d34:	0180                	addi	s0,sp,192
    1d36:	5d00                	lw	s0,56(a0)
    1d38:	50d8                	lw	a4,36(s1)
    1d3a:	8000                	0x8000
    1d3c:	50da                	lw	ra,180(sp)
    1d3e:	8000                	0x8000
    1d40:	0006                	c.slli	zero,0x1
    1d42:	007c                	addi	a5,sp,12
    1d44:	008e                	slli	ra,ra,0x3
    1d46:	9f1d                	0x9f1d
    1d48:	50da                	lw	ra,180(sp)
    1d4a:	8000                	0x8000
    1d4c:	50e0                	lw	s0,100(s1)
    1d4e:	8000                	0x8000
    1d50:	0001                	nop
    1d52:	e05d                	bnez	s0,1df8 <_tbss_end+0x1d74>
    1d54:	0050                	addi	a2,sp,4
    1d56:	e480                	fsw	fs0,8(s1)
    1d58:	0050                	addi	a2,sp,4
    1d5a:	0b80                	addi	s0,sp,464
    1d5c:	7c00                	flw	fs0,56(s0)
    1d5e:	8e00                	0x8e00
    1d60:	1d00                	addi	s0,sp,688
    1d62:	2440                	fld	fs0,136(s0)
    1d64:	9f21007b          	0x9f21007b
    1d68:	50e4                	lw	s1,100(s1)
    1d6a:	8000                	0x8000
    1d6c:	5102                	lw	sp,32(sp)
    1d6e:	8000                	0x8000
    1d70:	0001                	nop
    1d72:	885d                	andi	s0,s0,23
    1d74:	0051                	c.nop	20
    1d76:	8c80                	0x8c80
    1d78:	0051                	c.nop	20
    1d7a:	0180                	addi	s0,sp,192
    1d7c:	5d00                	lw	s0,56(a0)
	...
    1d86:	5102                	lw	sp,32(sp)
    1d88:	8000                	0x8000
    1d8a:	510e                	lw	sp,224(sp)
    1d8c:	8000                	0x8000
    1d8e:	0001                	nop
    1d90:	0e5d                	addi	t3,t3,23
    1d92:	0051                	c.nop	20
    1d94:	1480                	addi	s0,sp,608
    1d96:	0051                	c.nop	20
    1d98:	0180                	addi	s0,sp,192
    1d9a:	5e00                	lw	s0,56(a2)
    1d9c:	5114                	lw	a3,32(a0)
    1d9e:	8000                	0x8000
    1da0:	5118                	lw	a4,32(a0)
    1da2:	8000                	0x8000
    1da4:	0008                	0x8
    1da6:	007d                	c.nop	31
    1da8:	2440                	fld	fs0,136(s0)
    1daa:	0080                	addi	s0,sp,64
    1dac:	9f21                	0x9f21
    1dae:	5118                	lw	a4,32(a0)
    1db0:	8000                	0x8000
    1db2:	512e                	lw	sp,232(sp)
    1db4:	8000                	0x8000
    1db6:	0001                	nop
    1db8:	845e                	mv	s0,s7
    1dba:	0051                	c.nop	20
    1dbc:	8880                	0x8880
    1dbe:	0051                	c.nop	20
    1dc0:	0180                	addi	s0,sp,192
    1dc2:	5e00                	lw	s0,56(a2)
	...
    1dcc:	50d6                	lw	ra,116(sp)
    1dce:	8000                	0x8000
    1dd0:	50f6                	lw	ra,124(sp)
    1dd2:	8000                	0x8000
    1dd4:	0001                	nop
    1dd6:	065f 0051 2e80      	0x2e800051065f
    1ddc:	0051                	c.nop	20
    1dde:	0180                	addi	s0,sp,192
    1de0:	5c00                	lw	s0,56(s0)
    1de2:	5184                	lw	s1,32(a1)
    1de4:	8000                	0x8000
    1de6:	5188                	lw	a0,32(a1)
    1de8:	8000                	0x8000
    1dea:	0001                	nop
    1dec:	885c                	0x885c
    1dee:	0051                	c.nop	20
    1df0:	8c80                	0x8c80
    1df2:	0051                	c.nop	20
    1df4:	0180                	addi	s0,sp,192
    1df6:	5f00                	lw	s0,56(a4)
	...
    1e00:	5198                	lw	a4,32(a1)
    1e02:	8000                	0x8000
    1e04:	51f4                	lw	a3,100(a1)
    1e06:	8000                	0x8000
    1e08:	0006                	c.slli	zero,0x1
    1e0a:	935a                	add	t1,t1,s6
    1e0c:	5b04                	lw	s1,48(a4)
    1e0e:	51f40493          	addi	s1,s0,1311
    1e12:	8000                	0x8000
    1e14:	5248                	lw	a0,36(a2)
    1e16:	8000                	0x8000
    1e18:	0006                	c.slli	zero,0x1
    1e1a:	0af503f3          	0xaf503f3
    1e1e:	9f25                	0x9f25
    1e20:	5248                	lw	a0,36(a2)
    1e22:	8000                	0x8000
    1e24:	5292                	lw	t0,36(sp)
    1e26:	8000                	0x8000
    1e28:	0006                	c.slli	zero,0x1
    1e2a:	935a                	add	t1,t1,s6
    1e2c:	5b04                	lw	s1,48(a4)
    1e2e:	52920493          	addi	s1,tp,1321 # 18529 <_tbss_end+0x184a5>
    1e32:	8000                	0x8000
    1e34:	5296                	lw	t0,100(sp)
    1e36:	8000                	0x8000
    1e38:	0006                	c.slli	zero,0x1
    1e3a:	0af503f3          	0xaf503f3
    1e3e:	9f25                	0x9f25
    1e40:	5296                	lw	t0,100(sp)
    1e42:	8000                	0x8000
    1e44:	5304                	lw	s1,32(a4)
    1e46:	8000                	0x8000
    1e48:	0006                	c.slli	zero,0x1
    1e4a:	935a                	add	t1,t1,s6
    1e4c:	5b04                	lw	s1,48(a4)
    1e4e:	53040493          	addi	s1,s0,1328
    1e52:	8000                	0x8000
    1e54:	531e                	lw	t1,228(sp)
    1e56:	8000                	0x8000
    1e58:	0006                	c.slli	zero,0x1
    1e5a:	0af503f3          	0xaf503f3
    1e5e:	9f25                	0x9f25
    1e60:	531e                	lw	t1,228(sp)
    1e62:	8000                	0x8000
    1e64:	5386                	lw	t2,96(sp)
    1e66:	8000                	0x8000
    1e68:	0006                	c.slli	zero,0x1
    1e6a:	935a                	add	t1,t1,s6
    1e6c:	5b04                	lw	s1,48(a4)
    1e6e:	53860493          	addi	s1,a2,1336
    1e72:	8000                	0x8000
    1e74:	5432                	lw	s0,44(sp)
    1e76:	8000                	0x8000
    1e78:	0006                	c.slli	zero,0x1
    1e7a:	0af503f3          	0xaf503f3
    1e7e:	9f25                	0x9f25
    1e80:	5432                	lw	s0,44(sp)
    1e82:	8000                	0x8000
    1e84:	54aa                	lw	s1,168(sp)
    1e86:	8000                	0x8000
    1e88:	0006                	c.slli	zero,0x1
    1e8a:	935a                	add	t1,t1,s6
    1e8c:	5b04                	lw	s1,48(a4)
    1e8e:	54aa0493          	addi	s1,s4,1354 # ffff754a <__global_pointer$+0x6fff6d4a>
    1e92:	8000                	0x8000
    1e94:	54d8                	lw	a4,44(s1)
    1e96:	8000                	0x8000
    1e98:	0006                	c.slli	zero,0x1
    1e9a:	0af503f3          	0xaf503f3
    1e9e:	9f25                	0x9f25
    1ea0:	54d8                	lw	a4,44(s1)
    1ea2:	8000                	0x8000
    1ea4:	54f6                	lw	s1,124(sp)
    1ea6:	8000                	0x8000
    1ea8:	0006                	c.slli	zero,0x1
    1eaa:	935a                	add	t1,t1,s6
    1eac:	5b04                	lw	s1,48(a4)
    1eae:	54f60493          	addi	s1,a2,1359
    1eb2:	8000                	0x8000
    1eb4:	5518                	lw	a4,40(a0)
    1eb6:	8000                	0x8000
    1eb8:	0006                	c.slli	zero,0x1
    1eba:	0af503f3          	0xaf503f3
    1ebe:	9f25                	0x9f25
	...
    1ec8:	5198                	lw	a4,32(a1)
    1eca:	8000                	0x8000
    1ecc:	51ec                	lw	a1,100(a1)
    1ece:	8000                	0x8000
    1ed0:	0006                	c.slli	zero,0x1
    1ed2:	935c                	0x935c
    1ed4:	5d04                	lw	s1,56(a0)
    1ed6:	51ec0493          	addi	s1,s8,1310 # fffe951e <__global_pointer$+0x6ffe8d1e>
    1eda:	8000                	0x8000
    1edc:	5248                	lw	a0,36(a2)
    1ede:	8000                	0x8000
    1ee0:	0006                	c.slli	zero,0x1
    1ee2:	0cf503f3          	0xcf503f3
    1ee6:	9f25                	0x9f25
    1ee8:	5248                	lw	a0,36(a2)
    1eea:	8000                	0x8000
    1eec:	52d6                	lw	t0,116(sp)
    1eee:	8000                	0x8000
    1ef0:	0006                	c.slli	zero,0x1
    1ef2:	935c                	0x935c
    1ef4:	5d04                	lw	s1,56(a0)
    1ef6:	52d60493          	addi	s1,a2,1325
    1efa:	8000                	0x8000
    1efc:	531e                	lw	t1,228(sp)
    1efe:	8000                	0x8000
    1f00:	0006                	c.slli	zero,0x1
    1f02:	0cf503f3          	0xcf503f3
    1f06:	9f25                	0x9f25
    1f08:	531e                	lw	t1,228(sp)
    1f0a:	8000                	0x8000
    1f0c:	5394                	lw	a3,32(a5)
    1f0e:	8000                	0x8000
    1f10:	0006                	c.slli	zero,0x1
    1f12:	935c                	0x935c
    1f14:	5d04                	lw	s1,56(a0)
    1f16:	53940493          	addi	s1,s0,1337
    1f1a:	8000                	0x8000
    1f1c:	5432                	lw	s0,44(sp)
    1f1e:	8000                	0x8000
    1f20:	0006                	c.slli	zero,0x1
    1f22:	0cf503f3          	0xcf503f3
    1f26:	9f25                	0x9f25
    1f28:	5432                	lw	s0,44(sp)
    1f2a:	8000                	0x8000
    1f2c:	543e                	lw	s0,236(sp)
    1f2e:	8000                	0x8000
    1f30:	0006                	c.slli	zero,0x1
    1f32:	935c                	0x935c
    1f34:	5d04                	lw	s1,56(a0)
    1f36:	543e0493          	addi	s1,t3,1347
    1f3a:	8000                	0x8000
    1f3c:	54d8                	lw	a4,44(s1)
    1f3e:	8000                	0x8000
    1f40:	0006                	c.slli	zero,0x1
    1f42:	0cf503f3          	0xcf503f3
    1f46:	9f25                	0x9f25
    1f48:	54d8                	lw	a4,44(s1)
    1f4a:	8000                	0x8000
    1f4c:	54f6                	lw	s1,124(sp)
    1f4e:	8000                	0x8000
    1f50:	0006                	c.slli	zero,0x1
    1f52:	935c                	0x935c
    1f54:	5d04                	lw	s1,56(a0)
    1f56:	54f60493          	addi	s1,a2,1359
    1f5a:	8000                	0x8000
    1f5c:	5518                	lw	a4,40(a0)
    1f5e:	8000                	0x8000
    1f60:	0006                	c.slli	zero,0x1
    1f62:	0cf503f3          	0xcf503f3
    1f66:	9f25                	0x9f25
	...
    1f70:	5198                	lw	a4,32(a1)
    1f72:	8000                	0x8000
    1f74:	54d6                	lw	s1,116(sp)
    1f76:	8000                	0x8000
    1f78:	0006                	c.slli	zero,0x1
    1f7a:	ddf2                	sw	t3,248(sp)
    1f7c:	00000013          	nop
    1f80:	54d8                	lw	a4,44(s1)
    1f82:	8000                	0x8000
    1f84:	5518                	lw	a4,40(a0)
    1f86:	8000                	0x8000
    1f88:	0006                	c.slli	zero,0x1
    1f8a:	ddf2                	sw	t3,248(sp)
    1f8c:	00000013          	nop
	...
    1f98:	5198                	lw	a4,32(a1)
    1f9a:	8000                	0x8000
    1f9c:	51b2                	lw	gp,44(sp)
    1f9e:	8000                	0x8000
    1fa0:	0006                	c.slli	zero,0x1
    1fa2:	935c                	0x935c
    1fa4:	5d04                	lw	s1,56(a0)
    1fa6:	51b20493          	addi	s1,tp,1307 # 51b <_tbss_end+0x497>
    1faa:	8000                	0x8000
    1fac:	51bc                	lw	a5,96(a1)
    1fae:	8000                	0x8000
    1fb0:	0006                	c.slli	zero,0x1
    1fb2:	935c                	0x935c
    1fb4:	5f04                	lw	s1,56(a4)
    1fb6:	52480493          	addi	s1,a6,1316
    1fba:	8000                	0x8000
    1fbc:	528c                	lw	a1,32(a3)
    1fbe:	8000                	0x8000
    1fc0:	0006                	c.slli	zero,0x1
    1fc2:	935c                	0x935c
    1fc4:	5d04                	lw	s1,56(a0)
    1fc6:	52960493          	addi	s1,a2,1321
    1fca:	8000                	0x8000
    1fcc:	52b0                	lw	a2,96(a3)
    1fce:	8000                	0x8000
    1fd0:	0006                	c.slli	zero,0x1
    1fd2:	935c                	0x935c
    1fd4:	5d04                	lw	s1,56(a0)
    1fd6:	531e0493          	addi	s1,t3,1329
    1fda:	8000                	0x8000
    1fdc:	5334                	lw	a3,96(a4)
    1fde:	8000                	0x8000
    1fe0:	0006                	c.slli	zero,0x1
    1fe2:	935c                	0x935c
    1fe4:	5d04                	lw	s1,56(a0)
    1fe6:	53340493          	addi	s1,s0,1331
    1fea:	8000                	0x8000
    1fec:	533e                	lw	t1,236(sp)
    1fee:	8000                	0x8000
    1ff0:	0006                	c.slli	zero,0x1
    1ff2:	935c                	0x935c
    1ff4:	5f04                	lw	s1,56(a4)
    1ff6:	53400493          	li	s1,1332
    1ffa:	8000                	0x8000
    1ffc:	534c                	lw	a1,36(a4)
    1ffe:	8000                	0x8000
    2000:	0006                	c.slli	zero,0x1
    2002:	935c                	0x935c
    2004:	5d04                	lw	s1,56(a0)
    2006:	53500493          	li	s1,1333
    200a:	8000                	0x8000
    200c:	5358                	lw	a4,36(a4)
    200e:	8000                	0x8000
    2010:	0006                	c.slli	zero,0x1
    2012:	935c                	0x935c
    2014:	5d04                	lw	s1,56(a0)
    2016:	54d80493          	addi	s1,a6,1357
    201a:	8000                	0x8000
    201c:	54ea                	lw	s1,184(sp)
    201e:	8000                	0x8000
    2020:	0006                	c.slli	zero,0x1
    2022:	935c                	0x935c
    2024:	5d04                	lw	s1,56(a0)
    2026:	54ee0493          	addi	s1,t3,1358
    202a:	8000                	0x8000
    202c:	54f2                	lw	s1,60(sp)
    202e:	8000                	0x8000
    2030:	0006                	c.slli	zero,0x1
    2032:	935c                	0x935c
    2034:	5d04                	lw	s1,56(a0)
    2036:	00000493          	li	s1,0
    203a:	0000                	unimp
    203c:	0000                	unimp
    203e:	0000                	unimp
    2040:	5198                	lw	a4,32(a1)
    2042:	8000                	0x8000
    2044:	51d8                	lw	a4,36(a1)
    2046:	8000                	0x8000
    2048:	0006                	c.slli	zero,0x1
    204a:	935a                	add	t1,t1,s6
    204c:	5b04                	lw	s1,48(a4)
    204e:	51d80493          	addi	s1,a6,1309
    2052:	8000                	0x8000
    2054:	51e4                	lw	s1,100(a1)
    2056:	8000                	0x8000
    2058:	0006                	c.slli	zero,0x1
    205a:	935a                	add	t1,t1,s6
    205c:	6c04                	flw	fs1,24(s0)
    205e:	52480493          	addi	s1,a6,1316
    2062:	8000                	0x8000
    2064:	526e                	lw	tp,248(sp)
    2066:	8000                	0x8000
    2068:	0006                	c.slli	zero,0x1
    206a:	9356                	add	t1,t1,s5
    206c:	5b04                	lw	s1,48(a4)
    206e:	526e0493          	addi	s1,t3,1318
    2072:	8000                	0x8000
    2074:	5288                	lw	a0,32(a3)
    2076:	8000                	0x8000
    2078:	0006                	c.slli	zero,0x1
    207a:	935a                	add	t1,t1,s6
    207c:	5b04                	lw	s1,48(a4)
    207e:	52880493          	addi	s1,a6,1320
    2082:	8000                	0x8000
    2084:	5290                	lw	a2,32(a3)
    2086:	8000                	0x8000
    2088:	0006                	c.slli	zero,0x1
    208a:	935a                	add	t1,t1,s6
    208c:	6c04                	flw	fs1,24(s0)
    208e:	52960493          	addi	s1,a2,1321
    2092:	8000                	0x8000
    2094:	52d2                	lw	t0,52(sp)
    2096:	8000                	0x8000
    2098:	0006                	c.slli	zero,0x1
    209a:	9356                	add	t1,t1,s5
    209c:	5b04                	lw	s1,48(a4)
    209e:	531e0493          	addi	s1,t3,1329
    20a2:	8000                	0x8000
    20a4:	5350                	lw	a2,36(a4)
    20a6:	8000                	0x8000
    20a8:	0006                	c.slli	zero,0x1
    20aa:	9356                	add	t1,t1,s5
    20ac:	5b04                	lw	s1,48(a4)
    20ae:	53500493          	li	s1,1333
    20b2:	8000                	0x8000
    20b4:	5378                	lw	a4,100(a4)
    20b6:	8000                	0x8000
    20b8:	0006                	c.slli	zero,0x1
    20ba:	935a                	add	t1,t1,s6
    20bc:	5b04                	lw	s1,48(a4)
    20be:	53780493          	addi	s1,a6,1335
    20c2:	8000                	0x8000
    20c4:	5386                	lw	t2,96(sp)
    20c6:	8000                	0x8000
    20c8:	0006                	c.slli	zero,0x1
    20ca:	935a                	add	t1,t1,s6
    20cc:	6c04                	flw	fs1,24(s0)
    20ce:	54320493          	addi	s1,tp,1347 # 543 <_tbss_end+0x4bf>
    20d2:	8000                	0x8000
    20d4:	5452                	lw	s0,52(sp)
    20d6:	8000                	0x8000
    20d8:	0006                	c.slli	zero,0x1
    20da:	9356                	add	t1,t1,s5
    20dc:	5b04                	lw	s1,48(a4)
    20de:	54d80493          	addi	s1,a6,1357
    20e2:	8000                	0x8000
    20e4:	54f6                	lw	s1,124(sp)
    20e6:	8000                	0x8000
    20e8:	0006                	c.slli	zero,0x1
    20ea:	9356                	add	t1,t1,s5
    20ec:	5b04                	lw	s1,48(a4)
    20ee:	00000493          	li	s1,0
    20f2:	0000                	unimp
    20f4:	0000                	unimp
    20f6:	0000                	unimp
    20f8:	519c                	lw	a5,32(a1)
    20fa:	8000                	0x8000
    20fc:	51e0                	lw	s0,100(a1)
    20fe:	8000                	0x8000
    2100:	0001                	nop
    2102:	e05c                	fsw	fa5,4(s0)
    2104:	0051                	c.nop	20
    2106:	4880                	lw	s0,16(s1)
    2108:	0052                	c.slli	zero,0x14
    210a:	0180                	addi	s0,sp,192
    210c:	6000                	flw	fs0,0(s0)
    210e:	5248                	lw	a0,36(a2)
    2110:	8000                	0x8000
    2112:	529e                	lw	t0,228(sp)
    2114:	8000                	0x8000
    2116:	0001                	nop
    2118:	9e5c                	0x9e5c
    211a:	0052                	c.slli	zero,0x14
    211c:	1e80                	addi	s0,sp,880
    211e:	01800053          	fadd.s	ft0,ft0,fs8,rne
    2122:	6000                	flw	fs0,0(s0)
    2124:	531e                	lw	t1,228(sp)
    2126:	8000                	0x8000
    2128:	532e                	lw	t1,232(sp)
    212a:	8000                	0x8000
    212c:	0001                	nop
    212e:	2e5c                	fld	fa5,152(a2)
    2130:	38800053          	0x38800053
    2134:	01800053          	fadd.s	ft0,ft0,fs8,rne
    2138:	6000                	flw	fs0,0(s0)
    213a:	5338                	lw	a4,96(a4)
    213c:	8000                	0x8000
    213e:	533c                	lw	a5,96(a4)
    2140:	8000                	0x8000
    2142:	0001                	nop
    2144:	3c5d                	jal	1bfa <_tbss_end+0x1b76>
    2146:	40800053          	0x40800053
    214a:	01800053          	fadd.s	ft0,ft0,fs8,rne
    214e:	6000                	flw	fs0,0(s0)
    2150:	5340                	lw	s0,36(a4)
    2152:	8000                	0x8000
    2154:	5382                	lw	t2,32(sp)
    2156:	8000                	0x8000
    2158:	0001                	nop
    215a:	825c                	0x825c
    215c:	30800053          	0x30800053
    2160:	0054                	addi	a3,sp,4
    2162:	0180                	addi	s0,sp,192
    2164:	5f00                	lw	s0,56(a4)
    2166:	5432                	lw	s0,44(sp)
    2168:	8000                	0x8000
    216a:	54aa                	lw	s1,168(sp)
    216c:	8000                	0x8000
    216e:	0001                	nop
    2170:	aa60                	fsd	fs0,208(a2)
    2172:	0054                	addi	a3,sp,4
    2174:	ae80                	fsd	fs0,24(a3)
    2176:	0054                	addi	a3,sp,4
    2178:	0180                	addi	s0,sp,192
    217a:	5f00                	lw	s0,56(a4)
    217c:	54d8                	lw	a4,44(s1)
    217e:	8000                	0x8000
    2180:	54e6                	lw	s1,120(sp)
    2182:	8000                	0x8000
    2184:	0001                	nop
    2186:	e65c                	fsw	fa5,12(a2)
    2188:	0054                	addi	a3,sp,4
    218a:	ee80                	fsw	fs0,24(a3)
    218c:	0054                	addi	a3,sp,4
    218e:	0180                	addi	s0,sp,192
    2190:	6000                	flw	fs0,0(s0)
    2192:	54ee                	lw	s1,248(sp)
    2194:	8000                	0x8000
    2196:	54f6                	lw	s1,124(sp)
    2198:	8000                	0x8000
    219a:	0001                	nop
    219c:	f65c                	fsw	fa5,44(a2)
    219e:	0054                	addi	a3,sp,4
    21a0:	0a80                	addi	s0,sp,336
    21a2:	0055                	c.nop	21
    21a4:	0180                	addi	s0,sp,192
    21a6:	5f00                	lw	s0,56(a4)
    21a8:	550a                	lw	a0,160(sp)
    21aa:	8000                	0x8000
    21ac:	550e                	lw	a0,224(sp)
    21ae:	8000                	0x8000
    21b0:	0001                	nop
    21b2:	0e60                	addi	s0,sp,796
    21b4:	0055                	c.nop	21
    21b6:	1480                	addi	s0,sp,608
    21b8:	0055                	c.nop	21
    21ba:	0180                	addi	s0,sp,192
    21bc:	5f00                	lw	s0,56(a4)
	...
    21c6:	519c                	lw	a5,32(a1)
    21c8:	8000                	0x8000
    21ca:	51b2                	lw	gp,44(sp)
    21cc:	8000                	0x8000
    21ce:	0001                	nop
    21d0:	b25d                	j	1b76 <_tbss_end+0x1af2>
    21d2:	0051                	c.nop	20
    21d4:	bc80                	fsd	fs0,56(s1)
    21d6:	0051                	c.nop	20
    21d8:	0180                	addi	s0,sp,192
    21da:	5f00                	lw	s0,56(a4)
    21dc:	5248                	lw	a0,36(a2)
    21de:	8000                	0x8000
    21e0:	528c                	lw	a1,32(a3)
    21e2:	8000                	0x8000
    21e4:	0001                	nop
    21e6:	965d                	srai	a2,a2,0x37
    21e8:	0052                	c.slli	zero,0x14
    21ea:	b080                	fsd	fs0,32(s1)
    21ec:	0052                	c.slli	zero,0x14
    21ee:	0180                	addi	s0,sp,192
    21f0:	5d00                	lw	s0,56(a0)
    21f2:	531e                	lw	t1,228(sp)
    21f4:	8000                	0x8000
    21f6:	5334                	lw	a3,96(a4)
    21f8:	8000                	0x8000
    21fa:	0001                	nop
    21fc:	345d                	jal	1ca2 <_tbss_end+0x1c1e>
    21fe:	3e800053          	0x3e800053
    2202:	01800053          	fadd.s	ft0,ft0,fs8,rne
    2206:	5f00                	lw	s0,56(a4)
    2208:	5340                	lw	s0,36(a4)
    220a:	8000                	0x8000
    220c:	534c                	lw	a1,36(a4)
    220e:	8000                	0x8000
    2210:	0001                	nop
    2212:	505d                	c.li	zero,-9
    2214:	58800053          	0x58800053
    2218:	01800053          	fadd.s	ft0,ft0,fs8,rne
    221c:	5d00                	lw	s0,56(a0)
    221e:	535c                	lw	a5,36(a4)
    2220:	8000                	0x8000
    2222:	5432                	lw	s0,44(sp)
    2224:	8000                	0x8000
    2226:	0001                	nop
    2228:	aa5d                	j	23de <_tbss_end+0x235a>
    222a:	0054                	addi	a3,sp,4
    222c:	d680                	sw	s0,40(a3)
    222e:	0054                	addi	a3,sp,4
    2230:	0180                	addi	s0,sp,192
    2232:	5d00                	lw	s0,56(a0)
    2234:	54d8                	lw	a4,44(s1)
    2236:	8000                	0x8000
    2238:	54ea                	lw	s1,184(sp)
    223a:	8000                	0x8000
    223c:	0001                	nop
    223e:	ee5d                	bnez	a2,22fc <_tbss_end+0x2278>
    2240:	0054                	addi	a3,sp,4
    2242:	f280                	fsw	fs0,32(a3)
    2244:	0054                	addi	a3,sp,4
    2246:	0180                	addi	s0,sp,192
    2248:	5d00                	lw	s0,56(a0)
    224a:	54f6                	lw	s1,124(sp)
    224c:	8000                	0x8000
    224e:	550a                	lw	a0,160(sp)
    2250:	8000                	0x8000
    2252:	0001                	nop
    2254:	0e5d                	addi	t3,t3,23
    2256:	0055                	c.nop	21
    2258:	1880                	addi	s0,sp,112
    225a:	0055                	c.nop	21
    225c:	0180                	addi	s0,sp,192
    225e:	5d00                	lw	s0,56(a0)
	...
    2268:	519e                	lw	gp,228(sp)
    226a:	8000                	0x8000
    226c:	51e8                	lw	a0,100(a1)
    226e:	8000                	0x8000
    2270:	0001                	nop
    2272:	e85a                	fsw	fs6,16(sp)
    2274:	0051                	c.nop	20
    2276:	3080                	fld	fs0,32(s1)
    2278:	0052                	c.slli	zero,0x14
    227a:	0180                	addi	s0,sp,192
    227c:	5600                	lw	s0,40(a2)
    227e:	5240                	lw	s0,36(a2)
    2280:	8000                	0x8000
    2282:	5244                	lw	s1,36(a2)
    2284:	8000                	0x8000
    2286:	0001                	nop
    2288:	485a                	lw	a6,148(sp)
    228a:	0052                	c.slli	zero,0x14
    228c:	6e80                	flw	fs0,24(a3)
    228e:	0052                	c.slli	zero,0x14
    2290:	0180                	addi	s0,sp,192
    2292:	5600                	lw	s0,40(a2)
    2294:	526e                	lw	tp,248(sp)
    2296:	8000                	0x8000
    2298:	5290                	lw	a2,32(a3)
    229a:	8000                	0x8000
    229c:	0001                	nop
    229e:	965a                	add	a2,a2,s6
    22a0:	0052                	c.slli	zero,0x14
    22a2:	0680                	addi	s0,sp,832
    22a4:	01800053          	fadd.s	ft0,ft0,fs8,rne
    22a8:	5600                	lw	s0,40(a2)
    22aa:	531e                	lw	t1,228(sp)
    22ac:	8000                	0x8000
    22ae:	5350                	lw	a2,36(a4)
    22b0:	8000                	0x8000
    22b2:	0001                	nop
    22b4:	5056                	0x5056
    22b6:	32800053          	0x32800053
    22ba:	0054                	addi	a3,sp,4
    22bc:	0180                	addi	s0,sp,192
    22be:	5a00                	lw	s0,48(a2)
    22c0:	5432                	lw	s0,44(sp)
    22c2:	8000                	0x8000
    22c4:	54aa                	lw	s1,168(sp)
    22c6:	8000                	0x8000
    22c8:	0001                	nop
    22ca:	aa56                	fsd	fs5,272(sp)
    22cc:	0054                	addi	a3,sp,4
    22ce:	c480                	sw	s0,8(s1)
    22d0:	0054                	addi	a3,sp,4
    22d2:	0180                	addi	s0,sp,192
    22d4:	5a00                	lw	s0,48(a2)
    22d6:	54c6                	lw	s1,112(sp)
    22d8:	8000                	0x8000
    22da:	54d6                	lw	s1,116(sp)
    22dc:	8000                	0x8000
    22de:	0001                	nop
    22e0:	d85f 0054 f680      	0xf6800054d85f
    22e6:	0054                	addi	a3,sp,4
    22e8:	0180                	addi	s0,sp,192
    22ea:	5600                	lw	s0,40(a2)
    22ec:	54f6                	lw	s1,124(sp)
    22ee:	8000                	0x8000
    22f0:	550a                	lw	a0,160(sp)
    22f2:	8000                	0x8000
    22f4:	0001                	nop
    22f6:	0a5a                	slli	s4,s4,0x16
    22f8:	0055                	c.nop	21
    22fa:	0e80                	addi	s0,sp,848
    22fc:	0055                	c.nop	21
    22fe:	0180                	addi	s0,sp,192
    2300:	5600                	lw	s0,40(a2)
    2302:	550e                	lw	a0,224(sp)
    2304:	8000                	0x8000
    2306:	5518                	lw	a4,40(a0)
    2308:	8000                	0x8000
    230a:	0001                	nop
    230c:	005a                	c.slli	zero,0x16
    230e:	0000                	unimp
    2310:	0000                	unimp
    2312:	0000                	unimp
    2314:	a000                	fsd	fs0,0(s0)
    2316:	0051                	c.nop	20
    2318:	d880                	sw	s0,48(s1)
    231a:	0051                	c.nop	20
    231c:	0180                	addi	s0,sp,192
    231e:	5b00                	lw	s0,48(a4)
    2320:	51d8                	lw	a4,36(a1)
    2322:	8000                	0x8000
    2324:	5230                	lw	a2,96(a2)
    2326:	8000                	0x8000
    2328:	0001                	nop
    232a:	486c                	lw	a1,84(s0)
    232c:	0052                	c.slli	zero,0x14
    232e:	8880                	0x8880
    2330:	0052                	c.slli	zero,0x14
    2332:	0180                	addi	s0,sp,192
    2334:	5b00                	lw	s0,48(a4)
    2336:	5288                	lw	a0,32(a3)
    2338:	8000                	0x8000
    233a:	5296                	lw	t0,100(sp)
    233c:	8000                	0x8000
    233e:	0001                	nop
    2340:	966c                	0x966c
    2342:	0052                	c.slli	zero,0x14
    2344:	e680                	fsw	fs0,8(a3)
    2346:	0052                	c.slli	zero,0x14
    2348:	0180                	addi	s0,sp,192
    234a:	5b00                	lw	s0,48(a4)
    234c:	531e                	lw	t1,228(sp)
    234e:	8000                	0x8000
    2350:	5378                	lw	a4,100(a4)
    2352:	8000                	0x8000
    2354:	0001                	nop
    2356:	0053785b          	0x53785b
    235a:	8280                	0x8280
    235c:	01800053          	fadd.s	ft0,ft0,fs8,rne
    2360:	6c00                	flw	fs0,24(s0)
    2362:	5382                	lw	t2,32(sp)
    2364:	8000                	0x8000
    2366:	53ae                	lw	t2,232(sp)
    2368:	8000                	0x8000
    236a:	0001                	nop
    236c:	0053f25b          	0x53f25b
    2370:	3280                	fld	fs0,32(a3)
    2372:	0054                	addi	a3,sp,4
    2374:	0180                	addi	s0,sp,192
    2376:	5e00                	lw	s0,56(a2)
    2378:	5432                	lw	s0,44(sp)
    237a:	8000                	0x8000
    237c:	5452                	lw	s0,52(sp)
    237e:	8000                	0x8000
    2380:	0001                	nop
    2382:	0054545b          	0x54545b
    2386:	9480                	0x9480
    2388:	0054                	addi	a3,sp,4
    238a:	0180                	addi	s0,sp,192
    238c:	5b00                	lw	s0,48(a4)
    238e:	54a8                	lw	a0,104(s1)
    2390:	8000                	0x8000
    2392:	54aa                	lw	s1,168(sp)
    2394:	8000                	0x8000
    2396:	0001                	nop
    2398:	0054aa5b          	0x54aa5b
    239c:	c680                	sw	s0,8(a3)
    239e:	0054                	addi	a3,sp,4
    23a0:	0180                	addi	s0,sp,192
    23a2:	5e00                	lw	s0,56(a2)
    23a4:	54c6                	lw	s1,112(sp)
    23a6:	8000                	0x8000
    23a8:	54d6                	lw	s1,116(sp)
    23aa:	8000                	0x8000
    23ac:	0001                	nop
    23ae:	0054d85b          	0x54d85b
    23b2:	f680                	fsw	fs0,40(a3)
    23b4:	0054                	addi	a3,sp,4
    23b6:	0180                	addi	s0,sp,192
    23b8:	5b00                	lw	s0,48(a4)
    23ba:	5500                	lw	s0,40(a0)
    23bc:	8000                	0x8000
    23be:	550a                	lw	a0,160(sp)
    23c0:	8000                	0x8000
    23c2:	0001                	nop
    23c4:	00550a5b          	0x550a5b
    23c8:	0e80                	addi	s0,sp,848
    23ca:	0055                	c.nop	21
    23cc:	0180                	addi	s0,sp,192
    23ce:	6c00                	flw	fs0,24(s0)
    23d0:	550e                	lw	a0,224(sp)
    23d2:	8000                	0x8000
    23d4:	5518                	lw	a4,40(a0)
    23d6:	8000                	0x8000
    23d8:	0001                	nop
    23da:	005e                	c.slli	zero,0x17
    23dc:	0000                	unimp
    23de:	0000                	unimp
    23e0:	0000                	unimp
    23e2:	8200                	0x8200
    23e4:	8a800053          	0x8a800053
    23e8:	01800053          	fadd.s	ft0,ft0,fs8,rne
    23ec:	6000                	flw	fs0,0(s0)
    23ee:	538a                	lw	t2,160(sp)
    23f0:	8000                	0x8000
    23f2:	538e                	lw	t2,224(sp)
    23f4:	8000                	0x8000
    23f6:	0006                	c.slli	zero,0x1
    23f8:	008c                	addi	a1,sp,64
    23fa:	008d                	addi	ra,ra,3
    23fc:	9f25                	0x9f25
    23fe:	543a                	lw	s0,172(sp)
    2400:	8000                	0x8000
    2402:	5460                	lw	s0,108(s0)
    2404:	8000                	0x8000
    2406:	0001                	nop
    2408:	005e                	c.slli	zero,0x17
    240a:	0000                	unimp
    240c:	0000                	unimp
    240e:	0000                	unimp
    2410:	8200                	0x8200
    2412:	0052                	c.slli	zero,0x14
    2414:	9080                	0x9080
    2416:	0052                	c.slli	zero,0x14
    2418:	0280                	addi	s0,sp,320
    241a:	3100                	fld	fs0,32(a0)
    241c:	009f 0000 0000      	0x9f
    2422:	0000                	unimp
    2424:	9000                	0x9000
    2426:	0052                	c.slli	zero,0x14
    2428:	9680                	0x9680
    242a:	0052                	c.slli	zero,0x14
    242c:	0280                	addi	s0,sp,320
    242e:	3000                	fld	fs0,32(s0)
    2430:	d29f 0052 da80      	0xda800052d29f
    2436:	0052                	c.slli	zero,0x14
    2438:	0280                	addi	s0,sp,320
    243a:	3100                	fld	fs0,32(a0)
    243c:	bc9f 0054 d680      	0xd6800054bc9f
    2442:	0054                	addi	a3,sp,4
    2444:	0280                	addi	s0,sp,320
    2446:	3000                	fld	fs0,32(s0)
    2448:	009f 0000 0000      	0x9f
    244e:	0000                	unimp
    2450:	5000                	lw	s0,32(s0)
    2452:	32800053          	0x32800053
    2456:	0054                	addi	a3,sp,4
    2458:	0180                	addi	s0,sp,192
    245a:	6d00                	flw	fs0,24(a0)
    245c:	5432                	lw	s0,44(sp)
    245e:	8000                	0x8000
    2460:	544a                	lw	s0,176(sp)
    2462:	8000                	0x8000
    2464:	0001                	nop
    2466:	aa5f 0054 ca80      	0xca800054aa5f
    246c:	0054                	addi	a3,sp,4
    246e:	0180                	addi	s0,sp,192
    2470:	6d00                	flw	fs0,24(a0)
    2472:	54f6                	lw	s1,124(sp)
    2474:	8000                	0x8000
    2476:	550a                	lw	a0,160(sp)
    2478:	8000                	0x8000
    247a:	0001                	nop
    247c:	0e6d                	addi	t3,t3,27
    247e:	0055                	c.nop	21
    2480:	1880                	addi	s0,sp,112
    2482:	0055                	c.nop	21
    2484:	0180                	addi	s0,sp,192
    2486:	6d00                	flw	fs0,24(a0)
	...
    2490:	51d0                	lw	a2,36(a1)
    2492:	8000                	0x8000
    2494:	5246                	lw	tp,112(sp)
    2496:	8000                	0x8000
    2498:	0001                	nop
    249a:	7461                	lui	s0,0xffff8
    249c:	0052                	c.slli	zero,0x14
    249e:	9680                	0x9680
    24a0:	0052                	c.slli	zero,0x14
    24a2:	0180                	addi	s0,sp,192
    24a4:	5600                	lw	s0,40(a2)
    24a6:	52c6                	lw	t0,112(sp)
    24a8:	8000                	0x8000
    24aa:	531e                	lw	t1,228(sp)
    24ac:	8000                	0x8000
    24ae:	0001                	nop
    24b0:	5061                	c.li	zero,-8
    24b2:	32800053          	0x32800053
    24b6:	0054                	addi	a3,sp,4
    24b8:	0180                	addi	s0,sp,192
    24ba:	5600                	lw	s0,40(a2)
    24bc:	5432                	lw	s0,44(sp)
    24be:	8000                	0x8000
    24c0:	54aa                	lw	s1,168(sp)
    24c2:	8000                	0x8000
    24c4:	0001                	nop
    24c6:	aa61                	j	265e <_tbss_end+0x25da>
    24c8:	0054                	addi	a3,sp,4
    24ca:	d680                	sw	s0,40(a3)
    24cc:	0054                	addi	a3,sp,4
    24ce:	0180                	addi	s0,sp,192
    24d0:	5600                	lw	s0,40(a2)
    24d2:	54f6                	lw	s1,124(sp)
    24d4:	8000                	0x8000
    24d6:	550a                	lw	a0,160(sp)
    24d8:	8000                	0x8000
    24da:	0001                	nop
    24dc:	0a56                	slli	s4,s4,0x15
    24de:	0055                	c.nop	21
    24e0:	0e80                	addi	s0,sp,848
    24e2:	0055                	c.nop	21
    24e4:	0180                	addi	s0,sp,192
    24e6:	6100                	flw	fs0,0(a0)
    24e8:	550e                	lw	a0,224(sp)
    24ea:	8000                	0x8000
    24ec:	5518                	lw	a4,40(a0)
    24ee:	8000                	0x8000
    24f0:	0001                	nop
    24f2:	0056                	c.slli	zero,0x15
    24f4:	0000                	unimp
    24f6:	0000                	unimp
    24f8:	0000                	unimp
    24fa:	a600                	fsd	fs0,8(a2)
    24fc:	0051                	c.nop	20
    24fe:	ec80                	fsw	fs0,24(s1)
    2500:	0051                	c.nop	20
    2502:	0180                	addi	s0,sp,192
    2504:	5c00                	lw	s0,56(s0)
    2506:	5340                	lw	s0,36(a4)
    2508:	8000                	0x8000
    250a:	5350                	lw	a2,36(a4)
    250c:	8000                	0x8000
    250e:	0001                	nop
    2510:	ee5c                	fsw	fa5,28(a2)
    2512:	0054                	addi	a3,sp,4
    2514:	f680                	fsw	fs0,40(a3)
    2516:	0054                	addi	a3,sp,4
    2518:	0180                	addi	s0,sp,192
    251a:	5c00                	lw	s0,56(s0)
	...
    2524:	51bc                	lw	a5,96(a1)
    2526:	8000                	0x8000
    2528:	51cc                	lw	a1,36(a1)
    252a:	8000                	0x8000
    252c:	0001                	nop
    252e:	005f 0000 0000      	0x5f
    2534:	0000                	unimp
    2536:	ec00                	fsw	fs0,24(s0)
    2538:	0051                	c.nop	20
    253a:	3080                	fld	fs0,32(s1)
    253c:	0052                	c.slli	zero,0x14
    253e:	0180                	addi	s0,sp,192
    2540:	5c00                	lw	s0,56(s0)
    2542:	550a                	lw	a0,160(sp)
    2544:	8000                	0x8000
    2546:	550e                	lw	a0,224(sp)
    2548:	8000                	0x8000
    254a:	0001                	nop
    254c:	005c                	addi	a5,sp,4
    254e:	0000                	unimp
    2550:	0000                	unimp
    2552:	0000                	unimp
    2554:	f600                	fsw	fs0,40(a2)
    2556:	0051                	c.nop	20
    2558:	2880                	fld	fs0,16(s1)
    255a:	0052                	c.slli	zero,0x14
    255c:	0180                	addi	s0,sp,192
    255e:	5a00                	lw	s0,48(a2)
    2560:	5228                	lw	a0,96(a2)
    2562:	8000                	0x8000
    2564:	5230                	lw	a2,96(a2)
    2566:	8000                	0x8000
    2568:	00800007          	0x800007
    256c:	2440                	fld	fs0,136(s0)
    256e:	2540                	fld	fs0,136(a0)
    2570:	0a9f 0055 0e80      	0xe8000550a9f
    2576:	0055                	c.nop	21
    2578:	0180                	addi	s0,sp,192
    257a:	5a00                	lw	s0,48(a2)
	...
    2584:	51fe                	lw	gp,252(sp)
    2586:	8000                	0x8000
    2588:	520a                	lw	tp,160(sp)
    258a:	8000                	0x8000
    258c:	000c                	0xc
    258e:	008c                	addi	a1,sp,64
    2590:	007c2cf7          	0x7c2cf7
    2594:	f71b2cf7          	0xf71b2cf7
    2598:	9f00                	0x9f00
    259a:	520a                	lw	tp,160(sp)
    259c:	8000                	0x8000
    259e:	5214                	lw	a3,32(a2)
    25a0:	8000                	0x8000
    25a2:	000e                	c.slli	zero,0x3
    25a4:	008c                	addi	a1,sp,64
    25a6:	007c2cf7          	0x7c2cf7
    25aa:	f71b2cf7          	0xf71b2cf7
    25ae:	3100                	fld	fs0,32(a0)
    25b0:	9f1c                	0x9f1c
    25b2:	550a                	lw	a0,160(sp)
    25b4:	8000                	0x8000
    25b6:	550e                	lw	a0,224(sp)
    25b8:	8000                	0x8000
    25ba:	000e                	c.slli	zero,0x3
    25bc:	008c                	addi	a1,sp,64
    25be:	007c2cf7          	0x7c2cf7
    25c2:	f71b2cf7          	0xf71b2cf7
    25c6:	3200                	fld	fs0,32(a2)
    25c8:	9f1c                	0x9f1c
	...
    25d2:	51fe                	lw	gp,252(sp)
    25d4:	8000                	0x8000
    25d6:	5204                	lw	s1,32(a2)
    25d8:	8000                	0x8000
    25da:	0001                	nop
    25dc:	045d                	addi	s0,s0,23
    25de:	0052                	c.slli	zero,0x14
    25e0:	0680                	addi	s0,sp,832
    25e2:	0052                	c.slli	zero,0x14
    25e4:	0680                	addi	s0,sp,832
    25e6:	8c00                	0x8c00
    25e8:	7c00                	flw	fs0,56(s0)
    25ea:	1d00                	addi	s0,sp,688
    25ec:	069f 0052 2480      	0x24800052069f
    25f2:	0052                	c.slli	zero,0x14
    25f4:	0180                	addi	s0,sp,192
    25f6:	5e00                	lw	s0,56(a2)
    25f8:	550a                	lw	a0,160(sp)
    25fa:	8000                	0x8000
    25fc:	550e                	lw	a0,224(sp)
    25fe:	8000                	0x8000
    2600:	0001                	nop
    2602:	005e                	c.slli	zero,0x17
    2604:	0000                	unimp
    2606:	0000                	unimp
    2608:	0000                	unimp
    260a:	2400                	fld	fs0,8(s0)
    260c:	0052                	c.slli	zero,0x14
    260e:	2a80                	fld	fs0,16(a3)
    2610:	0052                	c.slli	zero,0x14
    2612:	0180                	addi	s0,sp,192
    2614:	5e00                	lw	s0,56(a2)
    2616:	522c                	lw	a1,96(a2)
    2618:	8000                	0x8000
    261a:	5230                	lw	a2,96(a2)
    261c:	8000                	0x8000
    261e:	0001                	nop
    2620:	005f 0000 0000      	0x5f
    2626:	0000                	unimp
    2628:	0200                	addi	s0,sp,256
    262a:	0052                	c.slli	zero,0x14
    262c:	1e80                	addi	s0,sp,880
    262e:	0052                	c.slli	zero,0x14
    2630:	0180                	addi	s0,sp,192
    2632:	5f00                	lw	s0,56(a4)
    2634:	521e                	lw	tp,228(sp)
    2636:	8000                	0x8000
    2638:	5228                	lw	a0,96(a2)
    263a:	8000                	0x8000
    263c:	008c000f          	0x8c000f
    2640:	007c2cf7          	0x7c2cf7
    2644:	f71b2cf7          	0xf71b2cf7
    2648:	7a00                	flw	fs0,48(a2)
    264a:	1e00                	addi	s0,sp,816
    264c:	289f 0052 3080      	0x30800052289f
    2652:	0052                	c.slli	zero,0x14
    2654:	0180                	addi	s0,sp,192
    2656:	5a00                	lw	s0,48(a2)
    2658:	550a                	lw	a0,160(sp)
    265a:	8000                	0x8000
    265c:	550e                	lw	a0,224(sp)
    265e:	8000                	0x8000
    2660:	0001                	nop
    2662:	005f 0000 0000      	0x5f
    2668:	0000                	unimp
    266a:	da00                	sw	s0,48(a2)
    266c:	0052                	c.slli	zero,0x14
    266e:	1e80                	addi	s0,sp,880
    2670:	05800053          	0x5800053
    2674:	8000                	0x8000
    2676:	4000                	lw	s0,0(s0)
    2678:	9f25                	0x9f25
	...
    2682:	52da                	lw	t0,180(sp)
    2684:	8000                	0x8000
    2686:	531e                	lw	t1,228(sp)
    2688:	8000                	0x8000
    268a:	00800007          	0x800007
    268e:	ff0a                	fsw	ft2,188(sp)
    2690:	1aff                	0x1aff
    2692:	009f 0000 0000      	0x9f
    2698:	0000                	unimp
    269a:	e600                	fsw	fs0,8(a2)
    269c:	0052                	c.slli	zero,0x14
    269e:	ec80                	fsw	fs0,24(s1)
    26a0:	0052                	c.slli	zero,0x14
    26a2:	0180                	addi	s0,sp,192
    26a4:	5b00                	lw	s0,48(a4)
    26a6:	52ee                	lw	t0,248(sp)
    26a8:	8000                	0x8000
    26aa:	530e                	lw	t1,224(sp)
    26ac:	8000                	0x8000
    26ae:	0001                	nop
    26b0:	005e                	c.slli	zero,0x17
    26b2:	0000                	unimp
    26b4:	0000                	unimp
    26b6:	0000                	unimp
    26b8:	3200                	fld	fs0,32(a2)
    26ba:	0052                	c.slli	zero,0x14
    26bc:	4080                	lw	s0,0(s1)
    26be:	0052                	c.slli	zero,0x14
    26c0:	0180                	addi	s0,sp,192
    26c2:	5f00                	lw	s0,56(a4)
    26c4:	5240                	lw	s0,36(a2)
    26c6:	8000                	0x8000
    26c8:	5244                	lw	s1,36(a2)
    26ca:	8000                	0x8000
    26cc:	0001                	nop
    26ce:	0e5a                	slli	t3,t3,0x16
    26d0:	14800053          	0x14800053
    26d4:	01800053          	fadd.s	ft0,ft0,fs8,rne
    26d8:	5e00                	lw	s0,56(a2)
    26da:	5318                	lw	a4,32(a4)
    26dc:	8000                	0x8000
    26de:	531e                	lw	t1,228(sp)
    26e0:	8000                	0x8000
    26e2:	0001                	nop
    26e4:	005f 0000 0000      	0x5f
    26ea:	0000                	unimp
    26ec:	ea00                	fsw	fs0,16(a2)
    26ee:	0052                	c.slli	zero,0x14
    26f0:	1280                	addi	s0,sp,352
    26f2:	01800053          	fadd.s	ft0,ft0,fs8,rne
    26f6:	5d00                	lw	s0,56(a0)
    26f8:	5312                	lw	t1,36(sp)
    26fa:	8000                	0x8000
    26fc:	531e                	lw	t1,228(sp)
    26fe:	8000                	0x8000
    2700:	0001                	nop
    2702:	005a                	c.slli	zero,0x16
    2704:	0000                	unimp
    2706:	0000                	unimp
    2708:	0000                	unimp
    270a:	4c00                	lw	s0,24(s0)
    270c:	0052                	c.slli	zero,0x14
    270e:	8c80                	0x8c80
    2710:	0052                	c.slli	zero,0x14
    2712:	0180                	addi	s0,sp,192
    2714:	5d00                	lw	s0,56(a0)
    2716:	531e                	lw	t1,228(sp)
    2718:	8000                	0x8000
    271a:	532e                	lw	t1,232(sp)
    271c:	8000                	0x8000
    271e:	0001                	nop
    2720:	505d                	c.li	zero,-9
    2722:	58800053          	0x58800053
    2726:	01800053          	fadd.s	ft0,ft0,fs8,rne
    272a:	5d00                	lw	s0,56(a0)
    272c:	54d8                	lw	a4,44(s1)
    272e:	8000                	0x8000
    2730:	54e6                	lw	s1,120(sp)
    2732:	8000                	0x8000
    2734:	0001                	nop
    2736:	005d                	c.nop	23
    2738:	0000                	unimp
    273a:	0000                	unimp
    273c:	0000                	unimp
    273e:	6000                	flw	fs0,0(s0)
    2740:	0052                	c.slli	zero,0x14
    2742:	9680                	0x9680
    2744:	0052                	c.slli	zero,0x14
    2746:	0180                	addi	s0,sp,192
    2748:	5e00                	lw	s0,56(a2)
    274a:	5350                	lw	a2,36(a4)
    274c:	8000                	0x8000
    274e:	5364                	lw	s1,100(a4)
    2750:	8000                	0x8000
    2752:	0001                	nop
    2754:	005e                	c.slli	zero,0x17
    2756:	0000                	unimp
    2758:	0000                	unimp
    275a:	0000                	unimp
    275c:	8600                	0x8600
    275e:	0052                	c.slli	zero,0x14
    2760:	9080                	0x9080
    2762:	0052                	c.slli	zero,0x14
    2764:	0180                	addi	s0,sp,192
    2766:	6000                	flw	fs0,0(s0)
	...
    2770:	529e                	lw	t0,228(sp)
    2772:	8000                	0x8000
    2774:	52da                	lw	t0,180(sp)
    2776:	8000                	0x8000
    2778:	0001                	nop
    277a:	2e60                	fld	fs0,216(a2)
    277c:	38800053          	0x38800053
    2780:	01800053          	fadd.s	ft0,ft0,fs8,rne
    2784:	6000                	flw	fs0,0(s0)
    2786:	5338                	lw	a4,96(a4)
    2788:	8000                	0x8000
    278a:	533c                	lw	a5,96(a4)
    278c:	8000                	0x8000
    278e:	0001                	nop
    2790:	3c5d                	jal	2246 <_tbss_end+0x21c2>
    2792:	40800053          	0x40800053
    2796:	01800053          	fadd.s	ft0,ft0,fs8,rne
    279a:	6000                	flw	fs0,0(s0)
    279c:	5432                	lw	s0,44(sp)
    279e:	8000                	0x8000
    27a0:	5436                	lw	s0,108(sp)
    27a2:	8000                	0x8000
    27a4:	0001                	nop
    27a6:	e660                	fsw	fs0,76(a2)
    27a8:	0054                	addi	a3,sp,4
    27aa:	ee80                	fsw	fs0,24(a3)
    27ac:	0054                	addi	a3,sp,4
    27ae:	0180                	addi	s0,sp,192
    27b0:	6000                	flw	fs0,0(s0)
	...
    27ba:	52b2                	lw	t0,44(sp)
    27bc:	8000                	0x8000
    27be:	52c2                	lw	t0,48(sp)
    27c0:	8000                	0x8000
    27c2:	0001                	nop
    27c4:	005f 0000 0000      	0x5f
    27ca:	0000                	unimp
    27cc:	2000                	fld	fs0,0(s0)
    27ce:	0054                	addi	a3,sp,4
    27d0:	3280                	fld	fs0,32(a3)
    27d2:	0054                	addi	a3,sp,4
    27d4:	0180                	addi	s0,sp,192
    27d6:	6100                	flw	fs0,0(a0)
    27d8:	54aa                	lw	s1,168(sp)
    27da:	8000                	0x8000
    27dc:	54b2                	lw	s1,44(sp)
    27de:	8000                	0x8000
    27e0:	0001                	nop
    27e2:	b261                	j	216a <_tbss_end+0x20e6>
    27e4:	0054                	addi	a3,sp,4
    27e6:	b680                	fsd	fs0,40(a3)
    27e8:	0054                	addi	a3,sp,4
    27ea:	1480                	addi	s0,sp,608
    27ec:	7b00                	flw	fs0,48(a4)
    27ee:	7c00                	flw	fs0,56(s0)
    27f0:	4000                	lw	s0,0(s0)
    27f2:	7f22244b          	fnmsub.q	fs0,ft4,fs2,fa5,rdn
    27f6:	4000                	lw	s0,0(s0)
    27f8:	2d22244b          	0x2d22244b
    27fc:	ff08                	fsw	fa0,56(a4)
    27fe:	1c1a                	slli	s8,s8,0x26
    2800:	0e9f 0055 1880      	0x188000550e9f
    2806:	0055                	c.nop	21
    2808:	0180                	addi	s0,sp,192
    280a:	6100                	flw	fs0,0(a0)
	...
    2814:	5422                	lw	s0,40(sp)
    2816:	8000                	0x8000
    2818:	5432                	lw	s0,44(sp)
    281a:	8000                	0x8000
    281c:	0001                	nop
    281e:	aa5c                	fsd	fa5,144(a2)
    2820:	0054                	addi	a3,sp,4
    2822:	b280                	fsd	fs0,32(a3)
    2824:	0054                	addi	a3,sp,4
    2826:	0180                	addi	s0,sp,192
    2828:	5c00                	lw	s0,56(s0)
    282a:	54b2                	lw	s1,44(sp)
    282c:	8000                	0x8000
    282e:	54c0                	lw	s0,44(s1)
    2830:	8000                	0x8000
    2832:	0001                	nop
    2834:	0e5f 0055 1880      	0x188000550e5f
    283a:	0055                	c.nop	21
    283c:	0180                	addi	s0,sp,192
    283e:	5c00                	lw	s0,56(s0)
	...
    2848:	5386                	lw	t2,96(sp)
    284a:	8000                	0x8000
    284c:	53bc                	lw	a5,96(a5)
    284e:	8000                	0x8000
    2850:	0001                	nop
    2852:	bc5e                	fsd	fs7,56(sp)
    2854:	32800053          	0x32800053
    2858:	0054                	addi	a3,sp,4
    285a:	0580                	addi	s0,sp,704
    285c:	7d00                	flw	fs0,56(a0)
    285e:	4000                	lw	s0,0(s0)
    2860:	9f25                	0x9f25
    2862:	54aa                	lw	s1,168(sp)
    2864:	8000                	0x8000
    2866:	54d6                	lw	s1,116(sp)
    2868:	8000                	0x8000
    286a:	0005                	c.nop	1
    286c:	007d                	c.nop	31
    286e:	2540                	fld	fs0,136(a0)
    2870:	f69f 0054 0080      	0x800054f69f
    2876:	0055                	c.nop	21
    2878:	0580                	addi	s0,sp,704
    287a:	7d00                	flw	fs0,56(a0)
    287c:	4000                	lw	s0,0(s0)
    287e:	9f25                	0x9f25
    2880:	5500                	lw	s0,40(a0)
    2882:	8000                	0x8000
    2884:	550a                	lw	a0,160(sp)
    2886:	8000                	0x8000
    2888:	0001                	nop
    288a:	0e5e                	slli	t3,t3,0x17
    288c:	0055                	c.nop	21
    288e:	1880                	addi	s0,sp,112
    2890:	0055                	c.nop	21
    2892:	0580                	addi	s0,sp,704
    2894:	7d00                	flw	fs0,56(a0)
    2896:	4000                	lw	s0,0(s0)
    2898:	9f25                	0x9f25
	...
    28a2:	5386                	lw	t2,96(sp)
    28a4:	8000                	0x8000
    28a6:	53b8                	lw	a4,96(a5)
    28a8:	8000                	0x8000
    28aa:	0001                	nop
    28ac:	b86e                	fsd	fs11,48(sp)
    28ae:	32800053          	0x32800053
    28b2:	0054                	addi	a3,sp,4
    28b4:	0780                	addi	s0,sp,960
    28b6:	7d00                	flw	fs0,56(a0)
    28b8:	4000                	lw	s0,0(s0)
    28ba:	4024                	lw	s1,64(s0)
    28bc:	9f25                	0x9f25
    28be:	54aa                	lw	s1,168(sp)
    28c0:	8000                	0x8000
    28c2:	54d6                	lw	s1,116(sp)
    28c4:	8000                	0x8000
    28c6:	007d0007          	0x7d0007
    28ca:	2440                	fld	fs0,136(s0)
    28cc:	2540                	fld	fs0,136(a0)
    28ce:	f69f 0054 0080      	0x800054f69f
    28d4:	0055                	c.nop	21
    28d6:	0780                	addi	s0,sp,960
    28d8:	7d00                	flw	fs0,56(a0)
    28da:	4000                	lw	s0,0(s0)
    28dc:	4024                	lw	s1,64(s0)
    28de:	9f25                	0x9f25
    28e0:	5500                	lw	s0,40(a0)
    28e2:	8000                	0x8000
    28e4:	550a                	lw	a0,160(sp)
    28e6:	8000                	0x8000
    28e8:	0001                	nop
    28ea:	0e6e                	slli	t3,t3,0x1b
    28ec:	0055                	c.nop	21
    28ee:	1880                	addi	s0,sp,112
    28f0:	0055                	c.nop	21
    28f2:	0780                	addi	s0,sp,960
    28f4:	7d00                	flw	fs0,56(a0)
    28f6:	4000                	lw	s0,0(s0)
    28f8:	4024                	lw	s1,64(s0)
    28fa:	9f25                	0x9f25
	...
    2904:	538a                	lw	t2,160(sp)
    2906:	8000                	0x8000
    2908:	539e                	lw	t2,228(sp)
    290a:	8000                	0x8000
    290c:	0001                	nop
    290e:	9e61                	0x9e61
    2910:	a4800053          	0xa4800053
    2914:	01800053          	fadd.s	ft0,ft0,fs8,rne
    2918:	6000                	flw	fs0,0(s0)
    291a:	53a4                	lw	s1,96(a5)
    291c:	8000                	0x8000
    291e:	53d0                	lw	a2,36(a5)
    2920:	8000                	0x8000
    2922:	0001                	nop
    2924:	f661                	bnez	a2,28ec <_tbss_end+0x2868>
    2926:	0054                	addi	a3,sp,4
    2928:	0080                	addi	s0,sp,64
    292a:	0055                	c.nop	21
    292c:	0180                	addi	s0,sp,192
    292e:	6100                	flw	fs0,0(a0)
    2930:	5500                	lw	s0,40(a0)
    2932:	8000                	0x8000
    2934:	5506                	lw	a0,96(sp)
    2936:	8000                	0x8000
    2938:	0001                	nop
    293a:	0660                	addi	s0,sp,780
    293c:	0055                	c.nop	21
    293e:	0a80                	addi	s0,sp,336
    2940:	0055                	c.nop	21
    2942:	0180                	addi	s0,sp,192
    2944:	6100                	flw	fs0,0(a0)
	...
    294e:	53b4                	lw	a3,96(a5)
    2950:	8000                	0x8000
    2952:	53c8                	lw	a0,36(a5)
    2954:	8000                	0x8000
    2956:	0001                	nop
    2958:	c860                	sw	s0,84(s0)
    295a:	ce800053          	0xce800053
    295e:	01800053          	fadd.s	ft0,ft0,fs8,rne
    2962:	5c00                	lw	s0,56(s0)
    2964:	53ce                	lw	t2,240(sp)
    2966:	8000                	0x8000
    2968:	53da                	lw	t2,180(sp)
    296a:	8000                	0x8000
    296c:	0001                	nop
    296e:	f660                	fsw	fs0,108(a2)
    2970:	0054                	addi	a3,sp,4
    2972:	fc80                	fsw	fs0,56(s1)
    2974:	0054                	addi	a3,sp,4
    2976:	0180                	addi	s0,sp,192
    2978:	5c00                	lw	s0,56(s0)
    297a:	54fc                	lw	a5,108(s1)
    297c:	8000                	0x8000
    297e:	5500                	lw	s0,40(a0)
    2980:	8000                	0x8000
    2982:	0001                	nop
    2984:	0060                	addi	s0,sp,12
    2986:	0000                	unimp
    2988:	0000                	unimp
    298a:	0000                	unimp
    298c:	8a00                	0x8a00
    298e:	90800053          	0x90800053
    2992:	01800053          	fadd.s	ft0,ft0,fs8,rne
    2996:	6000                	flw	fs0,0(s0)
    2998:	5394                	lw	a3,32(a5)
    299a:	8000                	0x8000
    299c:	539a                	lw	t2,164(sp)
    299e:	8000                	0x8000
    29a0:	0001                	nop
    29a2:	9a5c                	0x9a5c
    29a4:	9e800053          	0x9e800053
    29a8:	06800053          	fadd.q	ft0,ft0,fs0,rne
    29ac:	8000                	0x8000
    29ae:	8f00                	0x8f00
    29b0:	2100                	fld	fs0,0(a0)
    29b2:	9e9f 0053 b480      	0xb48000539e9f
    29b8:	01800053          	fadd.s	ft0,ft0,fs8,rne
    29bc:	5c00                	lw	s0,56(s0)
    29be:	5500                	lw	s0,40(a0)
    29c0:	8000                	0x8000
    29c2:	550a                	lw	a0,160(sp)
    29c4:	8000                	0x8000
    29c6:	0001                	nop
    29c8:	005c                	addi	a5,sp,4
    29ca:	0000                	unimp
    29cc:	0000                	unimp
    29ce:	0000                	unimp
    29d0:	b400                	fsd	fs0,40(s0)
    29d2:	be800053          	0xbe800053
    29d6:	01800053          	fadd.s	ft0,ft0,fs8,rne
    29da:	5c00                	lw	s0,56(s0)
    29dc:	53be                	lw	t2,236(sp)
    29de:	8000                	0x8000
    29e0:	53c4                	lw	s1,36(a5)
    29e2:	8000                	0x8000
    29e4:	0001                	nop
    29e6:	c45e                	sw	s7,8(sp)
    29e8:	c8800053          	0xc8800053
    29ec:	08800053          	fsub.s	ft0,ft0,fs0,rne
    29f0:	7c00                	flw	fs0,56(s0)
    29f2:	4000                	lw	s0,0(s0)
    29f4:	7b24                	flw	fs1,112(a4)
    29f6:	2100                	fld	fs0,0(a0)
    29f8:	c89f 0053 3280      	0x32800053c89f
    29fe:	0054                	addi	a3,sp,4
    2a00:	0180                	addi	s0,sp,192
    2a02:	5e00                	lw	s0,56(a2)
    2a04:	54aa                	lw	s1,168(sp)
    2a06:	8000                	0x8000
    2a08:	54d6                	lw	s1,116(sp)
    2a0a:	8000                	0x8000
    2a0c:	0001                	nop
    2a0e:	f65e                	fsw	fs7,44(sp)
    2a10:	0054                	addi	a3,sp,4
    2a12:	0080                	addi	s0,sp,64
    2a14:	0055                	c.nop	21
    2a16:	0180                	addi	s0,sp,192
    2a18:	5e00                	lw	s0,56(a2)
    2a1a:	550e                	lw	a0,224(sp)
    2a1c:	8000                	0x8000
    2a1e:	5518                	lw	a4,40(a0)
    2a20:	8000                	0x8000
    2a22:	0001                	nop
    2a24:	005e                	c.slli	zero,0x17
    2a26:	0000                	unimp
    2a28:	0000                	unimp
    2a2a:	0000                	unimp
    2a2c:	8e00                	0x8e00
    2a2e:	b8800053          	0xb8800053
    2a32:	01800053          	fadd.s	ft0,ft0,fs8,rne
    2a36:	6c00                	flw	fs0,24(s0)
    2a38:	53b8                	lw	a4,96(a5)
    2a3a:	8000                	0x8000
    2a3c:	5432                	lw	s0,44(sp)
    2a3e:	8000                	0x8000
    2a40:	0001                	nop
    2a42:	aa6e                	fsd	fs11,272(sp)
    2a44:	0054                	addi	a3,sp,4
    2a46:	d680                	sw	s0,40(a3)
    2a48:	0054                	addi	a3,sp,4
    2a4a:	0180                	addi	s0,sp,192
    2a4c:	6e00                	flw	fs0,24(a2)
    2a4e:	54f6                	lw	s1,124(sp)
    2a50:	8000                	0x8000
    2a52:	5500                	lw	s0,40(a0)
    2a54:	8000                	0x8000
    2a56:	0001                	nop
    2a58:	006e                	c.slli	zero,0x1b
    2a5a:	0055                	c.nop	21
    2a5c:	0a80                	addi	s0,sp,336
    2a5e:	0055                	c.nop	21
    2a60:	0180                	addi	s0,sp,192
    2a62:	6c00                	flw	fs0,24(s0)
    2a64:	550e                	lw	a0,224(sp)
    2a66:	8000                	0x8000
    2a68:	5518                	lw	a4,40(a0)
    2a6a:	8000                	0x8000
    2a6c:	0001                	nop
    2a6e:	006e                	c.slli	zero,0x1b
    2a70:	0000                	unimp
    2a72:	0000                	unimp
    2a74:	0000                	unimp
    2a76:	f200                	fsw	fs0,32(a2)
    2a78:	1e800053          	fdiv.q	ft0,ft0,fs0,rne
    2a7c:	0054                	addi	a3,sp,4
    2a7e:	0180                	addi	s0,sp,192
    2a80:	6f00                	flw	fs0,24(a4)
	...
    2a8a:	5406                	lw	s0,96(sp)
    2a8c:	8000                	0x8000
    2a8e:	5418                	lw	a4,40(s0)
    2a90:	8000                	0x8000
    2a92:	0001                	nop
    2a94:	185c                	addi	a5,sp,52
    2a96:	0054                	addi	a3,sp,4
    2a98:	1e80                	addi	s0,sp,880
    2a9a:	0054                	addi	a3,sp,4
    2a9c:	0880                	addi	s0,sp,80
    2a9e:	8f00                	0x8f00
    2aa0:	4000                	lw	s0,0(s0)
    2aa2:	8c25                	xor	s0,s0,s1
    2aa4:	2200                	fld	fs0,0(a2)
    2aa6:	009f 0000 0000      	0x9f
    2aac:	0000                	unimp
    2aae:	f600                	fsw	fs0,40(a2)
    2ab0:	0e800053          	fsub.q	ft0,ft0,fs0,rne
    2ab4:	0054                	addi	a3,sp,4
    2ab6:	0180                	addi	s0,sp,192
    2ab8:	6000                	flw	fs0,0(s0)
	...
    2ac2:	5406                	lw	s0,96(sp)
    2ac4:	8000                	0x8000
    2ac6:	5420                	lw	s0,104(s0)
    2ac8:	8000                	0x8000
    2aca:	0001                	nop
    2acc:	0061                	c.nop	24
    2ace:	0000                	unimp
    2ad0:	0000                	unimp
    2ad2:	0000                	unimp
    2ad4:	f200                	fsw	fs0,32(a2)
    2ad6:	fe800053          	0xfe800053
    2ada:	01800053          	fadd.s	ft0,ft0,fs8,rne
    2ade:	6c00                	flw	fs0,24(s0)
	...
    2ae8:	53f2                	lw	t2,60(sp)
    2aea:	8000                	0x8000
    2aec:	53f6                	lw	t2,124(sp)
    2aee:	8000                	0x8000
    2af0:	0001                	nop
    2af2:	f660                	fsw	fs0,108(a2)
    2af4:	10800053          	fmul.s	ft0,ft0,fs0,rne
    2af8:	0054                	addi	a3,sp,4
    2afa:	0680                	addi	s0,sp,832
    2afc:	7500                	flw	fs0,40(a0)
    2afe:	7f7f                	0x7f7f
    2b00:	1a00                	addi	s0,sp,304
    2b02:	109f 0054 3080      	0x30800054109f
    2b08:	0054                	addi	a3,sp,4
    2b0a:	0680                	addi	s0,sp,832
    2b0c:	7f00                	flw	fs0,56(a4)
    2b0e:	8000                	0x8000
    2b10:	1a00                	addi	s0,sp,304
    2b12:	aa9f 0054 ae80      	0xae800054aa9f
    2b18:	0054                	addi	a3,sp,4
    2b1a:	0680                	addi	s0,sp,832
    2b1c:	7f00                	flw	fs0,56(a4)
    2b1e:	8000                	0x8000
    2b20:	1a00                	addi	s0,sp,304
    2b22:	0e9f 0055 1480      	0x148000550e9f
    2b28:	0055                	c.nop	21
    2b2a:	0680                	addi	s0,sp,832
    2b2c:	7f00                	flw	fs0,56(a4)
    2b2e:	8000                	0x8000
    2b30:	1a00                	addi	s0,sp,304
    2b32:	009f 0000 0000      	0x9f
    2b38:	0000                	unimp
    2b3a:	f200                	fsw	fs0,32(a2)
    2b3c:	06800053          	fadd.q	ft0,ft0,fs0,rne
    2b40:	0054                	addi	a3,sp,4
    2b42:	0180                	addi	s0,sp,192
    2b44:	6100                	flw	fs0,0(a0)
	...
    2b4e:	54ae                	lw	s1,232(sp)
    2b50:	8000                	0x8000
    2b52:	54bc                	lw	a5,104(s1)
    2b54:	8000                	0x8000
    2b56:	0001                	nop
    2b58:	005f 0000 0000      	0x5f
    2b5e:	0000                	unimp
    2b60:	c000                	sw	s0,0(s0)
    2b62:	0054                	addi	a3,sp,4
    2b64:	d680                	sw	s0,40(a3)
    2b66:	0054                	addi	a3,sp,4
    2b68:	0180                	addi	s0,sp,192
    2b6a:	5f00                	lw	s0,56(a4)
	...
    2b74:	545c                	lw	a5,44(s0)
    2b76:	8000                	0x8000
    2b78:	54aa                	lw	s1,168(sp)
    2b7a:	8000                	0x8000
    2b7c:	0001                	nop
    2b7e:	005c                	addi	a5,sp,4
    2b80:	0000                	unimp
    2b82:	0000                	unimp
    2b84:	0000                	unimp
    2b86:	5c00                	lw	s0,56(s0)
    2b88:	0054                	addi	a3,sp,4
    2b8a:	aa80                	fsd	fs0,16(a3)
    2b8c:	0054                	addi	a3,sp,4
    2b8e:	0180                	addi	s0,sp,192
    2b90:	6c00                	flw	fs0,24(s0)
	...
    2b9a:	5460                	lw	s0,108(s0)
    2b9c:	8000                	0x8000
    2b9e:	546c                	lw	a1,108(s0)
    2ba0:	8000                	0x8000
    2ba2:	0001                	nop
    2ba4:	6c5e                	flw	fs8,212(sp)
    2ba6:	0054                	addi	a3,sp,4
    2ba8:	8c80                	0x8c80
    2baa:	0054                	addi	a3,sp,4
    2bac:	0180                	addi	s0,sp,192
    2bae:	5d00                	lw	s0,56(a0)
	...
    2bb8:	548c                	lw	a1,40(s1)
    2bba:	8000                	0x8000
    2bbc:	5496                	lw	s1,100(sp)
    2bbe:	8000                	0x8000
    2bc0:	0001                	nop
    2bc2:	965d                	srai	a2,a2,0x37
    2bc4:	0054                	addi	a3,sp,4
    2bc6:	aa80                	fsd	fs0,16(a3)
    2bc8:	0054                	addi	a3,sp,4
    2bca:	0180                	addi	s0,sp,192
    2bcc:	5b00                	lw	s0,48(a4)
	...
    2bd6:	5464                	lw	s1,108(s0)
    2bd8:	8000                	0x8000
    2bda:	5486                	lw	s1,96(sp)
    2bdc:	8000                	0x8000
    2bde:	0001                	nop
    2be0:	905f 0054 aa80      	0xaa800054905f
    2be6:	0054                	addi	a3,sp,4
    2be8:	0180                	addi	s0,sp,192
    2bea:	5e00                	lw	s0,56(a2)
	...
    2bf4:	5518                	lw	a4,40(a0)
    2bf6:	8000                	0x8000
    2bf8:	5538                	lw	a4,104(a0)
    2bfa:	8000                	0x8000
    2bfc:	0006                	c.slli	zero,0x1
    2bfe:	935a                	add	t1,t1,s6
    2c00:	5b04                	lw	s1,48(a4)
    2c02:	55380493          	addi	s1,a6,1363
    2c06:	8000                	0x8000
    2c08:	5562                	lw	a0,56(sp)
    2c0a:	8000                	0x8000
    2c0c:	0006                	c.slli	zero,0x1
    2c0e:	0af503f3          	0xaf503f3
    2c12:	9f25                	0x9f25
    2c14:	5562                	lw	a0,56(sp)
    2c16:	8000                	0x8000
    2c18:	5568                	lw	a0,108(a0)
    2c1a:	8000                	0x8000
    2c1c:	0006                	c.slli	zero,0x1
    2c1e:	935a                	add	t1,t1,s6
    2c20:	5b04                	lw	s1,48(a4)
    2c22:	55680493          	addi	s1,a6,1366
    2c26:	8000                	0x8000
    2c28:	5598                	lw	a4,40(a1)
    2c2a:	8000                	0x8000
    2c2c:	0006                	c.slli	zero,0x1
    2c2e:	0af503f3          	0xaf503f3
    2c32:	9f25                	0x9f25
    2c34:	5598                	lw	a4,40(a1)
    2c36:	8000                	0x8000
    2c38:	5599                	li	a1,-26
    2c3a:	8000                	0x8000
    2c3c:	0006                	c.slli	zero,0x1
    2c3e:	935a                	add	t1,t1,s6
    2c40:	5b04                	lw	s1,48(a4)
    2c42:	55990493          	addi	s1,s2,1369 # 1559 <_tbss_end+0x14d5>
    2c46:	8000                	0x8000
    2c48:	56fa                	lw	a3,188(sp)
    2c4a:	8000                	0x8000
    2c4c:	0006                	c.slli	zero,0x1
    2c4e:	0af503f3          	0xaf503f3
    2c52:	9f25                	0x9f25
	...
    2c5c:	5518                	lw	a4,40(a0)
    2c5e:	8000                	0x8000
    2c60:	558a                	lw	a1,160(sp)
    2c62:	8000                	0x8000
    2c64:	0002                	c.slli	zero,0x0
    2c66:	9f30                	0x9f30
    2c68:	5598                	lw	a4,40(a1)
    2c6a:	8000                	0x8000
    2c6c:	5616                	lw	a2,100(sp)
    2c6e:	8000                	0x8000
    2c70:	0002                	c.slli	zero,0x0
    2c72:	9f30                	0x9f30
    2c74:	5616                	lw	a2,100(sp)
    2c76:	8000                	0x8000
    2c78:	5648                	lw	a0,44(a2)
    2c7a:	8000                	0x8000
    2c7c:	0002                	c.slli	zero,0x0
    2c7e:	9f31                	0x9f31
    2c80:	5648                	lw	a0,44(a2)
    2c82:	8000                	0x8000
    2c84:	5678                	lw	a4,108(a2)
    2c86:	8000                	0x8000
    2c88:	0002                	c.slli	zero,0x0
    2c8a:	9f30                	0x9f30
    2c8c:	5678                	lw	a4,108(a2)
    2c8e:	8000                	0x8000
    2c90:	567c                	lw	a5,108(a2)
    2c92:	8000                	0x8000
    2c94:	0002                	c.slli	zero,0x0
    2c96:	9f31                	0x9f31
    2c98:	567c                	lw	a5,108(a2)
    2c9a:	8000                	0x8000
    2c9c:	56aa                	lw	a3,168(sp)
    2c9e:	8000                	0x8000
    2ca0:	0001                	nop
    2ca2:	aa5c                	fsd	fa5,144(a2)
    2ca4:	0056                	c.slli	zero,0x15
    2ca6:	e080                	fsw	fs0,0(s1)
    2ca8:	0056                	c.slli	zero,0x15
    2caa:	0280                	addi	s0,sp,320
    2cac:	3000                	fld	fs0,32(s0)
    2cae:	e09f 0056 f480      	0xf4800056e09f
    2cb4:	0056                	c.slli	zero,0x15
    2cb6:	0280                	addi	s0,sp,320
    2cb8:	3100                	fld	fs0,32(a0)
    2cba:	f49f 0056 fa80      	0xfa800056f49f
    2cc0:	0056                	c.slli	zero,0x15
    2cc2:	0280                	addi	s0,sp,320
    2cc4:	3000                	fld	fs0,32(s0)
    2cc6:	009f 0000 0000      	0x9f
    2ccc:	0000                	unimp
    2cce:	2800                	fld	fs0,16(s0)
    2cd0:	0055                	c.nop	21
    2cd2:	9480                	0x9480
    2cd4:	0055                	c.nop	21
    2cd6:	0180                	addi	s0,sp,192
    2cd8:	6300                	flw	fs0,0(a4)
    2cda:	5598                	lw	a4,40(a1)
    2cdc:	8000                	0x8000
    2cde:	56a6                	lw	a3,104(sp)
    2ce0:	8000                	0x8000
    2ce2:	0001                	nop
    2ce4:	0056aa63          	0x56aa63
    2ce8:	fa80                	fsw	fs0,48(a3)
    2cea:	0056                	c.slli	zero,0x15
    2cec:	0180                	addi	s0,sp,192
    2cee:	6300                	flw	fs0,0(a4)
	...
    2cf8:	5532                	lw	a0,44(sp)
    2cfa:	8000                	0x8000
    2cfc:	5562                	lw	a0,56(sp)
    2cfe:	8000                	0x8000
    2d00:	0002                	c.slli	zero,0x0
    2d02:	9f30                	0x9f30
    2d04:	5568                	lw	a0,108(a0)
    2d06:	8000                	0x8000
    2d08:	56fa                	lw	a3,188(sp)
    2d0a:	8000                	0x8000
    2d0c:	0002                	c.slli	zero,0x0
    2d0e:	9f30                	0x9f30
	...
    2d18:	5548                	lw	a0,44(a0)
    2d1a:	8000                	0x8000
    2d1c:	5558                	lw	a4,44(a0)
    2d1e:	8000                	0x8000
    2d20:	0001                	nop
    2d22:	9e5e                	add	t3,t3,s7
    2d24:	0055                	c.nop	21
    2d26:	a480                	fsd	fs0,8(s1)
    2d28:	0055                	c.nop	21
    2d2a:	0780                	addi	s0,sp,960
    2d2c:	0a00                	addi	s0,sp,272
    2d2e:	043e                	slli	s0,s0,0xf
    2d30:	007c                	addi	a5,sp,12
    2d32:	9f1c                	0x9f1c
    2d34:	55a4                	lw	s1,104(a1)
    2d36:	8000                	0x8000
    2d38:	55b0                	lw	a2,104(a1)
    2d3a:	8000                	0x8000
    2d3c:	0001                	nop
    2d3e:	b05f 0055 b480      	0xb4800055b05f
    2d44:	0055                	c.nop	21
    2d46:	0780                	addi	s0,sp,960
    2d48:	0a00                	addi	s0,sp,272
    2d4a:	043e                	slli	s0,s0,0xf
    2d4c:	007c                	addi	a5,sp,12
    2d4e:	9f1c                	0x9f1c
    2d50:	55cc                	lw	a1,44(a1)
    2d52:	8000                	0x8000
    2d54:	563a                	lw	a2,172(sp)
    2d56:	8000                	0x8000
    2d58:	0001                	nop
    2d5a:	3a5e                	fld	fs4,496(sp)
    2d5c:	0056                	c.slli	zero,0x15
    2d5e:	4480                	lw	s0,8(s1)
    2d60:	0056                	c.slli	zero,0x15
    2d62:	0780                	addi	s0,sp,960
    2d64:	0a00                	addi	s0,sp,272
    2d66:	043e                	slli	s0,s0,0xf
    2d68:	007c                	addi	a5,sp,12
    2d6a:	9f1c                	0x9f1c
    2d6c:	5644                	lw	s1,44(a2)
    2d6e:	8000                	0x8000
    2d70:	5648                	lw	a0,44(a2)
    2d72:	8000                	0x8000
    2d74:	0001                	nop
    2d76:	485e                	lw	a6,212(sp)
    2d78:	0056                	c.slli	zero,0x15
    2d7a:	5c80                	lw	s0,56(s1)
    2d7c:	0056                	c.slli	zero,0x15
    2d7e:	0780                	addi	s0,sp,960
    2d80:	0a00                	addi	s0,sp,272
    2d82:	043e                	slli	s0,s0,0xf
    2d84:	007c                	addi	a5,sp,12
    2d86:	9f1c                	0x9f1c
    2d88:	565c                	lw	a5,44(a2)
    2d8a:	8000                	0x8000
    2d8c:	5684                	lw	s1,40(a3)
    2d8e:	8000                	0x8000
    2d90:	0001                	nop
    2d92:	aa5e                	fsd	fs7,272(sp)
    2d94:	0056                	c.slli	zero,0x15
    2d96:	fa80                	fsw	fs0,48(a3)
    2d98:	0056                	c.slli	zero,0x15
    2d9a:	0180                	addi	s0,sp,192
    2d9c:	5e00                	lw	s0,56(a2)
	...
    2da6:	5550                	lw	a2,44(a0)
    2da8:	8000                	0x8000
    2daa:	5558                	lw	a4,44(a0)
    2dac:	8000                	0x8000
    2dae:	0001                	nop
    2db0:	5859                	li	a6,-10
    2db2:	0055                	c.nop	21
    2db4:	6280                	flw	fs0,0(a3)
    2db6:	0055                	c.nop	21
    2db8:	0180                	addi	s0,sp,192
    2dba:	5d00                	lw	s0,56(a0)
    2dbc:	5568                	lw	a0,108(a0)
    2dbe:	8000                	0x8000
    2dc0:	558a                	lw	a1,160(sp)
    2dc2:	8000                	0x8000
    2dc4:	0001                	nop
    2dc6:	8a5d                	andi	a2,a2,23
    2dc8:	0055                	c.nop	21
    2dca:	9880                	0x9880
    2dcc:	0055                	c.nop	21
    2dce:	0180                	addi	s0,sp,192
    2dd0:	5a00                	lw	s0,48(a2)
    2dd2:	559e                	lw	a1,228(sp)
    2dd4:	8000                	0x8000
    2dd6:	55cc                	lw	a1,44(a1)
    2dd8:	8000                	0x8000
    2dda:	0001                	nop
    2ddc:	0259                	addi	tp,tp,22
    2dde:	0056                	c.slli	zero,0x15
    2de0:	0680                	addi	s0,sp,832
    2de2:	0056                	c.slli	zero,0x15
    2de4:	0180                	addi	s0,sp,192
    2de6:	5900                	lw	s0,48(a0)
    2de8:	5606                	lw	a2,96(sp)
    2dea:	8000                	0x8000
    2dec:	562a                	lw	a2,168(sp)
    2dee:	8000                	0x8000
    2df0:	0001                	nop
    2df2:	2a58                	fld	fa4,144(a2)
    2df4:	0056                	c.slli	zero,0x15
    2df6:	3480                	fld	fs0,40(s1)
    2df8:	0056                	c.slli	zero,0x15
    2dfa:	0180                	addi	s0,sp,192
    2dfc:	5b00                	lw	s0,48(a4)
    2dfe:	5648                	lw	a0,44(a2)
    2e00:	8000                	0x8000
    2e02:	565c                	lw	a5,44(a2)
    2e04:	8000                	0x8000
    2e06:	0002                	c.slli	zero,0x0
    2e08:	9f30                	0x9f30
    2e0a:	565c                	lw	a5,44(a2)
    2e0c:	8000                	0x8000
    2e0e:	567a                	lw	a2,188(sp)
    2e10:	8000                	0x8000
    2e12:	0001                	nop
    2e14:	7c58                	flw	fa4,60(s0)
    2e16:	0056                	c.slli	zero,0x15
    2e18:	8680                	0x8680
    2e1a:	0056                	c.slli	zero,0x15
    2e1c:	0880                	addi	s0,sp,80
    2e1e:	7f00                	flw	fs0,56(a4)
    2e20:	4d00                	lw	s0,24(a0)
    2e22:	7824                	flw	fs1,112(s0)
    2e24:	2100                	fld	fs0,0(a0)
    2e26:	8c9f 0056 a080      	0xa08000568c9f
    2e2c:	0056                	c.slli	zero,0x15
    2e2e:	0180                	addi	s0,sp,192
    2e30:	5800                	lw	s0,48(s0)
    2e32:	56a0                	lw	s0,104(a3)
    2e34:	8000                	0x8000
    2e36:	56aa                	lw	a3,168(sp)
    2e38:	8000                	0x8000
    2e3a:	0001                	nop
    2e3c:	aa5a                	fsd	fs6,272(sp)
    2e3e:	0056                	c.slli	zero,0x15
    2e40:	ac80                	fsd	fs0,24(s1)
    2e42:	0056                	c.slli	zero,0x15
    2e44:	0180                	addi	s0,sp,192
    2e46:	5800                	lw	s0,48(s0)
    2e48:	56e0                	lw	s0,108(a3)
    2e4a:	8000                	0x8000
    2e4c:	56f0                	lw	a2,108(a3)
    2e4e:	8000                	0x8000
    2e50:	0001                	nop
    2e52:	f458                	fsw	fa4,44(s0)
    2e54:	0056                	c.slli	zero,0x15
    2e56:	fa80                	fsw	fs0,48(a3)
    2e58:	0056                	c.slli	zero,0x15
    2e5a:	0180                	addi	s0,sp,192
    2e5c:	5900                	lw	s0,48(a0)
	...
    2e66:	5550                	lw	a2,44(a0)
    2e68:	8000                	0x8000
    2e6a:	5560                	lw	s0,108(a0)
    2e6c:	8000                	0x8000
    2e6e:	0001                	nop
    2e70:	9e58                	0x9e58
    2e72:	0055                	c.nop	21
    2e74:	ac80                	fsd	fs0,24(s1)
    2e76:	0055                	c.nop	21
    2e78:	0280                	addi	s0,sp,320
    2e7a:	3000                	fld	fs0,32(s0)
    2e7c:	b49f 0055 c080      	0xc0800055b49f
    2e82:	0055                	c.nop	21
    2e84:	0180                	addi	s0,sp,192
    2e86:	5800                	lw	s0,48(s0)
    2e88:	55c0                	lw	s0,44(a1)
    2e8a:	8000                	0x8000
    2e8c:	55c6                	lw	a1,112(sp)
    2e8e:	8000                	0x8000
    2e90:	0001                	nop
    2e92:	c662                	sw	s8,12(sp)
    2e94:	0055                	c.nop	21
    2e96:	cc80                	sw	s0,24(s1)
    2e98:	0055                	c.nop	21
    2e9a:	0180                	addi	s0,sp,192
    2e9c:	5800                	lw	s0,48(s0)
    2e9e:	5606                	lw	a2,96(sp)
    2ea0:	8000                	0x8000
    2ea2:	5614                	lw	a3,40(a2)
    2ea4:	8000                	0x8000
    2ea6:	0001                	nop
    2ea8:	1462                	slli	s0,s0,0x38
    2eaa:	0056                	c.slli	zero,0x15
    2eac:	4880                	lw	s0,16(s1)
    2eae:	0056                	c.slli	zero,0x15
    2eb0:	0180                	addi	s0,sp,192
    2eb2:	5f00                	lw	s0,56(a4)
    2eb4:	5648                	lw	a0,44(a2)
    2eb6:	8000                	0x8000
    2eb8:	565c                	lw	a5,44(a2)
    2eba:	8000                	0x8000
    2ebc:	0006                	c.slli	zero,0x1
    2ebe:	0079                	c.nop	30
    2ec0:	757a                	flw	fa0,188(sp)
    2ec2:	9f24                	0x9f24
    2ec4:	5672                	lw	a2,60(sp)
    2ec6:	8000                	0x8000
    2ec8:	5678                	lw	a4,108(a2)
    2eca:	8000                	0x8000
    2ecc:	0001                	nop
    2ece:	7862                	flw	fa6,56(sp)
    2ed0:	0056                	c.slli	zero,0x15
    2ed2:	7c80                	flw	fs0,56(s1)
    2ed4:	0056                	c.slli	zero,0x15
    2ed6:	0180                	addi	s0,sp,192
    2ed8:	5f00                	lw	s0,56(a4)
    2eda:	567c                	lw	a5,108(a2)
    2edc:	8000                	0x8000
    2ede:	5686                	lw	a3,96(sp)
    2ee0:	8000                	0x8000
    2ee2:	0005                	c.nop	1
    2ee4:	007f                	0x7f
    2ee6:	aa9f2533          	0xaa9f2533
    2eea:	0056                	c.slli	zero,0x15
    2eec:	b080                	fsd	fs0,32(s1)
    2eee:	0056                	c.slli	zero,0x15
    2ef0:	0180                	addi	s0,sp,192
    2ef2:	5f00                	lw	s0,56(a4)
    2ef4:	56e0                	lw	s0,108(a3)
    2ef6:	8000                	0x8000
    2ef8:	56f4                	lw	a3,108(a3)
    2efa:	8000                	0x8000
    2efc:	0001                	nop
    2efe:	f45f 0056 fa80      	0xfa800056f45f
    2f04:	0056                	c.slli	zero,0x15
    2f06:	0180                	addi	s0,sp,192
    2f08:	5800                	lw	s0,48(s0)
	...
    2f12:	5532                	lw	a0,44(sp)
    2f14:	8000                	0x8000
    2f16:	5558                	lw	a4,44(a0)
    2f18:	8000                	0x8000
    2f1a:	0006                	c.slli	zero,0x1
    2f1c:	9359                	srli	a4,a4,0x36
    2f1e:	5804                	lw	s1,48(s0)
    2f20:	55580493          	addi	s1,a6,1365
    2f24:	8000                	0x8000
    2f26:	5562                	lw	a0,56(sp)
    2f28:	8000                	0x8000
    2f2a:	0006                	c.slli	zero,0x1
    2f2c:	9359                	srli	a4,a4,0x36
    2f2e:	6204                	flw	fs1,0(a2)
    2f30:	55980493          	addi	s1,a6,1369
    2f34:	8000                	0x8000
    2f36:	55c0                	lw	s0,44(a1)
    2f38:	8000                	0x8000
    2f3a:	0006                	c.slli	zero,0x1
    2f3c:	9359                	srli	a4,a4,0x36
    2f3e:	5804                	lw	s1,48(s0)
    2f40:	55c00493          	li	s1,1372
    2f44:	8000                	0x8000
    2f46:	55cc                	lw	a1,44(a1)
    2f48:	8000                	0x8000
    2f4a:	0006                	c.slli	zero,0x1
    2f4c:	9359                	srli	a4,a4,0x36
    2f4e:	6204                	flw	fs1,0(a2)
    2f50:	55cc0493          	addi	s1,s8,1372
    2f54:	8000                	0x8000
    2f56:	55f8                	lw	a4,108(a1)
    2f58:	8000                	0x8000
    2f5a:	0006                	c.slli	zero,0x1
    2f5c:	9359                	srli	a4,a4,0x36
    2f5e:	5804                	lw	s1,48(s0)
    2f60:	55fc0493          	addi	s1,s8,1375
    2f64:	8000                	0x8000
    2f66:	55fe                	lw	a1,252(sp)
    2f68:	8000                	0x8000
    2f6a:	0006                	c.slli	zero,0x1
    2f6c:	9359                	srli	a4,a4,0x36
    2f6e:	5f04                	lw	s1,56(a4)
    2f70:	55fe0493          	addi	s1,t3,1375
    2f74:	8000                	0x8000
    2f76:	5606                	lw	a2,96(sp)
    2f78:	8000                	0x8000
    2f7a:	0006                	c.slli	zero,0x1
    2f7c:	9359                	srli	a4,a4,0x36
    2f7e:	6204                	flw	fs1,0(a2)
    2f80:	56480493          	addi	s1,a6,1380
    2f84:	8000                	0x8000
    2f86:	564c                	lw	a1,44(a2)
    2f88:	8000                	0x8000
    2f8a:	0006                	c.slli	zero,0x1
    2f8c:	9359                	srli	a4,a4,0x36
    2f8e:	5804                	lw	s1,48(s0)
    2f90:	564c0493          	addi	s1,s8,1380
    2f94:	8000                	0x8000
    2f96:	565c                	lw	a5,44(a2)
    2f98:	8000                	0x8000
    2f9a:	0006                	c.slli	zero,0x1
    2f9c:	9359                	srli	a4,a4,0x36
    2f9e:	6204                	flw	fs1,0(a2)
    2fa0:	565c0493          	addi	s1,s8,1381
    2fa4:	8000                	0x8000
    2fa6:	5672                	lw	a2,60(sp)
    2fa8:	8000                	0x8000
    2faa:	0006                	c.slli	zero,0x1
    2fac:	9358                	0x9358
    2fae:	6204                	flw	fs1,0(a2)
    2fb0:	56b00493          	li	s1,1387
    2fb4:	8000                	0x8000
    2fb6:	56bc                	lw	a5,104(a3)
    2fb8:	8000                	0x8000
    2fba:	0006                	c.slli	zero,0x1
    2fbc:	9359                	srli	a4,a4,0x36
    2fbe:	5804                	lw	s1,48(s0)
    2fc0:	56c80493          	addi	s1,a6,1388
    2fc4:	8000                	0x8000
    2fc6:	56e0                	lw	s0,108(a3)
    2fc8:	8000                	0x8000
    2fca:	0006                	c.slli	zero,0x1
    2fcc:	9359                	srli	a4,a4,0x36
    2fce:	5804                	lw	s1,48(s0)
    2fd0:	56f40493          	addi	s1,s0,1391 # ffff856f <__global_pointer$+0x6fff7d6f>
    2fd4:	8000                	0x8000
    2fd6:	56fa                	lw	a3,188(sp)
    2fd8:	8000                	0x8000
    2fda:	0006                	c.slli	zero,0x1
    2fdc:	9359                	srli	a4,a4,0x36
    2fde:	5804                	lw	s1,48(s0)
    2fe0:	00000493          	li	s1,0
    2fe4:	0000                	unimp
    2fe6:	0000                	unimp
    2fe8:	0000                	unimp
    2fea:	5548                	lw	a0,44(a0)
    2fec:	8000                	0x8000
    2fee:	5558                	lw	a4,44(a0)
    2ff0:	8000                	0x8000
    2ff2:	0001                	nop
    2ff4:	9a5a                	add	s4,s4,s6
    2ff6:	0055                	c.nop	21
    2ff8:	9e80                	0x9e80
    2ffa:	0055                	c.nop	21
    2ffc:	0180                	addi	s0,sp,192
    2ffe:	5a00                	lw	s0,48(a2)
    3000:	559e                	lw	a1,228(sp)
    3002:	8000                	0x8000
    3004:	55bc                	lw	a5,104(a1)
    3006:	8000                	0x8000
    3008:	0001                	nop
    300a:	cc5c                	sw	a5,28(s0)
    300c:	0055                	c.nop	21
    300e:	fa80                	fsw	fs0,48(a3)
    3010:	0055                	c.nop	21
    3012:	0180                	addi	s0,sp,192
    3014:	5a00                	lw	s0,48(a2)
    3016:	55fa                	lw	a1,188(sp)
    3018:	8000                	0x8000
    301a:	5646                	lw	a2,112(sp)
    301c:	8000                	0x8000
    301e:	0001                	nop
    3020:	485c                	lw	a5,20(s0)
    3022:	0056                	c.slli	zero,0x15
    3024:	7c80                	flw	fs0,56(s1)
    3026:	0056                	c.slli	zero,0x15
    3028:	0180                	addi	s0,sp,192
    302a:	5c00                	lw	s0,56(s0)
    302c:	56aa                	lw	a3,168(sp)
    302e:	8000                	0x8000
    3030:	56ae                	lw	a3,232(sp)
    3032:	8000                	0x8000
    3034:	0001                	nop
    3036:	b05c                	fsd	fa5,160(s0)
    3038:	0056                	c.slli	zero,0x15
    303a:	b480                	fsd	fs0,40(s1)
    303c:	0056                	c.slli	zero,0x15
    303e:	0180                	addi	s0,sp,192
    3040:	5a00                	lw	s0,48(a2)
    3042:	56b4                	lw	a3,104(a3)
    3044:	8000                	0x8000
    3046:	56c8                	lw	a0,44(a3)
    3048:	8000                	0x8000
    304a:	0001                	nop
    304c:	c85c                	sw	a5,20(s0)
    304e:	0056                	c.slli	zero,0x15
    3050:	e080                	fsw	fs0,0(s1)
    3052:	0056                	c.slli	zero,0x15
    3054:	0180                	addi	s0,sp,192
    3056:	5a00                	lw	s0,48(a2)
    3058:	56e0                	lw	s0,108(a3)
    305a:	8000                	0x8000
    305c:	56f2                	lw	a3,60(sp)
    305e:	8000                	0x8000
    3060:	0001                	nop
    3062:	f45c                	fsw	fa5,44(s0)
    3064:	0056                	c.slli	zero,0x15
    3066:	fa80                	fsw	fs0,48(a3)
    3068:	0056                	c.slli	zero,0x15
    306a:	0180                	addi	s0,sp,192
    306c:	5a00                	lw	s0,48(a2)
	...
    3076:	5614                	lw	a3,40(a2)
    3078:	8000                	0x8000
    307a:	5648                	lw	a0,44(a2)
    307c:	8000                	0x8000
    307e:	0002                	c.slli	zero,0x0
    3080:	9f30                	0x9f30
    3082:	5678                	lw	a4,108(a2)
    3084:	8000                	0x8000
    3086:	56b0                	lw	a2,104(a3)
    3088:	8000                	0x8000
    308a:	0002                	c.slli	zero,0x0
    308c:	9f30                	0x9f30
    308e:	56e0                	lw	s0,108(a3)
    3090:	8000                	0x8000
    3092:	56f4                	lw	a3,108(a3)
    3094:	8000                	0x8000
    3096:	0002                	c.slli	zero,0x0
    3098:	9f30                	0x9f30
	...
    30a2:	56ee                	lw	a3,248(sp)
    30a4:	8000                	0x8000
    30a6:	56f0                	lw	a2,108(a3)
    30a8:	8000                	0x8000
    30aa:	0001                	nop
    30ac:	0000005b          	0x5b
    30b0:	0000                	unimp
    30b2:	0000                	unimp
    30b4:	2400                	fld	fs0,8(s0)
    30b6:	0056                	c.slli	zero,0x15
    30b8:	4880                	lw	s0,16(s1)
    30ba:	0056                	c.slli	zero,0x15
    30bc:	0180                	addi	s0,sp,192
    30be:	5b00                	lw	s0,48(a4)
    30c0:	56f0                	lw	a2,108(a3)
    30c2:	8000                	0x8000
    30c4:	56f4                	lw	a3,108(a3)
    30c6:	8000                	0x8000
    30c8:	0001                	nop
    30ca:	0000005b          	0x5b
    30ce:	0000                	unimp
    30d0:	0000                	unimp
    30d2:	fa00                	fsw	fs0,48(a2)
    30d4:	0056                	c.slli	zero,0x15
    30d6:	1280                	addi	s0,sp,352
    30d8:	01800057          	0x1800057
    30dc:	5a00                	lw	s0,48(a2)
    30de:	5712                	lw	a4,36(sp)
    30e0:	8000                	0x8000
    30e2:	571c                	lw	a5,40(a4)
    30e4:	8000                	0x8000
    30e6:	0004                	0x4
    30e8:	9f5a01f3          	0x9f5a01f3
    30ec:	571c                	lw	a5,40(a4)
    30ee:	8000                	0x8000
    30f0:	572a                	lw	a4,168(sp)
    30f2:	8000                	0x8000
    30f4:	0001                	nop
    30f6:	2a5a                	fld	fs4,400(sp)
    30f8:	38800057          	0x38800057
    30fc:	04800057          	0x4800057
    3100:	f300                	fsw	fs0,32(a4)
    3102:	5a01                	li	s4,-32
    3104:	389f 0057 3e80      	0x3e800057389f
    310a:	01800057          	0x1800057
    310e:	5a00                	lw	s0,48(a2)
    3110:	573e                	lw	a4,236(sp)
    3112:	8000                	0x8000
    3114:	574c                	lw	a1,44(a4)
    3116:	8000                	0x8000
    3118:	0004                	0x4
    311a:	9f5a01f3          	0x9f5a01f3
    311e:	574c                	lw	a1,44(a4)
    3120:	8000                	0x8000
    3122:	5752                	lw	a4,52(sp)
    3124:	8000                	0x8000
    3126:	0001                	nop
    3128:	525a                	lw	tp,180(sp)
    312a:	60800057          	0x60800057
    312e:	04800057          	0x4800057
    3132:	f300                	fsw	fs0,32(a4)
    3134:	5a01                	li	s4,-32
    3136:	009f 0000 0000      	0x9f
    313c:	0000                	unimp
    313e:	1200                	addi	s0,sp,288
    3140:	16800057          	0x16800057
    3144:	0b800057          	0xb800057
    3148:	7e00                	flw	fs0,56(a2)
    314a:	7a00                	flw	fs0,48(a2)
    314c:	9400                	0x9400
    314e:	0801                	addi	a6,a6,0
    3150:	1aff                	0x1aff
    3152:	9f1c                	0x9f1c
    3154:	5716                	lw	a4,100(sp)
    3156:	8000                	0x8000
    3158:	571a                	lw	a4,164(sp)
    315a:	8000                	0x8000
    315c:	0009                	c.nop	2
    315e:	007e                	c.slli	zero,0x1f
    3160:	007a                	c.slli	zero,0x1e
    3162:	ff08                	fsw	fa0,56(a4)
    3164:	1c1a                	slli	s8,s8,0x26
    3166:	1a9f 0057 1c80      	0x1c8000571a9f
    316c:	01800057          	0x1800057
    3170:	5a00                	lw	s0,48(a2)
	...
    317a:	56fa                	lw	a3,188(sp)
    317c:	8000                	0x8000
    317e:	5712                	lw	a4,36(sp)
    3180:	8000                	0x8000
    3182:	0001                	nop
    3184:	125a                	slli	tp,tp,0x36
    3186:	1c800057          	0x1c800057
    318a:	04800057          	0x4800057
    318e:	f300                	fsw	fs0,32(a4)
    3190:	5a01                	li	s4,-32
    3192:	1c9f 0057 2a80      	0x2a8000571c9f
    3198:	01800057          	0x1800057
    319c:	5a00                	lw	s0,48(a2)
    319e:	572a                	lw	a4,168(sp)
    31a0:	8000                	0x8000
    31a2:	5738                	lw	a4,104(a4)
    31a4:	8000                	0x8000
    31a6:	0004                	0x4
    31a8:	9f5a01f3          	0x9f5a01f3
    31ac:	5738                	lw	a4,104(a4)
    31ae:	8000                	0x8000
    31b0:	573e                	lw	a4,236(sp)
    31b2:	8000                	0x8000
    31b4:	0001                	nop
    31b6:	3e5a                	fld	ft8,432(sp)
    31b8:	4c800057          	0x4c800057
    31bc:	04800057          	0x4800057
    31c0:	f300                	fsw	fs0,32(a4)
    31c2:	5a01                	li	s4,-32
    31c4:	4c9f 0057 5280      	0x528000574c9f
    31ca:	01800057          	0x1800057
    31ce:	5a00                	lw	s0,48(a2)
    31d0:	5752                	lw	a4,52(sp)
    31d2:	8000                	0x8000
    31d4:	5760                	lw	s0,108(a4)
    31d6:	8000                	0x8000
    31d8:	0004                	0x4
    31da:	9f5a01f3          	0x9f5a01f3
	...

Disassembly of section .debug_aranges:

00000000 <.debug_aranges>:
   0:	001c                	0x1c
   2:	0000                	unimp
   4:	0002                	c.slli	zero,0x0
   6:	0000                	unimp
   8:	0000                	unimp
   a:	0004                	0x4
   c:	0000                	unimp
   e:	0000                	unimp
  10:	4a3c                	lw	a5,80(a2)
  12:	8000                	0x8000
  14:	03c6                	slli	t2,t2,0x11
	...
  1e:	0000                	unimp
  20:	001c                	0x1c
  22:	0000                	unimp
  24:	0002                	c.slli	zero,0x0
  26:	000008db          	0x8db
  2a:	0004                	0x4
  2c:	0000                	unimp
  2e:	0000                	unimp
  30:	4e02                	lw	t3,0(sp)
  32:	8000                	0x8000
  34:	0396                	slli	t2,t2,0x5
	...
  3e:	0000                	unimp
  40:	001c                	0x1c
  42:	0000                	unimp
  44:	0002                	c.slli	zero,0x0
  46:	1145                	addi	sp,sp,-15
  48:	0000                	unimp
  4a:	0004                	0x4
  4c:	0000                	unimp
  4e:	0000                	unimp
  50:	5198                	lw	a4,32(a1)
  52:	8000                	0x8000
  54:	0380                	addi	s0,sp,448
	...
  5e:	0000                	unimp
  60:	001c                	0x1c
  62:	0000                	unimp
  64:	0002                	c.slli	zero,0x0
  66:	19f4                	addi	a3,sp,252
  68:	0000                	unimp
  6a:	0004                	0x4
  6c:	0000                	unimp
  6e:	0000                	unimp
  70:	5518                	lw	a4,40(a0)
  72:	8000                	0x8000
  74:	01e2                	slli	gp,gp,0x18
	...
  7e:	0000                	unimp
  80:	0014                	0x14
  82:	0000                	unimp
  84:	0002                	c.slli	zero,0x0
  86:	1cc1                	addi	s9,s9,-16
  88:	0000                	unimp
  8a:	0004                	0x4
	...
  98:	001c                	0x1c
  9a:	0000                	unimp
  9c:	0002                	c.slli	zero,0x0
  9e:	1ea6                	slli	t4,t4,0x29
  a0:	0000                	unimp
  a2:	0004                	0x4
  a4:	0000                	unimp
  a6:	0000                	unimp
  a8:	56fa                	lw	a3,188(sp)
  aa:	8000                	0x8000
  ac:	0066                	c.slli	zero,0x19
	...

Disassembly of section .debug_ranges:

00000000 <.debug_ranges>:
   0:	4a54                	lw	a3,20(a2)
   2:	8000                	0x8000
   4:	4af6                	lw	s5,92(sp)
   6:	8000                	0x8000
   8:	4b0a                	lw	s6,128(sp)
   a:	8000                	0x8000
   c:	4b58                	lw	a4,20(a4)
   e:	8000                	0x8000
  10:	4b6a                	lw	s6,152(sp)
  12:	8000                	0x8000
  14:	4e02                	lw	t3,0(sp)
  16:	8000                	0x8000
	...
  20:	4a62                	lw	s4,24(sp)
  22:	8000                	0x8000
  24:	4a8a                	lw	s5,128(sp)
  26:	8000                	0x8000
  28:	4c18                	lw	a4,24(s0)
  2a:	8000                	0x8000
  2c:	4c2a                	lw	s8,136(sp)
  2e:	8000                	0x8000
  30:	4de2                	lw	s11,24(sp)
  32:	8000                	0x8000
  34:	4de6                	lw	s11,88(sp)
  36:	8000                	0x8000
	...
  40:	4aec                	lw	a1,84(a3)
  42:	8000                	0x8000
  44:	4af0                	lw	a2,84(a3)
  46:	8000                	0x8000
  48:	4bae                	lw	s7,200(sp)
  4a:	8000                	0x8000
  4c:	4bfe                	lw	s7,220(sp)
  4e:	8000                	0x8000
  50:	4df4                	lw	a3,92(a1)
  52:	8000                	0x8000
  54:	4df8                	lw	a4,92(a1)
  56:	8000                	0x8000
	...
  60:	4b0e                	lw	s6,192(sp)
  62:	8000                	0x8000
  64:	4b36                	lw	s6,76(sp)
  66:	8000                	0x8000
  68:	4c2a                	lw	s8,136(sp)
  6a:	8000                	0x8000
  6c:	4c3a                	lw	s8,140(sp)
  6e:	8000                	0x8000
  70:	4dda                	lw	s11,148(sp)
  72:	8000                	0x8000
  74:	4de2                	lw	s11,24(sp)
  76:	8000                	0x8000
  78:	4de6                	lw	s11,88(sp)
  7a:	8000                	0x8000
  7c:	4dec                	lw	a1,92(a1)
  7e:	8000                	0x8000
	...
  88:	4b72                	lw	s6,28(sp)
  8a:	8000                	0x8000
  8c:	4b9a                	lw	s7,132(sp)
  8e:	8000                	0x8000
  90:	4c06                	lw	s8,64(sp)
  92:	8000                	0x8000
  94:	4c18                	lw	a4,24(s0)
  96:	8000                	0x8000
  98:	4dd2                	lw	s11,20(sp)
  9a:	8000                	0x8000
  9c:	4dda                	lw	s11,148(sp)
  9e:	8000                	0x8000
	...
  a8:	4c42                	lw	s8,16(sp)
  aa:	8000                	0x8000
  ac:	4c4e                	lw	s8,208(sp)
  ae:	8000                	0x8000
  b0:	4c52                	lw	s8,20(sp)
  b2:	8000                	0x8000
  b4:	4c56                	lw	s8,84(sp)
  b6:	8000                	0x8000
  b8:	4c5c                	lw	a5,28(s0)
  ba:	8000                	0x8000
  bc:	4c60                	lw	s0,92(s0)
  be:	8000                	0x8000
  c0:	4c64                	lw	s1,92(s0)
  c2:	8000                	0x8000
  c4:	4cb2                	lw	s9,12(sp)
  c6:	8000                	0x8000
	...
  d0:	4cb2                	lw	s9,12(sp)
  d2:	8000                	0x8000
  d4:	4dd2                	lw	s11,20(sp)
  d6:	8000                	0x8000
  d8:	4dec                	lw	a1,92(a1)
  da:	8000                	0x8000
  dc:	4df4                	lw	a3,92(a1)
  de:	8000                	0x8000
  e0:	4df8                	lw	a4,92(a1)
  e2:	8000                	0x8000
  e4:	4e02                	lw	t3,0(sp)
  e6:	8000                	0x8000
	...
  f0:	4cc2                	lw	s9,16(sp)
  f2:	8000                	0x8000
  f4:	4cd2                	lw	s9,20(sp)
  f6:	8000                	0x8000
  f8:	4cdc                	lw	a5,28(s1)
  fa:	8000                	0x8000
  fc:	4ce0                	lw	s0,92(s1)
  fe:	8000                	0x8000
 100:	4ce8                	lw	a0,92(s1)
 102:	8000                	0x8000
 104:	4d3e                	lw	s10,204(sp)
 106:	8000                	0x8000
 108:	4d40                	lw	s0,28(a0)
 10a:	8000                	0x8000
 10c:	4d44                	lw	s1,28(a0)
 10e:	8000                	0x8000
 110:	4d5c                	lw	a5,28(a0)
 112:	8000                	0x8000
 114:	4d60                	lw	s0,92(a0)
 116:	8000                	0x8000
 118:	4dec                	lw	a1,92(a1)
 11a:	8000                	0x8000
 11c:	4df4                	lw	a3,92(a1)
 11e:	8000                	0x8000
	...
 128:	4d3e                	lw	s10,204(sp)
 12a:	8000                	0x8000
 12c:	4d40                	lw	s0,28(a0)
 12e:	8000                	0x8000
 130:	4d44                	lw	s1,28(a0)
 132:	8000                	0x8000
 134:	4d5c                	lw	a5,28(a0)
 136:	8000                	0x8000
 138:	4d60                	lw	s0,92(a0)
 13a:	8000                	0x8000
 13c:	4d90                	lw	a2,24(a1)
 13e:	8000                	0x8000
 140:	4d9c                	lw	a5,24(a1)
 142:	8000                	0x8000
 144:	4da0                	lw	s0,88(a1)
 146:	8000                	0x8000
	...
 150:	4a3c                	lw	a5,80(a2)
 152:	8000                	0x8000
 154:	4e02                	lw	t3,0(sp)
 156:	8000                	0x8000
	...
 160:	4e02                	lw	t3,0(sp)
 162:	8000                	0x8000
 164:	4eb6                	lw	t4,76(sp)
 166:	8000                	0x8000
 168:	4eb8                	lw	a4,88(a3)
 16a:	8000                	0x8000
 16c:	4ef6                	lw	t4,92(sp)
 16e:	8000                	0x8000
 170:	4ef8                	lw	a4,92(a3)
 172:	8000                	0x8000
 174:	4f98                	lw	a4,24(a5)
 176:	8000                	0x8000
 178:	4f9a                	lw	t6,132(sp)
 17a:	8000                	0x8000
 17c:	4f9e                	lw	t6,196(sp)
 17e:	8000                	0x8000
 180:	4fa0                	lw	s0,88(a5)
 182:	8000                	0x8000
 184:	50a2                	lw	ra,40(sp)
 186:	8000                	0x8000
 188:	50a4                	lw	s1,96(s1)
 18a:	8000                	0x8000
 18c:	514a                	lw	sp,176(sp)
 18e:	8000                	0x8000
 190:	5150                	lw	a2,36(a0)
 192:	8000                	0x8000
 194:	516e                	lw	sp,248(sp)
 196:	8000                	0x8000
 198:	5170                	lw	a2,100(a0)
 19a:	8000                	0x8000
 19c:	5198                	lw	a4,32(a1)
 19e:	8000                	0x8000
	...
 1a8:	4e10                	lw	a2,24(a2)
 1aa:	8000                	0x8000
 1ac:	4e36                	lw	t3,76(sp)
 1ae:	8000                	0x8000
 1b0:	4fc2                	lw	t6,16(sp)
 1b2:	8000                	0x8000
 1b4:	4fd4                	lw	a3,28(a5)
 1b6:	8000                	0x8000
 1b8:	5166                	lw	sp,120(sp)
 1ba:	8000                	0x8000
 1bc:	516a                	lw	sp,184(sp)
 1be:	8000                	0x8000
	...
 1c8:	4e4c                	lw	a1,28(a2)
 1ca:	8000                	0x8000
 1cc:	4eb6                	lw	t4,76(sp)
 1ce:	8000                	0x8000
 1d0:	4fd4                	lw	a3,28(a5)
 1d2:	8000                	0x8000
 1d4:	4fd8                	lw	a4,28(a5)
 1d6:	8000                	0x8000
 1d8:	518c                	lw	a1,32(a1)
 1da:	8000                	0x8000
 1dc:	5192                	lw	gp,36(sp)
 1de:	8000                	0x8000
	...
 1e8:	4ebc                	lw	a5,88(a3)
 1ea:	8000                	0x8000
 1ec:	4ee4                	lw	s1,92(a3)
 1ee:	8000                	0x8000
 1f0:	4fa0                	lw	s0,88(a5)
 1f2:	8000                	0x8000
 1f4:	4fb0                	lw	a2,88(a5)
 1f6:	8000                	0x8000
 1f8:	5150                	lw	a2,36(a0)
 1fa:	8000                	0x8000
 1fc:	515e                	lw	sp,244(sp)
 1fe:	8000                	0x8000
	...
 208:	4f00                	lw	s0,24(a4)
 20a:	8000                	0x8000
 20c:	4f28                	lw	a0,88(a4)
 20e:	8000                	0x8000
 210:	4fb0                	lw	a2,88(a5)
 212:	8000                	0x8000
 214:	4fc2                	lw	t6,16(sp)
 216:	8000                	0x8000
 218:	515e                	lw	sp,244(sp)
 21a:	8000                	0x8000
 21c:	5166                	lw	sp,120(sp)
 21e:	8000                	0x8000
	...
 228:	4f3e                	lw	t5,204(sp)
 22a:	8000                	0x8000
 22c:	4f98                	lw	a4,24(a5)
 22e:	8000                	0x8000
 230:	4fd8                	lw	a4,28(a5)
 232:	8000                	0x8000
 234:	4fdc                	lw	a5,28(a5)
 236:	8000                	0x8000
 238:	5192                	lw	gp,36(sp)
 23a:	8000                	0x8000
 23c:	5198                	lw	a4,32(a1)
 23e:	8000                	0x8000
	...
 248:	4fdc                	lw	a5,28(a5)
 24a:	8000                	0x8000
 24c:	50a2                	lw	ra,40(sp)
 24e:	8000                	0x8000
 250:	512e                	lw	sp,232(sp)
 252:	8000                	0x8000
 254:	514a                	lw	sp,176(sp)
 256:	8000                	0x8000
 258:	5170                	lw	a2,100(a0)
 25a:	8000                	0x8000
 25c:	5184                	lw	s1,32(a1)
 25e:	8000                	0x8000
	...
 268:	4fea                	lw	t6,152(sp)
 26a:	8000                	0x8000
 26c:	4ffa                	lw	t6,156(sp)
 26e:	8000                	0x8000
 270:	5006                	0x5006
 272:	8000                	0x8000
 274:	500a                	0x500a
 276:	8000                	0x8000
 278:	500e                	0x500e
 27a:	8000                	0x8000
 27c:	5058                	lw	a4,36(s0)
 27e:	8000                	0x8000
 280:	505a                	0x505a
 282:	8000                	0x8000
 284:	505e                	0x505e
 286:	8000                	0x8000
 288:	5072                	0x5072
 28a:	8000                	0x8000
 28c:	5076                	0x5076
 28e:	8000                	0x8000
 290:	5170                	lw	a2,100(a0)
 292:	8000                	0x8000
 294:	5184                	lw	s1,32(a1)
 296:	8000                	0x8000
	...
 2a0:	5058                	lw	a4,36(s0)
 2a2:	8000                	0x8000
 2a4:	505a                	0x505a
 2a6:	8000                	0x8000
 2a8:	505e                	0x505e
 2aa:	8000                	0x8000
 2ac:	5072                	0x5072
 2ae:	8000                	0x8000
 2b0:	5076                	0x5076
 2b2:	8000                	0x8000
 2b4:	5096                	lw	ra,100(sp)
 2b6:	8000                	0x8000
 2b8:	512e                	lw	sp,232(sp)
 2ba:	8000                	0x8000
 2bc:	513a                	lw	sp,172(sp)
 2be:	8000                	0x8000
 2c0:	513e                	lw	sp,236(sp)
 2c2:	8000                	0x8000
 2c4:	5140                	lw	s0,36(a0)
 2c6:	8000                	0x8000
	...
 2d0:	50ac                	lw	a1,96(s1)
 2d2:	8000                	0x8000
 2d4:	50b4                	lw	a3,96(s1)
 2d6:	8000                	0x8000
 2d8:	50b8                	lw	a4,96(s1)
 2da:	8000                	0x8000
 2dc:	50bc                	lw	a5,96(s1)
 2de:	8000                	0x8000
 2e0:	50c0                	lw	s0,36(s1)
 2e2:	8000                	0x8000
 2e4:	50c4                	lw	s1,36(s1)
 2e6:	8000                	0x8000
 2e8:	50c6                	lw	ra,112(sp)
 2ea:	8000                	0x8000
 2ec:	50ca                	lw	ra,176(sp)
 2ee:	8000                	0x8000
 2f0:	50ce                	lw	ra,240(sp)
 2f2:	8000                	0x8000
 2f4:	512e                	lw	sp,232(sp)
 2f6:	8000                	0x8000
 2f8:	5184                	lw	s1,32(a1)
 2fa:	8000                	0x8000
 2fc:	518c                	lw	a1,32(a1)
 2fe:	8000                	0x8000
	...
 308:	4e02                	lw	t3,0(sp)
 30a:	8000                	0x8000
 30c:	5198                	lw	a4,32(a1)
 30e:	8000                	0x8000
	...
 318:	5198                	lw	a4,32(a1)
 31a:	8000                	0x8000
 31c:	5246                	lw	tp,112(sp)
 31e:	8000                	0x8000
 320:	5248                	lw	a0,36(a2)
 322:	8000                	0x8000
 324:	5294                	lw	a3,32(a3)
 326:	8000                	0x8000
 328:	5296                	lw	t0,100(sp)
 32a:	8000                	0x8000
 32c:	54d6                	lw	s1,116(sp)
 32e:	8000                	0x8000
 330:	54dc                	lw	a5,44(s1)
 332:	8000                	0x8000
 334:	5518                	lw	a4,40(a0)
 336:	8000                	0x8000
	...
 340:	51a6                	lw	gp,104(sp)
 342:	8000                	0x8000
 344:	51d0                	lw	a2,36(a1)
 346:	8000                	0x8000
 348:	5340                	lw	s0,36(a4)
 34a:	8000                	0x8000
 34c:	5350                	lw	a2,36(a4)
 34e:	8000                	0x8000
 350:	54f2                	lw	s1,60(sp)
 352:	8000                	0x8000
 354:	54f6                	lw	s1,124(sp)
 356:	8000                	0x8000
	...
 360:	51e8                	lw	a0,100(a1)
 362:	8000                	0x8000
 364:	5230                	lw	a2,96(a2)
 366:	8000                	0x8000
 368:	550a                	lw	a0,160(sp)
 36a:	8000                	0x8000
 36c:	550e                	lw	a0,224(sp)
 36e:	8000                	0x8000
	...
 378:	5230                	lw	a2,96(a2)
 37a:	8000                	0x8000
 37c:	5240                	lw	s0,36(a2)
 37e:	8000                	0x8000
 380:	52da                	lw	t0,180(sp)
 382:	8000                	0x8000
 384:	531e                	lw	t1,228(sp)
 386:	8000                	0x8000
	...
 390:	524c                	lw	a1,36(a2)
 392:	8000                	0x8000
 394:	5274                	lw	a3,100(a2)
 396:	8000                	0x8000
 398:	531e                	lw	t1,228(sp)
 39a:	8000                	0x8000
 39c:	532e                	lw	t1,232(sp)
 39e:	8000                	0x8000
 3a0:	54dc                	lw	a5,44(s1)
 3a2:	8000                	0x8000
 3a4:	54ea                	lw	s1,184(sp)
 3a6:	8000                	0x8000
	...
 3b0:	529e                	lw	t0,228(sp)
 3b2:	8000                	0x8000
 3b4:	52c6                	lw	t0,112(sp)
 3b6:	8000                	0x8000
 3b8:	532e                	lw	t1,232(sp)
 3ba:	8000                	0x8000
 3bc:	5340                	lw	s0,36(a4)
 3be:	8000                	0x8000
 3c0:	54ea                	lw	s1,184(sp)
 3c2:	8000                	0x8000
 3c4:	54f2                	lw	s1,60(sp)
 3c6:	8000                	0x8000
	...
 3d0:	5350                	lw	a2,36(a4)
 3d2:	8000                	0x8000
 3d4:	5432                	lw	s0,44(sp)
 3d6:	8000                	0x8000
 3d8:	54aa                	lw	s1,168(sp)
 3da:	8000                	0x8000
 3dc:	54d6                	lw	s1,116(sp)
 3de:	8000                	0x8000
 3e0:	54f6                	lw	s1,124(sp)
 3e2:	8000                	0x8000
 3e4:	550a                	lw	a0,160(sp)
 3e6:	8000                	0x8000
 3e8:	550e                	lw	a0,224(sp)
 3ea:	8000                	0x8000
 3ec:	5518                	lw	a4,40(a0)
 3ee:	8000                	0x8000
	...
 3f8:	5360                	lw	s0,100(a4)
 3fa:	8000                	0x8000
 3fc:	5370                	lw	a2,100(a4)
 3fe:	8000                	0x8000
 400:	537a                	lw	t1,188(sp)
 402:	8000                	0x8000
 404:	537e                	lw	t1,252(sp)
 406:	8000                	0x8000
 408:	5386                	lw	t2,96(sp)
 40a:	8000                	0x8000
 40c:	53d0                	lw	a2,36(a5)
 40e:	8000                	0x8000
 410:	53d2                	lw	t2,52(sp)
 412:	8000                	0x8000
 414:	53d6                	lw	t2,116(sp)
 416:	8000                	0x8000
 418:	53ee                	lw	t2,248(sp)
 41a:	8000                	0x8000
 41c:	53f2                	lw	t2,60(sp)
 41e:	8000                	0x8000
 420:	54f6                	lw	s1,124(sp)
 422:	8000                	0x8000
 424:	550a                	lw	a0,160(sp)
 426:	8000                	0x8000
	...
 430:	53d0                	lw	a2,36(a5)
 432:	8000                	0x8000
 434:	53d2                	lw	t2,52(sp)
 436:	8000                	0x8000
 438:	53d6                	lw	t2,116(sp)
 43a:	8000                	0x8000
 43c:	53ee                	lw	t2,248(sp)
 43e:	8000                	0x8000
 440:	53f2                	lw	t2,60(sp)
 442:	8000                	0x8000
 444:	5422                	lw	s0,40(sp)
 446:	8000                	0x8000
 448:	542e                	lw	s0,232(sp)
 44a:	8000                	0x8000
 44c:	5432                	lw	s0,44(sp)
 44e:	8000                	0x8000
	...
 458:	543a                	lw	s0,172(sp)
 45a:	8000                	0x8000
 45c:	5446                	lw	s0,112(sp)
 45e:	8000                	0x8000
 460:	544a                	lw	s0,176(sp)
 462:	8000                	0x8000
 464:	544e                	lw	s0,240(sp)
 466:	8000                	0x8000
 468:	5454                	lw	a3,44(s0)
 46a:	8000                	0x8000
 46c:	5458                	lw	a4,44(s0)
 46e:	8000                	0x8000
 470:	545c                	lw	a5,44(s0)
 472:	8000                	0x8000
 474:	54aa                	lw	s1,168(sp)
 476:	8000                	0x8000
	...
 480:	5198                	lw	a4,32(a1)
 482:	8000                	0x8000
 484:	5518                	lw	a4,40(a0)
 486:	8000                	0x8000
	...
 490:	5528                	lw	a0,104(a0)
 492:	8000                	0x8000
 494:	5568                	lw	a0,108(a0)
 496:	8000                	0x8000
 498:	5598                	lw	a4,40(a1)
 49a:	8000                	0x8000
 49c:	567c                	lw	a5,108(a2)
 49e:	8000                	0x8000
 4a0:	5684                	lw	s1,40(a3)
 4a2:	8000                	0x8000
 4a4:	5686                	lw	a3,96(sp)
 4a6:	8000                	0x8000
 4a8:	56ac                	lw	a1,104(a3)
 4aa:	8000                	0x8000
 4ac:	56fa                	lw	a3,188(sp)
 4ae:	8000                	0x8000
	...
 4b8:	5532                	lw	a0,44(sp)
 4ba:	8000                	0x8000
 4bc:	5562                	lw	a0,56(sp)
 4be:	8000                	0x8000
 4c0:	5598                	lw	a4,40(a1)
 4c2:	8000                	0x8000
 4c4:	567c                	lw	a5,108(a2)
 4c6:	8000                	0x8000
 4c8:	5684                	lw	s1,40(a3)
 4ca:	8000                	0x8000
 4cc:	5686                	lw	a3,96(sp)
 4ce:	8000                	0x8000
 4d0:	56ac                	lw	a1,104(a3)
 4d2:	8000                	0x8000
 4d4:	56fa                	lw	a3,188(sp)
 4d6:	8000                	0x8000
	...
 4e0:	5532                	lw	a0,44(sp)
 4e2:	8000                	0x8000
 4e4:	5542                	lw	a0,48(sp)
 4e6:	8000                	0x8000
 4e8:	5546                	lw	a0,112(sp)
 4ea:	8000                	0x8000
 4ec:	5548                	lw	a0,44(a0)
 4ee:	8000                	0x8000
 4f0:	5598                	lw	a4,40(a1)
 4f2:	8000                	0x8000
 4f4:	55a4                	lw	s1,104(a1)
 4f6:	8000                	0x8000
	...
 500:	560c                	lw	a1,40(a2)
 502:	8000                	0x8000
 504:	5610                	lw	a2,40(a2)
 506:	8000                	0x8000
 508:	5614                	lw	a3,40(a2)
 50a:	8000                	0x8000
 50c:	5648                	lw	a0,44(a2)
 50e:	8000                	0x8000
 510:	567a                	lw	a2,188(sp)
 512:	8000                	0x8000
 514:	567c                	lw	a5,108(a2)
 516:	8000                	0x8000
 518:	5684                	lw	s1,40(a3)
 51a:	8000                	0x8000
 51c:	5686                	lw	a3,96(sp)
 51e:	8000                	0x8000
 520:	56ac                	lw	a1,104(a3)
 522:	8000                	0x8000
 524:	56b0                	lw	a2,104(a3)
 526:	8000                	0x8000
 528:	56e0                	lw	s0,108(a3)
 52a:	8000                	0x8000
 52c:	56f4                	lw	a3,108(a3)
 52e:	8000                	0x8000
	...
 538:	5568                	lw	a0,108(a0)
 53a:	8000                	0x8000
 53c:	558a                	lw	a1,160(sp)
 53e:	8000                	0x8000
 540:	567c                	lw	a5,108(a2)
 542:	8000                	0x8000
 544:	5684                	lw	s1,40(a3)
 546:	8000                	0x8000
 548:	5686                	lw	a3,96(sp)
 54a:	8000                	0x8000
 54c:	5694                	lw	a3,40(a3)
 54e:	8000                	0x8000
	...
 558:	5518                	lw	a4,40(a0)
 55a:	8000                	0x8000
 55c:	56fa                	lw	a3,188(sp)
 55e:	8000                	0x8000
	...
 568:	56fa                	lw	a3,188(sp)
 56a:	8000                	0x8000
 56c:	5716                	lw	a4,100(sp)
 56e:	8000                	0x8000
 570:	571c                	lw	a5,40(a4)
 572:	8000                	0x8000
 574:	5732                	lw	a4,44(sp)
 576:	8000                	0x8000
 578:	5738                	lw	a4,104(a4)
 57a:	8000                	0x8000
 57c:	5746                	lw	a4,112(sp)
 57e:	8000                	0x8000
 580:	574c                	lw	a1,44(a4)
 582:	8000                	0x8000
 584:	575a                	lw	a4,180(sp)
 586:	8000                	0x8000
	...
 590:	56fa                	lw	a3,188(sp)
 592:	8000                	0x8000
 594:	5760                	lw	s0,108(a4)
 596:	8000                	0x8000
	...

Disassembly of section .debug_line:

00000000 <.debug_line>:
   0:	0344                	addi	s1,sp,388
   2:	0000                	unimp
   4:	0002                	c.slli	zero,0x0
   6:	0152                	slli	sp,sp,0x14
   8:	0000                	unimp
   a:	0101                	addi	sp,sp,0
   c:	000d0efb          	0xd0efb
  10:	0101                	addi	sp,sp,0
  12:	0101                	addi	sp,sp,0
  14:	0000                	unimp
  16:	0100                	addi	s0,sp,128
  18:	0000                	unimp
  1a:	2f01                	jal	72a <_tbss_end+0x6a6>
  1c:	6f48                	flw	fa0,28(a4)
  1e:	572f7473          	csrrci	s0,0x572,30
  22:	2f6b726f          	jal	tp,b7318 <_tbss_end+0xb7294>
  26:	6972                	flw	fs2,28(sp)
  28:	2d766373          	csrrsi	t1,0x2d7,12
  2c:	6f6e                	flw	ft10,216(sp)
  2e:	656e                	flw	fa0,216(sp)
  30:	672d                	lui	a4,0xb
  32:	722f6363          	bltu	t5,sp,758 <_tbss_end+0x6d4>
  36:	7369                	lui	t1,0xffffa
  38:	6e2d7663          	bleu	sp,s10,724 <_tbss_end+0x6a0>
  3c:	2d656e6f          	jal	t3,56312 <_tbss_end+0x5628e>
  40:	2d636367          	0x2d636367
  44:	2e322e37          	lui	t3,0x2e322
  48:	2d30                	fld	fa2,88(a0)
  4a:	2d32                	fld	fs10,264(sp)
  4c:	3032                	fld	ft0,296(sp)
  4e:	3831                	jal	fffff86a <__global_pointer$+0x6ffff06a>
  50:	3130                	fld	fa2,96(a0)
  52:	3031                	jal	fffff85e <__global_pointer$+0x6ffff05e>
  54:	62696c2f          	0x62696c2f
  58:	00636367          	0x636367
  5c:	736f482f          	0x736f482f
  60:	2f74                	fld	fa3,216(a4)
  62:	6b726f57          	0x6b726f57
  66:	7369722f          	0x7369722f
  6a:	6e2d7663          	bleu	sp,s10,756 <_tbss_end+0x6d2>
  6e:	2d656e6f          	jal	t3,56344 <_tbss_end+0x562c0>
  72:	2f636367          	0x2f636367
  76:	6972                	flw	fs2,28(sp)
  78:	2d766373          	csrrsi	t1,0x2d7,12
  7c:	6f6e                	flw	ft10,216(sp)
  7e:	656e                	flw	fa0,216(sp)
  80:	672d                	lui	a4,0xb
  82:	372d6363          	bltu	s10,s2,3e8 <_tbss_end+0x364>
  86:	322e                	fld	ft4,232(sp)
  88:	302e                	fld	ft0,232(sp)
  8a:	322d                	jal	fffff9b4 <__global_pointer$+0x6ffff1b4>
  8c:	322d                	jal	fffff9b6 <__global_pointer$+0x6ffff1b6>
  8e:	3130                	fld	fa2,96(a0)
  90:	3038                	fld	fa4,96(s0)
  92:	3131                	jal	fffffc9e <__global_pointer$+0x6ffff49e>
  94:	2f30                	fld	fa2,88(a4)
  96:	696c                	flw	fa1,84(a0)
  98:	6762                	flw	fa4,24(sp)
  9a:	2e2f6363          	bltu	t5,sp,380 <_tbss_end+0x2fc>
  9e:	2f2e                	fld	ft10,200(sp)
  a0:	6e69                	lui	t3,0x1a
  a2:	64756c63          	bltu	a0,t2,6fa <_tbss_end+0x676>
  a6:	0065                	c.nop	25
  a8:	736f482f          	0x736f482f
  ac:	2f74                	fld	fa3,216(a4)
  ae:	6b726f57          	0x6b726f57
  b2:	7369722f          	0x7369722f
  b6:	6e2d7663          	bleu	sp,s10,7a2 <_tbss_end+0x71e>
  ba:	2d656e6f          	jal	t3,56390 <_tbss_end+0x5630c>
  be:	2f636367          	0x2f636367
  c2:	6972                	flw	fs2,28(sp)
  c4:	2d766373          	csrrsi	t1,0x2d7,12
  c8:	6f6e                	flw	ft10,216(sp)
  ca:	656e                	flw	fa0,216(sp)
  cc:	672d                	lui	a4,0xb
  ce:	372d6363          	bltu	s10,s2,434 <_tbss_end+0x3b0>
  d2:	322e                	fld	ft4,232(sp)
  d4:	302e                	fld	ft0,232(sp)
  d6:	322d                	jal	fffffa00 <__global_pointer$+0x6ffff200>
  d8:	322d                	jal	fffffa02 <__global_pointer$+0x6ffff202>
  da:	3130                	fld	fa2,96(a0)
  dc:	3038                	fld	fa4,96(s0)
  de:	3131                	jal	fffffcea <__global_pointer$+0x6ffff4ea>
  e0:	2f30                	fld	fa2,88(a4)
  e2:	696c                	flw	fa1,84(a0)
  e4:	6762                	flw	fa4,24(sp)
  e6:	2e2f6363          	bltu	t5,sp,3cc <_tbss_end+0x348>
  ea:	2f2e                	fld	ft10,200(sp)
  ec:	2f636367          	0x2f636367
  f0:	666e6f63          	bltu	t3,t1,76e <_tbss_end+0x6ea>
  f4:	6769                	lui	a4,0x1a
  f6:	7369722f          	0x7369722f
  fa:	2e007663          	bleu	zero,zero,3e6 <_tbss_end+0x362>
  fe:	2f2e                	fld	ft10,200(sp)
 100:	2e2e                	fld	ft8,200(sp)
 102:	2f2e2e2f          	0x2f2e2e2f
 106:	2e2e                	fld	ft8,200(sp)
 108:	672f2e2f          	amoand.w.aqrl	t3,s2,(t5)
 10c:	00006363          	bltu	zero,zero,112 <_tbss_end+0x8e>
 110:	696c                	flw	fa1,84(a0)
 112:	6762                	flw	fa4,24(sp)
 114:	2e326363          	bltu	tp,gp,3fa <_tbss_end+0x376>
 118:	00010063          	beqz	sp,118 <_tbss_end+0x94>
 11c:	6800                	flw	fs0,16(s0)
 11e:	7361                	lui	t1,0xffff8
 120:	7468                	flw	fa0,108(s0)
 122:	6261                	lui	tp,0x18
 124:	682e                	flw	fa6,200(sp)
 126:	0200                	addi	s0,sp,256
 128:	0000                	unimp
 12a:	6972                	flw	fs2,28(sp)
 12c:	2d766373          	csrrsi	t1,0x2d7,12
 130:	7374706f          	j	48066 <_tbss_end+0x47fe2>
 134:	682e                	flw	fa6,200(sp)
 136:	0300                	addi	s0,sp,384
 138:	0000                	unimp
 13a:	6e69                	lui	t3,0x1a
 13c:	632d6e73          	csrrsi	t3,0x632,26
 140:	74736e6f          	jal	t3,37086 <_tbss_end+0x37002>
 144:	6e61                	lui	t3,0x18
 146:	7374                	flw	fa3,100(a4)
 148:	682e                	flw	fa6,200(sp)
 14a:	0400                	addi	s0,sp,512
 14c:	0000                	unimp
 14e:	696c                	flw	fa1,84(a0)
 150:	6762                	flw	fa4,24(sp)
 152:	2e326363          	bltu	tp,gp,438 <_tbss_end+0x3b4>
 156:	0068                	addi	a0,sp,12
 158:	0001                	nop
 15a:	0000                	unimp
 15c:	0500                	addi	s0,sp,640
 15e:	3c02                	fld	fs8,32(sp)
 160:	004a                	c.slli	zero,0x12
 162:	0380                	addi	s0,sp,448
 164:	09e6                	slli	s3,s3,0x19
 166:	0301                	addi	t1,t1,0
 168:	0901                	addi	s2,s2,0
 16a:	0000                	unimp
 16c:	0301                	addi	t1,t1,0
 16e:	0905                	addi	s2,s2,1
 170:	0002                	c.slli	zero,0x0
 172:	0301                	addi	t1,t1,0
 174:	00040903          	lb	s2,0(s0)
 178:	0301                	addi	t1,t1,0
 17a:	0901                	addi	s2,s2,0
 17c:	0004                	0x4
 17e:	0301                	addi	t1,t1,0
 180:	0e097e8f          	0xe097e8f
 184:	0100                	addi	s0,sp,128
 186:	02097f03          	0x2097f03
 18a:	0100                	addi	s0,sp,128
 18c:	02090203          	lb	tp,32(s2)
 190:	0100                	addi	s0,sp,128
 192:	02090103          	lb	sp,32(s2)
 196:	0100                	addi	s0,sp,128
 198:	02092503          	lw	a0,32(s2)
 19c:	0100                	addi	s0,sp,128
 19e:	02090203          	lb	tp,32(s2)
 1a2:	0100                	addi	s0,sp,128
 1a4:	04090403          	lb	s0,64(s2)
 1a8:	0100                	addi	s0,sp,128
 1aa:	28090203          	lb	tp,640(s2)
 1ae:	0100                	addi	s0,sp,128
 1b0:	04090603          	lb	a2,64(s2)
 1b4:	0100                	addi	s0,sp,128
 1b6:	08097f03          	0x8097f03
 1ba:	0100                	addi	s0,sp,128
 1bc:	04090103          	lb	sp,64(s2)
 1c0:	0100                	addi	s0,sp,128
 1c2:	04090103          	lb	sp,64(s2)
 1c6:	0100                	addi	s0,sp,128
 1c8:	04090303          	lb	t1,64(s2)
 1cc:	0100                	addi	s0,sp,128
 1ce:	4a092a03          	lw	s4,1184(s2)
 1d2:	0100                	addi	s0,sp,128
 1d4:	04090703          	lb	a4,64(s2)
 1d8:	0100                	addi	s0,sp,128
 1da:	04090203          	lb	tp,64(s2)
 1de:	0100                	addi	s0,sp,128
 1e0:	09018803          	lb	a6,144(gp) # 90000890 <__global_pointer$+0x90>
 1e4:	0002                	c.slli	zero,0x0
 1e6:	0301                	addi	t1,t1,0
 1e8:	0901                	addi	s2,s2,0
 1ea:	0004                	0x4
 1ec:	0301                	addi	t1,t1,0
 1ee:	000e0903          	lb	s2,0(t3) # 18000 <_tbss_end+0x17f7c>
 1f2:	0301                	addi	t1,t1,0
 1f4:	02097efb          	0x2097efb
 1f8:	0100                	addi	s0,sp,128
 1fa:	04091303          	lh	t1,64(s2)
 1fe:	0100                	addi	s0,sp,128
 200:	28090103          	lb	sp,640(s2)
 204:	0100                	addi	s0,sp,128
 206:	04090a03          	lb	s4,64(s2)
 20a:	0100                	addi	s0,sp,128
 20c:	0a090303          	lb	t1,160(s2)
 210:	0100                	addi	s0,sp,128
 212:	0e090b03          	lb	s6,224(s2)
 216:	0100                	addi	s0,sp,128
 218:	0900d003          	lhu	zero,144(ra)
 21c:	0006                	c.slli	zero,0x1
 21e:	0301                	addi	t1,t1,0
 220:	097f                	0x97f
 222:	000e                	c.slli	zero,0x3
 224:	0301                	addi	t1,t1,0
 226:	7ed4                	flw	fa3,60(a3)
 228:	0409                	addi	s0,s0,2
 22a:	0100                	addi	s0,sp,128
 22c:	02090103          	lb	sp,32(s2)
 230:	0100                	addi	s0,sp,128
 232:	06090203          	lb	tp,96(s2)
 236:	0100                	addi	s0,sp,128
 238:	28090203          	lb	tp,640(s2)
 23c:	0100                	addi	s0,sp,128
 23e:	08090903          	lb	s2,128(s2)
 242:	0100                	addi	s0,sp,128
 244:	0c091303          	lh	t1,192(s2)
 248:	0100                	addi	s0,sp,128
 24a:	50090703          	lb	a4,1280(s2)
 24e:	0100                	addi	s0,sp,128
 250:	04090203          	lb	tp,64(s2)
 254:	0100                	addi	s0,sp,128
 256:	04095903          	lhu	s2,64(s2)
 25a:	0100                	addi	s0,sp,128
 25c:	12096803          	0x12096803
 260:	0100                	addi	s0,sp,128
 262:	0900d903          	lhu	s2,144(ra)
 266:	0012                	c.slli	zero,0x4
 268:	0301                	addi	t1,t1,0
 26a:	00100953          	fadd.s	fs2,ft0,ft1,rne
 26e:	0301                	addi	t1,t1,0
 270:	0901                	addi	s2,s2,0
 272:	0004                	0x4
 274:	0301                	addi	t1,t1,0
 276:	0904                	addi	s1,sp,144
 278:	0004                	0x4
 27a:	0301                	addi	t1,t1,0
 27c:	097d                	addi	s2,s2,31
 27e:	000c                	0xc
 280:	0301                	addi	t1,t1,0
 282:	00040903          	lb	s2,0(s0)
 286:	0301                	addi	t1,t1,0
 288:	097d                	addi	s2,s2,31
 28a:	0004                	0x4
 28c:	0301                	addi	t1,t1,0
 28e:	00060903          	lb	s2,0(a2)
 292:	0301                	addi	t1,t1,0
 294:	097e                	slli	s2,s2,0x1f
 296:	0004                	0x4
 298:	0301                	addi	t1,t1,0
 29a:	0902                	slli	s2,s2,0x0
 29c:	0004                	0x4
 29e:	0301                	addi	t1,t1,0
 2a0:	4e0900cb          	fnmsub.q	ft1,fs2,ft0,fs1,rne
 2a4:	0100                	addi	s0,sp,128
 2a6:	0c090203          	lb	tp,192(s2)
 2aa:	0100                	addi	s0,sp,128
 2ac:	04090403          	lb	s0,64(s2)
 2b0:	0100                	addi	s0,sp,128
 2b2:	10097d03          	0x10097d03
 2b6:	0100                	addi	s0,sp,128
 2b8:	0a090303          	lb	t1,160(s2)
 2bc:	0100                	addi	s0,sp,128
 2be:	04097b03          	0x4097b03
 2c2:	0100                	addi	s0,sp,128
 2c4:	04090303          	lb	t1,64(s2)
 2c8:	0100                	addi	s0,sp,128
 2ca:	04090203          	lb	tp,64(s2)
 2ce:	0100                	addi	s0,sp,128
 2d0:	56090103          	lb	sp,1376(s2)
 2d4:	0100                	addi	s0,sp,128
 2d6:	02097f03          	0x2097f03
 2da:	0100                	addi	s0,sp,128
 2dc:	04090103          	lb	sp,64(s2)
 2e0:	0100                	addi	s0,sp,128
 2e2:	18097f03          	0x18097f03
 2e6:	0100                	addi	s0,sp,128
 2e8:	04090103          	lb	sp,64(s2)
 2ec:	0100                	addi	s0,sp,128
 2ee:	30090203          	lb	tp,768(s2)
 2f2:	0100                	addi	s0,sp,128
 2f4:	0c097e03          	0xc097e03
 2f8:	0100                	addi	s0,sp,128
 2fa:	04090503          	lb	a0,64(s2)
 2fe:	0100                	addi	s0,sp,128
 300:	12090803          	lb	a6,288(s2)
 304:	0100                	addi	s0,sp,128
 306:	0a090103          	lb	sp,160(s2)
 30a:	0100                	addi	s0,sp,128
 30c:	08090203          	lb	tp,128(s2)
 310:	0100                	addi	s0,sp,128
 312:	097f8503          	lb	a0,151(t6)
 316:	000e                	c.slli	zero,0x3
 318:	0301                	addi	t1,t1,0
 31a:	00c1                	addi	ra,ra,16
 31c:	0809                	addi	a6,a6,2
 31e:	0100                	addi	s0,sp,128
 320:	097fa703          	lw	a4,151(t6)
 324:	0008                	0x8
 326:	0301                	addi	t1,t1,0
 328:	00d9                	addi	ra,ra,22
 32a:	0409                	addi	s0,s0,2
 32c:	0100                	addi	s0,sp,128
 32e:	06092903          	lw	s2,96(s2)
 332:	0100                	addi	s0,sp,128
 334:	097fb403          	0x97fb403
 338:	0008                	0x8
 33a:	0301                	addi	t1,t1,0
 33c:	040900cf          	0x40900cf
 340:	0100                	addi	s0,sp,128
 342:	0a09                	addi	s4,s4,2
 344:	0000                	unimp
 346:	0101                	addi	sp,sp,0
 348:	0334                	addi	a3,sp,392
 34a:	0000                	unimp
 34c:	0002                	c.slli	zero,0x0
 34e:	0152                	slli	sp,sp,0x14
 350:	0000                	unimp
 352:	0101                	addi	sp,sp,0
 354:	000d0efb          	0xd0efb
 358:	0101                	addi	sp,sp,0
 35a:	0101                	addi	sp,sp,0
 35c:	0000                	unimp
 35e:	0100                	addi	s0,sp,128
 360:	0000                	unimp
 362:	2f01                	jal	a72 <_tbss_end+0x9ee>
 364:	6f48                	flw	fa0,28(a4)
 366:	572f7473          	csrrci	s0,0x572,30
 36a:	2f6b726f          	jal	tp,b7660 <_tbss_end+0xb75dc>
 36e:	6972                	flw	fs2,28(sp)
 370:	2d766373          	csrrsi	t1,0x2d7,12
 374:	6f6e                	flw	ft10,216(sp)
 376:	656e                	flw	fa0,216(sp)
 378:	672d                	lui	a4,0xb
 37a:	722f6363          	bltu	t5,sp,aa0 <_tbss_end+0xa1c>
 37e:	7369                	lui	t1,0xffffa
 380:	6e2d7663          	bleu	sp,s10,a6c <_tbss_end+0x9e8>
 384:	2d656e6f          	jal	t3,5665a <_tbss_end+0x565d6>
 388:	2d636367          	0x2d636367
 38c:	2e322e37          	lui	t3,0x2e322
 390:	2d30                	fld	fa2,88(a0)
 392:	2d32                	fld	fs10,264(sp)
 394:	3032                	fld	ft0,296(sp)
 396:	3831                	jal	fffffbb2 <__global_pointer$+0x6ffff3b2>
 398:	3130                	fld	fa2,96(a0)
 39a:	3031                	jal	fffffba6 <__global_pointer$+0x6ffff3a6>
 39c:	62696c2f          	0x62696c2f
 3a0:	00636367          	0x636367
 3a4:	736f482f          	0x736f482f
 3a8:	2f74                	fld	fa3,216(a4)
 3aa:	6b726f57          	0x6b726f57
 3ae:	7369722f          	0x7369722f
 3b2:	6e2d7663          	bleu	sp,s10,a9e <_tbss_end+0xa1a>
 3b6:	2d656e6f          	jal	t3,5668c <_tbss_end+0x56608>
 3ba:	2f636367          	0x2f636367
 3be:	6972                	flw	fs2,28(sp)
 3c0:	2d766373          	csrrsi	t1,0x2d7,12
 3c4:	6f6e                	flw	ft10,216(sp)
 3c6:	656e                	flw	fa0,216(sp)
 3c8:	672d                	lui	a4,0xb
 3ca:	372d6363          	bltu	s10,s2,730 <_tbss_end+0x6ac>
 3ce:	322e                	fld	ft4,232(sp)
 3d0:	302e                	fld	ft0,232(sp)
 3d2:	322d                	jal	fffffcfc <__global_pointer$+0x6ffff4fc>
 3d4:	322d                	jal	fffffcfe <__global_pointer$+0x6ffff4fe>
 3d6:	3130                	fld	fa2,96(a0)
 3d8:	3038                	fld	fa4,96(s0)
 3da:	3131                	jal	ffffffe6 <__global_pointer$+0x6ffff7e6>
 3dc:	2f30                	fld	fa2,88(a4)
 3de:	696c                	flw	fa1,84(a0)
 3e0:	6762                	flw	fa4,24(sp)
 3e2:	2e2f6363          	bltu	t5,sp,6c8 <_tbss_end+0x644>
 3e6:	2f2e                	fld	ft10,200(sp)
 3e8:	6e69                	lui	t3,0x1a
 3ea:	64756c63          	bltu	a0,t2,a42 <_tbss_end+0x9be>
 3ee:	0065                	c.nop	25
 3f0:	736f482f          	0x736f482f
 3f4:	2f74                	fld	fa3,216(a4)
 3f6:	6b726f57          	0x6b726f57
 3fa:	7369722f          	0x7369722f
 3fe:	6e2d7663          	bleu	sp,s10,aea <_tbss_end+0xa66>
 402:	2d656e6f          	jal	t3,566d8 <_tbss_end+0x56654>
 406:	2f636367          	0x2f636367
 40a:	6972                	flw	fs2,28(sp)
 40c:	2d766373          	csrrsi	t1,0x2d7,12
 410:	6f6e                	flw	ft10,216(sp)
 412:	656e                	flw	fa0,216(sp)
 414:	672d                	lui	a4,0xb
 416:	372d6363          	bltu	s10,s2,77c <_tbss_end+0x6f8>
 41a:	322e                	fld	ft4,232(sp)
 41c:	302e                	fld	ft0,232(sp)
 41e:	322d                	jal	fffffd48 <__global_pointer$+0x6ffff548>
 420:	322d                	jal	fffffd4a <__global_pointer$+0x6ffff54a>
 422:	3130                	fld	fa2,96(a0)
 424:	3038                	fld	fa4,96(s0)
 426:	3131                	jal	32 <_tdata_begin+0x32>
 428:	2f30                	fld	fa2,88(a4)
 42a:	696c                	flw	fa1,84(a0)
 42c:	6762                	flw	fa4,24(sp)
 42e:	2e2f6363          	bltu	t5,sp,714 <_tbss_end+0x690>
 432:	2f2e                	fld	ft10,200(sp)
 434:	2f636367          	0x2f636367
 438:	666e6f63          	bltu	t3,t1,ab6 <_tbss_end+0xa32>
 43c:	6769                	lui	a4,0x1a
 43e:	7369722f          	0x7369722f
 442:	2e007663          	bleu	zero,zero,72e <_tbss_end+0x6aa>
 446:	2f2e                	fld	ft10,200(sp)
 448:	2e2e                	fld	ft8,200(sp)
 44a:	2f2e2e2f          	0x2f2e2e2f
 44e:	2e2e                	fld	ft8,200(sp)
 450:	672f2e2f          	amoand.w.aqrl	t3,s2,(t5)
 454:	00006363          	bltu	zero,zero,45a <_tbss_end+0x3d6>
 458:	696c                	flw	fa1,84(a0)
 45a:	6762                	flw	fa4,24(sp)
 45c:	2e326363          	bltu	tp,gp,742 <_tbss_end+0x6be>
 460:	00010063          	beqz	sp,460 <_tbss_end+0x3dc>
 464:	6800                	flw	fs0,16(s0)
 466:	7361                	lui	t1,0xffff8
 468:	7468                	flw	fa0,108(s0)
 46a:	6261                	lui	tp,0x18
 46c:	682e                	flw	fa6,200(sp)
 46e:	0200                	addi	s0,sp,256
 470:	0000                	unimp
 472:	6972                	flw	fs2,28(sp)
 474:	2d766373          	csrrsi	t1,0x2d7,12
 478:	7374706f          	j	483ae <_tbss_end+0x4832a>
 47c:	682e                	flw	fa6,200(sp)
 47e:	0300                	addi	s0,sp,384
 480:	0000                	unimp
 482:	6e69                	lui	t3,0x1a
 484:	632d6e73          	csrrsi	t3,0x632,26
 488:	74736e6f          	jal	t3,373ce <_tbss_end+0x3734a>
 48c:	6e61                	lui	t3,0x18
 48e:	7374                	flw	fa3,100(a4)
 490:	682e                	flw	fa6,200(sp)
 492:	0400                	addi	s0,sp,512
 494:	0000                	unimp
 496:	696c                	flw	fa1,84(a0)
 498:	6762                	flw	fa4,24(sp)
 49a:	2e326363          	bltu	tp,gp,780 <_tbss_end+0x6fc>
 49e:	0068                	addi	a0,sp,12
 4a0:	0001                	nop
 4a2:	0000                	unimp
 4a4:	0500                	addi	s0,sp,640
 4a6:	0202                	slli	tp,tp,0x0
 4a8:	004e                	c.slli	zero,0x13
 4aa:	0380                	addi	s0,sp,448
 4ac:	0aa5                	addi	s5,s5,9
 4ae:	0301                	addi	t1,t1,0
 4b0:	7dda                	flw	fs11,180(sp)
 4b2:	0009                	c.nop	2
 4b4:	0100                	addi	s0,sp,128
 4b6:	02097f03          	0x2097f03
 4ba:	0100                	addi	s0,sp,128
 4bc:	02090203          	lb	tp,32(s2)
 4c0:	0100                	addi	s0,sp,128
 4c2:	02090103          	lb	sp,32(s2)
 4c6:	0100                	addi	s0,sp,128
 4c8:	02092503          	lw	a0,32(s2)
 4cc:	0100                	addi	s0,sp,128
 4ce:	02090203          	lb	tp,32(s2)
 4d2:	0100                	addi	s0,sp,128
 4d4:	04090403          	lb	s0,64(s2)
 4d8:	0100                	addi	s0,sp,128
 4da:	26090203          	lb	tp,608(s2)
 4de:	0100                	addi	s0,sp,128
 4e0:	02090603          	lb	a2,32(s2)
 4e4:	0100                	addi	s0,sp,128
 4e6:	08097f03          	0x8097f03
 4ea:	0100                	addi	s0,sp,128
 4ec:	04090103          	lb	sp,64(s2)
 4f0:	0100                	addi	s0,sp,128
 4f2:	04090103          	lb	sp,64(s2)
 4f6:	0100                	addi	s0,sp,128
 4f8:	04090303          	lb	t1,64(s2)
 4fc:	0100                	addi	s0,sp,128
 4fe:	0901ef03          	0x901ef03
 502:	006a                	c.slli	zero,0x1a
 504:	0301                	addi	t1,t1,0
 506:	02097ecb          	fnmsub.d	ft9,fs2,ft0,ft0
 50a:	0100                	addi	s0,sp,128
 50c:	04091303          	lh	t1,64(s2)
 510:	0100                	addi	s0,sp,128
 512:	28090103          	lb	sp,640(s2)
 516:	0100                	addi	s0,sp,128
 518:	04090a03          	lb	s4,64(s2)
 51c:	0100                	addi	s0,sp,128
 51e:	09019703          	lh	a4,144(gp) # 90000890 <__global_pointer$+0x90>
 522:	000e                	c.slli	zero,0x3
 524:	0301                	addi	t1,t1,0
 526:	7e9a                	flw	ft9,164(sp)
 528:	0209                	addi	tp,tp,2
 52a:	0100                	addi	s0,sp,128
 52c:	02090103          	lb	sp,32(s2)
 530:	0100                	addi	s0,sp,128
 532:	06090203          	lb	tp,96(s2)
 536:	0100                	addi	s0,sp,128
 538:	28090203          	lb	tp,640(s2)
 53c:	0100                	addi	s0,sp,128
 53e:	08090903          	lb	s2,128(s2)
 542:	0100                	addi	s0,sp,128
 544:	0e091303          	lh	t1,224(s2)
 548:	0100                	addi	s0,sp,128
 54a:	0901c503          	lbu	a0,144(gp) # 90000890 <__global_pointer$+0x90>
 54e:	005a                	c.slli	zero,0x16
 550:	0301                	addi	t1,t1,0
 552:	02097ecb          	fnmsub.d	ft9,fs2,ft0,ft0
 556:	0100                	addi	s0,sp,128
 558:	0901b503          	0x901b503
 55c:	0004                	0x4
 55e:	0301                	addi	t1,t1,0
 560:	7ede                	flw	ft9,244(sp)
 562:	0209                	addi	tp,tp,2
 564:	0100                	addi	s0,sp,128
 566:	097fbf03          	0x97fbf03
 56a:	0010                	0x10
 56c:	0301                	addi	t1,t1,0
 56e:	0968                	addi	a0,sp,156
 570:	0012                	c.slli	zero,0x4
 572:	0301                	addi	t1,t1,0
 574:	090c                	addi	a1,sp,144
 576:	0012                	c.slli	zero,0x4
 578:	0301                	addi	t1,t1,0
 57a:	092a                	slli	s2,s2,0xa
 57c:	0004                	0x4
 57e:	0301                	addi	t1,t1,0
 580:	00c6                	slli	ra,ra,0x11
 582:	0409                	addi	s0,s0,2
 584:	0100                	addi	s0,sp,128
 586:	0a090203          	lb	tp,160(s2)
 58a:	0100                	addi	s0,sp,128
 58c:	04090403          	lb	s0,64(s2)
 590:	0100                	addi	s0,sp,128
 592:	10097d03          	0x10097d03
 596:	0100                	addi	s0,sp,128
 598:	0c090303          	lb	t1,192(s2)
 59c:	0100                	addi	s0,sp,128
 59e:	04097b03          	0x4097b03
 5a2:	0100                	addi	s0,sp,128
 5a4:	04090503          	lb	a0,64(s2)
 5a8:	0100                	addi	s0,sp,128
 5aa:	4a090103          	lb	sp,1184(s2)
 5ae:	0100                	addi	s0,sp,128
 5b0:	02097f03          	0x2097f03
 5b4:	0100                	addi	s0,sp,128
 5b6:	04090103          	lb	sp,64(s2)
 5ba:	0100                	addi	s0,sp,128
 5bc:	14097f03          	0x14097f03
 5c0:	0100                	addi	s0,sp,128
 5c2:	04090103          	lb	sp,64(s2)
 5c6:	0100                	addi	s0,sp,128
 5c8:	20090203          	lb	tp,512(s2)
 5cc:	0100                	addi	s0,sp,128
 5ce:	0900f603          	0x900f603
 5d2:	000c                	0xc
 5d4:	0301                	addi	t1,t1,0
 5d6:	7eb1                	lui	t4,0xfffec
 5d8:	0209                	addi	tp,tp,2
 5da:	0100                	addi	s0,sp,128
 5dc:	04090103          	lb	sp,64(s2)
 5e0:	0100                	addi	s0,sp,128
 5e2:	04090403          	lb	s0,64(s2)
 5e6:	0100                	addi	s0,sp,128
 5e8:	08097d03          	0x8097d03
 5ec:	0100                	addi	s0,sp,128
 5ee:	04090303          	lb	t1,64(s2)
 5f2:	0100                	addi	s0,sp,128
 5f4:	04097d03          	0x4097d03
 5f8:	0100                	addi	s0,sp,128
 5fa:	04090303          	lb	t1,64(s2)
 5fe:	0100                	addi	s0,sp,128
 600:	04097d03          	0x4097d03
 604:	0100                	addi	s0,sp,128
 606:	02090303          	lb	t1,32(s2)
 60a:	0100                	addi	s0,sp,128
 60c:	04097e03          	0x4097e03
 610:	0100                	addi	s0,sp,128
 612:	04090203          	lb	tp,64(s2)
 616:	0100                	addi	s0,sp,128
 618:	0900d203          	lhu	tp,144(ra)
 61c:	0060                	addi	s0,sp,12
 61e:	0301                	addi	t1,t1,0
 620:	097d                	addi	s2,s2,31
 622:	000c                	0xc
 624:	0301                	addi	t1,t1,0
 626:	00040903          	lb	s2,0(s0)
 62a:	0301                	addi	t1,t1,0
 62c:	0902                	slli	s2,s2,0x0
 62e:	0002                	c.slli	zero,0x0
 630:	0301                	addi	t1,t1,0
 632:	0902                	slli	s2,s2,0x0
 634:	0004                	0x4
 636:	0301                	addi	t1,t1,0
 638:	00f4                	addi	a3,sp,76
 63a:	0609                	addi	a2,a2,2
 63c:	0100                	addi	s0,sp,128
 63e:	097ede03          	lhu	t3,151(t4) # fffec097 <__global_pointer$+0x6ffeb897>
 642:	0006                	c.slli	zero,0x1
 644:	0301                	addi	t1,t1,0
 646:	0e097fbf 68030100 	0x680301000e097fbf
 64e:	0809                	addi	a6,a6,2
 650:	0100                	addi	s0,sp,128
 652:	0900e403          	0x900e403
 656:	0004                	0x4
 658:	0301                	addi	t1,t1,0
 65a:	04090197          	auipc	gp,0x4090
 65e:	0100                	addi	s0,sp,128
 660:	097f8703          	lb	a4,151(t6)
 664:	0002                	c.slli	zero,0x0
 666:	0301                	addi	t1,t1,0
 668:	14097faf          	0x14097faf
 66c:	0100                	addi	s0,sp,128
 66e:	08095b03          	lhu	s6,128(s2)
 672:	0100                	addi	s0,sp,128
 674:	06092a03          	lw	s4,96(s2)
 678:	0100                	addi	s0,sp,128
 67a:	0609                	addi	a2,a2,2
 67c:	0000                	unimp
 67e:	0101                	addi	sp,sp,0
 680:	0310                	addi	a2,sp,384
 682:	0000                	unimp
 684:	0002                	c.slli	zero,0x0
 686:	0152                	slli	sp,sp,0x14
 688:	0000                	unimp
 68a:	0101                	addi	sp,sp,0
 68c:	000d0efb          	0xd0efb
 690:	0101                	addi	sp,sp,0
 692:	0101                	addi	sp,sp,0
 694:	0000                	unimp
 696:	0100                	addi	s0,sp,128
 698:	0000                	unimp
 69a:	2f01                	jal	daa <_tbss_end+0xd26>
 69c:	6f48                	flw	fa0,28(a4)
 69e:	572f7473          	csrrci	s0,0x572,30
 6a2:	2f6b726f          	jal	tp,b7998 <_tbss_end+0xb7914>
 6a6:	6972                	flw	fs2,28(sp)
 6a8:	2d766373          	csrrsi	t1,0x2d7,12
 6ac:	6f6e                	flw	ft10,216(sp)
 6ae:	656e                	flw	fa0,216(sp)
 6b0:	672d                	lui	a4,0xb
 6b2:	722f6363          	bltu	t5,sp,dd8 <_tbss_end+0xd54>
 6b6:	7369                	lui	t1,0xffffa
 6b8:	6e2d7663          	bleu	sp,s10,da4 <_tbss_end+0xd20>
 6bc:	2d656e6f          	jal	t3,56992 <_tbss_end+0x5690e>
 6c0:	2d636367          	0x2d636367
 6c4:	2e322e37          	lui	t3,0x2e322
 6c8:	2d30                	fld	fa2,88(a0)
 6ca:	2d32                	fld	fs10,264(sp)
 6cc:	3032                	fld	ft0,296(sp)
 6ce:	3831                	jal	fffffeea <__global_pointer$+0x6ffff6ea>
 6d0:	3130                	fld	fa2,96(a0)
 6d2:	3031                	jal	fffffede <__global_pointer$+0x6ffff6de>
 6d4:	62696c2f          	0x62696c2f
 6d8:	00636367          	0x636367
 6dc:	736f482f          	0x736f482f
 6e0:	2f74                	fld	fa3,216(a4)
 6e2:	6b726f57          	0x6b726f57
 6e6:	7369722f          	0x7369722f
 6ea:	6e2d7663          	bleu	sp,s10,dd6 <_tbss_end+0xd52>
 6ee:	2d656e6f          	jal	t3,569c4 <_tbss_end+0x56940>
 6f2:	2f636367          	0x2f636367
 6f6:	6972                	flw	fs2,28(sp)
 6f8:	2d766373          	csrrsi	t1,0x2d7,12
 6fc:	6f6e                	flw	ft10,216(sp)
 6fe:	656e                	flw	fa0,216(sp)
 700:	672d                	lui	a4,0xb
 702:	372d6363          	bltu	s10,s2,a68 <_tbss_end+0x9e4>
 706:	322e                	fld	ft4,232(sp)
 708:	302e                	fld	ft0,232(sp)
 70a:	322d                	jal	34 <_tdata_begin+0x34>
 70c:	322d                	jal	36 <_tdata_begin+0x36>
 70e:	3130                	fld	fa2,96(a0)
 710:	3038                	fld	fa4,96(s0)
 712:	3131                	jal	31e <_tbss_end+0x29a>
 714:	2f30                	fld	fa2,88(a4)
 716:	696c                	flw	fa1,84(a0)
 718:	6762                	flw	fa4,24(sp)
 71a:	2e2f6363          	bltu	t5,sp,a00 <_tbss_end+0x97c>
 71e:	2f2e                	fld	ft10,200(sp)
 720:	6e69                	lui	t3,0x1a
 722:	64756c63          	bltu	a0,t2,d7a <_tbss_end+0xcf6>
 726:	0065                	c.nop	25
 728:	736f482f          	0x736f482f
 72c:	2f74                	fld	fa3,216(a4)
 72e:	6b726f57          	0x6b726f57
 732:	7369722f          	0x7369722f
 736:	6e2d7663          	bleu	sp,s10,e22 <_tbss_end+0xd9e>
 73a:	2d656e6f          	jal	t3,56a10 <_tbss_end+0x5698c>
 73e:	2f636367          	0x2f636367
 742:	6972                	flw	fs2,28(sp)
 744:	2d766373          	csrrsi	t1,0x2d7,12
 748:	6f6e                	flw	ft10,216(sp)
 74a:	656e                	flw	fa0,216(sp)
 74c:	672d                	lui	a4,0xb
 74e:	372d6363          	bltu	s10,s2,ab4 <_tbss_end+0xa30>
 752:	322e                	fld	ft4,232(sp)
 754:	302e                	fld	ft0,232(sp)
 756:	322d                	jal	80 <buflen.2811>
 758:	322d                	jal	82 <buflen.2811+0x2>
 75a:	3130                	fld	fa2,96(a0)
 75c:	3038                	fld	fa4,96(s0)
 75e:	3131                	jal	36a <_tbss_end+0x2e6>
 760:	2f30                	fld	fa2,88(a4)
 762:	696c                	flw	fa1,84(a0)
 764:	6762                	flw	fa4,24(sp)
 766:	2e2f6363          	bltu	t5,sp,a4c <_tbss_end+0x9c8>
 76a:	2f2e                	fld	ft10,200(sp)
 76c:	2f636367          	0x2f636367
 770:	666e6f63          	bltu	t3,t1,dee <_tbss_end+0xd6a>
 774:	6769                	lui	a4,0x1a
 776:	7369722f          	0x7369722f
 77a:	2e007663          	bleu	zero,zero,a66 <_tbss_end+0x9e2>
 77e:	2f2e                	fld	ft10,200(sp)
 780:	2e2e                	fld	ft8,200(sp)
 782:	2f2e2e2f          	0x2f2e2e2f
 786:	2e2e                	fld	ft8,200(sp)
 788:	672f2e2f          	amoand.w.aqrl	t3,s2,(t5)
 78c:	00006363          	bltu	zero,zero,792 <_tbss_end+0x70e>
 790:	696c                	flw	fa1,84(a0)
 792:	6762                	flw	fa4,24(sp)
 794:	2e326363          	bltu	tp,gp,a7a <_tbss_end+0x9f6>
 798:	00010063          	beqz	sp,798 <_tbss_end+0x714>
 79c:	6800                	flw	fs0,16(s0)
 79e:	7361                	lui	t1,0xffff8
 7a0:	7468                	flw	fa0,108(s0)
 7a2:	6261                	lui	tp,0x18
 7a4:	682e                	flw	fa6,200(sp)
 7a6:	0200                	addi	s0,sp,256
 7a8:	0000                	unimp
 7aa:	6972                	flw	fs2,28(sp)
 7ac:	2d766373          	csrrsi	t1,0x2d7,12
 7b0:	7374706f          	j	486e6 <_tbss_end+0x48662>
 7b4:	682e                	flw	fa6,200(sp)
 7b6:	0300                	addi	s0,sp,384
 7b8:	0000                	unimp
 7ba:	6e69                	lui	t3,0x1a
 7bc:	632d6e73          	csrrsi	t3,0x632,26
 7c0:	74736e6f          	jal	t3,37706 <_tbss_end+0x37682>
 7c4:	6e61                	lui	t3,0x18
 7c6:	7374                	flw	fa3,100(a4)
 7c8:	682e                	flw	fa6,200(sp)
 7ca:	0400                	addi	s0,sp,512
 7cc:	0000                	unimp
 7ce:	696c                	flw	fa1,84(a0)
 7d0:	6762                	flw	fa4,24(sp)
 7d2:	2e326363          	bltu	tp,gp,ab8 <_tbss_end+0xa34>
 7d6:	0068                	addi	a0,sp,12
 7d8:	0001                	nop
 7da:	0000                	unimp
 7dc:	0500                	addi	s0,sp,640
 7de:	9802                	jalr	a6
 7e0:	0051                	c.nop	20
 7e2:	0380                	addi	s0,sp,448
 7e4:	0a99                	addi	s5,s5,6
 7e6:	0301                	addi	t1,t1,0
 7e8:	7de6                	flw	fs11,120(sp)
 7ea:	0009                	c.nop	2
 7ec:	0100                	addi	s0,sp,128
 7ee:	02097f03          	0x2097f03
 7f2:	0100                	addi	s0,sp,128
 7f4:	02090203          	lb	tp,32(s2)
 7f8:	0100                	addi	s0,sp,128
 7fa:	02090103          	lb	sp,32(s2)
 7fe:	0100                	addi	s0,sp,128
 800:	02092503          	lw	a0,32(s2)
 804:	0100                	addi	s0,sp,128
 806:	02090203          	lb	tp,32(s2)
 80a:	0100                	addi	s0,sp,128
 80c:	04090403          	lb	s0,64(s2)
 810:	0100                	addi	s0,sp,128
 812:	2a090203          	lb	tp,672(s2)
 816:	0100                	addi	s0,sp,128
 818:	04090603          	lb	a2,64(s2)
 81c:	0100                	addi	s0,sp,128
 81e:	08097f03          	0x8097f03
 822:	0100                	addi	s0,sp,128
 824:	04090103          	lb	sp,64(s2)
 828:	0100                	addi	s0,sp,128
 82a:	04090103          	lb	sp,64(s2)
 82e:	0100                	addi	s0,sp,128
 830:	04090303          	lb	t1,64(s2)
 834:	0100                	addi	s0,sp,128
 836:	48092a03          	lw	s4,1152(s2)
 83a:	0100                	addi	s0,sp,128
 83c:	10090703          	lb	a4,256(s2)
 840:	0100                	addi	s0,sp,128
 842:	04090203          	lb	tp,64(s2)
 846:	0100                	addi	s0,sp,128
 848:	0901b403          	0x901b403
 84c:	0002                	c.slli	zero,0x0
 84e:	0301                	addi	t1,t1,0
 850:	02097ed3          	fadd.d	ft9,fs2,ft0
 854:	0100                	addi	s0,sp,128
 856:	04091303          	lh	t1,64(s2)
 85a:	0100                	addi	s0,sp,128
 85c:	28090103          	lb	sp,640(s2)
 860:	0100                	addi	s0,sp,128
 862:	04090a03          	lb	s4,64(s2)
 866:	0100                	addi	s0,sp,128
 868:	0a090303          	lb	t1,160(s2)
 86c:	0100                	addi	s0,sp,128
 86e:	0e090b03          	lb	s6,224(s2)
 872:	0100                	addi	s0,sp,128
 874:	09018103          	lb	sp,144(gp) # 40906ea <_tbss_end+0x4090666>
 878:	0004                	0x4
 87a:	0301                	addi	t1,t1,0
 87c:	7ea2                	flw	ft9,40(sp)
 87e:	0209                	addi	tp,tp,2
 880:	0100                	addi	s0,sp,128
 882:	02090103          	lb	sp,32(s2)
 886:	0100                	addi	s0,sp,128
 888:	06090203          	lb	tp,96(s2)
 88c:	0100                	addi	s0,sp,128
 88e:	28090203          	lb	tp,640(s2)
 892:	0100                	addi	s0,sp,128
 894:	08090903          	lb	s2,128(s2)
 898:	0100                	addi	s0,sp,128
 89a:	0c091303          	lh	t1,192(s2)
 89e:	0100                	addi	s0,sp,128
 8a0:	44092303          	lw	t1,1088(s2)
 8a4:	0100                	addi	s0,sp,128
 8a6:	097fbf03          	0x97fbf03
 8aa:	0010                	0x10
 8ac:	0301                	addi	t1,t1,0
 8ae:	0968                	addi	a0,sp,156
 8b0:	0012                	c.slli	zero,0x4
 8b2:	0301                	addi	t1,t1,0
 8b4:	00fc                	addi	a5,sp,76
 8b6:	1009                	c.nop	-30
 8b8:	0100                	addi	s0,sp,128
 8ba:	0c090203          	lb	tp,192(s2)
 8be:	0100                	addi	s0,sp,128
 8c0:	04090403          	lb	s0,64(s2)
 8c4:	0100                	addi	s0,sp,128
 8c6:	10097d03          	0x10097d03
 8ca:	0100                	addi	s0,sp,128
 8cc:	0a090303          	lb	t1,160(s2)
 8d0:	0100                	addi	s0,sp,128
 8d2:	04097b03          	0x4097b03
 8d6:	0100                	addi	s0,sp,128
 8d8:	04090303          	lb	t1,64(s2)
 8dc:	0100                	addi	s0,sp,128
 8de:	04090203          	lb	tp,64(s2)
 8e2:	0100                	addi	s0,sp,128
 8e4:	4a090103          	lb	sp,1184(s2)
 8e8:	0100                	addi	s0,sp,128
 8ea:	02097f03          	0x2097f03
 8ee:	0100                	addi	s0,sp,128
 8f0:	04090103          	lb	sp,64(s2)
 8f4:	0100                	addi	s0,sp,128
 8f6:	18097f03          	0x18097f03
 8fa:	0100                	addi	s0,sp,128
 8fc:	04090103          	lb	sp,64(s2)
 900:	0100                	addi	s0,sp,128
 902:	30090203          	lb	tp,768(s2)
 906:	0100                	addi	s0,sp,128
 908:	0c097e03          	0xc097e03
 90c:	0100                	addi	s0,sp,128
 90e:	097fa903          	lw	s2,151(t6)
 912:	0004                	0x4
 914:	0301                	addi	t1,t1,0
 916:	0901                	addi	s2,s2,0
 918:	0004                	0x4
 91a:	0301                	addi	t1,t1,0
 91c:	0904                	addi	s1,sp,144
 91e:	0004                	0x4
 920:	0301                	addi	t1,t1,0
 922:	097d                	addi	s2,s2,31
 924:	000c                	0xc
 926:	0301                	addi	t1,t1,0
 928:	00040903          	lb	s2,0(s0)
 92c:	0301                	addi	t1,t1,0
 92e:	097d                	addi	s2,s2,31
 930:	0004                	0x4
 932:	0301                	addi	t1,t1,0
 934:	00060903          	lb	s2,0(a2)
 938:	0301                	addi	t1,t1,0
 93a:	097e                	slli	s2,s2,0x1f
 93c:	0004                	0x4
 93e:	0301                	addi	t1,t1,0
 940:	0902                	slli	s2,s2,0x0
 942:	0004                	0x4
 944:	0301                	addi	t1,t1,0
 946:	4e0900d7          	0x4e0900d7
 94a:	0100                	addi	s0,sp,128
 94c:	12090803          	lb	a6,288(s2)
 950:	0100                	addi	s0,sp,128
 952:	0a090103          	lb	sp,160(s2)
 956:	0100                	addi	s0,sp,128
 958:	08090203          	lb	tp,128(s2)
 95c:	0100                	addi	s0,sp,128
 95e:	0900e003          	0x900e003
 962:	0008                	0x8
 964:	0301                	addi	t1,t1,0
 966:	7ee6                	flw	ft9,120(sp)
 968:	0609                	addi	a2,a2,2
 96a:	0100                	addi	s0,sp,128
 96c:	097fbf03          	0x97fbf03
 970:	000e                	c.slli	zero,0x3
 972:	0301                	addi	t1,t1,0
 974:	0968                	addi	a0,sp,156
 976:	0008                	0x8
 978:	0301                	addi	t1,t1,0
 97a:	0182                	slli	gp,gp,0x0
 97c:	0409                	addi	s0,s0,2
 97e:	0100                	addi	s0,sp,128
 980:	097f8a03          	lb	s4,151(t6)
 984:	0014                	0x14
 986:	0301                	addi	t1,t1,0
 988:	00f9                	addi	ra,ra,30
 98a:	0409                	addi	s0,s0,2
 98c:	0100                	addi	s0,sp,128
 98e:	0a09                	addi	s4,s4,2
 990:	0000                	unimp
 992:	0101                	addi	sp,sp,0
 994:	01f5                	addi	gp,gp,29
 996:	0000                	unimp
 998:	0002                	c.slli	zero,0x0
 99a:	00e0                	addi	s0,sp,76
 99c:	0000                	unimp
 99e:	0101                	addi	sp,sp,0
 9a0:	000d0efb          	0xd0efb
 9a4:	0101                	addi	sp,sp,0
 9a6:	0101                	addi	sp,sp,0
 9a8:	0000                	unimp
 9aa:	0100                	addi	s0,sp,128
 9ac:	0000                	unimp
 9ae:	2f01                	jal	10be <_tbss_end+0x103a>
 9b0:	6f48                	flw	fa0,28(a4)
 9b2:	572f7473          	csrrci	s0,0x572,30
 9b6:	2f6b726f          	jal	tp,b7cac <_tbss_end+0xb7c28>
 9ba:	6972                	flw	fs2,28(sp)
 9bc:	2d766373          	csrrsi	t1,0x2d7,12
 9c0:	6f6e                	flw	ft10,216(sp)
 9c2:	656e                	flw	fa0,216(sp)
 9c4:	672d                	lui	a4,0xb
 9c6:	722f6363          	bltu	t5,sp,10ec <_tbss_end+0x1068>
 9ca:	7369                	lui	t1,0xffffa
 9cc:	6e2d7663          	bleu	sp,s10,10b8 <_tbss_end+0x1034>
 9d0:	2d656e6f          	jal	t3,56ca6 <_tbss_end+0x56c22>
 9d4:	2d636367          	0x2d636367
 9d8:	2e322e37          	lui	t3,0x2e322
 9dc:	2d30                	fld	fa2,88(a0)
 9de:	2d32                	fld	fs10,264(sp)
 9e0:	3032                	fld	ft0,296(sp)
 9e2:	3831                	jal	1fe <_tbss_end+0x17a>
 9e4:	3130                	fld	fa2,96(a0)
 9e6:	3031                	jal	1f2 <_tbss_end+0x16e>
 9e8:	62696c2f          	0x62696c2f
 9ec:	2f636367          	0x2f636367
 9f0:	74666f73          	csrrsi	t5,0x746,12
 9f4:	662d                	lui	a2,0xb
 9f6:	0070                	addi	a2,sp,12
 9f8:	736f482f          	0x736f482f
 9fc:	2f74                	fld	fa3,216(a4)
 9fe:	6b726f57          	0x6b726f57
 a02:	7369722f          	0x7369722f
 a06:	6e2d7663          	bleu	sp,s10,10f2 <_tbss_end+0x106e>
 a0a:	2d656e6f          	jal	t3,56ce0 <_tbss_end+0x56c5c>
 a0e:	2f636367          	0x2f636367
 a12:	6972                	flw	fs2,28(sp)
 a14:	2d766373          	csrrsi	t1,0x2d7,12
 a18:	6f6e                	flw	ft10,216(sp)
 a1a:	656e                	flw	fa0,216(sp)
 a1c:	672d                	lui	a4,0xb
 a1e:	372d6363          	bltu	s10,s2,d84 <_tbss_end+0xd00>
 a22:	322e                	fld	ft4,232(sp)
 a24:	302e                	fld	ft0,232(sp)
 a26:	322d                	jal	350 <_tbss_end+0x2cc>
 a28:	322d                	jal	352 <_tbss_end+0x2ce>
 a2a:	3130                	fld	fa2,96(a0)
 a2c:	3038                	fld	fa4,96(s0)
 a2e:	3131                	jal	63a <_tbss_end+0x5b6>
 a30:	2f30                	fld	fa2,88(a4)
 a32:	696c                	flw	fa1,84(a0)
 a34:	6762                	flw	fa4,24(sp)
 a36:	2e2f6363          	bltu	t5,sp,d1c <_tbss_end+0xc98>
 a3a:	2f2e                	fld	ft10,200(sp)
 a3c:	6e69                	lui	t3,0x1a
 a3e:	64756c63          	bltu	a0,t2,1096 <_tbss_end+0x1012>
 a42:	0065                	c.nop	25
 a44:	6600                	flw	fs0,8(a2)
 a46:	6f6c                	flw	fa1,92(a4)
 a48:	7461                	lui	s0,0xffff8
 a4a:	6e75                	lui	t3,0x1d
 a4c:	6964                	flw	fs1,84(a0)
 a4e:	6664                	flw	fs1,76(a2)
 a50:	632e                	flw	ft6,200(sp)
 a52:	0100                	addi	s0,sp,128
 a54:	0000                	unimp
 a56:	74666f73          	csrrsi	t5,0x746,12
 a5a:	662d                	lui	a2,0xb
 a5c:	2e70                	fld	fa2,216(a2)
 a5e:	0068                	addi	a0,sp,12
 a60:	0001                	nop
 a62:	6400                	flw	fs0,8(s0)
 a64:	6c62756f          	jal	a0,2812a <_tbss_end+0x280a6>
 a68:	2e65                	jal	e20 <_tbss_end+0xd9c>
 a6a:	0068                	addi	a0,sp,12
 a6c:	0001                	nop
 a6e:	6c00                	flw	fs0,24(s0)
 a70:	6c676e6f          	jal	t3,77136 <_tbss_end+0x770b2>
 a74:	2e676e6f          	jal	t3,76d5a <_tbss_end+0x76cd6>
 a78:	0068                	addi	a0,sp,12
 a7a:	0002                	c.slli	zero,0x0
 a7c:	0000                	unimp
 a7e:	0500                	addi	s0,sp,640
 a80:	1802                	slli	a6,a6,0x20
 a82:	0055                	c.nop	21
 a84:	0380                	addi	s0,sp,448
 a86:	05030123          	sb	a6,66(t1) # ffffa042 <__global_pointer$+0x6fff9842>
 a8a:	0c09                	addi	s8,s8,2
 a8c:	0100                	addi	s0,sp,128
 a8e:	04090103          	lb	sp,64(s2)
 a92:	0100                	addi	s0,sp,128
 a94:	0200                	addi	s0,sp,256
 a96:	0804                	addi	s1,sp,16
 a98:	0306                	slli	t1,t1,0x1
 a9a:	0900                	addi	s0,sp,144
 a9c:	000e                	c.slli	zero,0x3
 a9e:	0001                	nop
 aa0:	0402                	slli	s0,s0,0x0
 aa2:	09000323          	sb	a6,134(zero) # ffff8086 <__global_pointer$+0x6fff7886>
 aa6:	0016                	c.slli	zero,0x5
 aa8:	0301                	addi	t1,t1,0
 aaa:	0900                	addi	s0,sp,144
 aac:	001a                	c.slli	zero,0x6
 aae:	0601                	addi	a2,a2,0
 ab0:	02090103          	lb	sp,32(s2)
 ab4:	0100                	addi	s0,sp,128
 ab6:	22090403          	lb	s0,544(s2)
 aba:	0100                	addi	s0,sp,128
 abc:	0200                	addi	s0,sp,256
 abe:	0c04                	addi	s1,sp,528
 ac0:	0e097b03          	0xe097b03
 ac4:	0100                	addi	s0,sp,128
 ac6:	0200                	addi	s0,sp,256
 ac8:	2604                	fld	fs1,8(a2)
 aca:	0306                	slli	t1,t1,0x1
 acc:	0900                	addi	s0,sp,144
 ace:	001c                	0x1c
 ad0:	0001                	nop
 ad2:	0402                	slli	s0,s0,0x0
 ad4:	0324                	addi	s1,sp,392
 ad6:	0900                	addi	s0,sp,144
 ad8:	0018                	0x18
 ada:	0001                	nop
 adc:	0402                	slli	s0,s0,0x0
 ade:	032e                	slli	t1,t1,0xb
 ae0:	0900                	addi	s0,sp,144
 ae2:	0008                	0x8
 ae4:	0301                	addi	t1,t1,0
 ae6:	0900                	addi	s0,sp,144
 ae8:	002a                	c.slli	zero,0xa
 aea:	0001                	nop
 aec:	0402                	slli	s0,s0,0x0
 aee:	033c                	addi	a5,sp,392
 af0:	0900                	addi	s0,sp,144
 af2:	0008                	0x8
 af4:	0001                	nop
 af6:	0402                	slli	s0,s0,0x0
 af8:	035a                	slli	t1,t1,0x16
 afa:	0900                	addi	s0,sp,144
 afc:	0010                	0x10
 afe:	0001                	nop
 b00:	0402                	slli	s0,s0,0x0
 b02:	0364                	addi	s1,sp,396
 b04:	0900                	addi	s0,sp,144
 b06:	000a                	c.slli	zero,0x2
 b08:	0001                	nop
 b0a:	0402                	slli	s0,s0,0x0
 b0c:	036c                	addi	a1,sp,396
 b0e:	0900                	addi	s0,sp,144
 b10:	0016                	c.slli	zero,0x5
 b12:	0001                	nop
 b14:	0402                	slli	s0,s0,0x0
 b16:	09000327          	0x9000327
 b1a:	0012                	c.slli	zero,0x4
 b1c:	0001                	nop
 b1e:	0402                	slli	s0,s0,0x0
 b20:	09000333          	0x9000333
 b24:	0014                	0x14
 b26:	0301                	addi	t1,t1,0
 b28:	0900                	addi	s0,sp,144
 b2a:	001e                	c.slli	zero,0x7
 b2c:	0601                	addi	a2,a2,0
 b2e:	02090103          	lb	sp,32(s2)
 b32:	0100                	addi	s0,sp,128
 b34:	08097f03          	0x8097f03
 b38:	0100                	addi	s0,sp,128
 b3a:	02090103          	lb	sp,32(s2)
 b3e:	0100                	addi	s0,sp,128
 b40:	0e090103          	lb	sp,224(s2)
 b44:	0100                	addi	s0,sp,128
 b46:	0200                	addi	s0,sp,256
 b48:	0104                	addi	s1,sp,128
 b4a:	0306                	slli	t1,t1,0x1
 b4c:	0900                	addi	s0,sp,144
 b4e:	0004                	0x4
 b50:	0001                	nop
 b52:	0402                	slli	s0,s0,0x0
 b54:	0601                	addi	a2,a2,0
 b56:	04090303          	lb	t1,64(s2)
 b5a:	0100                	addi	s0,sp,128
 b5c:	10097b03          	0x10097b03
 b60:	0100                	addi	s0,sp,128
 b62:	0200                	addi	s0,sp,256
 b64:	2e04                	fld	fs1,24(a2)
 b66:	0306                	slli	t1,t1,0x1
 b68:	0900                	addi	s0,sp,144
 b6a:	0004                	0x4
 b6c:	0001                	nop
 b6e:	0402                	slli	s0,s0,0x0
 b70:	035d                	addi	t1,t1,23
 b72:	0900                	addi	s0,sp,144
 b74:	0030                	addi	a2,sp,8
 b76:	0001                	nop
 b78:	0402                	slli	s0,s0,0x0
 b7a:	0361                	addi	t1,t1,24
 b7c:	0900                	addi	s0,sp,144
 b7e:	000a                	c.slli	zero,0x2
 b80:	0301                	addi	t1,t1,0
 b82:	0900                	addi	s0,sp,144
 b84:	000a                	c.slli	zero,0x2
 b86:	0901                	addi	s2,s2,0
 b88:	0006                	c.slli	zero,0x1
 b8a:	0100                	addi	s0,sp,128
 b8c:	5801                	li	a6,-32
 b8e:	0001                	nop
 b90:	0200                	addi	s0,sp,256
 b92:	5200                	lw	s0,32(a2)
 b94:	0001                	nop
 b96:	0100                	addi	s0,sp,128
 b98:	fb01                	bnez	a4,aa8 <_tbss_end+0xa24>
 b9a:	0d0e                	slli	s10,s10,0x3
 b9c:	0100                	addi	s0,sp,128
 b9e:	0101                	addi	sp,sp,0
 ba0:	0001                	nop
 ba2:	0000                	unimp
 ba4:	0001                	nop
 ba6:	0100                	addi	s0,sp,128
 ba8:	736f482f          	0x736f482f
 bac:	2f74                	fld	fa3,216(a4)
 bae:	6b726f57          	0x6b726f57
 bb2:	7369722f          	0x7369722f
 bb6:	6e2d7663          	bleu	sp,s10,12a2 <_tbss_end+0x121e>
 bba:	2d656e6f          	jal	t3,56e90 <_tbss_end+0x56e0c>
 bbe:	2f636367          	0x2f636367
 bc2:	6972                	flw	fs2,28(sp)
 bc4:	2d766373          	csrrsi	t1,0x2d7,12
 bc8:	6f6e                	flw	ft10,216(sp)
 bca:	656e                	flw	fa0,216(sp)
 bcc:	672d                	lui	a4,0xb
 bce:	372d6363          	bltu	s10,s2,f34 <_tbss_end+0xeb0>
 bd2:	322e                	fld	ft4,232(sp)
 bd4:	302e                	fld	ft0,232(sp)
 bd6:	322d                	jal	500 <_tbss_end+0x47c>
 bd8:	322d                	jal	502 <_tbss_end+0x47e>
 bda:	3130                	fld	fa2,96(a0)
 bdc:	3038                	fld	fa4,96(s0)
 bde:	3131                	jal	7ea <_tbss_end+0x766>
 be0:	2f30                	fld	fa2,88(a4)
 be2:	696c                	flw	fa1,84(a0)
 be4:	6762                	flw	fa4,24(sp)
 be6:	2e2f6363          	bltu	t5,sp,ecc <_tbss_end+0xe48>
 bea:	2f2e                	fld	ft10,200(sp)
 bec:	6e69                	lui	t3,0x1a
 bee:	64756c63          	bltu	a0,t2,1246 <_tbss_end+0x11c2>
 bf2:	0065                	c.nop	25
 bf4:	736f482f          	0x736f482f
 bf8:	2f74                	fld	fa3,216(a4)
 bfa:	6b726f57          	0x6b726f57
 bfe:	7369722f          	0x7369722f
 c02:	6e2d7663          	bleu	sp,s10,12ee <_tbss_end+0x126a>
 c06:	2d656e6f          	jal	t3,56edc <_tbss_end+0x56e58>
 c0a:	2f636367          	0x2f636367
 c0e:	6972                	flw	fs2,28(sp)
 c10:	2d766373          	csrrsi	t1,0x2d7,12
 c14:	6f6e                	flw	ft10,216(sp)
 c16:	656e                	flw	fa0,216(sp)
 c18:	672d                	lui	a4,0xb
 c1a:	372d6363          	bltu	s10,s2,f80 <_tbss_end+0xefc>
 c1e:	322e                	fld	ft4,232(sp)
 c20:	302e                	fld	ft0,232(sp)
 c22:	322d                	jal	54c <_tbss_end+0x4c8>
 c24:	322d                	jal	54e <_tbss_end+0x4ca>
 c26:	3130                	fld	fa2,96(a0)
 c28:	3038                	fld	fa4,96(s0)
 c2a:	3131                	jal	836 <_tbss_end+0x7b2>
 c2c:	2f30                	fld	fa2,88(a4)
 c2e:	696c                	flw	fa1,84(a0)
 c30:	6762                	flw	fa4,24(sp)
 c32:	2e2f6363          	bltu	t5,sp,f18 <_tbss_end+0xe94>
 c36:	2f2e                	fld	ft10,200(sp)
 c38:	2f636367          	0x2f636367
 c3c:	666e6f63          	bltu	t3,t1,12ba <_tbss_end+0x1236>
 c40:	6769                	lui	a4,0x1a
 c42:	7369722f          	0x7369722f
 c46:	2e007663          	bleu	zero,zero,f32 <_tbss_end+0xeae>
 c4a:	2f2e                	fld	ft10,200(sp)
 c4c:	2e2e                	fld	ft8,200(sp)
 c4e:	2f2e2e2f          	0x2f2e2e2f
 c52:	2e2e                	fld	ft8,200(sp)
 c54:	672f2e2f          	amoand.w.aqrl	t3,s2,(t5)
 c58:	2f006363          	bltu	zero,a6,f3e <_tbss_end+0xeba>
 c5c:	6f48                	flw	fa0,28(a4)
 c5e:	572f7473          	csrrci	s0,0x572,30
 c62:	2f6b726f          	jal	tp,b7f58 <_tbss_end+0xb7ed4>
 c66:	6972                	flw	fs2,28(sp)
 c68:	2d766373          	csrrsi	t1,0x2d7,12
 c6c:	6f6e                	flw	ft10,216(sp)
 c6e:	656e                	flw	fa0,216(sp)
 c70:	672d                	lui	a4,0xb
 c72:	722f6363          	bltu	t5,sp,1398 <_tbss_end+0x1314>
 c76:	7369                	lui	t1,0xffffa
 c78:	6e2d7663          	bleu	sp,s10,1364 <_tbss_end+0x12e0>
 c7c:	2d656e6f          	jal	t3,56f52 <_tbss_end+0x56ece>
 c80:	2d636367          	0x2d636367
 c84:	2e322e37          	lui	t3,0x2e322
 c88:	2d30                	fld	fa2,88(a0)
 c8a:	2d32                	fld	fs10,264(sp)
 c8c:	3032                	fld	ft0,296(sp)
 c8e:	3831                	jal	4aa <_tbss_end+0x426>
 c90:	3130                	fld	fa2,96(a0)
 c92:	3031                	jal	49e <_tbss_end+0x41a>
 c94:	62696c2f          	0x62696c2f
 c98:	00636367          	0x636367
 c9c:	6800                	flw	fs0,16(s0)
 c9e:	7361                	lui	t1,0xffff8
 ca0:	7468                	flw	fa0,108(s0)
 ca2:	6261                	lui	tp,0x18
 ca4:	682e                	flw	fa6,200(sp)
 ca6:	0100                	addi	s0,sp,128
 ca8:	0000                	unimp
 caa:	6972                	flw	fs2,28(sp)
 cac:	2d766373          	csrrsi	t1,0x2d7,12
 cb0:	7374706f          	j	48be6 <_tbss_end+0x48b62>
 cb4:	682e                	flw	fa6,200(sp)
 cb6:	0200                	addi	s0,sp,256
 cb8:	0000                	unimp
 cba:	6e69                	lui	t3,0x1a
 cbc:	632d6e73          	csrrsi	t3,0x632,26
 cc0:	74736e6f          	jal	t3,37c06 <_tbss_end+0x37b82>
 cc4:	6e61                	lui	t3,0x18
 cc6:	7374                	flw	fa3,100(a4)
 cc8:	682e                	flw	fa6,200(sp)
 cca:	0300                	addi	s0,sp,384
 ccc:	0000                	unimp
 cce:	696c                	flw	fa1,84(a0)
 cd0:	6762                	flw	fa4,24(sp)
 cd2:	2e326363          	bltu	tp,gp,fb8 <_tbss_end+0xf34>
 cd6:	0068                	addi	a0,sp,12
 cd8:	0004                	0x4
 cda:	6c00                	flw	fs0,24(s0)
 cdc:	6269                	lui	tp,0x1a
 cde:	32636367          	0x32636367
 ce2:	632e                	flw	ft6,200(sp)
 ce4:	0400                	addi	s0,sp,512
 ce6:	0000                	unimp
 ce8:	bf00                	fsd	fs0,56(a4)
 cea:	0001                	nop
 cec:	0200                	addi	s0,sp,256
 cee:	5200                	lw	s0,32(a2)
 cf0:	0001                	nop
 cf2:	0100                	addi	s0,sp,128
 cf4:	fb01                	bnez	a4,c04 <_tbss_end+0xb80>
 cf6:	0d0e                	slli	s10,s10,0x3
 cf8:	0100                	addi	s0,sp,128
 cfa:	0101                	addi	sp,sp,0
 cfc:	0001                	nop
 cfe:	0000                	unimp
 d00:	0001                	nop
 d02:	0100                	addi	s0,sp,128
 d04:	736f482f          	0x736f482f
 d08:	2f74                	fld	fa3,216(a4)
 d0a:	6b726f57          	0x6b726f57
 d0e:	7369722f          	0x7369722f
 d12:	6e2d7663          	bleu	sp,s10,13fe <_tbss_end+0x137a>
 d16:	2d656e6f          	jal	t3,56fec <_tbss_end+0x56f68>
 d1a:	2f636367          	0x2f636367
 d1e:	6972                	flw	fs2,28(sp)
 d20:	2d766373          	csrrsi	t1,0x2d7,12
 d24:	6f6e                	flw	ft10,216(sp)
 d26:	656e                	flw	fa0,216(sp)
 d28:	672d                	lui	a4,0xb
 d2a:	372d6363          	bltu	s10,s2,1090 <_tbss_end+0x100c>
 d2e:	322e                	fld	ft4,232(sp)
 d30:	302e                	fld	ft0,232(sp)
 d32:	322d                	jal	65c <_tbss_end+0x5d8>
 d34:	322d                	jal	65e <_tbss_end+0x5da>
 d36:	3130                	fld	fa2,96(a0)
 d38:	3038                	fld	fa4,96(s0)
 d3a:	3131                	jal	946 <_tbss_end+0x8c2>
 d3c:	2f30                	fld	fa2,88(a4)
 d3e:	696c                	flw	fa1,84(a0)
 d40:	6762                	flw	fa4,24(sp)
 d42:	2f006363          	bltu	zero,a6,1028 <_tbss_end+0xfa4>
 d46:	6f48                	flw	fa0,28(a4)
 d48:	572f7473          	csrrci	s0,0x572,30
 d4c:	2f6b726f          	jal	tp,b8042 <_tbss_end+0xb7fbe>
 d50:	6972                	flw	fs2,28(sp)
 d52:	2d766373          	csrrsi	t1,0x2d7,12
 d56:	6f6e                	flw	ft10,216(sp)
 d58:	656e                	flw	fa0,216(sp)
 d5a:	672d                	lui	a4,0xb
 d5c:	722f6363          	bltu	t5,sp,1482 <_tbss_end+0x13fe>
 d60:	7369                	lui	t1,0xffffa
 d62:	6e2d7663          	bleu	sp,s10,144e <_tbss_end+0x13ca>
 d66:	2d656e6f          	jal	t3,5703c <_tbss_end+0x56fb8>
 d6a:	2d636367          	0x2d636367
 d6e:	2e322e37          	lui	t3,0x2e322
 d72:	2d30                	fld	fa2,88(a0)
 d74:	2d32                	fld	fs10,264(sp)
 d76:	3032                	fld	ft0,296(sp)
 d78:	3831                	jal	594 <_tbss_end+0x510>
 d7a:	3130                	fld	fa2,96(a0)
 d7c:	3031                	jal	588 <_tbss_end+0x504>
 d7e:	62696c2f          	0x62696c2f
 d82:	2f636367          	0x2f636367
 d86:	2e2e                	fld	ft8,200(sp)
 d88:	636e692f          	0x636e692f
 d8c:	756c                	flw	fa1,108(a0)
 d8e:	6564                	flw	fs1,76(a0)
 d90:	2f00                	fld	fs0,24(a4)
 d92:	6f48                	flw	fa0,28(a4)
 d94:	572f7473          	csrrci	s0,0x572,30
 d98:	2f6b726f          	jal	tp,b808e <_tbss_end+0xb800a>
 d9c:	6972                	flw	fs2,28(sp)
 d9e:	2d766373          	csrrsi	t1,0x2d7,12
 da2:	6f6e                	flw	ft10,216(sp)
 da4:	656e                	flw	fa0,216(sp)
 da6:	672d                	lui	a4,0xb
 da8:	722f6363          	bltu	t5,sp,14ce <_tbss_end+0x144a>
 dac:	7369                	lui	t1,0xffffa
 dae:	6e2d7663          	bleu	sp,s10,149a <_tbss_end+0x1416>
 db2:	2d656e6f          	jal	t3,57088 <_tbss_end+0x57004>
 db6:	2d636367          	0x2d636367
 dba:	2e322e37          	lui	t3,0x2e322
 dbe:	2d30                	fld	fa2,88(a0)
 dc0:	2d32                	fld	fs10,264(sp)
 dc2:	3032                	fld	ft0,296(sp)
 dc4:	3831                	jal	5e0 <_tbss_end+0x55c>
 dc6:	3130                	fld	fa2,96(a0)
 dc8:	3031                	jal	5d4 <_tbss_end+0x550>
 dca:	62696c2f          	0x62696c2f
 dce:	2f636367          	0x2f636367
 dd2:	2e2e                	fld	ft8,200(sp)
 dd4:	6363672f          	0x6363672f
 dd8:	6e6f632f          	0x6e6f632f
 ddc:	6966                	flw	fs2,88(sp)
 dde:	69722f67          	0x69722f67
 de2:	00766373          	csrrsi	t1,0x7,12
 de6:	2e2e                	fld	ft8,200(sp)
 de8:	2f2e2e2f          	0x2f2e2e2f
 dec:	2e2e                	fld	ft8,200(sp)
 dee:	2f2e2e2f          	0x2f2e2e2f
 df2:	2f2e                	fld	ft10,200(sp)
 df4:	00636367          	0x636367
 df8:	6c00                	flw	fs0,24(s0)
 dfa:	6269                	lui	tp,0x1a
 dfc:	32636367          	0x32636367
 e00:	632e                	flw	ft6,200(sp)
 e02:	0100                	addi	s0,sp,128
 e04:	0000                	unimp
 e06:	6168                	flw	fa0,68(a0)
 e08:	61746873          	csrrsi	a6,0x617,8
 e0c:	2e62                	fld	ft8,24(sp)
 e0e:	0068                	addi	a0,sp,12
 e10:	0002                	c.slli	zero,0x0
 e12:	7200                	flw	fs0,32(a2)
 e14:	7369                	lui	t1,0xffffa
 e16:	6f2d7663          	bleu	s2,s10,1502 <_tbss_end+0x147e>
 e1a:	7470                	flw	fa2,108(s0)
 e1c:	00682e73          	csrrs	t3,0x6,a6
 e20:	69000003          	lb	zero,1680(zero) # 690 <_tbss_end+0x60c>
 e24:	736e                	flw	ft6,248(sp)
 e26:	2d6e                	fld	fs10,216(sp)
 e28:	736e6f63          	bltu	t3,s6,1566 <_tbss_end+0x14e2>
 e2c:	6174                	flw	fa3,68(a0)
 e2e:	746e                	flw	fs0,248(sp)
 e30:	00682e73          	csrrs	t3,0x6,a6
 e34:	0004                	0x4
 e36:	6c00                	flw	fs0,24(s0)
 e38:	6269                	lui	tp,0x1a
 e3a:	32636367          	0x32636367
 e3e:	682e                	flw	fa6,200(sp)
 e40:	0100                	addi	s0,sp,128
 e42:	0000                	unimp
 e44:	0000                	unimp
 e46:	0205                	addi	tp,tp,1
 e48:	56fa                	lw	a3,188(sp)
 e4a:	8000                	0x8000
 e4c:	0105c103          	lbu	sp,16(a1) # 80100010 <__global_pointer$+0xf00ff810>
 e50:	00090303          	lb	t1,0(s2)
 e54:	0100                	addi	s0,sp,128
 e56:	0200                	addi	s0,sp,256
 e58:	0304                	addi	s1,sp,384
 e5a:	0306                	slli	t1,t1,0x1
 e5c:	0900                	addi	s0,sp,144
 e5e:	0006                	c.slli	zero,0x1
 e60:	0001                	nop
 e62:	0402                	slli	s0,s0,0x0
 e64:	030e                	slli	t1,t1,0x3
 e66:	0900                	addi	s0,sp,144
 e68:	000c                	0xc
 e6a:	0001                	nop
 e6c:	0402                	slli	s0,s0,0x0
 e6e:	060e                	slli	a2,a2,0x3
 e70:	0a090303          	lb	t1,160(s2)
 e74:	0100                	addi	s0,sp,128
 e76:	0200                	addi	s0,sp,256
 e78:	0404                	addi	s1,sp,512
 e7a:	06097d03          	0x6097d03
 e7e:	0100                	addi	s0,sp,128
 e80:	0306                	slli	t1,t1,0x1
 e82:	0900                	addi	s0,sp,144
 e84:	0008                	0x8
 e86:	0601                	addi	a2,a2,0
 e88:	0e090303          	lb	t1,224(s2)
 e8c:	0100                	addi	s0,sp,128
 e8e:	06097d03          	0x6097d03
 e92:	0100                	addi	s0,sp,128
 e94:	0e090303          	lb	t1,224(s2)
 e98:	0100                	addi	s0,sp,128
 e9a:	06097d03          	0x6097d03
 e9e:	0100                	addi	s0,sp,128
 ea0:	0e090303          	lb	t1,224(s2)
 ea4:	0100                	addi	s0,sp,128
 ea6:	0609                	addi	a2,a2,2
 ea8:	0000                	unimp
 eaa:	0101                	addi	sp,sp,0

Disassembly of section .debug_str:

00000000 <.debug_str>:
   0:	5744                	lw	s1,44(a4)
   2:	75727473          	csrrci	s0,0x757,4
   6:	63007463          	bleu	a6,zero,62e <_tbss_end+0x5aa>
   a:	6c706d6f          	jal	s10,6ed0 <_tbss_end+0x6e4c>
   e:	7865                	lui	a6,0xffff9
  10:	6620                	flw	fs0,72(a2)
  12:	6f6c                	flw	fa1,92(a4)
  14:	7461                	lui	s0,0xffff8
  16:	6800                	flw	fs0,16(s0)
  18:	6174                	flw	fa3,68(a0)
  1a:	5f62                	lw	t5,56(sp)
  1c:	7165                	addi	sp,sp,-400
  1e:	705f 696f 746e      	0x746e696f705f
  24:	7265                	lui	tp,0xffff9
  26:	4700                	lw	s0,8(a4)
  28:	554e                	lw	a0,240(sp)
  2a:	4320                	lw	s0,64(a4)
  2c:	3131                	jal	fffffc38 <__global_pointer$+0x6ffff438>
  2e:	3720                	fld	fs0,104(a4)
  30:	322e                	fld	ft4,232(sp)
  32:	302e                	fld	ft0,232(sp)
  34:	2d20                	fld	fs0,88(a0)
  36:	636d                	lui	t1,0x1b
  38:	6f6d                	lui	t5,0x1b
  3a:	6564                	flw	fs1,76(a0)
  3c:	3d6c                	fld	fa1,248(a0)
  3e:	656d                	lui	a0,0x1b
  40:	6164                	flw	fs1,68(a0)
  42:	796e                	flw	fs2,248(sp)
  44:	2d20                	fld	fs0,88(a0)
  46:	616d                	addi	sp,sp,240
  48:	6372                	flw	ft6,28(sp)
  4a:	3d68                	fld	fa0,248(a0)
  4c:	7672                	flw	fa2,60(sp)
  4e:	6d693233          	0x6d693233
  52:	6661                	lui	a2,0x18
  54:	6d2d2063          	0x6d2d2063
  58:	6261                	lui	tp,0x18
  5a:	3d69                	jal	fffffef4 <__global_pointer$+0x6ffff6f4>
  5c:	6c69                	lui	s8,0x1a
  5e:	3370                	fld	fa2,224(a4)
  60:	6632                	flw	fa2,12(sp)
  62:	2d20                	fld	fs0,88(a0)
  64:	636d                	lui	t1,0x1b
  66:	6f6d                	lui	t5,0x1b
  68:	6564                	flw	fs1,76(a0)
  6a:	3d6c                	fld	fa1,248(a0)
  6c:	656d                	lui	a0,0x1b
  6e:	6164                	flw	fs1,68(a0)
  70:	796e                	flw	fs2,248(sp)
  72:	2d20                	fld	fs0,88(a0)
  74:	4f2d2067          	0x4f2d2067
  78:	2032                	fld	ft0,264(sp)
  7a:	4f2d                	li	t5,11
  7c:	2032                	fld	ft0,264(sp)
  7e:	4f2d                	li	t5,11
  80:	2032                	fld	ft0,264(sp)
  82:	662d                	lui	a2,0xb
  84:	7566                	flw	fa0,120(sp)
  86:	636e                	flw	ft6,216(sp)
  88:	6974                	flw	fa3,84(a0)
  8a:	732d6e6f          	jal	t3,d67bc <_tbss_end+0xd6738>
  8e:	6365                	lui	t1,0x19
  90:	6974                	flw	fa3,84(a0)
  92:	20736e6f          	jal	t3,36a98 <_tbss_end+0x36a14>
  96:	662d                	lui	a2,0xb
  98:	6164                	flw	fs1,68(a0)
  9a:	6174                	flw	fa3,68(a0)
  9c:	732d                	lui	t1,0xfffeb
  9e:	6365                	lui	t1,0x19
  a0:	6974                	flw	fa3,84(a0)
  a2:	20736e6f          	jal	t3,36aa8 <_tbss_end+0x36a24>
  a6:	662d                	lui	a2,0xb
  a8:	7562                	flw	fa0,56(sp)
  aa:	6c69                	lui	s8,0x1a
  ac:	6964                	flw	fs1,84(a0)
  ae:	676e                	flw	fa4,216(sp)
  b0:	6c2d                	lui	s8,0xb
  b2:	6269                	lui	tp,0x1a
  b4:	20636367          	0x20636367
  b8:	662d                	lui	a2,0xb
  ba:	6f6e                	flw	ft10,216(sp)
  bc:	732d                	lui	t1,0xfffeb
  be:	6174                	flw	fa3,68(a0)
  c0:	702d6b63          	bltu	s10,sp,7d6 <_tbss_end+0x752>
  c4:	6f72                	flw	ft10,28(sp)
  c6:	6574                	flw	fa3,76(a0)
  c8:	726f7463          	bleu	t1,t5,7f0 <_tbss_end+0x76c>
  cc:	2d20                	fld	fs0,88(a0)
  ce:	6566                	flw	fa0,88(sp)
  d0:	6378                	flw	fa4,68(a4)
  d2:	7065                	c.lui	zero,0xffff9
  d4:	6974                	flw	fa3,84(a0)
  d6:	20736e6f          	jal	t3,36adc <_tbss_end+0x36a58>
  da:	662d                	lui	a2,0xb
  dc:	6f6e                	flw	ft10,216(sp)
  de:	2d6e                	fld	fs10,216(sp)
  e0:	6c6c6163          	bltu	s8,t1,7a2 <_tbss_end+0x71e>
  e4:	652d                	lui	a0,0xb
  e6:	6378                	flw	fa4,68(a4)
  e8:	7065                	c.lui	zero,0xffff9
  ea:	6974                	flw	fa3,84(a0)
  ec:	20736e6f          	jal	t3,36af2 <_tbss_end+0x36a6e>
  f0:	662d                	lui	a2,0xb
  f2:	6976                	flw	fs2,92(sp)
  f4:	69626973          	csrrsi	s2,0x696,4
  f8:	696c                	flw	fa1,84(a0)
  fa:	7974                	flw	fa3,116(a0)
  fc:	683d                	lui	a6,0xf
  fe:	6469                	lui	s0,0x1a
 100:	6564                	flw	fs1,76(a0)
 102:	006e                	c.slli	zero,0x1b
 104:	726f6873          	csrrsi	a6,0x726,30
 108:	2074                	fld	fa3,192(s0)
 10a:	6e69                	lui	t3,0x1a
 10c:	0074                	addi	a3,sp,12
 10e:	6968                	flw	fa0,84(a0)
 110:	44006867          	0x44006867
 114:	696e7557          	0x696e7557
 118:	72006e6f          	jal	t3,6838 <_tbss_end+0x67b4>
 11c:	7369                	lui	t1,0xffffa
 11e:	615f7663          	bleu	s5,t5,72a <_tbss_end+0x6a6>
 122:	6962                	flw	fs2,24(sp)
 124:	745f 7079 0065      	0x657079745f
 12a:	6f6c                	flw	fa1,92(a4)
 12c:	676e                	flw	fa4,216(sp)
 12e:	6c20                	flw	fs0,88(s0)
 130:	20676e6f          	jal	t3,76336 <_tbss_end+0x762b2>
 134:	6e69                	lui	t3,0x1a
 136:	0074                	addi	a3,sp,12
 138:	5f5f 3064 5f00      	0x5f0030645f5f
 13e:	645f 0031 4241      	0x42410031645f
 144:	5f49                	li	t5,-14
 146:	504c                	lw	a1,36(s0)
 148:	3436                	fld	fs0,360(sp)
 14a:	6300                	flw	fs0,0(a4)
 14c:	6c706d6f          	jal	s10,7012 <_tbss_end+0x6f8e>
 150:	7865                	lui	a6,0xffff9
 152:	6420                	flw	fs0,72(s0)
 154:	6c62756f          	jal	a0,2781a <_tbss_end+0x27796>
 158:	0065                	c.nop	25
 15a:	5f5f 6876 4100      	0x410068765f5f
 160:	4942                	lw	s2,16(sp)
 162:	495f 504c 3233      	0x3233504c495f
 168:	0046                	c.slli	zero,0x11
 16a:	5f5f 6c76 7200      	0x72006c765f5f
 170:	7369                	lui	t1,0xffffa
 172:	635f7663          	bleu	s5,t5,79e <_tbss_end+0x71a>
 176:	5f65646f          	jal	s0,5676c <_tbss_end+0x566e8>
 17a:	6f6d                	lui	t5,0x1b
 17c:	6564                	flw	fs1,76(a0)
 17e:	006c                	addi	a1,sp,12
 180:	6e75                	lui	t3,0x1d
 182:	63657073          	csrci	0x636,10
 186:	735f 7274 6e69      	0x6e697274735f
 18c:	43007367          	0x43007367
 190:	5f4d                	li	t5,-13
 192:	454d                	li	a0,19
 194:	4c44                	lw	s1,28(s0)
 196:	6800574f          	fnmadd.s	fa4,ft0,ft0,fa3,unknown
 19a:	6174                	flw	fa3,68(a0)
 19c:	5f62                	lw	t5,56(sp)
 19e:	6168                	flw	fa0,68(a0)
 1a0:	6c006873          	csrrsi	a6,0x6c0,0
 1a4:	20676e6f          	jal	t3,763aa <_tbss_end+0x76326>
 1a8:	6f6c                	flw	fa1,92(a4)
 1aa:	676e                	flw	fa4,216(sp)
 1ac:	7520                	flw	fs0,104(a0)
 1ae:	736e                	flw	ft6,248(sp)
 1b0:	6769                	lui	a4,0x1a
 1b2:	656e                	flw	fa0,216(sp)
 1b4:	2064                	fld	fs1,192(s0)
 1b6:	6e69                	lui	t3,0x1a
 1b8:	0074                	addi	a3,sp,12
 1ba:	6972                	flw	fs2,28(sp)
 1bc:	5f766373          	csrrsi	t1,0x5f7,12
 1c0:	6261                	lui	tp,0x18
 1c2:	0069                	c.nop	26
 1c4:	4241                	li	tp,16
 1c6:	5f49                	li	t5,-14
 1c8:	504c                	lw	a1,36(s0)
 1ca:	3436                	fld	fs0,360(sp)
 1cc:	0044                	addi	s1,sp,4
 1ce:	4241                	li	tp,16
 1d0:	5f49                	li	t5,-14
 1d2:	504c                	lw	a1,36(s0)
 1d4:	3436                	fld	fs0,360(sp)
 1d6:	0046                	c.slli	zero,0x11
 1d8:	5f5f 6c63 5f7a      	0x5f7a6c635f5f
 1de:	6174                	flw	fa3,68(a0)
 1e0:	0062                	c.slli	zero,0x18
 1e2:	4241                	li	tp,16
 1e4:	5f49                	li	t5,-14
 1e6:	4c49                	li	s8,18
 1e8:	3350                	fld	fa2,160(a4)
 1ea:	4432                	lw	s0,12(sp)
 1ec:	5f00                	lw	s0,56(a4)
 1ee:	705f 706f 6f63      	0x6f63706f705f
 1f4:	6e75                	lui	t3,0x1d
 1f6:	5f74                	lw	a3,124(a4)
 1f8:	6174                	flw	fa3,68(a0)
 1fa:	0062                	c.slli	zero,0x18
 1fc:	505f4d43          	fmadd.s	fs10,ft10,ft5,fa0,rmm
 200:	4349                	li	t1,18
 202:	7500                	flw	fs0,40(a0)
 204:	736e                	flw	ft6,248(sp)
 206:	6769                	lui	a4,0x1a
 208:	656e                	flw	fa0,216(sp)
 20a:	2064                	fld	fs1,192(s0)
 20c:	72616863          	bltu	sp,t1,93c <_tbss_end+0x8b8>
 210:	7500                	flw	fs0,40(a0)
 212:	736e                	flw	ft6,248(sp)
 214:	6570                	flw	fa2,76(a0)
 216:	735f7663          	bleu	s5,t5,942 <_tbss_end+0x8be>
 21a:	7274                	flw	fa3,100(a2)
 21c:	6e69                	lui	t3,0x1a
 21e:	72007367          	0x72007367
 222:	7369                	lui	t1,0xffffa
 224:	635f7663          	bleu	s5,t5,850 <_tbss_end+0x7cc>
 228:	6f6d                	lui	t5,0x1b
 22a:	6564                	flw	fs1,76(a0)
 22c:	006c                	addi	a1,sp,12
 22e:	5f5f 3078 5f00      	0x5f0030785f5f
 234:	785f 0031 5f5f      	0x5f5f0031785f
 23a:	3278                	fld	fa4,224(a2)
 23c:	5f00                	lw	s0,56(a4)
 23e:	785f 0033 5155      	0x51550033785f
 244:	7449                	lui	s0,0xffff2
 246:	7079                	c.lui	zero,0xffffe
 248:	0065                	c.nop	25
 24a:	7468                	flw	fa0,108(s0)
 24c:	6261                	lui	tp,0x18
 24e:	685f 7361 5f68      	0x5f687361685f
 254:	6f70                	flw	fa2,92(a4)
 256:	6e69                	lui	t3,0x1a
 258:	6574                	flw	fa3,76(a0)
 25a:	0072                	c.slli	zero,0x1c
 25c:	726f6873          	csrrsi	a6,0x726,30
 260:	2074                	fld	fa3,192(s0)
 262:	6e75                	lui	t3,0x1d
 264:	6e676973          	csrrsi	s2,0x6e6,14
 268:	6465                	lui	s0,0x19
 26a:	6920                	flw	fs0,80(a0)
 26c:	746e                	flw	fs0,248(sp)
 26e:	5f00                	lw	s0,56(a4)
 270:	6d5f 646f 6964      	0x6964646f6d5f
 276:	53550033          	0x53550033
 27a:	7449                	lui	s0,0xffff2
 27c:	7079                	c.lui	zero,0xffffe
 27e:	0065                	c.nop	25
 280:	736f482f          	0x736f482f
 284:	2f74                	fld	fa3,216(a4)
 286:	6b726f57          	0x6b726f57
 28a:	7369722f          	0x7369722f
 28e:	6e2d7663          	bleu	sp,s10,97a <_tbss_end+0x8f6>
 292:	2d656e6f          	jal	t3,56568 <_tbss_end+0x564e4>
 296:	2f636367          	0x2f636367
 29a:	6972                	flw	fs2,28(sp)
 29c:	2d766373          	csrrsi	t1,0x2d7,12
 2a0:	6f6e                	flw	ft10,216(sp)
 2a2:	656e                	flw	fa0,216(sp)
 2a4:	672d                	lui	a4,0xb
 2a6:	372d6363          	bltu	s10,s2,60c <_tbss_end+0x588>
 2aa:	322e                	fld	ft4,232(sp)
 2ac:	302e                	fld	ft0,232(sp)
 2ae:	322d                	jal	fffffbd8 <__global_pointer$+0x6ffff3d8>
 2b0:	322d                	jal	fffffbda <__global_pointer$+0x6ffff3da>
 2b2:	3130                	fld	fa2,96(a0)
 2b4:	3038                	fld	fa4,96(s0)
 2b6:	3131                	jal	fffffec2 <__global_pointer$+0x6ffff6c2>
 2b8:	2f30                	fld	fa2,88(a4)
 2ba:	696c                	flw	fa1,84(a0)
 2bc:	6762                	flw	fa4,24(sp)
 2be:	6c2f6363          	bltu	t5,sp,984 <_tbss_end+0x900>
 2c2:	6269                	lui	tp,0x1a
 2c4:	32636367          	0x32636367
 2c8:	632e                	flw	ft6,200(sp)
 2ca:	5f00                	lw	s0,56(a4)
 2cc:	715f 0030 5f5f      	0x5f5f0030715f
 2d2:	3171                	jal	ffffff5e <__global_pointer$+0x6ffff75e>
 2d4:	6800                	flw	fs0,16(s0)
 2d6:	7361                	lui	t1,0xffff8
 2d8:	7668                	flw	fa0,108(a2)
 2da:	6c61                	lui	s8,0x18
 2dc:	745f 5500 4944      	0x49445500745f
 2e2:	7974                	flw	fa3,116(a0)
 2e4:	6570                	flw	fa2,76(a0)
 2e6:	5f00                	lw	s0,56(a4)
 2e8:	785f 0072 5f5f      	0x5f5f0072785f
 2ee:	6475                	lui	s0,0x1d
 2f0:	7669                	lui	a2,0xffffa
 2f2:	6f6d                	lui	t5,0x1b
 2f4:	6464                	flw	fs1,76(s0)
 2f6:	3469                	jal	fffffd80 <__global_pointer$+0x6ffff580>
 2f8:	6300                	flw	fs0,0(a4)
 2fa:	6c706d6f          	jal	s10,71c0 <_tbss_end+0x713c>
 2fe:	7865                	lui	a6,0xffff9
 300:	6c20                	flw	fs0,88(s0)
 302:	20676e6f          	jal	t3,76508 <_tbss_end+0x76484>
 306:	6f64                	flw	fs1,92(a4)
 308:	6275                	lui	tp,0x1d
 30a:	656c                	flw	fa1,76(a0)
 30c:	5f00                	lw	s0,56(a4)
 30e:	725f 0030 5f5f      	0x5f5f0030725f
 314:	3172                	fld	ft2,312(sp)
 316:	5f00                	lw	s0,56(a4)
 318:	755f 0068 4241      	0x42410068755f
 31e:	5f49                	li	t5,-14
 320:	4c49                	li	s8,18
 322:	3350                	fld	fa2,160(a4)
 324:	0032                	c.slli	zero,0xc
 326:	5f5f 6c75 2f00      	0x2f006c755f5f
 32c:	6d74                	flw	fa3,92(a0)
 32e:	2f70                	fld	fa2,216(a4)
 330:	7562                	flw	fa0,56(sp)
 332:	6c69                	lui	s8,0x1a
 334:	2f64                	fld	fs1,216(a4)
 336:	746e6563          	bltu	t3,t1,a80 <_tbss_end+0x9fc>
 33a:	3436736f          	jal	t1,67e7c <_tbss_end+0x67df8>
 33e:	6363672f          	0x6363672f
 342:	662d                	lui	a2,0xb
 344:	6e69                	lui	t3,0x1a
 346:	6c61                	lui	s8,0x18
 348:	7369722f          	0x7369722f
 34c:	6e2d7663          	bleu	sp,s10,a38 <_tbss_end+0x9b4>
 350:	2d656e6f          	jal	t3,56626 <_tbss_end+0x565a2>
 354:	6d65                	lui	s10,0x19
 356:	6562                	flw	fa0,24(sp)
 358:	2f64                	fld	fs1,216(a4)
 35a:	7672                	flw	fa2,60(sp)
 35c:	6d693233          	0x6d693233
 360:	6661                	lui	a2,0x18
 362:	6c692f63          	0x6c692f63
 366:	3370                	fld	fa2,224(a4)
 368:	6632                	flw	fa2,12(sp)
 36a:	62696c2f          	0x62696c2f
 36e:	00636367          	0x636367
 372:	7468                	flw	fa0,108(s0)
 374:	6261                	lui	tp,0x18
 376:	655f 0071 4d43      	0x4d430071655f
 37c:	4d5f 4445 4e41      	0x4e4144454d5f
 382:	0059                	c.nop	22
 384:	5f5f 6475 7669      	0x766964755f5f
 38a:	6964                	flw	fs1,84(a0)
 38c:	5f5f0033          	0x5f5f0033
 390:	6d75                	lui	s10,0x1d
 392:	6964646f          	jal	s0,46a28 <_tbss_end+0x469a4>
 396:	5f410033          	0x5f410033
 39a:	3066                	fld	ft0,120(sp)
 39c:	6600                	flw	fs0,8(a2)
 39e:	6172                	flw	ft2,28(sp)
 3a0:	5f003163          	0x5f003163
 3a4:	5046                	0x5046
 3a6:	505f 4341 5f4b      	0x5f4b4341505f
 3ac:	4152                	lw	sp,20(sp)
 3ae:	5f325f57          	0x5f325f57
 3b2:	6c66                	flw	fs8,88(sp)
 3b4:	4e47006f          	j	70898 <_tbss_end+0x70814>
 3b8:	2055                	jal	45c <_tbss_end+0x3d8>
 3ba:	20313143          	fmadd.s	ft2,ft2,ft3,ft4,rup
 3be:	2e322e37          	lui	t3,0x2e322
 3c2:	2030                	fld	fa2,64(s0)
 3c4:	6d2d                	lui	s10,0xb
 3c6:	646f6d63          	bltu	t5,t1,a20 <_tbss_end+0x99c>
 3ca:	6c65                	lui	s8,0x19
 3cc:	6d3d                	lui	s10,0xf
 3ce:	6465                	lui	s0,0x19
 3d0:	6e61                	lui	t3,0x18
 3d2:	2079                	jal	460 <_tbss_end+0x3dc>
 3d4:	6d2d                	lui	s10,0xb
 3d6:	7261                	lui	tp,0xffff8
 3d8:	723d6863          	bltu	s10,gp,b08 <_tbss_end+0xa84>
 3dc:	3376                	fld	ft6,376(sp)
 3de:	6932                	flw	fs2,12(sp)
 3e0:	616d                	addi	sp,sp,240
 3e2:	6366                	flw	ft6,88(sp)
 3e4:	2d20                	fld	fs0,88(a0)
 3e6:	616d                	addi	sp,sp,240
 3e8:	6962                	flw	fs2,24(sp)
 3ea:	693d                	lui	s2,0xf
 3ec:	706c                	flw	fa1,100(s0)
 3ee:	20663233          	0x20663233
 3f2:	6d2d                	lui	s10,0xb
 3f4:	646f6d63          	bltu	t5,t1,a4e <_tbss_end+0x9ca>
 3f8:	6c65                	lui	s8,0x19
 3fa:	6d3d                	lui	s10,0xf
 3fc:	6465                	lui	s0,0x19
 3fe:	6e61                	lui	t3,0x18
 400:	2079                	jal	48e <_tbss_end+0x40a>
 402:	672d                	lui	a4,0xb
 404:	2d20                	fld	fs0,88(a0)
 406:	2d20324f          	0x2d20324f
 40a:	2d20324f          	0x2d20324f
 40e:	2d20324f          	0x2d20324f
 412:	6666                	flw	fa2,88(sp)
 414:	6e75                	lui	t3,0x1d
 416:	6f697463          	bleu	s6,s2,afe <_tbss_end+0xa7a>
 41a:	2d6e                	fld	fs10,216(sp)
 41c:	74636573          	csrrsi	a0,0x746,6
 420:	6f69                	lui	t5,0x1a
 422:	736e                	flw	ft6,248(sp)
 424:	2d20                	fld	fs0,88(a0)
 426:	6466                	flw	fs0,88(sp)
 428:	7461                	lui	s0,0xffff8
 42a:	2d61                	jal	ac2 <_tbss_end+0xa3e>
 42c:	74636573          	csrrsi	a0,0x746,6
 430:	6f69                	lui	t5,0x1a
 432:	736e                	flw	ft6,248(sp)
 434:	2d20                	fld	fs0,88(a0)
 436:	6266                	flw	ft4,88(sp)
 438:	6975                	lui	s2,0x1d
 43a:	646c                	flw	fa1,76(s0)
 43c:	6e69                	lui	t3,0x1a
 43e:	696c2d67          	0x696c2d67
 442:	6762                	flw	fa4,24(sp)
 444:	2d206363          	bltu	zero,s2,70a <_tbss_end+0x686>
 448:	6e66                	flw	ft8,88(sp)
 44a:	74732d6f          	jal	s10,33390 <_tbss_end+0x3330c>
 44e:	6361                	lui	t1,0x18
 450:	72702d6b          	0x72702d6b
 454:	6365746f          	jal	s0,57a8a <_tbss_end+0x57a06>
 458:	6f74                	flw	fa3,92(a4)
 45a:	2072                	fld	ft0,280(sp)
 45c:	662d                	lui	a2,0xb
 45e:	6976                	flw	fs2,92(sp)
 460:	69626973          	csrrsi	s2,0x696,4
 464:	696c                	flw	fa1,84(a0)
 466:	7974                	flw	fa3,116(a0)
 468:	683d                	lui	a6,0xf
 46a:	6469                	lui	s0,0x1a
 46c:	6564                	flw	fs1,76(a0)
 46e:	006e                	c.slli	zero,0x1b
 470:	736f482f          	0x736f482f
 474:	2f74                	fld	fa3,216(a4)
 476:	6b726f57          	0x6b726f57
 47a:	7369722f          	0x7369722f
 47e:	6e2d7663          	bleu	sp,s10,b6a <_tbss_end+0xae6>
 482:	2d656e6f          	jal	t3,56758 <_tbss_end+0x566d4>
 486:	2f636367          	0x2f636367
 48a:	6972                	flw	fs2,28(sp)
 48c:	2d766373          	csrrsi	t1,0x2d7,12
 490:	6f6e                	flw	ft10,216(sp)
 492:	656e                	flw	fa0,216(sp)
 494:	672d                	lui	a4,0xb
 496:	372d6363          	bltu	s10,s2,7fc <_tbss_end+0x778>
 49a:	322e                	fld	ft4,232(sp)
 49c:	302e                	fld	ft0,232(sp)
 49e:	322d                	jal	fffffdc8 <__global_pointer$+0x6ffff5c8>
 4a0:	322d                	jal	fffffdca <__global_pointer$+0x6ffff5ca>
 4a2:	3130                	fld	fa2,96(a0)
 4a4:	3038                	fld	fa4,96(s0)
 4a6:	3131                	jal	b2 <_tbss_end+0x2e>
 4a8:	2f30                	fld	fa2,88(a4)
 4aa:	696c                	flw	fa1,84(a0)
 4ac:	6762                	flw	fa4,24(sp)
 4ae:	732f6363          	bltu	t5,s2,bd4 <_tbss_end+0xb50>
 4b2:	2d74666f          	jal	a2,46f88 <_tbss_end+0x46f04>
 4b6:	7066                	flw	ft0,120(sp)
 4b8:	6f6c662f          	0x6f6c662f
 4bc:	7461                	lui	s0,0xffff8
 4be:	6e75                	lui	t3,0x1d
 4c0:	6964                	flw	fs1,84(a0)
 4c2:	6664                	flw	fs1,76(a2)
 4c4:	632e                	flw	ft6,200(sp)
 4c6:	5f00                	lw	s0,56(a4)
 4c8:	5046                	0x5046
 4ca:	505f 4341 5f4b      	0x5f4b4341505f
 4d0:	494d4553          	0x494d4553
 4d4:	4152                	lw	sp,20(sp)
 4d6:	5f545f57          	0x5f545f57
 4da:	69730073          	0x69730073
 4de:	41006e67          	0x41006e67
 4e2:	665f 0031 6170      	0x61700031665f
 4e8:	735f6b63          	bltu	t5,s5,c1e <_tbss_end+0xb9a>
 4ec:	6d65                	lui	s10,0x19
 4ee:	7269                	lui	tp,0xffffa
 4f0:	7761                	lui	a4,0xffff8
 4f2:	5f00                	lw	s0,56(a4)
 4f4:	6566                	flw	fa0,88(sp)
 4f6:	0078                	addi	a4,sp,12
 4f8:	7266                	flw	ft4,120(sp)
 4fa:	6361                	lui	t1,0x18
 4fc:	0030                	addi	a2,sp,8
 4fe:	5f5f 6c66 616f      	0x616f6c665f5f
 504:	7574                	flw	fa3,108(a0)
 506:	646e                	flw	fs0,216(sp)
 508:	6469                	lui	s0,0x1a
 50a:	0066                	c.slli	zero,0x19
 50c:	4644                	lw	s1,12(a2)
 50e:	7974                	flw	fa3,116(a0)
 510:	6570                	flw	fa2,76(a0)
 512:	5f00                	lw	s0,56(a4)
 514:	5046                	0x5046
 516:	505f 4341 5f4b      	0x5f4b4341505f
 51c:	494d4553          	0x494d4553
 520:	4152                	lw	sp,20(sp)
 522:	73695f57          	0x73695f57
 526:	745f 6e69 0079      	0x796e69745f
 52c:	465f 5f50 5246      	0x52465f50465f
 532:	495f4d4f          	fnmadd.s	fs10,ft10,fs5,fs1,rmm
 536:	544e                	lw	s0,240(sp)
 538:	755f 0072 465f      	0x465f0072755f
 53e:	5f50                	lw	a2,60(a4)
 540:	4150                	lw	a2,4(a0)
 542:	535f4b43          	fmadd.d	fs6,ft10,fs5,fa0,rmm
 546:	4d45                	li	s10,17
 548:	5249                	li	tp,-14
 54a:	5741                	li	a4,-16
 54c:	545f 665f 0030      	0x30665f545f
 552:	465f 5f50 4150      	0x41505f50465f
 558:	535f4b43          	fmadd.d	fs6,ft10,fs5,fa0,rmm
 55c:	4d45                	li	s10,17
 55e:	5249                	li	tp,-14
 560:	5741                	li	a4,-16
 562:	545f 665f 0031      	0x31665f545f
 568:	465f 5f50 4e55      	0x4e555f50465f
 56e:	4f49                	li	t5,18
 570:	5f4e                	lw	t5,240(sp)
 572:	0044                	addi	s1,sp,4
 574:	465f 5f50 4150      	0x41505f50465f
 57a:	535f4b43          	fmadd.d	fs6,ft10,fs5,fa0,rmm
 57e:	4d45                	li	s10,17
 580:	5249                	li	tp,-14
 582:	5741                	li	a4,-16
 584:	545f 635f 5f00      	0x5f00635f545f
 58a:	5046                	0x5046
 58c:	505f 4341 5f4b      	0x5f4b4341505f
 592:	494d4553          	0x494d4553
 596:	4152                	lw	sp,20(sp)
 598:	5f545f57          	0x5f545f57
 59c:	0065                	c.nop	25
 59e:	6962                	flw	fs2,24(sp)
 5a0:	7374                	flw	fa3,100(a4)
 5a2:	5f00                	lw	s0,56(a4)
 5a4:	5046                	0x5046
 5a6:	465f 4f52 5f4d      	0x5f4d4f52465f
 5ac:	4e49                	li	t3,18
 5ae:	5f54                	lw	a3,60(a4)
 5b0:	7a6c                	flw	fa1,116(a2)
 5b2:	5f00                	lw	s0,56(a4)
 5b4:	7266                	flw	ft4,120(sp)
 5b6:	006d                	c.nop	27
 5b8:	5f5f 6c63 737a      	0x737a6c635f5f
 5be:	3269                	jal	ffffff48 <__global_pointer$+0x6ffff748>
	...

Disassembly of section .debug_frame:

00000000 <.debug_frame>:
   0:	000c                	0xc
   2:	0000                	unimp
   4:	ffff                	0xffff
   6:	ffff                	0xffff
   8:	0001                	nop
   a:	7c01                	lui	s8,0xfffe0
   c:	0d01                	addi	s10,s10,0
   e:	0002                	c.slli	zero,0x0
  10:	0040                	addi	s0,sp,4
  12:	0000                	unimp
  14:	0000                	unimp
  16:	0000                	unimp
  18:	5518                	lw	a4,40(a0)
  1a:	8000                	0x8000
  1c:	01e2                	slli	gp,gp,0x18
  1e:	0000                	unimp
  20:	0e42                	slli	t3,t3,0x10
  22:	4a20                	lw	s0,80(a2)
  24:	0181                	addi	gp,gp,0
  26:	0288                	addi	a0,sp,320
  28:	0389                	addi	t2,t2,2
  2a:	0492                	slli	s1,s1,0x4
  2c:	68020593          	addi	a1,tp,1664 # ffffa680 <__global_pointer$+0x6fff9e80>
  30:	c10a                	sw	sp,128(sp)
  32:	c842                	sw	a6,16(sp)
  34:	c942                	sw	a6,144(sp)
  36:	d242                	sw	a6,36(sp)
  38:	d342                	sw	a6,164(sp)
  3a:	0e42                	slli	t3,t3,0x10
  3c:	4200                	lw	s0,0(a2)
  3e:	0106030b          	0x106030b
  42:	c10a                	sw	sp,128(sp)
  44:	c842                	sw	a6,16(sp)
  46:	c942                	sw	a6,144(sp)
  48:	d242                	sw	a6,36(sp)
  4a:	d342                	sw	a6,164(sp)
  4c:	0e42                	slli	t3,t3,0x10
  4e:	4200                	lw	s0,0(a2)
  50:	0000000b          	0xb
  54:	000c                	0xc
  56:	0000                	unimp
  58:	ffff                	0xffff
  5a:	ffff                	0xffff
  5c:	0001                	nop
  5e:	7c01                	lui	s8,0xfffe0
  60:	0d01                	addi	s10,s10,0
  62:	0002                	c.slli	zero,0x0
  64:	000c                	0xc
  66:	0000                	unimp
  68:	0054                	addi	a3,sp,4
  6a:	0000                	unimp
  6c:	56fa                	lw	a3,188(sp)
  6e:	8000                	0x8000
  70:	0066                	c.slli	zero,0x19
	...
