
towers.riscv:     file format elf32-littleriscv


Disassembly of section .text.init:

80000000 <_start>:
80000000:	4081                	li	ra,0
80000002:	4101                	li	sp,0
80000004:	4181                	li	gp,0
80000006:	4201                	li	tp,0
80000008:	4281                	li	t0,0
8000000a:	4301                	li	t1,0
8000000c:	4381                	li	t2,0
8000000e:	4401                	li	s0,0
80000010:	4481                	li	s1,0
80000012:	4501                	li	a0,0
80000014:	4581                	li	a1,0
80000016:	4601                	li	a2,0
80000018:	4681                	li	a3,0
8000001a:	4701                	li	a4,0
8000001c:	4781                	li	a5,0
8000001e:	4801                	li	a6,0
80000020:	4881                	li	a7,0
80000022:	4901                	li	s2,0
80000024:	4981                	li	s3,0
80000026:	4a01                	li	s4,0
80000028:	4a81                	li	s5,0
8000002a:	4b01                	li	s6,0
8000002c:	4b81                	li	s7,0
8000002e:	4c01                	li	s8,0
80000030:	4c81                	li	s9,0
80000032:	4d01                	li	s10,0
80000034:	4d81                	li	s11,0
80000036:	4e01                	li	t3,0
80000038:	4e81                	li	t4,0
8000003a:	4f01                	li	t5,0
8000003c:	4f81                	li	t6,0
8000003e:	62f9                	lui	t0,0x1e
80000040:	3002a073          	csrs	mstatus,t0
80000044:	4285                	li	t0,1
80000046:	02fe                	slli	t0,t0,0x1f
80000048:	0002c863          	bltz	t0,80000058 <_start+0x58>
8000004c:	4505                	li	a0,1
8000004e:	00001297          	auipc	t0,0x1
80000052:	faa2a923          	sw	a0,-78(t0) # 80001000 <tohost>
80000056:	bfdd                	j	8000004c <_start+0x4c>
80000058:	00000297          	auipc	t0,0x0
8000005c:	09028293          	addi	t0,t0,144 # 800000e8 <_start+0xe8>
80000060:	30529073          	csrw	mtvec,t0
80000064:	00301073          	fssr	zero
80000068:	f0000053          	fmv.w.x	ft0,zero
8000006c:	f00000d3          	fmv.w.x	ft1,zero
80000070:	f0000153          	fmv.w.x	ft2,zero
80000074:	f00001d3          	fmv.w.x	ft3,zero
80000078:	f0000253          	fmv.w.x	ft4,zero
8000007c:	f00002d3          	fmv.w.x	ft5,zero
80000080:	f0000353          	fmv.w.x	ft6,zero
80000084:	f00003d3          	fmv.w.x	ft7,zero
80000088:	f0000453          	fmv.w.x	fs0,zero
8000008c:	f00004d3          	fmv.w.x	fs1,zero
80000090:	f0000553          	fmv.w.x	fa0,zero
80000094:	f00005d3          	fmv.w.x	fa1,zero
80000098:	f0000653          	fmv.w.x	fa2,zero
8000009c:	f00006d3          	fmv.w.x	fa3,zero
800000a0:	f0000753          	fmv.w.x	fa4,zero
800000a4:	f00007d3          	fmv.w.x	fa5,zero
800000a8:	f0000853          	fmv.w.x	fa6,zero
800000ac:	f00008d3          	fmv.w.x	fa7,zero
800000b0:	f0000953          	fmv.w.x	fs2,zero
800000b4:	f00009d3          	fmv.w.x	fs3,zero
800000b8:	f0000a53          	fmv.w.x	fs4,zero
800000bc:	f0000ad3          	fmv.w.x	fs5,zero
800000c0:	f0000b53          	fmv.w.x	fs6,zero
800000c4:	f0000bd3          	fmv.w.x	fs7,zero
800000c8:	f0000c53          	fmv.w.x	fs8,zero
800000cc:	f0000cd3          	fmv.w.x	fs9,zero
800000d0:	f0000d53          	fmv.w.x	fs10,zero
800000d4:	f0000dd3          	fmv.w.x	fs11,zero
800000d8:	f0000e53          	fmv.w.x	ft8,zero
800000dc:	f0000ed3          	fmv.w.x	ft9,zero
800000e0:	f0000f53          	fmv.w.x	ft10,zero
800000e4:	f0000fd3          	fmv.w.x	ft11,zero
800000e8:	00000297          	auipc	t0,0x0
800000ec:	03828293          	addi	t0,t0,56 # 80000120 <trap_entry>
800000f0:	30529073          	csrw	mtvec,t0
800000f4:	10000197          	auipc	gp,0x10000
800000f8:	70c18193          	addi	gp,gp,1804 # 90000800 <__global_pointer$>
800000fc:	8bf18213          	addi	tp,gp,-1857 # 900000bf <_end+0x3f>
80000100:	fc027213          	andi	tp,tp,-64
80000104:	f1402573          	csrr	a0,mhartid
80000108:	4585                	li	a1,1
8000010a:	00b57063          	bleu	a1,a0,8000010a <_start+0x10a>
8000010e:	01151613          	slli	a2,a0,0x11
80000112:	9232                	add	tp,tp,a2
80000114:	00150113          	addi	sp,a0,1
80000118:	0146                	slli	sp,sp,0x11
8000011a:	9112                	add	sp,sp,tp
8000011c:	0290106f          	j	80001944 <_init>

80000120 <trap_entry>:
80000120:	716d                	addi	sp,sp,-272
80000122:	c206                	sw	ra,4(sp)
80000124:	c40a                	sw	sp,8(sp)
80000126:	c60e                	sw	gp,12(sp)
80000128:	c812                	sw	tp,16(sp)
8000012a:	ca16                	sw	t0,20(sp)
8000012c:	cc1a                	sw	t1,24(sp)
8000012e:	ce1e                	sw	t2,28(sp)
80000130:	d022                	sw	s0,32(sp)
80000132:	d226                	sw	s1,36(sp)
80000134:	d42a                	sw	a0,40(sp)
80000136:	d62e                	sw	a1,44(sp)
80000138:	d832                	sw	a2,48(sp)
8000013a:	da36                	sw	a3,52(sp)
8000013c:	dc3a                	sw	a4,56(sp)
8000013e:	de3e                	sw	a5,60(sp)
80000140:	c0c2                	sw	a6,64(sp)
80000142:	c2c6                	sw	a7,68(sp)
80000144:	c4ca                	sw	s2,72(sp)
80000146:	c6ce                	sw	s3,76(sp)
80000148:	c8d2                	sw	s4,80(sp)
8000014a:	cad6                	sw	s5,84(sp)
8000014c:	ccda                	sw	s6,88(sp)
8000014e:	cede                	sw	s7,92(sp)
80000150:	d0e2                	sw	s8,96(sp)
80000152:	d2e6                	sw	s9,100(sp)
80000154:	d4ea                	sw	s10,104(sp)
80000156:	d6ee                	sw	s11,108(sp)
80000158:	d8f2                	sw	t3,112(sp)
8000015a:	daf6                	sw	t4,116(sp)
8000015c:	dcfa                	sw	t5,120(sp)
8000015e:	defe                	sw	t6,124(sp)
80000160:	34202573          	csrr	a0,mcause
80000164:	341025f3          	csrr	a1,mepc
80000168:	860a                	mv	a2,sp
8000016a:	648010ef          	jal	ra,800017b2 <handle_trap>
8000016e:	34151073          	csrw	mepc,a0
80000172:	000022b7          	lui	t0,0x2
80000176:	80028293          	addi	t0,t0,-2048 # 1800 <_tbss_end+0x17bc>
8000017a:	3002a073          	csrs	mstatus,t0
8000017e:	4092                	lw	ra,4(sp)
80000180:	4122                	lw	sp,8(sp)
80000182:	41b2                	lw	gp,12(sp)
80000184:	4242                	lw	tp,16(sp)
80000186:	42d2                	lw	t0,20(sp)
80000188:	4362                	lw	t1,24(sp)
8000018a:	43f2                	lw	t2,28(sp)
8000018c:	5402                	lw	s0,32(sp)
8000018e:	5492                	lw	s1,36(sp)
80000190:	5522                	lw	a0,40(sp)
80000192:	55b2                	lw	a1,44(sp)
80000194:	5642                	lw	a2,48(sp)
80000196:	56d2                	lw	a3,52(sp)
80000198:	5762                	lw	a4,56(sp)
8000019a:	57f2                	lw	a5,60(sp)
8000019c:	4806                	lw	a6,64(sp)
8000019e:	4896                	lw	a7,68(sp)
800001a0:	4926                	lw	s2,72(sp)
800001a2:	49b6                	lw	s3,76(sp)
800001a4:	4a46                	lw	s4,80(sp)
800001a6:	4ad6                	lw	s5,84(sp)
800001a8:	4b66                	lw	s6,88(sp)
800001aa:	4bf6                	lw	s7,92(sp)
800001ac:	5c06                	lw	s8,96(sp)
800001ae:	5c96                	lw	s9,100(sp)
800001b0:	5d26                	lw	s10,104(sp)
800001b2:	5db6                	lw	s11,108(sp)
800001b4:	5e46                	lw	t3,112(sp)
800001b6:	5ed6                	lw	t4,116(sp)
800001b8:	5f66                	lw	t5,120(sp)
800001ba:	5ff6                	lw	t6,124(sp)
800001bc:	6151                	addi	sp,sp,272
800001be:	30200073          	mret

Disassembly of section .tohost:

80001000 <tohost>:
	...

80001040 <fromhost>:
	...

Disassembly of section .text:

80001048 <towers_verify.part.0>:
80001048:	4d10                	lw	a2,24(a0)
8000104a:	411c                	lw	a5,0(a0)
8000104c:	02f61b63          	bne	a2,a5,80001082 <towers_verify.part.0+0x3a>
80001050:	4d5c                	lw	a5,28(a0)
80001052:	cf81                	beqz	a5,8000106a <towers_verify.part.0+0x22>
80001054:	4398                	lw	a4,0(a5)
80001056:	4685                	li	a3,1
80001058:	00d70663          	beq	a4,a3,80001064 <towers_verify.part.0+0x1c>
8000105c:	a02d                	j	80001086 <towers_verify.part.0+0x3e>
8000105e:	4394                	lw	a3,0(a5)
80001060:	02d71363          	bne	a4,a3,80001086 <towers_verify.part.0+0x3e>
80001064:	43dc                	lw	a5,4(a5)
80001066:	0705                	addi	a4,a4,1
80001068:	fbfd                	bnez	a5,8000105e <towers_verify.part.0+0x16>
8000106a:	4148                	lw	a0,4(a0)
8000106c:	4785                	li	a5,1
8000106e:	00c79633          	sll	a2,a5,a2
80001072:	167d                	addi	a2,a2,-1
80001074:	8d11                	sub	a0,a0,a2
80001076:	00a03533          	snez	a0,a0
8000107a:	40a00533          	neg	a0,a0
8000107e:	8919                	andi	a0,a0,6
80001080:	8082                	ret
80001082:	4511                	li	a0,4
80001084:	8082                	ret
80001086:	4515                	li	a0,5
80001088:	8082                	ret

8000108a <list_getSize>:
8000108a:	4108                	lw	a0,0(a0)
8000108c:	8082                	ret

8000108e <list_init>:
8000108e:	00052023          	sw	zero,0(a0)
80001092:	00052223          	sw	zero,4(a0)
80001096:	8082                	ret

80001098 <list_push>:
80001098:	0ffff697          	auipc	a3,0xffff
8000109c:	f6868693          	addi	a3,a3,-152 # 90000000 <g_nodeFreeList>
800010a0:	42dc                	lw	a5,4(a3)
800010a2:	4118                	lw	a4,0(a0)
800010a4:	43d0                	lw	a2,4(a5)
800010a6:	0705                	addi	a4,a4,1
800010a8:	c2d0                	sw	a2,4(a3)
800010aa:	4154                	lw	a3,4(a0)
800010ac:	c3d4                	sw	a3,4(a5)
800010ae:	c15c                	sw	a5,4(a0)
800010b0:	c38c                	sw	a1,0(a5)
800010b2:	c118                	sw	a4,0(a0)
800010b4:	8082                	ret

800010b6 <list_pop>:
800010b6:	4158                	lw	a4,4(a0)
800010b8:	87aa                	mv	a5,a0
800010ba:	4114                	lw	a3,0(a0)
800010bc:	434c                	lw	a1,4(a4)
800010be:	4308                	lw	a0,0(a4)
800010c0:	0ffff617          	auipc	a2,0xffff
800010c4:	f4060613          	addi	a2,a2,-192 # 90000000 <g_nodeFreeList>
800010c8:	c3cc                	sw	a1,4(a5)
800010ca:	424c                	lw	a1,4(a2)
800010cc:	16fd                	addi	a3,a3,-1
800010ce:	c34c                	sw	a1,4(a4)
800010d0:	c258                	sw	a4,4(a2)
800010d2:	c394                	sw	a3,0(a5)
800010d4:	8082                	ret

800010d6 <list_clear>:
800010d6:	4118                	lw	a4,0(a0)
800010d8:	02e05363          	blez	a4,800010fe <list_clear+0x28>
800010dc:	0ffff617          	auipc	a2,0xffff
800010e0:	f2460613          	addi	a2,a2,-220 # 90000000 <g_nodeFreeList>
800010e4:	415c                	lw	a5,4(a0)
800010e6:	177d                	addi	a4,a4,-1
800010e8:	43d4                	lw	a3,4(a5)
800010ea:	c154                	sw	a3,4(a0)
800010ec:	4254                	lw	a3,4(a2)
800010ee:	c3d4                	sw	a3,4(a5)
800010f0:	0ffff697          	auipc	a3,0xffff
800010f4:	f0f6aa23          	sw	a5,-236(a3) # 90000004 <g_nodeFreeList+0x4>
800010f8:	f775                	bnez	a4,800010e4 <list_clear+0xe>
800010fa:	00052023          	sw	zero,0(a0)
800010fe:	8082                	ret

80001100 <towers_init>:
80001100:	c10c                	sw	a1,0(a0)
80001102:	00052223          	sw	zero,4(a0)
80001106:	00052423          	sw	zero,8(a0)
8000110a:	00052623          	sw	zero,12(a0)
8000110e:	00052823          	sw	zero,16(a0)
80001112:	00052a23          	sw	zero,20(a0)
80001116:	00052c23          	sw	zero,24(a0)
8000111a:	00052e23          	sw	zero,28(a0)
8000111e:	02b05763          	blez	a1,8000114c <towers_init+0x4c>
80001122:	0ffff797          	auipc	a5,0xffff
80001126:	ede78793          	addi	a5,a5,-290 # 90000000 <g_nodeFreeList>
8000112a:	43dc                	lw	a5,4(a5)
8000112c:	872e                	mv	a4,a1
8000112e:	4681                	li	a3,0
80001130:	a011                	j	80001134 <towers_init+0x34>
80001132:	87b2                	mv	a5,a2
80001134:	43d0                	lw	a2,4(a5)
80001136:	c398                	sw	a4,0(a5)
80001138:	c3d4                	sw	a3,4(a5)
8000113a:	177d                	addi	a4,a4,-1
8000113c:	86be                	mv	a3,a5
8000113e:	fb75                	bnez	a4,80001132 <towers_init+0x32>
80001140:	0ffff717          	auipc	a4,0xffff
80001144:	ecc72223          	sw	a2,-316(a4) # 90000004 <g_nodeFreeList+0x4>
80001148:	c55c                	sw	a5,12(a0)
8000114a:	c50c                	sw	a1,8(a0)
8000114c:	8082                	ret

8000114e <towers_clear>:
8000114e:	4518                	lw	a4,8(a0)
80001150:	02e05663          	blez	a4,8000117c <towers_clear+0x2e>
80001154:	0ffff697          	auipc	a3,0xffff
80001158:	eac68693          	addi	a3,a3,-340 # 90000000 <g_nodeFreeList>
8000115c:	455c                	lw	a5,12(a0)
8000115e:	42d4                	lw	a3,4(a3)
80001160:	a011                	j	80001164 <towers_clear+0x16>
80001162:	87b2                	mv	a5,a2
80001164:	43d0                	lw	a2,4(a5)
80001166:	177d                	addi	a4,a4,-1
80001168:	c3d4                	sw	a3,4(a5)
8000116a:	86be                	mv	a3,a5
8000116c:	fb7d                	bnez	a4,80001162 <towers_clear+0x14>
8000116e:	0ffff717          	auipc	a4,0xffff
80001172:	e8f72b23          	sw	a5,-362(a4) # 90000004 <g_nodeFreeList+0x4>
80001176:	c550                	sw	a2,12(a0)
80001178:	00052423          	sw	zero,8(a0)
8000117c:	4918                	lw	a4,16(a0)
8000117e:	02e05663          	blez	a4,800011aa <towers_clear+0x5c>
80001182:	0ffff697          	auipc	a3,0xffff
80001186:	e7e68693          	addi	a3,a3,-386 # 90000000 <g_nodeFreeList>
8000118a:	495c                	lw	a5,20(a0)
8000118c:	42d4                	lw	a3,4(a3)
8000118e:	a011                	j	80001192 <towers_clear+0x44>
80001190:	87b2                	mv	a5,a2
80001192:	43d0                	lw	a2,4(a5)
80001194:	177d                	addi	a4,a4,-1
80001196:	c3d4                	sw	a3,4(a5)
80001198:	86be                	mv	a3,a5
8000119a:	fb7d                	bnez	a4,80001190 <towers_clear+0x42>
8000119c:	0ffff717          	auipc	a4,0xffff
800011a0:	e6f72423          	sw	a5,-408(a4) # 90000004 <g_nodeFreeList+0x4>
800011a4:	c950                	sw	a2,20(a0)
800011a6:	00052823          	sw	zero,16(a0)
800011aa:	4d18                	lw	a4,24(a0)
800011ac:	02e05363          	blez	a4,800011d2 <towers_clear+0x84>
800011b0:	0ffff697          	auipc	a3,0xffff
800011b4:	e5068693          	addi	a3,a3,-432 # 90000000 <g_nodeFreeList>
800011b8:	4d5c                	lw	a5,28(a0)
800011ba:	42d4                	lw	a3,4(a3)
800011bc:	a011                	j	800011c0 <towers_clear+0x72>
800011be:	87b2                	mv	a5,a2
800011c0:	43d0                	lw	a2,4(a5)
800011c2:	177d                	addi	a4,a4,-1
800011c4:	c3d4                	sw	a3,4(a5)
800011c6:	86be                	mv	a3,a5
800011c8:	fb7d                	bnez	a4,800011be <towers_clear+0x70>
800011ca:	0ffff717          	auipc	a4,0xffff
800011ce:	e2f72d23          	sw	a5,-454(a4) # 90000004 <g_nodeFreeList+0x4>
800011d2:	410c                	lw	a1,0(a0)
800011d4:	00052223          	sw	zero,4(a0)
800011d8:	00052423          	sw	zero,8(a0)
800011dc:	00052623          	sw	zero,12(a0)
800011e0:	00052823          	sw	zero,16(a0)
800011e4:	00052a23          	sw	zero,20(a0)
800011e8:	00052c23          	sw	zero,24(a0)
800011ec:	00052e23          	sw	zero,28(a0)
800011f0:	02b05763          	blez	a1,8000121e <towers_clear+0xd0>
800011f4:	0ffff797          	auipc	a5,0xffff
800011f8:	e0c78793          	addi	a5,a5,-500 # 90000000 <g_nodeFreeList>
800011fc:	43dc                	lw	a5,4(a5)
800011fe:	872e                	mv	a4,a1
80001200:	4681                	li	a3,0
80001202:	a011                	j	80001206 <towers_clear+0xb8>
80001204:	87b2                	mv	a5,a2
80001206:	43d0                	lw	a2,4(a5)
80001208:	c398                	sw	a4,0(a5)
8000120a:	c3d4                	sw	a3,4(a5)
8000120c:	177d                	addi	a4,a4,-1
8000120e:	86be                	mv	a3,a5
80001210:	fb75                	bnez	a4,80001204 <towers_clear+0xb6>
80001212:	0ffff717          	auipc	a4,0xffff
80001216:	dec72923          	sw	a2,-526(a4) # 90000004 <g_nodeFreeList+0x4>
8000121a:	c55c                	sw	a5,12(a0)
8000121c:	c50c                	sw	a1,8(a0)
8000121e:	8082                	ret

80001220 <towers_solve_h>:
80001220:	1101                	addi	sp,sp,-32
80001222:	cc22                	sw	s0,24(sp)
80001224:	ca26                	sw	s1,20(sp)
80001226:	c84a                	sw	s2,16(sp)
80001228:	c64e                	sw	s3,12(sp)
8000122a:	c452                	sw	s4,8(sp)
8000122c:	ce06                	sw	ra,28(sp)
8000122e:	4785                	li	a5,1
80001230:	8a2a                	mv	s4,a0
80001232:	8932                	mv	s2,a2
80001234:	89ba                	mv	s3,a4
80001236:	84ae                	mv	s1,a1
80001238:	8436                	mv	s0,a3
8000123a:	02f58663          	beq	a1,a5,80001266 <towers_solve_h+0x46>
8000123e:	14fd                	addi	s1,s1,-1
80001240:	85a6                	mv	a1,s1
80001242:	8552                	mv	a0,s4
80001244:	8722                	mv	a4,s0
80001246:	86ce                	mv	a3,s3
80001248:	864a                	mv	a2,s2
8000124a:	3fd9                	jal	80001220 <towers_solve_h>
8000124c:	874e                	mv	a4,s3
8000124e:	86a2                	mv	a3,s0
80001250:	864a                	mv	a2,s2
80001252:	4585                	li	a1,1
80001254:	8552                	mv	a0,s4
80001256:	37e9                	jal	80001220 <towers_solve_h>
80001258:	4785                	li	a5,1
8000125a:	874a                	mv	a4,s2
8000125c:	00f48663          	beq	s1,a5,80001268 <towers_solve_h+0x48>
80001260:	8922                	mv	s2,s0
80001262:	843a                	mv	s0,a4
80001264:	bfe9                	j	8000123e <towers_solve_h+0x1e>
80001266:	8432                	mv	s0,a2
80001268:	405c                	lw	a5,4(s0)
8000126a:	4014                	lw	a3,0(s0)
8000126c:	004a2703          	lw	a4,4(s4)
80001270:	43cc                	lw	a1,4(a5)
80001272:	4390                	lw	a2,0(a5)
80001274:	16fd                	addi	a3,a3,-1
80001276:	c04c                	sw	a1,4(s0)
80001278:	0049a583          	lw	a1,4(s3)
8000127c:	c014                	sw	a3,0(s0)
8000127e:	0009a683          	lw	a3,0(s3)
80001282:	c3cc                	sw	a1,4(a5)
80001284:	00f9a223          	sw	a5,4(s3)
80001288:	c390                	sw	a2,0(a5)
8000128a:	40f2                	lw	ra,28(sp)
8000128c:	00168793          	addi	a5,a3,1
80001290:	4462                	lw	s0,24(sp)
80001292:	00f9a023          	sw	a5,0(s3)
80001296:	00170793          	addi	a5,a4,1
8000129a:	00fa2223          	sw	a5,4(s4)
8000129e:	44d2                	lw	s1,20(sp)
800012a0:	4942                	lw	s2,16(sp)
800012a2:	49b2                	lw	s3,12(sp)
800012a4:	4a22                	lw	s4,8(sp)
800012a6:	6105                	addi	sp,sp,32
800012a8:	8082                	ret

800012aa <towers_solve>:
800012aa:	410c                	lw	a1,0(a0)
800012ac:	01850713          	addi	a4,a0,24
800012b0:	01050693          	addi	a3,a0,16
800012b4:	00850613          	addi	a2,a0,8
800012b8:	b7a5                	j	80001220 <towers_solve_h>

800012ba <towers_verify>:
800012ba:	4518                	lw	a4,8(a0)
800012bc:	e711                	bnez	a4,800012c8 <towers_verify+0xe>
800012be:	491c                	lw	a5,16(a0)
800012c0:	e391                	bnez	a5,800012c4 <towers_verify+0xa>
800012c2:	b359                	j	80001048 <towers_verify.part.0>
800012c4:	450d                	li	a0,3
800012c6:	8082                	ret
800012c8:	4509                	li	a0,2
800012ca:	8082                	ret

800012cc <vprintfmt>:
800012cc:	714d                	addi	sp,sp,-336
800012ce:	13a12023          	sw	s10,288(sp)
800012d2:	40000d37          	lui	s10,0x40000
800012d6:	fffd0793          	addi	a5,s10,-1 # 3fffffff <_tbss_end+0x3fffffbb>
800012da:	14812423          	sw	s0,328(sp)
800012de:	14912223          	sw	s1,324(sp)
800012e2:	15212023          	sw	s2,320(sp)
800012e6:	13512a23          	sw	s5,308(sp)
800012ea:	14112623          	sw	ra,332(sp)
800012ee:	13312e23          	sw	s3,316(sp)
800012f2:	13412c23          	sw	s4,312(sp)
800012f6:	13612823          	sw	s6,304(sp)
800012fa:	13712623          	sw	s7,300(sp)
800012fe:	13812423          	sw	s8,296(sp)
80001302:	13912223          	sw	s9,292(sp)
80001306:	11b12e23          	sw	s11,284(sp)
8000130a:	892a                	mv	s2,a0
8000130c:	84ae                	mv	s1,a1
8000130e:	8432                	mv	s0,a2
80001310:	c436                	sw	a3,8(sp)
80001312:	02500a93          	li	s5,37
80001316:	c63e                	sw	a5,12(sp)
80001318:	a029                	j	80001322 <vprintfmt+0x56>
8000131a:	c531                	beqz	a0,80001366 <vprintfmt+0x9a>
8000131c:	85a6                	mv	a1,s1
8000131e:	0405                	addi	s0,s0,1
80001320:	9902                	jalr	s2
80001322:	00044503          	lbu	a0,0(s0)
80001326:	ff551ae3          	bne	a0,s5,8000131a <vprintfmt+0x4e>
8000132a:	00144683          	lbu	a3,1(s0)
8000132e:	00140b13          	addi	s6,s0,1
80001332:	875a                	mv	a4,s6
80001334:	02000b93          	li	s7,32
80001338:	5a7d                	li	s4,-1
8000133a:	59fd                	li	s3,-1
8000133c:	4581                	li	a1,0
8000133e:	05500513          	li	a0,85
80001342:	4825                	li	a6,9
80001344:	fdd68793          	addi	a5,a3,-35
80001348:	0ff7f793          	andi	a5,a5,255
8000134c:	00170413          	addi	s0,a4,1
80001350:	26f56263          	bltu	a0,a5,800015b4 <vprintfmt+0x2e8>
80001354:	00001617          	auipc	a2,0x1
80001358:	3a860613          	addi	a2,a2,936 # 800026fc <__umoddi3+0x38e>
8000135c:	078a                	slli	a5,a5,0x2
8000135e:	97b2                	add	a5,a5,a2
80001360:	439c                	lw	a5,0(a5)
80001362:	97b2                	add	a5,a5,a2
80001364:	8782                	jr	a5
80001366:	14c12083          	lw	ra,332(sp)
8000136a:	14812403          	lw	s0,328(sp)
8000136e:	14412483          	lw	s1,324(sp)
80001372:	14012903          	lw	s2,320(sp)
80001376:	13c12983          	lw	s3,316(sp)
8000137a:	13812a03          	lw	s4,312(sp)
8000137e:	13412a83          	lw	s5,308(sp)
80001382:	13012b03          	lw	s6,304(sp)
80001386:	12c12b83          	lw	s7,300(sp)
8000138a:	12812c03          	lw	s8,296(sp)
8000138e:	12412c83          	lw	s9,292(sp)
80001392:	12012d03          	lw	s10,288(sp)
80001396:	11c12d83          	lw	s11,284(sp)
8000139a:	6171                	addi	sp,sp,336
8000139c:	8082                	ret
8000139e:	4b21                	li	s6,8
800013a0:	c202                	sw	zero,4(sp)
800013a2:	4785                	li	a5,1
800013a4:	1ab7d963          	ble	a1,a5,80001556 <vprintfmt+0x28a>
800013a8:	47a2                	lw	a5,8(sp)
800013aa:	00778c93          	addi	s9,a5,7
800013ae:	ff8cf793          	andi	a5,s9,-8
800013b2:	0007ad83          	lw	s11,0(a5)
800013b6:	0047ac03          	lw	s8,4(a5)
800013ba:	00878713          	addi	a4,a5,8
800013be:	c43a                	sw	a4,8(sp)
800013c0:	865a                	mv	a2,s6
800013c2:	4681                	li	a3,0
800013c4:	856e                	mv	a0,s11
800013c6:	85e2                	mv	a1,s8
800013c8:	7a7000ef          	jal	ra,8000236e <__umoddi3>
800013cc:	c82a                	sw	a0,16(sp)
800013ce:	4781                	li	a5,0
800013d0:	1f878863          	beq	a5,s8,800015c0 <vprintfmt+0x2f4>
800013d4:	01410c93          	addi	s9,sp,20
800013d8:	4a05                	li	s4,1
800013da:	865a                	mv	a2,s6
800013dc:	4681                	li	a3,0
800013de:	856e                	mv	a0,s11
800013e0:	85e2                	mv	a1,s8
800013e2:	3eb000ef          	jal	ra,80001fcc <__udivdi3>
800013e6:	865a                	mv	a2,s6
800013e8:	4681                	li	a3,0
800013ea:	8daa                	mv	s11,a0
800013ec:	8c2e                	mv	s8,a1
800013ee:	781000ef          	jal	ra,8000236e <__umoddi3>
800013f2:	4792                	lw	a5,4(sp)
800013f4:	00aca023          	sw	a0,0(s9)
800013f8:	001a0d13          	addi	s10,s4,1
800013fc:	0c91                	addi	s9,s9,4
800013fe:	01878463          	beq	a5,s8,80001406 <vprintfmt+0x13a>
80001402:	8a6a                	mv	s4,s10
80001404:	bfd9                	j	800013da <vprintfmt+0x10e>
80001406:	ff6dfee3          	bleu	s6,s11,80001402 <vprintfmt+0x136>
8000140a:	013d5863          	ble	s3,s10,8000141a <vprintfmt+0x14e>
8000140e:	19fd                	addi	s3,s3,-1
80001410:	85a6                	mv	a1,s1
80001412:	855e                	mv	a0,s7
80001414:	9902                	jalr	s2
80001416:	ff3d4ce3          	blt	s10,s3,8000140e <vprintfmt+0x142>
8000141a:	002a1793          	slli	a5,s4,0x2
8000141e:	0a18                	addi	a4,sp,272
80001420:	97ba                	add	a5,a5,a4
80001422:	f007a503          	lw	a0,-256(a5)
80001426:	47b2                	lw	a5,12(sp)
80001428:	4b25                	li	s6,9
8000142a:	00fa09b3          	add	s3,s4,a5
8000142e:	098a                	slli	s3,s3,0x2
80001430:	081c                	addi	a5,sp,16
80001432:	99be                	add	s3,s3,a5
80001434:	a029                	j	8000143e <vprintfmt+0x172>
80001436:	0009a503          	lw	a0,0(s3)
8000143a:	1a7d                	addi	s4,s4,-1
8000143c:	19f1                	addi	s3,s3,-4
8000143e:	03000793          	li	a5,48
80001442:	00ab7463          	bleu	a0,s6,8000144a <vprintfmt+0x17e>
80001446:	05700793          	li	a5,87
8000144a:	85a6                	mv	a1,s1
8000144c:	953e                	add	a0,a0,a5
8000144e:	9902                	jalr	s2
80001450:	ff4043e3          	bgtz	s4,80001436 <vprintfmt+0x16a>
80001454:	b5f9                	j	80001322 <vprintfmt+0x56>
80001456:	03000513          	li	a0,48
8000145a:	85a6                	mv	a1,s1
8000145c:	9902                	jalr	s2
8000145e:	85a6                	mv	a1,s1
80001460:	07800513          	li	a0,120
80001464:	9902                	jalr	s2
80001466:	47a2                	lw	a5,8(sp)
80001468:	4b41                	li	s6,16
8000146a:	c202                	sw	zero,4(sp)
8000146c:	00478693          	addi	a3,a5,4
80001470:	47a2                	lw	a5,8(sp)
80001472:	4c01                	li	s8,0
80001474:	0007ad83          	lw	s11,0(a5)
80001478:	c436                	sw	a3,8(sp)
8000147a:	b799                	j	800013c0 <vprintfmt+0xf4>
8000147c:	47a2                	lw	a5,8(sp)
8000147e:	00174683          	lbu	a3,1(a4)
80001482:	8722                	mv	a4,s0
80001484:	0007aa03          	lw	s4,0(a5)
80001488:	0791                	addi	a5,a5,4
8000148a:	c43e                	sw	a5,8(sp)
8000148c:	ea09dce3          	bgez	s3,80001344 <vprintfmt+0x78>
80001490:	89d2                	mv	s3,s4
80001492:	5a7d                	li	s4,-1
80001494:	bd45                	j	80001344 <vprintfmt+0x78>
80001496:	00174683          	lbu	a3,1(a4)
8000149a:	02d00b93          	li	s7,45
8000149e:	8722                	mv	a4,s0
800014a0:	b555                	j	80001344 <vprintfmt+0x78>
800014a2:	fff9c793          	not	a5,s3
800014a6:	87fd                	srai	a5,a5,0x1f
800014a8:	00174683          	lbu	a3,1(a4)
800014ac:	00f9f9b3          	and	s3,s3,a5
800014b0:	8722                	mv	a4,s0
800014b2:	bd49                	j	80001344 <vprintfmt+0x78>
800014b4:	00174683          	lbu	a3,1(a4)
800014b8:	03000b93          	li	s7,48
800014bc:	8722                	mv	a4,s0
800014be:	b559                	j	80001344 <vprintfmt+0x78>
800014c0:	00174603          	lbu	a2,1(a4)
800014c4:	fd068a13          	addi	s4,a3,-48
800014c8:	8722                	mv	a4,s0
800014ca:	fd060793          	addi	a5,a2,-48
800014ce:	86b2                	mv	a3,a2
800014d0:	faf86ee3          	bltu	a6,a5,8000148c <vprintfmt+0x1c0>
800014d4:	002a1793          	slli	a5,s4,0x2
800014d8:	9a3e                	add	s4,s4,a5
800014da:	0705                	addi	a4,a4,1
800014dc:	0a06                	slli	s4,s4,0x1
800014de:	9a32                	add	s4,s4,a2
800014e0:	00074603          	lbu	a2,0(a4)
800014e4:	fd0a0a13          	addi	s4,s4,-48
800014e8:	fd060793          	addi	a5,a2,-48
800014ec:	86b2                	mv	a3,a2
800014ee:	fef873e3          	bleu	a5,a6,800014d4 <vprintfmt+0x208>
800014f2:	bf69                	j	8000148c <vprintfmt+0x1c0>
800014f4:	47a2                	lw	a5,8(sp)
800014f6:	85a6                	mv	a1,s1
800014f8:	4388                	lw	a0,0(a5)
800014fa:	00478c93          	addi	s9,a5,4
800014fe:	9902                	jalr	s2
80001500:	c466                	sw	s9,8(sp)
80001502:	b505                	j	80001322 <vprintfmt+0x56>
80001504:	4785                	li	a5,1
80001506:	12b7d963          	ble	a1,a5,80001638 <vprintfmt+0x36c>
8000150a:	47a2                	lw	a5,8(sp)
8000150c:	079d                	addi	a5,a5,7
8000150e:	9be1                	andi	a5,a5,-8
80001510:	0007ad83          	lw	s11,0(a5)
80001514:	0047ac03          	lw	s8,4(a5)
80001518:	00878713          	addi	a4,a5,8
8000151c:	c43a                	sw	a4,8(sp)
8000151e:	000c5f63          	bgez	s8,8000153c <vprintfmt+0x270>
80001522:	85a6                	mv	a1,s1
80001524:	02d00513          	li	a0,45
80001528:	9902                	jalr	s2
8000152a:	41b00733          	neg	a4,s11
8000152e:	00e036b3          	snez	a3,a4
80001532:	418007b3          	neg	a5,s8
80001536:	8dba                	mv	s11,a4
80001538:	40d78c33          	sub	s8,a5,a3
8000153c:	4b29                	li	s6,10
8000153e:	c202                	sw	zero,4(sp)
80001540:	b541                	j	800013c0 <vprintfmt+0xf4>
80001542:	00174683          	lbu	a3,1(a4)
80001546:	0585                	addi	a1,a1,1
80001548:	8722                	mv	a4,s0
8000154a:	bbed                	j	80001344 <vprintfmt+0x78>
8000154c:	c202                	sw	zero,4(sp)
8000154e:	4785                	li	a5,1
80001550:	4b29                	li	s6,10
80001552:	e4b7cbe3          	blt	a5,a1,800013a8 <vprintfmt+0xdc>
80001556:	47a2                	lw	a5,8(sp)
80001558:	00478693          	addi	a3,a5,4
8000155c:	bf11                	j	80001470 <vprintfmt+0x1a4>
8000155e:	4b41                	li	s6,16
80001560:	c202                	sw	zero,4(sp)
80001562:	b581                	j	800013a2 <vprintfmt+0xd6>
80001564:	00174683          	lbu	a3,1(a4)
80001568:	8722                	mv	a4,s0
8000156a:	bbe9                	j	80001344 <vprintfmt+0x78>
8000156c:	85a6                	mv	a1,s1
8000156e:	02500513          	li	a0,37
80001572:	9902                	jalr	s2
80001574:	b37d                	j	80001322 <vprintfmt+0x56>
80001576:	47a2                	lw	a5,8(sp)
80001578:	0007ab03          	lw	s6,0(a5)
8000157c:	00478c93          	addi	s9,a5,4
80001580:	0c0b0763          	beqz	s6,8000164e <vprintfmt+0x382>
80001584:	05305c63          	blez	s3,800015dc <vprintfmt+0x310>
80001588:	02d00793          	li	a5,45
8000158c:	0afb8163          	beq	s7,a5,8000162e <vprintfmt+0x362>
80001590:	080a0263          	beqz	s4,80001614 <vprintfmt+0x348>
80001594:	000b4783          	lbu	a5,0(s6)
80001598:	cfb5                	beqz	a5,80001614 <vprintfmt+0x348>
8000159a:	001b0793          	addi	a5,s6,1
8000159e:	014b0633          	add	a2,s6,s4
800015a2:	0cf60963          	beq	a2,a5,80001674 <vprintfmt+0x3a8>
800015a6:	00178713          	addi	a4,a5,1
800015aa:	fff74683          	lbu	a3,-1(a4)
800015ae:	c28d                	beqz	a3,800015d0 <vprintfmt+0x304>
800015b0:	87ba                	mv	a5,a4
800015b2:	bfc5                	j	800015a2 <vprintfmt+0x2d6>
800015b4:	85a6                	mv	a1,s1
800015b6:	02500513          	li	a0,37
800015ba:	9902                	jalr	s2
800015bc:	845a                	mv	s0,s6
800015be:	b395                	j	80001322 <vprintfmt+0x56>
800015c0:	e16dfae3          	bleu	s6,s11,800013d4 <vprintfmt+0x108>
800015c4:	4785                	li	a5,1
800015c6:	4a01                	li	s4,0
800015c8:	4d05                	li	s10,1
800015ca:	e537c2e3          	blt	a5,s3,8000140e <vprintfmt+0x142>
800015ce:	bda1                	j	80001426 <vprintfmt+0x15a>
800015d0:	416787b3          	sub	a5,a5,s6
800015d4:	40f989b3          	sub	s3,s3,a5
800015d8:	03304e63          	bgtz	s3,80001614 <vprintfmt+0x348>
800015dc:	000b4503          	lbu	a0,0(s6)
800015e0:	c505                	beqz	a0,80001608 <vprintfmt+0x33c>
800015e2:	5bfd                	li	s7,-1
800015e4:	020a5463          	bgez	s4,8000160c <vprintfmt+0x340>
800015e8:	85a6                	mv	a1,s1
800015ea:	0b05                	addi	s6,s6,1
800015ec:	9902                	jalr	s2
800015ee:	000b4503          	lbu	a0,0(s6)
800015f2:	19fd                	addi	s3,s3,-1
800015f4:	f965                	bnez	a0,800015e4 <vprintfmt+0x318>
800015f6:	01305963          	blez	s3,80001608 <vprintfmt+0x33c>
800015fa:	19fd                	addi	s3,s3,-1
800015fc:	85a6                	mv	a1,s1
800015fe:	02000513          	li	a0,32
80001602:	9902                	jalr	s2
80001604:	fe099be3          	bnez	s3,800015fa <vprintfmt+0x32e>
80001608:	c466                	sw	s9,8(sp)
8000160a:	bb21                	j	80001322 <vprintfmt+0x56>
8000160c:	1a7d                	addi	s4,s4,-1
8000160e:	fd7a1de3          	bne	s4,s7,800015e8 <vprintfmt+0x31c>
80001612:	b7d5                	j	800015f6 <vprintfmt+0x32a>
80001614:	19fd                	addi	s3,s3,-1
80001616:	85a6                	mv	a1,s1
80001618:	855e                	mv	a0,s7
8000161a:	9902                	jalr	s2
8000161c:	fc0980e3          	beqz	s3,800015dc <vprintfmt+0x310>
80001620:	19fd                	addi	s3,s3,-1
80001622:	85a6                	mv	a1,s1
80001624:	855e                	mv	a0,s7
80001626:	9902                	jalr	s2
80001628:	fe0996e3          	bnez	s3,80001614 <vprintfmt+0x348>
8000162c:	bf45                	j	800015dc <vprintfmt+0x310>
8000162e:	000b4503          	lbu	a0,0(s6)
80001632:	d561                	beqz	a0,800015fa <vprintfmt+0x32e>
80001634:	5bfd                	li	s7,-1
80001636:	b77d                	j	800015e4 <vprintfmt+0x318>
80001638:	4722                	lw	a4,8(sp)
8000163a:	00470793          	addi	a5,a4,4
8000163e:	e191                	bnez	a1,80001642 <vprintfmt+0x376>
80001640:	4722                	lw	a4,8(sp)
80001642:	00072d83          	lw	s11,0(a4)
80001646:	c43e                	sw	a5,8(sp)
80001648:	41fddc13          	srai	s8,s11,0x1f
8000164c:	bdc9                	j	8000151e <vprintfmt+0x252>
8000164e:	01305b63          	blez	s3,80001664 <vprintfmt+0x398>
80001652:	02d00793          	li	a5,45
80001656:	00fb8763          	beq	s7,a5,80001664 <vprintfmt+0x398>
8000165a:	00001b17          	auipc	s6,0x1
8000165e:	1fab0b13          	addi	s6,s6,506 # 80002854 <__umoddi3+0x4e6>
80001662:	b73d                	j	80001590 <vprintfmt+0x2c4>
80001664:	00001b17          	auipc	s6,0x1
80001668:	1f0b0b13          	addi	s6,s6,496 # 80002854 <__umoddi3+0x4e6>
8000166c:	02800513          	li	a0,40
80001670:	5bfd                	li	s7,-1
80001672:	bf8d                	j	800015e4 <vprintfmt+0x318>
80001674:	41660633          	sub	a2,a2,s6
80001678:	40c989b3          	sub	s3,s3,a2
8000167c:	f9304ce3          	bgtz	s3,80001614 <vprintfmt+0x348>
80001680:	bfb1                	j	800015dc <vprintfmt+0x310>

80001682 <sprintf_putch.2925>:
80001682:	419c                	lw	a5,0(a1)
80001684:	00a78023          	sb	a0,0(a5)
80001688:	419c                	lw	a5,0(a1)
8000168a:	0785                	addi	a5,a5,1
8000168c:	c19c                	sw	a5,0(a1)
8000168e:	8082                	ret

80001690 <syscall.constprop.2>:
80001690:	7119                	addi	sp,sp,-128
80001692:	03f10813          	addi	a6,sp,63
80001696:	fc087813          	andi	a6,a6,-64
8000169a:	04000713          	li	a4,64
8000169e:	00e82023          	sw	a4,0(a6)
800016a2:	4781                	li	a5,0
800016a4:	00f82223          	sw	a5,4(a6)
800016a8:	4705                	li	a4,1
800016aa:	00e82423          	sw	a4,8(a6)
800016ae:	4781                	li	a5,0
800016b0:	00f82623          	sw	a5,12(a6)
800016b4:	00a82823          	sw	a0,16(a6)
800016b8:	00b82a23          	sw	a1,20(a6)
800016bc:	00c82c23          	sw	a2,24(a6)
800016c0:	00d82e23          	sw	a3,28(a6)
800016c4:	0ff0000f          	fence
800016c8:	00000697          	auipc	a3,0x0
800016cc:	93868693          	addi	a3,a3,-1736 # 80001000 <tohost>
800016d0:	0106a023          	sw	a6,0(a3)
800016d4:	4781                	li	a5,0
800016d6:	c2dc                	sw	a5,4(a3)
800016d8:	00000697          	auipc	a3,0x0
800016dc:	96868693          	addi	a3,a3,-1688 # 80001040 <fromhost>
800016e0:	4298                	lw	a4,0(a3)
800016e2:	42dc                	lw	a5,4(a3)
800016e4:	8f5d                	or	a4,a4,a5
800016e6:	df6d                	beqz	a4,800016e0 <syscall.constprop.2+0x50>
800016e8:	4701                	li	a4,0
800016ea:	c298                	sw	a4,0(a3)
800016ec:	4781                	li	a5,0
800016ee:	c2dc                	sw	a5,4(a3)
800016f0:	0ff0000f          	fence
800016f4:	00082503          	lw	a0,0(a6)
800016f8:	00482583          	lw	a1,4(a6)
800016fc:	6109                	addi	sp,sp,128
800016fe:	8082                	ret

80001700 <putchar>:
80001700:	1141                	addi	sp,sp,-16
80001702:	c422                	sw	s0,8(sp)
80001704:	04022583          	lw	a1,64(tp) # 40 <buflen.2811>
80001708:	00020793          	mv	a5,tp
8000170c:	c606                	sw	ra,12(sp)
8000170e:	97ae                	add	a5,a5,a1
80001710:	00158613          	addi	a2,a1,1
80001714:	00a78023          	sb	a0,0(a5)
80001718:	04c22023          	sw	a2,64(tp) # 40 <buflen.2811>
8000171c:	47a9                	li	a5,10
8000171e:	00f50b63          	beq	a0,a5,80001734 <putchar+0x34>
80001722:	04000793          	li	a5,64
80001726:	00f60763          	beq	a2,a5,80001734 <putchar+0x34>
8000172a:	40b2                	lw	ra,12(sp)
8000172c:	4422                	lw	s0,8(sp)
8000172e:	4501                	li	a0,0
80001730:	0141                	addi	sp,sp,16
80001732:	8082                	ret
80001734:	41f65693          	srai	a3,a2,0x1f
80001738:	00020513          	mv	a0,tp
8000173c:	4581                	li	a1,0
8000173e:	3f89                	jal	80001690 <syscall.constprop.2>
80001740:	04022023          	sw	zero,64(tp) # 40 <buflen.2811>
80001744:	40b2                	lw	ra,12(sp)
80001746:	4422                	lw	s0,8(sp)
80001748:	4501                	li	a0,0
8000174a:	0141                	addi	sp,sp,16
8000174c:	8082                	ret

8000174e <setStats>:
8000174e:	b00027f3          	csrr	a5,mcycle
80001752:	0ffff717          	auipc	a4,0xffff
80001756:	8be70713          	addi	a4,a4,-1858 # 90000010 <counters>
8000175a:	e919                	bnez	a0,80001770 <setStats+0x22>
8000175c:	4314                	lw	a3,0(a4)
8000175e:	00001617          	auipc	a2,0x1
80001762:	0fe60613          	addi	a2,a2,254 # 8000285c <__umoddi3+0x4ee>
80001766:	0ffff597          	auipc	a1,0xffff
8000176a:	8ac5a123          	sw	a2,-1886(a1) # 90000008 <counter_names>
8000176e:	8f95                	sub	a5,a5,a3
80001770:	0ffff697          	auipc	a3,0xffff
80001774:	8af6a023          	sw	a5,-1888(a3) # 90000010 <counters>
80001778:	b02027f3          	csrr	a5,minstret
8000177c:	e919                	bnez	a0,80001792 <setStats+0x44>
8000177e:	4358                	lw	a4,4(a4)
80001780:	00001697          	auipc	a3,0x1
80001784:	0e468693          	addi	a3,a3,228 # 80002864 <__umoddi3+0x4f6>
80001788:	0ffff617          	auipc	a2,0xffff
8000178c:	88d62223          	sw	a3,-1916(a2) # 9000000c <counter_names+0x4>
80001790:	8f99                	sub	a5,a5,a4
80001792:	0ffff717          	auipc	a4,0xffff
80001796:	88f72123          	sw	a5,-1918(a4) # 90000014 <counters+0x4>
8000179a:	8082                	ret

8000179c <tohost_exit>:
8000179c:	0506                	slli	a0,a0,0x1
8000179e:	00000697          	auipc	a3,0x0
800017a2:	86268693          	addi	a3,a3,-1950 # 80001000 <tohost>
800017a6:	00156713          	ori	a4,a0,1
800017aa:	4781                	li	a5,0
800017ac:	c298                	sw	a4,0(a3)
800017ae:	c2dc                	sw	a5,4(a3)
800017b0:	a001                	j	800017b0 <tohost_exit+0x14>

800017b2 <handle_trap>:
800017b2:	6605                	lui	a2,0x1
800017b4:	00000797          	auipc	a5,0x0
800017b8:	84c78793          	addi	a5,a5,-1972 # 80001000 <tohost>
800017bc:	a7360613          	addi	a2,a2,-1421 # a73 <_tbss_end+0xa2f>
800017c0:	4681                	li	a3,0
800017c2:	c390                	sw	a2,0(a5)
800017c4:	c3d4                	sw	a3,4(a5)
800017c6:	a001                	j	800017c6 <handle_trap+0x14>

800017c8 <exit>:
800017c8:	1141                	addi	sp,sp,-16
800017ca:	c606                	sw	ra,12(sp)
800017cc:	3fc1                	jal	8000179c <tohost_exit>

800017ce <abort>:
800017ce:	00000797          	auipc	a5,0x0
800017d2:	83278793          	addi	a5,a5,-1998 # 80001000 <tohost>
800017d6:	10d00613          	li	a2,269
800017da:	4681                	li	a3,0
800017dc:	c390                	sw	a2,0(a5)
800017de:	c3d4                	sw	a3,4(a5)
800017e0:	a001                	j	800017e0 <abort+0x12>

800017e2 <printstr>:
800017e2:	00054783          	lbu	a5,0(a0)
800017e6:	862a                	mv	a2,a0
800017e8:	cb89                	beqz	a5,800017fa <printstr+0x18>
800017ea:	0605                	addi	a2,a2,1
800017ec:	00064783          	lbu	a5,0(a2)
800017f0:	ffed                	bnez	a5,800017ea <printstr+0x8>
800017f2:	8e09                	sub	a2,a2,a0
800017f4:	4681                	li	a3,0
800017f6:	4581                	li	a1,0
800017f8:	bd61                	j	80001690 <syscall.constprop.2>
800017fa:	4601                	li	a2,0
800017fc:	4681                	li	a3,0
800017fe:	4581                	li	a1,0
80001800:	bd41                	j	80001690 <syscall.constprop.2>

80001802 <thread_entry>:
80001802:	c111                	beqz	a0,80001806 <thread_entry+0x4>
80001804:	a001                	j	80001804 <thread_entry+0x2>
80001806:	8082                	ret

80001808 <printhex>:
80001808:	7179                	addi	sp,sp,-48
8000180a:	d606                	sw	ra,44(sp)
8000180c:	01b10793          	addi	a5,sp,27
80001810:	00b10313          	addi	t1,sp,11
80001814:	48a5                	li	a7,9
80001816:	00f57693          	andi	a3,a0,15
8000181a:	01c59813          	slli	a6,a1,0x1c
8000181e:	8111                	srli	a0,a0,0x4
80001820:	05700613          	li	a2,87
80001824:	0ff6f713          	andi	a4,a3,255
80001828:	00d8e463          	bltu	a7,a3,80001830 <printhex+0x28>
8000182c:	03000613          	li	a2,48
80001830:	9732                	add	a4,a4,a2
80001832:	00e78023          	sb	a4,0(a5)
80001836:	17fd                	addi	a5,a5,-1
80001838:	00a86533          	or	a0,a6,a0
8000183c:	8191                	srli	a1,a1,0x4
8000183e:	fcf31ce3          	bne	t1,a5,80001816 <printhex+0xe>
80001842:	0068                	addi	a0,sp,12
80001844:	00010e23          	sb	zero,28(sp)
80001848:	3f69                	jal	800017e2 <printstr>
8000184a:	50b2                	lw	ra,44(sp)
8000184c:	6145                	addi	sp,sp,48
8000184e:	8082                	ret

80001850 <printf>:
80001850:	7139                	addi	sp,sp,-64
80001852:	02410313          	addi	t1,sp,36
80001856:	d22e                	sw	a1,36(sp)
80001858:	d432                	sw	a2,40(sp)
8000185a:	d636                	sw	a3,44(sp)
8000185c:	862a                	mv	a2,a0
8000185e:	869a                	mv	a3,t1
80001860:	00000517          	auipc	a0,0x0
80001864:	ea050513          	addi	a0,a0,-352 # 80001700 <putchar>
80001868:	4581                	li	a1,0
8000186a:	ce06                	sw	ra,28(sp)
8000186c:	d83a                	sw	a4,48(sp)
8000186e:	da3e                	sw	a5,52(sp)
80001870:	dc42                	sw	a6,56(sp)
80001872:	de46                	sw	a7,60(sp)
80001874:	c61a                	sw	t1,12(sp)
80001876:	3c99                	jal	800012cc <vprintfmt>
80001878:	40f2                	lw	ra,28(sp)
8000187a:	4501                	li	a0,0
8000187c:	6121                	addi	sp,sp,64
8000187e:	8082                	ret

80001880 <sprintf>:
80001880:	715d                	addi	sp,sp,-80
80001882:	03810313          	addi	t1,sp,56
80001886:	d422                	sw	s0,40(sp)
80001888:	c62a                	sw	a0,12(sp)
8000188a:	dc32                	sw	a2,56(sp)
8000188c:	de36                	sw	a3,60(sp)
8000188e:	842a                	mv	s0,a0
80001890:	862e                	mv	a2,a1
80001892:	00000517          	auipc	a0,0x0
80001896:	df050513          	addi	a0,a0,-528 # 80001682 <sprintf_putch.2925>
8000189a:	006c                	addi	a1,sp,12
8000189c:	869a                	mv	a3,t1
8000189e:	d606                	sw	ra,44(sp)
800018a0:	c2be                	sw	a5,68(sp)
800018a2:	c0ba                	sw	a4,64(sp)
800018a4:	c4c2                	sw	a6,72(sp)
800018a6:	c6c6                	sw	a7,76(sp)
800018a8:	ce1a                	sw	t1,28(sp)
800018aa:	340d                	jal	800012cc <vprintfmt>
800018ac:	47b2                	lw	a5,12(sp)
800018ae:	00078023          	sb	zero,0(a5)
800018b2:	4532                	lw	a0,12(sp)
800018b4:	50b2                	lw	ra,44(sp)
800018b6:	8d01                	sub	a0,a0,s0
800018b8:	5422                	lw	s0,40(sp)
800018ba:	6161                	addi	sp,sp,80
800018bc:	8082                	ret

800018be <memcpy>:
800018be:	00c5e7b3          	or	a5,a1,a2
800018c2:	8fc9                	or	a5,a5,a0
800018c4:	8b8d                	andi	a5,a5,3
800018c6:	00c506b3          	add	a3,a0,a2
800018ca:	cf91                	beqz	a5,800018e6 <memcpy+0x28>
800018cc:	962e                	add	a2,a2,a1
800018ce:	87aa                	mv	a5,a0
800018d0:	02d57763          	bleu	a3,a0,800018fe <memcpy+0x40>
800018d4:	0585                	addi	a1,a1,1
800018d6:	fff5c703          	lbu	a4,-1(a1)
800018da:	0785                	addi	a5,a5,1
800018dc:	fee78fa3          	sb	a4,-1(a5)
800018e0:	feb61ae3          	bne	a2,a1,800018d4 <memcpy+0x16>
800018e4:	8082                	ret
800018e6:	fed57fe3          	bleu	a3,a0,800018e4 <memcpy+0x26>
800018ea:	87aa                	mv	a5,a0
800018ec:	0591                	addi	a1,a1,4
800018ee:	ffc5a703          	lw	a4,-4(a1)
800018f2:	0791                	addi	a5,a5,4
800018f4:	fee7ae23          	sw	a4,-4(a5)
800018f8:	fed7eae3          	bltu	a5,a3,800018ec <memcpy+0x2e>
800018fc:	8082                	ret
800018fe:	8082                	ret

80001900 <memset>:
80001900:	00c567b3          	or	a5,a0,a2
80001904:	8b8d                	andi	a5,a5,3
80001906:	962a                	add	a2,a2,a0
80001908:	cf81                	beqz	a5,80001920 <memset+0x20>
8000190a:	0ff5f593          	andi	a1,a1,255
8000190e:	87aa                	mv	a5,a0
80001910:	02c57963          	bleu	a2,a0,80001942 <memset+0x42>
80001914:	0785                	addi	a5,a5,1
80001916:	feb78fa3          	sb	a1,-1(a5)
8000191a:	fef61de3          	bne	a2,a5,80001914 <memset+0x14>
8000191e:	8082                	ret
80001920:	0ff5f593          	andi	a1,a1,255
80001924:	00859713          	slli	a4,a1,0x8
80001928:	8f4d                	or	a4,a4,a1
8000192a:	01071793          	slli	a5,a4,0x10
8000192e:	8f5d                	or	a4,a4,a5
80001930:	fec577e3          	bleu	a2,a0,8000191e <memset+0x1e>
80001934:	87aa                	mv	a5,a0
80001936:	0791                	addi	a5,a5,4
80001938:	fee7ae23          	sw	a4,-4(a5)
8000193c:	fec7ede3          	bltu	a5,a2,80001936 <memset+0x36>
80001940:	8082                	ret
80001942:	8082                	ret

80001944 <_init>:
80001944:	7135                	addi	sp,sp,-160
80001946:	cd22                	sw	s0,152(sp)
80001948:	cb26                	sw	s1,148(sp)
8000194a:	00020493          	mv	s1,tp
8000194e:	00020413          	mv	s0,tp
80001952:	40848433          	sub	s0,s1,s0
80001956:	8622                	mv	a2,s0
80001958:	c74e                	sw	s3,140(sp)
8000195a:	c552                	sw	s4,136(sp)
8000195c:	89aa                	mv	s3,a0
8000195e:	8a2e                	mv	s4,a1
80001960:	8512                	mv	a0,tp
80001962:	88018593          	addi	a1,gp,-1920 # 90000080 <_end>
80001966:	cf06                	sw	ra,156(sp)
80001968:	c94a                	sw	s2,144(sp)
8000196a:	c356                	sw	s5,132(sp)
8000196c:	8a92                	mv	s5,tp
8000196e:	3f81                	jal	800018be <memcpy>
80001970:	04420613          	addi	a2,tp,68 # 44 <_tbss_end>
80001974:	8e05                	sub	a2,a2,s1
80001976:	4581                	li	a1,0
80001978:	008a8533          	add	a0,s5,s0
8000197c:	3751                	jal	80001900 <memset>
8000197e:	85d2                	mv	a1,s4
80001980:	854e                	mv	a0,s3
80001982:	3541                	jal	80001802 <thread_entry>
80001984:	4581                	li	a1,0
80001986:	4501                	li	a0,0
80001988:	2a15                	jal	80001abc <main>
8000198a:	0fffe417          	auipc	s0,0xfffe
8000198e:	68640413          	addi	s0,s0,1670 # 90000010 <counters>
80001992:	4014                	lw	a3,0(s0)
80001994:	03f10913          	addi	s2,sp,63
80001998:	fc097913          	andi	s2,s2,-64
8000199c:	84aa                	mv	s1,a0
8000199e:	ea85                	bnez	a3,800019ce <_init+0x8a>
800019a0:	4054                	lw	a3,4(s0)
800019a2:	e299                	bnez	a3,800019a8 <_init+0x64>
800019a4:	8526                	mv	a0,s1
800019a6:	3bdd                	jal	8000179c <tohost_exit>
800019a8:	844a                	mv	s0,s2
800019aa:	0fffe997          	auipc	s3,0xfffe
800019ae:	65e98993          	addi	s3,s3,1630 # 90000008 <counter_names>
800019b2:	0049a603          	lw	a2,4(s3)
800019b6:	8522                	mv	a0,s0
800019b8:	00001597          	auipc	a1,0x1
800019bc:	ed058593          	addi	a1,a1,-304 # 80002888 <__umoddi3+0x51a>
800019c0:	35c1                	jal	80001880 <sprintf>
800019c2:	942a                	add	s0,s0,a0
800019c4:	fe8900e3          	beq	s2,s0,800019a4 <_init+0x60>
800019c8:	854a                	mv	a0,s2
800019ca:	3d21                	jal	800017e2 <printstr>
800019cc:	bfe1                	j	800019a4 <_init+0x60>
800019ce:	0fffe997          	auipc	s3,0xfffe
800019d2:	63a98993          	addi	s3,s3,1594 # 90000008 <counter_names>
800019d6:	0009a603          	lw	a2,0(s3)
800019da:	00001597          	auipc	a1,0x1
800019de:	eae58593          	addi	a1,a1,-338 # 80002888 <__umoddi3+0x51a>
800019e2:	854a                	mv	a0,s2
800019e4:	3d71                	jal	80001880 <sprintf>
800019e6:	4054                	lw	a3,4(s0)
800019e8:	00a90433          	add	s0,s2,a0
800019ec:	dee1                	beqz	a3,800019c4 <_init+0x80>
800019ee:	b7d1                	j	800019b2 <_init+0x6e>

800019f0 <strlen>:
800019f0:	00054783          	lbu	a5,0(a0)
800019f4:	872a                	mv	a4,a0
800019f6:	c799                	beqz	a5,80001a04 <strlen+0x14>
800019f8:	0505                	addi	a0,a0,1
800019fa:	00054783          	lbu	a5,0(a0)
800019fe:	ffed                	bnez	a5,800019f8 <strlen+0x8>
80001a00:	8d19                	sub	a0,a0,a4
80001a02:	8082                	ret
80001a04:	4501                	li	a0,0
80001a06:	8082                	ret

80001a08 <strnlen>:
80001a08:	872a                	mv	a4,a0
80001a0a:	cd91                	beqz	a1,80001a26 <strnlen+0x1e>
80001a0c:	00054783          	lbu	a5,0(a0)
80001a10:	cb99                	beqz	a5,80001a26 <strnlen+0x1e>
80001a12:	95aa                	add	a1,a1,a0
80001a14:	a021                	j	80001a1c <strnlen+0x14>
80001a16:	00054783          	lbu	a5,0(a0)
80001a1a:	c781                	beqz	a5,80001a22 <strnlen+0x1a>
80001a1c:	0505                	addi	a0,a0,1
80001a1e:	feb51ce3          	bne	a0,a1,80001a16 <strnlen+0xe>
80001a22:	8d19                	sub	a0,a0,a4
80001a24:	8082                	ret
80001a26:	4501                	li	a0,0
80001a28:	8082                	ret

80001a2a <strcmp>:
80001a2a:	0505                	addi	a0,a0,1
80001a2c:	fff54783          	lbu	a5,-1(a0)
80001a30:	0585                	addi	a1,a1,1
80001a32:	fff5c703          	lbu	a4,-1(a1)
80001a36:	c791                	beqz	a5,80001a42 <strcmp+0x18>
80001a38:	fee789e3          	beq	a5,a4,80001a2a <strcmp>
80001a3c:	40e78533          	sub	a0,a5,a4
80001a40:	8082                	ret
80001a42:	4781                	li	a5,0
80001a44:	bfe5                	j	80001a3c <strcmp+0x12>

80001a46 <strcpy>:
80001a46:	87aa                	mv	a5,a0
80001a48:	0585                	addi	a1,a1,1
80001a4a:	fff5c703          	lbu	a4,-1(a1)
80001a4e:	0785                	addi	a5,a5,1
80001a50:	fee78fa3          	sb	a4,-1(a5)
80001a54:	fb75                	bnez	a4,80001a48 <strcpy+0x2>
80001a56:	8082                	ret

80001a58 <atol>:
80001a58:	00054783          	lbu	a5,0(a0)
80001a5c:	02000713          	li	a4,32
80001a60:	00e79763          	bne	a5,a4,80001a6e <atol+0x16>
80001a64:	0505                	addi	a0,a0,1
80001a66:	00054783          	lbu	a5,0(a0)
80001a6a:	fee78de3          	beq	a5,a4,80001a64 <atol+0xc>
80001a6e:	fd578713          	addi	a4,a5,-43
80001a72:	0fd77713          	andi	a4,a4,253
80001a76:	c715                	beqz	a4,80001aa2 <atol+0x4a>
80001a78:	00054683          	lbu	a3,0(a0)
80001a7c:	87aa                	mv	a5,a0
80001a7e:	4601                	li	a2,0
80001a80:	ce85                	beqz	a3,80001ab8 <atol+0x60>
80001a82:	4501                	li	a0,0
80001a84:	0785                	addi	a5,a5,1
80001a86:	fd068593          	addi	a1,a3,-48
80001a8a:	00251713          	slli	a4,a0,0x2
80001a8e:	0007c683          	lbu	a3,0(a5)
80001a92:	953a                	add	a0,a0,a4
80001a94:	0506                	slli	a0,a0,0x1
80001a96:	952e                	add	a0,a0,a1
80001a98:	f6f5                	bnez	a3,80001a84 <atol+0x2c>
80001a9a:	c219                	beqz	a2,80001aa0 <atol+0x48>
80001a9c:	40a00533          	neg	a0,a0
80001aa0:	8082                	ret
80001aa2:	00154683          	lbu	a3,1(a0)
80001aa6:	fd378793          	addi	a5,a5,-45
80001aaa:	0017b613          	seqz	a2,a5
80001aae:	00150793          	addi	a5,a0,1
80001ab2:	fae1                	bnez	a3,80001a82 <atol+0x2a>
80001ab4:	4501                	li	a0,0
80001ab6:	b7d5                	j	80001a9a <atol+0x42>
80001ab8:	4501                	li	a0,0
80001aba:	8082                	ret

Disassembly of section .text.startup:

80001abc <main>:
80001abc:	471d                	li	a4,7
80001abe:	0fffe797          	auipc	a5,0xfffe
80001ac2:	55a78793          	addi	a5,a5,1370 # 90000018 <g_nodePool>
80001ac6:	0fffe697          	auipc	a3,0xfffe
80001aca:	52f6af23          	sw	a5,1342(a3) # 90000004 <g_nodeFreeList+0x4>
80001ace:	0fffe697          	auipc	a3,0xfffe
80001ad2:	52e6a923          	sw	a4,1330(a3) # 90000000 <g_nodeFreeList>
80001ad6:	8401a623          	sw	zero,-1972(gp) # 9000004c <g_nodePool+0x34>
80001ada:	06300693          	li	a3,99
80001ade:	84d1a423          	sw	a3,-1976(gp) # 90000048 <g_nodePool+0x30>
80001ae2:	0fffe697          	auipc	a3,0xfffe
80001ae6:	53e68693          	addi	a3,a3,1342 # 90000020 <g_nodePool+0x8>
80001aea:	0fffe617          	auipc	a2,0xfffe
80001aee:	52d62923          	sw	a3,1330(a2) # 9000001c <g_nodePool+0x4>
80001af2:	0fffe697          	auipc	a3,0xfffe
80001af6:	5206a323          	sw	zero,1318(a3) # 90000018 <g_nodePool>
80001afa:	0fffe697          	auipc	a3,0xfffe
80001afe:	52e68693          	addi	a3,a3,1326 # 90000028 <g_nodePool+0x10>
80001b02:	0fffe617          	auipc	a2,0xfffe
80001b06:	52d62123          	sw	a3,1314(a2) # 90000024 <g_nodePool+0xc>
80001b0a:	4685                	li	a3,1
80001b0c:	0fffe617          	auipc	a2,0xfffe
80001b10:	50d62a23          	sw	a3,1300(a2) # 90000020 <g_nodePool+0x8>
80001b14:	0fffe697          	auipc	a3,0xfffe
80001b18:	51c68693          	addi	a3,a3,1308 # 90000030 <g_nodePool+0x18>
80001b1c:	0fffe617          	auipc	a2,0xfffe
80001b20:	50d62823          	sw	a3,1296(a2) # 9000002c <g_nodePool+0x14>
80001b24:	4689                	li	a3,2
80001b26:	0fffe617          	auipc	a2,0xfffe
80001b2a:	50d62123          	sw	a3,1282(a2) # 90000028 <g_nodePool+0x10>
80001b2e:	0fffe697          	auipc	a3,0xfffe
80001b32:	50a68693          	addi	a3,a3,1290 # 90000038 <g_nodePool+0x20>
80001b36:	0fffe617          	auipc	a2,0xfffe
80001b3a:	4ed62f23          	sw	a3,1278(a2) # 90000034 <g_nodePool+0x1c>
80001b3e:	468d                	li	a3,3
80001b40:	0fffe617          	auipc	a2,0xfffe
80001b44:	4ed62823          	sw	a3,1264(a2) # 90000030 <g_nodePool+0x18>
80001b48:	84018693          	addi	a3,gp,-1984 # 90000040 <g_nodePool+0x28>
80001b4c:	0fffe617          	auipc	a2,0xfffe
80001b50:	4ed62823          	sw	a3,1264(a2) # 9000003c <g_nodePool+0x24>
80001b54:	4691                	li	a3,4
80001b56:	0fffe617          	auipc	a2,0xfffe
80001b5a:	4ed62123          	sw	a3,1250(a2) # 90000038 <g_nodePool+0x20>
80001b5e:	84818693          	addi	a3,gp,-1976 # 90000048 <g_nodePool+0x30>
80001b62:	7179                	addi	sp,sp,-48
80001b64:	84d1a223          	sw	a3,-1980(gp) # 90000044 <g_nodePool+0x2c>
80001b68:	4695                	li	a3,5
80001b6a:	84d1a023          	sw	a3,-1984(gp) # 90000040 <g_nodePool+0x28>
80001b6e:	d606                	sw	ra,44(sp)
80001b70:	c03a                	sw	a4,0(sp)
80001b72:	c202                	sw	zero,4(sp)
80001b74:	c402                	sw	zero,8(sp)
80001b76:	c602                	sw	zero,12(sp)
80001b78:	c802                	sw	zero,16(sp)
80001b7a:	ca02                	sw	zero,20(sp)
80001b7c:	cc02                	sw	zero,24(sp)
80001b7e:	ce02                	sw	zero,28(sp)
80001b80:	4681                	li	a3,0
80001b82:	a011                	j	80001b86 <main+0xca>
80001b84:	87c2                	mv	a5,a6
80001b86:	0047a803          	lw	a6,4(a5)
80001b8a:	c398                	sw	a4,0(a5)
80001b8c:	c3d4                	sw	a3,4(a5)
80001b8e:	177d                	addi	a4,a4,-1
80001b90:	86be                	mv	a3,a5
80001b92:	fb6d                	bnez	a4,80001b84 <main+0xc8>
80001b94:	459d                	li	a1,7
80001b96:	0838                	addi	a4,sp,24
80001b98:	0814                	addi	a3,sp,16
80001b9a:	0030                	addi	a2,sp,8
80001b9c:	850a                	mv	a0,sp
80001b9e:	c63e                	sw	a5,12(sp)
80001ba0:	479d                	li	a5,7
80001ba2:	c43e                	sw	a5,8(sp)
80001ba4:	0fffe897          	auipc	a7,0xfffe
80001ba8:	4708a023          	sw	a6,1120(a7) # 90000004 <g_nodeFreeList+0x4>
80001bac:	e74ff0ef          	jal	ra,80001220 <towers_solve_h>
80001bb0:	850a                	mv	a0,sp
80001bb2:	d9cff0ef          	jal	ra,8000114e <towers_clear>
80001bb6:	4505                	li	a0,1
80001bb8:	3e59                	jal	8000174e <setStats>
80001bba:	4582                	lw	a1,0(sp)
80001bbc:	0838                	addi	a4,sp,24
80001bbe:	0814                	addi	a3,sp,16
80001bc0:	0030                	addi	a2,sp,8
80001bc2:	850a                	mv	a0,sp
80001bc4:	e5cff0ef          	jal	ra,80001220 <towers_solve_h>
80001bc8:	4501                	li	a0,0
80001bca:	3651                	jal	8000174e <setStats>
80001bcc:	47a2                	lw	a5,8(sp)
80001bce:	4509                	li	a0,2
80001bd0:	e799                	bnez	a5,80001bde <main+0x122>
80001bd2:	47c2                	lw	a5,16(sp)
80001bd4:	450d                	li	a0,3
80001bd6:	e781                	bnez	a5,80001bde <main+0x122>
80001bd8:	850a                	mv	a0,sp
80001bda:	c6eff0ef          	jal	ra,80001048 <towers_verify.part.0>
80001bde:	50b2                	lw	ra,44(sp)
80001be0:	6145                	addi	sp,sp,48
80001be2:	8082                	ret
80001be4:	1141                	addi	sp,sp,-16
80001be6:	00001517          	auipc	a0,0x1
80001bea:	c8a50513          	addi	a0,a0,-886 # 80002870 <__umoddi3+0x502>
80001bee:	c606                	sw	ra,12(sp)
80001bf0:	3ecd                	jal	800017e2 <printstr>
80001bf2:	40b2                	lw	ra,12(sp)
80001bf4:	557d                	li	a0,-1
80001bf6:	0141                	addi	sp,sp,16
80001bf8:	8082                	ret

Disassembly of section .text.__moddi3:

80001bfa <__moddi3>:
80001bfa:	4801                	li	a6,0
80001bfc:	1205c163          	bltz	a1,80001d1e <__moddi3+0x124>
80001c00:	0006d963          	bgez	a3,80001c12 <__moddi3+0x18>
80001c04:	40c00633          	neg	a2,a2
80001c08:	00c037b3          	snez	a5,a2
80001c0c:	40d006b3          	neg	a3,a3
80001c10:	8e9d                	sub	a3,a3,a5
80001c12:	87b6                	mv	a5,a3
80001c14:	88b2                	mv	a7,a2
80001c16:	8e2a                	mv	t3,a0
80001c18:	8eae                	mv	t4,a1
80001c1a:	eacd                	bnez	a3,80001ccc <__moddi3+0xd2>
80001c1c:	10c5fa63          	bleu	a2,a1,80001d30 <__moddi3+0x136>
80001c20:	6741                	lui	a4,0x10
80001c22:	1ce66063          	bltu	a2,a4,80001de2 <__moddi3+0x1e8>
80001c26:	010007b7          	lui	a5,0x1000
80001c2a:	36f66f63          	bltu	a2,a5,80001fa8 <__moddi3+0x3ae>
80001c2e:	01865693          	srli	a3,a2,0x18
80001c32:	47e1                	li	a5,24
80001c34:	00001717          	auipc	a4,0x1
80001c38:	cb070713          	addi	a4,a4,-848 # 800028e4 <__clz_tab>
80001c3c:	9736                	add	a4,a4,a3
80001c3e:	00074683          	lbu	a3,0(a4)
80001c42:	02000313          	li	t1,32
80001c46:	97b6                	add	a5,a5,a3
80001c48:	40f30333          	sub	t1,t1,a5
80001c4c:	00030c63          	beqz	t1,80001c64 <__moddi3+0x6a>
80001c50:	006595b3          	sll	a1,a1,t1
80001c54:	00f557b3          	srl	a5,a0,a5
80001c58:	006618b3          	sll	a7,a2,t1
80001c5c:	00b7eeb3          	or	t4,a5,a1
80001c60:	00651e33          	sll	t3,a0,t1
80001c64:	0108d613          	srli	a2,a7,0x10
80001c68:	02ced7b3          	divu	a5,t4,a2
80001c6c:	01089513          	slli	a0,a7,0x10
80001c70:	8141                	srli	a0,a0,0x10
80001c72:	010e5713          	srli	a4,t3,0x10
80001c76:	02cef6b3          	remu	a3,t4,a2
80001c7a:	02f507b3          	mul	a5,a0,a5
80001c7e:	06c2                	slli	a3,a3,0x10
80001c80:	8f55                	or	a4,a4,a3
80001c82:	00f77863          	bleu	a5,a4,80001c92 <__moddi3+0x98>
80001c86:	9746                	add	a4,a4,a7
80001c88:	01176563          	bltu	a4,a7,80001c92 <__moddi3+0x98>
80001c8c:	00f77363          	bleu	a5,a4,80001c92 <__moddi3+0x98>
80001c90:	9746                	add	a4,a4,a7
80001c92:	8f1d                	sub	a4,a4,a5
80001c94:	02c756b3          	divu	a3,a4,a2
80001c98:	010e1793          	slli	a5,t3,0x10
80001c9c:	83c1                	srli	a5,a5,0x10
80001c9e:	02c77733          	remu	a4,a4,a2
80001ca2:	02d50533          	mul	a0,a0,a3
80001ca6:	0742                	slli	a4,a4,0x10
80001ca8:	8fd9                	or	a5,a5,a4
80001caa:	10a7e763          	bltu	a5,a0,80001db8 <__moddi3+0x1be>
80001cae:	40a78533          	sub	a0,a5,a0
80001cb2:	00655533          	srl	a0,a0,t1
80001cb6:	4581                	li	a1,0
80001cb8:	00080963          	beqz	a6,80001cca <__moddi3+0xd0>
80001cbc:	40a00533          	neg	a0,a0
80001cc0:	00a037b3          	snez	a5,a0
80001cc4:	40b005b3          	neg	a1,a1
80001cc8:	8d9d                	sub	a1,a1,a5
80001cca:	8082                	ret
80001ccc:	fed5e6e3          	bltu	a1,a3,80001cb8 <__moddi3+0xbe>
80001cd0:	67c1                	lui	a5,0x10
80001cd2:	12f6e163          	bltu	a3,a5,80001df4 <__moddi3+0x1fa>
80001cd6:	010007b7          	lui	a5,0x1000
80001cda:	2cf6e363          	bltu	a3,a5,80001fa0 <__moddi3+0x3a6>
80001cde:	0186d893          	srli	a7,a3,0x18
80001ce2:	4761                	li	a4,24
80001ce4:	00001797          	auipc	a5,0x1
80001ce8:	c0078793          	addi	a5,a5,-1024 # 800028e4 <__clz_tab>
80001cec:	97c6                	add	a5,a5,a7
80001cee:	0007cf03          	lbu	t5,0(a5)
80001cf2:	02000e13          	li	t3,32
80001cf6:	9f3a                	add	t5,t5,a4
80001cf8:	41ee0e33          	sub	t3,t3,t5
80001cfc:	180e1063          	bnez	t3,80001e7c <__moddi3+0x282>
80001d00:	00b6e563          	bltu	a3,a1,80001d0a <__moddi3+0x110>
80001d04:	88aa                	mv	a7,a0
80001d06:	00c56963          	bltu	a0,a2,80001d18 <__moddi3+0x11e>
80001d0a:	40c508b3          	sub	a7,a0,a2
80001d0e:	8d95                	sub	a1,a1,a3
80001d10:	011536b3          	sltu	a3,a0,a7
80001d14:	40d58eb3          	sub	t4,a1,a3
80001d18:	8546                	mv	a0,a7
80001d1a:	85f6                	mv	a1,t4
80001d1c:	bf71                	j	80001cb8 <__moddi3+0xbe>
80001d1e:	40a00533          	neg	a0,a0
80001d22:	00a037b3          	snez	a5,a0
80001d26:	40b005b3          	neg	a1,a1
80001d2a:	8d9d                	sub	a1,a1,a5
80001d2c:	587d                	li	a6,-1
80001d2e:	bdc9                	j	80001c00 <__moddi3+0x6>
80001d30:	e601                	bnez	a2,80001d38 <__moddi3+0x13e>
80001d32:	4885                	li	a7,1
80001d34:	02d8d8b3          	divu	a7,a7,a3
80001d38:	6741                	lui	a4,0x10
80001d3a:	08e8eb63          	bltu	a7,a4,80001dd0 <__moddi3+0x1d6>
80001d3e:	010007b7          	lui	a5,0x1000
80001d42:	24f8eb63          	bltu	a7,a5,80001f98 <__moddi3+0x39e>
80001d46:	0188d693          	srli	a3,a7,0x18
80001d4a:	47e1                	li	a5,24
80001d4c:	00001717          	auipc	a4,0x1
80001d50:	b9870713          	addi	a4,a4,-1128 # 800028e4 <__clz_tab>
80001d54:	9736                	add	a4,a4,a3
80001d56:	00074703          	lbu	a4,0(a4)
80001d5a:	02000313          	li	t1,32
80001d5e:	97ba                	add	a5,a5,a4
80001d60:	40f30333          	sub	t1,t1,a5
80001d64:	0a031063          	bnez	t1,80001e04 <__moddi3+0x20a>
80001d68:	01089e93          	slli	t4,a7,0x10
80001d6c:	411585b3          	sub	a1,a1,a7
80001d70:	0108d613          	srli	a2,a7,0x10
80001d74:	010ede93          	srli	t4,t4,0x10
80001d78:	010e5713          	srli	a4,t3,0x10
80001d7c:	02c5d6b3          	divu	a3,a1,a2
80001d80:	02c5f5b3          	remu	a1,a1,a2
80001d84:	03d686b3          	mul	a3,a3,t4
80001d88:	05c2                	slli	a1,a1,0x10
80001d8a:	8f4d                	or	a4,a4,a1
80001d8c:	00d77763          	bleu	a3,a4,80001d9a <__moddi3+0x1a0>
80001d90:	9746                	add	a4,a4,a7
80001d92:	01176463          	bltu	a4,a7,80001d9a <__moddi3+0x1a0>
80001d96:	22d76463          	bltu	a4,a3,80001fbe <__moddi3+0x3c4>
80001d9a:	8f15                	sub	a4,a4,a3
80001d9c:	02c75533          	divu	a0,a4,a2
80001da0:	0e42                	slli	t3,t3,0x10
80001da2:	010e5e13          	srli	t3,t3,0x10
80001da6:	02c77733          	remu	a4,a4,a2
80001daa:	03d50533          	mul	a0,a0,t4
80001dae:	0742                	slli	a4,a4,0x10
80001db0:	01c767b3          	or	a5,a4,t3
80001db4:	00a7f863          	bleu	a0,a5,80001dc4 <__moddi3+0x1ca>
80001db8:	97c6                	add	a5,a5,a7
80001dba:	0117e563          	bltu	a5,a7,80001dc4 <__moddi3+0x1ca>
80001dbe:	00a7f363          	bleu	a0,a5,80001dc4 <__moddi3+0x1ca>
80001dc2:	97c6                	add	a5,a5,a7
80001dc4:	40a78533          	sub	a0,a5,a0
80001dc8:	00655533          	srl	a0,a0,t1
80001dcc:	4581                	li	a1,0
80001dce:	b5ed                	j	80001cb8 <__moddi3+0xbe>
80001dd0:	0ff00713          	li	a4,255
80001dd4:	86c6                	mv	a3,a7
80001dd6:	f7177be3          	bleu	a7,a4,80001d4c <__moddi3+0x152>
80001dda:	0088d693          	srli	a3,a7,0x8
80001dde:	47a1                	li	a5,8
80001de0:	b7b5                	j	80001d4c <__moddi3+0x152>
80001de2:	0ff00713          	li	a4,255
80001de6:	86b2                	mv	a3,a2
80001de8:	e4c776e3          	bleu	a2,a4,80001c34 <__moddi3+0x3a>
80001dec:	00865693          	srli	a3,a2,0x8
80001df0:	47a1                	li	a5,8
80001df2:	b589                	j	80001c34 <__moddi3+0x3a>
80001df4:	0ff00793          	li	a5,255
80001df8:	1ad7fc63          	bleu	a3,a5,80001fb0 <__moddi3+0x3b6>
80001dfc:	0086d893          	srli	a7,a3,0x8
80001e00:	4721                	li	a4,8
80001e02:	b5cd                	j	80001ce4 <__moddi3+0xea>
80001e04:	006898b3          	sll	a7,a7,t1
80001e08:	00f5d733          	srl	a4,a1,a5
80001e0c:	0108d613          	srli	a2,a7,0x10
80001e10:	02c756b3          	divu	a3,a4,a2
80001e14:	01089e93          	slli	t4,a7,0x10
80001e18:	00f557b3          	srl	a5,a0,a5
80001e1c:	010ede93          	srli	t4,t4,0x10
80001e20:	006595b3          	sll	a1,a1,t1
80001e24:	8ddd                	or	a1,a1,a5
80001e26:	0105df13          	srli	t5,a1,0x10
80001e2a:	00651e33          	sll	t3,a0,t1
80001e2e:	02c77733          	remu	a4,a4,a2
80001e32:	02de87b3          	mul	a5,t4,a3
80001e36:	01071693          	slli	a3,a4,0x10
80001e3a:	01e6e6b3          	or	a3,a3,t5
80001e3e:	00f6f863          	bleu	a5,a3,80001e4e <__moddi3+0x254>
80001e42:	96c6                	add	a3,a3,a7
80001e44:	0116e563          	bltu	a3,a7,80001e4e <__moddi3+0x254>
80001e48:	00f6f363          	bleu	a5,a3,80001e4e <__moddi3+0x254>
80001e4c:	96c6                	add	a3,a3,a7
80001e4e:	8e9d                	sub	a3,a3,a5
80001e50:	02c6d733          	divu	a4,a3,a2
80001e54:	01059793          	slli	a5,a1,0x10
80001e58:	83c1                	srli	a5,a5,0x10
80001e5a:	02c6f6b3          	remu	a3,a3,a2
80001e5e:	02ee8733          	mul	a4,t4,a4
80001e62:	01069593          	slli	a1,a3,0x10
80001e66:	8ddd                	or	a1,a1,a5
80001e68:	00e5f863          	bleu	a4,a1,80001e78 <__moddi3+0x27e>
80001e6c:	95c6                	add	a1,a1,a7
80001e6e:	0115e563          	bltu	a1,a7,80001e78 <__moddi3+0x27e>
80001e72:	00e5f363          	bleu	a4,a1,80001e78 <__moddi3+0x27e>
80001e76:	95c6                	add	a1,a1,a7
80001e78:	8d99                	sub	a1,a1,a4
80001e7a:	bdfd                	j	80001d78 <__moddi3+0x17e>
80001e7c:	01e65333          	srl	t1,a2,t5
80001e80:	01c696b3          	sll	a3,a3,t3
80001e84:	00d366b3          	or	a3,t1,a3
80001e88:	01e5d8b3          	srl	a7,a1,t5
80001e8c:	0106d713          	srli	a4,a3,0x10
80001e90:	02e8d333          	divu	t1,a7,a4
80001e94:	01069f93          	slli	t6,a3,0x10
80001e98:	010fdf93          	srli	t6,t6,0x10
80001e9c:	01e557b3          	srl	a5,a0,t5
80001ea0:	01c595b3          	sll	a1,a1,t3
80001ea4:	8ddd                	or	a1,a1,a5
80001ea6:	0105d293          	srli	t0,a1,0x10
80001eaa:	01c617b3          	sll	a5,a2,t3
80001eae:	01c51533          	sll	a0,a0,t3
80001eb2:	02e8f8b3          	remu	a7,a7,a4
80001eb6:	026f8eb3          	mul	t4,t6,t1
80001eba:	08c2                	slli	a7,a7,0x10
80001ebc:	0058e633          	or	a2,a7,t0
80001ec0:	01d67b63          	bleu	t4,a2,80001ed6 <__moddi3+0x2dc>
80001ec4:	9636                	add	a2,a2,a3
80001ec6:	fff30893          	addi	a7,t1,-1
80001eca:	0ed66863          	bltu	a2,a3,80001fba <__moddi3+0x3c0>
80001ece:	0fd67663          	bleu	t4,a2,80001fba <__moddi3+0x3c0>
80001ed2:	1379                	addi	t1,t1,-2
80001ed4:	9636                	add	a2,a2,a3
80001ed6:	41d60633          	sub	a2,a2,t4
80001eda:	02e658b3          	divu	a7,a2,a4
80001ede:	05c2                	slli	a1,a1,0x10
80001ee0:	81c1                	srli	a1,a1,0x10
80001ee2:	02e67633          	remu	a2,a2,a4
80001ee6:	031f8fb3          	mul	t6,t6,a7
80001eea:	01061713          	slli	a4,a2,0x10
80001eee:	8f4d                	or	a4,a4,a1
80001ef0:	01f77b63          	bleu	t6,a4,80001f06 <__moddi3+0x30c>
80001ef4:	9736                	add	a4,a4,a3
80001ef6:	fff88613          	addi	a2,a7,-1
80001efa:	0ad76e63          	bltu	a4,a3,80001fb6 <__moddi3+0x3bc>
80001efe:	0bf77c63          	bleu	t6,a4,80001fb6 <__moddi3+0x3bc>
80001f02:	18f9                	addi	a7,a7,-2
80001f04:	9736                	add	a4,a4,a3
80001f06:	0342                	slli	t1,t1,0x10
80001f08:	63c1                	lui	t2,0x10
80001f0a:	01136333          	or	t1,t1,a7
80001f0e:	fff38893          	addi	a7,t2,-1 # ffff <_tbss_end+0xffbb>
80001f12:	01137eb3          	and	t4,t1,a7
80001f16:	0107d593          	srli	a1,a5,0x10
80001f1a:	01035313          	srli	t1,t1,0x10
80001f1e:	0117f8b3          	and	a7,a5,a7
80001f22:	031e82b3          	mul	t0,t4,a7
80001f26:	41f70733          	sub	a4,a4,t6
80001f2a:	031308b3          	mul	a7,t1,a7
80001f2e:	0102d613          	srli	a2,t0,0x10
80001f32:	02be8eb3          	mul	t4,t4,a1
80001f36:	9ec6                	add	t4,t4,a7
80001f38:	9676                	add	a2,a2,t4
80001f3a:	02b30333          	mul	t1,t1,a1
80001f3e:	01167363          	bleu	a7,a2,80001f44 <__moddi3+0x34a>
80001f42:	931e                	add	t1,t1,t2
80001f44:	68c1                	lui	a7,0x10
80001f46:	18fd                	addi	a7,a7,-1
80001f48:	01065593          	srli	a1,a2,0x10
80001f4c:	01167633          	and	a2,a2,a7
80001f50:	0642                	slli	a2,a2,0x10
80001f52:	0112f2b3          	and	t0,t0,a7
80001f56:	932e                	add	t1,t1,a1
80001f58:	9616                	add	a2,a2,t0
80001f5a:	00676863          	bltu	a4,t1,80001f6a <__moddi3+0x370>
80001f5e:	06670263          	beq	a4,t1,80001fc2 <__moddi3+0x3c8>
80001f62:	406705b3          	sub	a1,a4,t1
80001f66:	87b2                	mv	a5,a2
80001f68:	a811                	j	80001f7c <__moddi3+0x382>
80001f6a:	40f607b3          	sub	a5,a2,a5
80001f6e:	40d305b3          	sub	a1,t1,a3
80001f72:	00f63633          	sltu	a2,a2,a5
80001f76:	8d91                	sub	a1,a1,a2
80001f78:	40b705b3          	sub	a1,a4,a1
80001f7c:	40f507b3          	sub	a5,a0,a5
80001f80:	00f53533          	sltu	a0,a0,a5
80001f84:	8d89                	sub	a1,a1,a0
80001f86:	01e59f33          	sll	t5,a1,t5
80001f8a:	01c7d533          	srl	a0,a5,t3
80001f8e:	00af6533          	or	a0,t5,a0
80001f92:	01c5d5b3          	srl	a1,a1,t3
80001f96:	b30d                	j	80001cb8 <__moddi3+0xbe>
80001f98:	0108d693          	srli	a3,a7,0x10
80001f9c:	47c1                	li	a5,16
80001f9e:	b37d                	j	80001d4c <__moddi3+0x152>
80001fa0:	0106d893          	srli	a7,a3,0x10
80001fa4:	4741                	li	a4,16
80001fa6:	bb3d                	j	80001ce4 <__moddi3+0xea>
80001fa8:	01065693          	srli	a3,a2,0x10
80001fac:	47c1                	li	a5,16
80001fae:	b159                	j	80001c34 <__moddi3+0x3a>
80001fb0:	88b6                	mv	a7,a3
80001fb2:	4701                	li	a4,0
80001fb4:	bb05                	j	80001ce4 <__moddi3+0xea>
80001fb6:	88b2                	mv	a7,a2
80001fb8:	b7b9                	j	80001f06 <__moddi3+0x30c>
80001fba:	8346                	mv	t1,a7
80001fbc:	bf29                	j	80001ed6 <__moddi3+0x2dc>
80001fbe:	9746                	add	a4,a4,a7
80001fc0:	bbe9                	j	80001d9a <__moddi3+0x1a0>
80001fc2:	fac564e3          	bltu	a0,a2,80001f6a <__moddi3+0x370>
80001fc6:	87b2                	mv	a5,a2
80001fc8:	4581                	li	a1,0
80001fca:	bf4d                	j	80001f7c <__moddi3+0x382>

Disassembly of section .text.__udivdi3:

80001fcc <__udivdi3>:
80001fcc:	87b6                	mv	a5,a3
80001fce:	88b2                	mv	a7,a2
80001fd0:	832a                	mv	t1,a0
80001fd2:	882e                	mv	a6,a1
80001fd4:	eacd                	bnez	a3,80002086 <__udivdi3+0xba>
80001fd6:	0ec5fa63          	bleu	a2,a1,800020ca <__udivdi3+0xfe>
80001fda:	6741                	lui	a4,0x10
80001fdc:	1ae66e63          	bltu	a2,a4,80002198 <__udivdi3+0x1cc>
80001fe0:	010007b7          	lui	a5,0x1000
80001fe4:	34f66a63          	bltu	a2,a5,80002338 <__udivdi3+0x36c>
80001fe8:	01865693          	srli	a3,a2,0x18
80001fec:	47e1                	li	a5,24
80001fee:	00001717          	auipc	a4,0x1
80001ff2:	8f670713          	addi	a4,a4,-1802 # 800028e4 <__clz_tab>
80001ff6:	9736                	add	a4,a4,a3
80001ff8:	00074703          	lbu	a4,0(a4)
80001ffc:	97ba                	add	a5,a5,a4
80001ffe:	02000713          	li	a4,32
80002002:	8f1d                	sub	a4,a4,a5
80002004:	cb19                	beqz	a4,8000201a <__udivdi3+0x4e>
80002006:	00e59833          	sll	a6,a1,a4
8000200a:	00f557b3          	srl	a5,a0,a5
8000200e:	00e618b3          	sll	a7,a2,a4
80002012:	0107e833          	or	a6,a5,a6
80002016:	00e51333          	sll	t1,a0,a4
8000201a:	0108d613          	srli	a2,a7,0x10
8000201e:	02c85533          	divu	a0,a6,a2
80002022:	01089693          	slli	a3,a7,0x10
80002026:	82c1                	srli	a3,a3,0x10
80002028:	01035793          	srli	a5,t1,0x10
8000202c:	02c87733          	remu	a4,a6,a2
80002030:	02a685b3          	mul	a1,a3,a0
80002034:	0742                	slli	a4,a4,0x10
80002036:	00f76833          	or	a6,a4,a5
8000203a:	00b87a63          	bleu	a1,a6,8000204e <__udivdi3+0x82>
8000203e:	9846                	add	a6,a6,a7
80002040:	fff50793          	addi	a5,a0,-1
80002044:	01186463          	bltu	a6,a7,8000204c <__udivdi3+0x80>
80002048:	30b86d63          	bltu	a6,a1,80002362 <__udivdi3+0x396>
8000204c:	853e                	mv	a0,a5
8000204e:	40b80833          	sub	a6,a6,a1
80002052:	02c85733          	divu	a4,a6,a2
80002056:	0342                	slli	t1,t1,0x10
80002058:	01035313          	srli	t1,t1,0x10
8000205c:	02c87833          	remu	a6,a6,a2
80002060:	02e686b3          	mul	a3,a3,a4
80002064:	0842                	slli	a6,a6,0x10
80002066:	00686833          	or	a6,a6,t1
8000206a:	00d87a63          	bleu	a3,a6,8000207e <__udivdi3+0xb2>
8000206e:	9846                	add	a6,a6,a7
80002070:	fff70793          	addi	a5,a4,-1
80002074:	13186b63          	bltu	a6,a7,800021aa <__udivdi3+0x1de>
80002078:	1779                	addi	a4,a4,-2
8000207a:	12d87863          	bleu	a3,a6,800021aa <__udivdi3+0x1de>
8000207e:	0542                	slli	a0,a0,0x10
80002080:	8d59                	or	a0,a0,a4
80002082:	4581                	li	a1,0
80002084:	8082                	ret
80002086:	0ed5e563          	bltu	a1,a3,80002170 <__udivdi3+0x1a4>
8000208a:	67c1                	lui	a5,0x10
8000208c:	0ef6e563          	bltu	a3,a5,80002176 <__udivdi3+0x1aa>
80002090:	010007b7          	lui	a5,0x1000
80002094:	28f6e763          	bltu	a3,a5,80002322 <__udivdi3+0x356>
80002098:	0186d713          	srli	a4,a3,0x18
8000209c:	4861                	li	a6,24
8000209e:	00001797          	auipc	a5,0x1
800020a2:	84678793          	addi	a5,a5,-1978 # 800028e4 <__clz_tab>
800020a6:	97ba                	add	a5,a5,a4
800020a8:	0007c703          	lbu	a4,0(a5)
800020ac:	02000793          	li	a5,32
800020b0:	9742                	add	a4,a4,a6
800020b2:	40e78333          	sub	t1,a5,a4
800020b6:	0e031e63          	bnez	t1,800021b2 <__udivdi3+0x1e6>
800020ba:	28b6e363          	bltu	a3,a1,80002340 <__udivdi3+0x374>
800020be:	00c53533          	sltu	a0,a0,a2
800020c2:	00154513          	xori	a0,a0,1
800020c6:	4581                	li	a1,0
800020c8:	8082                	ret
800020ca:	e601                	bnez	a2,800020d2 <__udivdi3+0x106>
800020cc:	4705                	li	a4,1
800020ce:	02c758b3          	divu	a7,a4,a2
800020d2:	6741                	lui	a4,0x10
800020d4:	0ae8e963          	bltu	a7,a4,80002186 <__udivdi3+0x1ba>
800020d8:	010007b7          	lui	a5,0x1000
800020dc:	24f8ea63          	bltu	a7,a5,80002330 <__udivdi3+0x364>
800020e0:	0188d693          	srli	a3,a7,0x18
800020e4:	47e1                	li	a5,24
800020e6:	00000717          	auipc	a4,0x0
800020ea:	7fe70713          	addi	a4,a4,2046 # 800028e4 <__clz_tab>
800020ee:	9736                	add	a4,a4,a3
800020f0:	00074683          	lbu	a3,0(a4)
800020f4:	02000f93          	li	t6,32
800020f8:	96be                	add	a3,a3,a5
800020fa:	40df8fb3          	sub	t6,t6,a3
800020fe:	160f9e63          	bnez	t6,8000227a <__udivdi3+0x2ae>
80002102:	01089e93          	slli	t4,a7,0x10
80002106:	41158733          	sub	a4,a1,a7
8000210a:	0108df13          	srli	t5,a7,0x10
8000210e:	010ede93          	srli	t4,t4,0x10
80002112:	4585                	li	a1,1
80002114:	01035793          	srli	a5,t1,0x10
80002118:	03e75533          	divu	a0,a4,t5
8000211c:	03e77733          	remu	a4,a4,t5
80002120:	03d506b3          	mul	a3,a0,t4
80002124:	0742                	slli	a4,a4,0x10
80002126:	8fd9                	or	a5,a5,a4
80002128:	00d7fa63          	bleu	a3,a5,8000213c <__udivdi3+0x170>
8000212c:	97c6                	add	a5,a5,a7
8000212e:	fff50713          	addi	a4,a0,-1
80002132:	0117e463          	bltu	a5,a7,8000213a <__udivdi3+0x16e>
80002136:	22d7e963          	bltu	a5,a3,80002368 <__udivdi3+0x39c>
8000213a:	853a                	mv	a0,a4
8000213c:	8f95                	sub	a5,a5,a3
8000213e:	03e7d633          	divu	a2,a5,t5
80002142:	0342                	slli	t1,t1,0x10
80002144:	01035313          	srli	t1,t1,0x10
80002148:	03e7f7b3          	remu	a5,a5,t5
8000214c:	03d60eb3          	mul	t4,a2,t4
80002150:	07c2                	slli	a5,a5,0x10
80002152:	0067e7b3          	or	a5,a5,t1
80002156:	01d7fa63          	bleu	t4,a5,8000216a <__udivdi3+0x19e>
8000215a:	97c6                	add	a5,a5,a7
8000215c:	fff60713          	addi	a4,a2,-1
80002160:	0517e763          	bltu	a5,a7,800021ae <__udivdi3+0x1e2>
80002164:	1679                	addi	a2,a2,-2
80002166:	05d7f463          	bleu	t4,a5,800021ae <__udivdi3+0x1e2>
8000216a:	0542                	slli	a0,a0,0x10
8000216c:	8d51                	or	a0,a0,a2
8000216e:	8082                	ret
80002170:	4581                	li	a1,0
80002172:	4501                	li	a0,0
80002174:	8082                	ret
80002176:	0ff00793          	li	a5,255
8000217a:	1ad7f863          	bleu	a3,a5,8000232a <__udivdi3+0x35e>
8000217e:	0086d713          	srli	a4,a3,0x8
80002182:	4821                	li	a6,8
80002184:	bf29                	j	8000209e <__udivdi3+0xd2>
80002186:	0ff00713          	li	a4,255
8000218a:	86c6                	mv	a3,a7
8000218c:	f5177de3          	bleu	a7,a4,800020e6 <__udivdi3+0x11a>
80002190:	0088d693          	srli	a3,a7,0x8
80002194:	47a1                	li	a5,8
80002196:	bf81                	j	800020e6 <__udivdi3+0x11a>
80002198:	0ff00713          	li	a4,255
8000219c:	86b2                	mv	a3,a2
8000219e:	e4c778e3          	bleu	a2,a4,80001fee <__udivdi3+0x22>
800021a2:	00865693          	srli	a3,a2,0x8
800021a6:	47a1                	li	a5,8
800021a8:	b599                	j	80001fee <__udivdi3+0x22>
800021aa:	873e                	mv	a4,a5
800021ac:	bdc9                	j	8000207e <__udivdi3+0xb2>
800021ae:	863a                	mv	a2,a4
800021b0:	bf6d                	j	8000216a <__udivdi3+0x19e>
800021b2:	00e657b3          	srl	a5,a2,a4
800021b6:	006696b3          	sll	a3,a3,t1
800021ba:	8edd                	or	a3,a3,a5
800021bc:	00e5d8b3          	srl	a7,a1,a4
800021c0:	0106df13          	srli	t5,a3,0x10
800021c4:	03e8deb3          	divu	t4,a7,t5
800021c8:	01069e13          	slli	t3,a3,0x10
800021cc:	010e5e13          	srli	t3,t3,0x10
800021d0:	00659833          	sll	a6,a1,t1
800021d4:	00e55733          	srl	a4,a0,a4
800021d8:	01076833          	or	a6,a4,a6
800021dc:	01085793          	srli	a5,a6,0x10
800021e0:	00661633          	sll	a2,a2,t1
800021e4:	03e8f8b3          	remu	a7,a7,t5
800021e8:	03de05b3          	mul	a1,t3,t4
800021ec:	08c2                	slli	a7,a7,0x10
800021ee:	00f8e7b3          	or	a5,a7,a5
800021f2:	00b7f863          	bleu	a1,a5,80002202 <__udivdi3+0x236>
800021f6:	97b6                	add	a5,a5,a3
800021f8:	fffe8713          	addi	a4,t4,-1
800021fc:	14d7fa63          	bleu	a3,a5,80002350 <__udivdi3+0x384>
80002200:	8eba                	mv	t4,a4
80002202:	8f8d                	sub	a5,a5,a1
80002204:	03e7d733          	divu	a4,a5,t5
80002208:	0842                	slli	a6,a6,0x10
8000220a:	01085813          	srli	a6,a6,0x10
8000220e:	03e7f7b3          	remu	a5,a5,t5
80002212:	02ee08b3          	mul	a7,t3,a4
80002216:	07c2                	slli	a5,a5,0x10
80002218:	0107e5b3          	or	a1,a5,a6
8000221c:	0115f863          	bleu	a7,a1,8000222c <__udivdi3+0x260>
80002220:	95b6                	add	a1,a1,a3
80002222:	fff70793          	addi	a5,a4,-1
80002226:	12d5f063          	bleu	a3,a1,80002346 <__udivdi3+0x37a>
8000222a:	873e                	mv	a4,a5
8000222c:	0ec2                	slli	t4,t4,0x10
8000222e:	6f41                	lui	t5,0x10
80002230:	00eeeeb3          	or	t4,t4,a4
80002234:	ffff0793          	addi	a5,t5,-1 # ffff <_tbss_end+0xffbb>
80002238:	00fef733          	and	a4,t4,a5
8000223c:	010ed813          	srli	a6,t4,0x10
80002240:	8ff1                	and	a5,a5,a2
80002242:	8241                	srli	a2,a2,0x10
80002244:	02f70e33          	mul	t3,a4,a5
80002248:	411585b3          	sub	a1,a1,a7
8000224c:	02c70733          	mul	a4,a4,a2
80002250:	010e5693          	srli	a3,t3,0x10
80002254:	02f807b3          	mul	a5,a6,a5
80002258:	973e                	add	a4,a4,a5
8000225a:	9736                	add	a4,a4,a3
8000225c:	02c80633          	mul	a2,a6,a2
80002260:	00f77363          	bleu	a5,a4,80002266 <__udivdi3+0x29a>
80002264:	967a                	add	a2,a2,t5
80002266:	01075813          	srli	a6,a4,0x10
8000226a:	9642                	add	a2,a2,a6
8000226c:	0ac5e763          	bltu	a1,a2,8000231a <__udivdi3+0x34e>
80002270:	08c58a63          	beq	a1,a2,80002304 <__udivdi3+0x338>
80002274:	8576                	mv	a0,t4
80002276:	4581                	li	a1,0
80002278:	8082                	ret
8000227a:	01f898b3          	sll	a7,a7,t6
8000227e:	00d5d633          	srl	a2,a1,a3
80002282:	0108df13          	srli	t5,a7,0x10
80002286:	03e65e33          	divu	t3,a2,t5
8000228a:	00d557b3          	srl	a5,a0,a3
8000228e:	01089e93          	slli	t4,a7,0x10
80002292:	01f59733          	sll	a4,a1,t6
80002296:	010ede93          	srli	t4,t4,0x10
8000229a:	8f5d                	or	a4,a4,a5
8000229c:	01075593          	srli	a1,a4,0x10
800022a0:	01f51333          	sll	t1,a0,t6
800022a4:	03e676b3          	remu	a3,a2,t5
800022a8:	03ce87b3          	mul	a5,t4,t3
800022ac:	06c2                	slli	a3,a3,0x10
800022ae:	8ecd                	or	a3,a3,a1
800022b0:	00f6fb63          	bleu	a5,a3,800022c6 <__udivdi3+0x2fa>
800022b4:	96c6                	add	a3,a3,a7
800022b6:	fffe0613          	addi	a2,t3,-1
800022ba:	0b16e263          	bltu	a3,a7,8000235e <__udivdi3+0x392>
800022be:	0af6f063          	bleu	a5,a3,8000235e <__udivdi3+0x392>
800022c2:	1e79                	addi	t3,t3,-2
800022c4:	96c6                	add	a3,a3,a7
800022c6:	8e9d                	sub	a3,a3,a5
800022c8:	03e6d7b3          	divu	a5,a3,t5
800022cc:	01071813          	slli	a6,a4,0x10
800022d0:	01085813          	srli	a6,a6,0x10
800022d4:	03e6f6b3          	remu	a3,a3,t5
800022d8:	02fe8633          	mul	a2,t4,a5
800022dc:	01069713          	slli	a4,a3,0x10
800022e0:	01076733          	or	a4,a4,a6
800022e4:	00c77b63          	bleu	a2,a4,800022fa <__udivdi3+0x32e>
800022e8:	9746                	add	a4,a4,a7
800022ea:	fff78693          	addi	a3,a5,-1 # ffffff <_tbss_end+0xffffbb>
800022ee:	07176663          	bltu	a4,a7,8000235a <__udivdi3+0x38e>
800022f2:	06c77463          	bleu	a2,a4,8000235a <__udivdi3+0x38e>
800022f6:	17f9                	addi	a5,a5,-2
800022f8:	9746                	add	a4,a4,a7
800022fa:	010e1593          	slli	a1,t3,0x10
800022fe:	8f11                	sub	a4,a4,a2
80002300:	8ddd                	or	a1,a1,a5
80002302:	bd09                	j	80002114 <__udivdi3+0x148>
80002304:	67c1                	lui	a5,0x10
80002306:	17fd                	addi	a5,a5,-1
80002308:	8f7d                	and	a4,a4,a5
8000230a:	00fe7e33          	and	t3,t3,a5
8000230e:	0742                	slli	a4,a4,0x10
80002310:	006517b3          	sll	a5,a0,t1
80002314:	9772                	add	a4,a4,t3
80002316:	f4e7ffe3          	bleu	a4,a5,80002274 <__udivdi3+0x2a8>
8000231a:	fffe8513          	addi	a0,t4,-1
8000231e:	4581                	li	a1,0
80002320:	8082                	ret
80002322:	0106d713          	srli	a4,a3,0x10
80002326:	4841                	li	a6,16
80002328:	bb9d                	j	8000209e <__udivdi3+0xd2>
8000232a:	8736                	mv	a4,a3
8000232c:	4801                	li	a6,0
8000232e:	bb85                	j	8000209e <__udivdi3+0xd2>
80002330:	0108d693          	srli	a3,a7,0x10
80002334:	47c1                	li	a5,16
80002336:	bb45                	j	800020e6 <__udivdi3+0x11a>
80002338:	01065693          	srli	a3,a2,0x10
8000233c:	47c1                	li	a5,16
8000233e:	b945                	j	80001fee <__udivdi3+0x22>
80002340:	4581                	li	a1,0
80002342:	4505                	li	a0,1
80002344:	8082                	ret
80002346:	ef15f2e3          	bleu	a7,a1,8000222a <__udivdi3+0x25e>
8000234a:	1779                	addi	a4,a4,-2
8000234c:	95b6                	add	a1,a1,a3
8000234e:	bdf9                	j	8000222c <__udivdi3+0x260>
80002350:	eab7f8e3          	bleu	a1,a5,80002200 <__udivdi3+0x234>
80002354:	1ef9                	addi	t4,t4,-2
80002356:	97b6                	add	a5,a5,a3
80002358:	b56d                	j	80002202 <__udivdi3+0x236>
8000235a:	87b6                	mv	a5,a3
8000235c:	bf79                	j	800022fa <__udivdi3+0x32e>
8000235e:	8e32                	mv	t3,a2
80002360:	b79d                	j	800022c6 <__udivdi3+0x2fa>
80002362:	1579                	addi	a0,a0,-2
80002364:	9846                	add	a6,a6,a7
80002366:	b1e5                	j	8000204e <__udivdi3+0x82>
80002368:	1579                	addi	a0,a0,-2
8000236a:	97c6                	add	a5,a5,a7
8000236c:	bbc1                	j	8000213c <__udivdi3+0x170>

Disassembly of section .text.__umoddi3:

8000236e <__umoddi3>:
8000236e:	87b6                	mv	a5,a3
80002370:	8832                	mv	a6,a2
80002372:	832a                	mv	t1,a0
80002374:	8e2e                	mv	t3,a1
80002376:	e6d5                	bnez	a3,80002422 <__umoddi3+0xb4>
80002378:	0ec5fe63          	bleu	a2,a1,80002474 <__umoddi3+0x106>
8000237c:	6741                	lui	a4,0x10
8000237e:	1ae67263          	bleu	a4,a2,80002522 <__umoddi3+0x1b4>
80002382:	0ff00713          	li	a4,255
80002386:	86b2                	mv	a3,a2
80002388:	00c77563          	bleu	a2,a4,80002392 <__umoddi3+0x24>
8000238c:	00865693          	srli	a3,a2,0x8
80002390:	47a1                	li	a5,8
80002392:	00000717          	auipc	a4,0x0
80002396:	55270713          	addi	a4,a4,1362 # 800028e4 <__clz_tab>
8000239a:	9736                	add	a4,a4,a3
8000239c:	00074683          	lbu	a3,0(a4)
800023a0:	02000893          	li	a7,32
800023a4:	97b6                	add	a5,a5,a3
800023a6:	40f888b3          	sub	a7,a7,a5
800023aa:	00088c63          	beqz	a7,800023c2 <__umoddi3+0x54>
800023ae:	011595b3          	sll	a1,a1,a7
800023b2:	00f557b3          	srl	a5,a0,a5
800023b6:	01161833          	sll	a6,a2,a7
800023ba:	00b7ee33          	or	t3,a5,a1
800023be:	01151333          	sll	t1,a0,a7
800023c2:	01085613          	srli	a2,a6,0x10
800023c6:	02ce57b3          	divu	a5,t3,a2
800023ca:	01081513          	slli	a0,a6,0x10
800023ce:	8141                	srli	a0,a0,0x10
800023d0:	01035713          	srli	a4,t1,0x10
800023d4:	02ce76b3          	remu	a3,t3,a2
800023d8:	02f507b3          	mul	a5,a0,a5
800023dc:	06c2                	slli	a3,a3,0x10
800023de:	8f55                	or	a4,a4,a3
800023e0:	00f77763          	bleu	a5,a4,800023ee <__umoddi3+0x80>
800023e4:	9742                	add	a4,a4,a6
800023e6:	01076463          	bltu	a4,a6,800023ee <__umoddi3+0x80>
800023ea:	30f76163          	bltu	a4,a5,800026ec <__umoddi3+0x37e>
800023ee:	8f1d                	sub	a4,a4,a5
800023f0:	02c756b3          	divu	a3,a4,a2
800023f4:	01031793          	slli	a5,t1,0x10
800023f8:	83c1                	srli	a5,a5,0x10
800023fa:	02c77733          	remu	a4,a4,a2
800023fe:	02d50533          	mul	a0,a0,a3
80002402:	0742                	slli	a4,a4,0x10
80002404:	8fd9                	or	a5,a5,a4
80002406:	00a7f863          	bleu	a0,a5,80002416 <__umoddi3+0xa8>
8000240a:	97c2                	add	a5,a5,a6
8000240c:	0107e563          	bltu	a5,a6,80002416 <__umoddi3+0xa8>
80002410:	00a7f363          	bleu	a0,a5,80002416 <__umoddi3+0xa8>
80002414:	97c2                	add	a5,a5,a6
80002416:	40a78533          	sub	a0,a5,a0
8000241a:	01155533          	srl	a0,a0,a7
8000241e:	4581                	li	a1,0
80002420:	8082                	ret
80002422:	fed5efe3          	bltu	a1,a3,80002420 <__umoddi3+0xb2>
80002426:	67c1                	lui	a5,0x10
80002428:	0cf6ec63          	bltu	a3,a5,80002500 <__umoddi3+0x192>
8000242c:	010007b7          	lui	a5,0x1000
80002430:	28f6e563          	bltu	a3,a5,800026ba <__umoddi3+0x34c>
80002434:	0186d813          	srli	a6,a3,0x18
80002438:	4761                	li	a4,24
8000243a:	00000797          	auipc	a5,0x0
8000243e:	4aa78793          	addi	a5,a5,1194 # 800028e4 <__clz_tab>
80002442:	97c2                	add	a5,a5,a6
80002444:	0007ce83          	lbu	t4,0(a5)
80002448:	02000313          	li	t1,32
8000244c:	9eba                	add	t4,t4,a4
8000244e:	41d30333          	sub	t1,t1,t4
80002452:	0e031063          	bnez	t1,80002532 <__umoddi3+0x1c4>
80002456:	00b6e563          	bltu	a3,a1,80002460 <__umoddi3+0xf2>
8000245a:	882a                	mv	a6,a0
8000245c:	00c56963          	bltu	a0,a2,8000246e <__umoddi3+0x100>
80002460:	40c50833          	sub	a6,a0,a2
80002464:	8d95                	sub	a1,a1,a3
80002466:	010536b3          	sltu	a3,a0,a6
8000246a:	40d58e33          	sub	t3,a1,a3
8000246e:	8542                	mv	a0,a6
80002470:	85f2                	mv	a1,t3
80002472:	8082                	ret
80002474:	e601                	bnez	a2,8000247c <__umoddi3+0x10e>
80002476:	4705                	li	a4,1
80002478:	02c75833          	divu	a6,a4,a2
8000247c:	6741                	lui	a4,0x10
8000247e:	08e86963          	bltu	a6,a4,80002510 <__umoddi3+0x1a2>
80002482:	010007b7          	lui	a5,0x1000
80002486:	24f86163          	bltu	a6,a5,800026c8 <__umoddi3+0x35a>
8000248a:	01885693          	srli	a3,a6,0x18
8000248e:	47e1                	li	a5,24
80002490:	00000717          	auipc	a4,0x0
80002494:	45470713          	addi	a4,a4,1108 # 800028e4 <__clz_tab>
80002498:	9736                	add	a4,a4,a3
8000249a:	00074703          	lbu	a4,0(a4)
8000249e:	02000893          	li	a7,32
800024a2:	97ba                	add	a5,a5,a4
800024a4:	40f888b3          	sub	a7,a7,a5
800024a8:	16089663          	bnez	a7,80002614 <__umoddi3+0x2a6>
800024ac:	01081e13          	slli	t3,a6,0x10
800024b0:	410585b3          	sub	a1,a1,a6
800024b4:	01085613          	srli	a2,a6,0x10
800024b8:	010e5e13          	srli	t3,t3,0x10
800024bc:	01035713          	srli	a4,t1,0x10
800024c0:	02c5d6b3          	divu	a3,a1,a2
800024c4:	02c5f5b3          	remu	a1,a1,a2
800024c8:	03c686b3          	mul	a3,a3,t3
800024cc:	05c2                	slli	a1,a1,0x10
800024ce:	8f4d                	or	a4,a4,a1
800024d0:	00d77863          	bleu	a3,a4,800024e0 <__umoddi3+0x172>
800024d4:	9742                	add	a4,a4,a6
800024d6:	01076563          	bltu	a4,a6,800024e0 <__umoddi3+0x172>
800024da:	00d77363          	bleu	a3,a4,800024e0 <__umoddi3+0x172>
800024de:	9742                	add	a4,a4,a6
800024e0:	8f15                	sub	a4,a4,a3
800024e2:	02c75533          	divu	a0,a4,a2
800024e6:	0342                	slli	t1,t1,0x10
800024e8:	01035313          	srli	t1,t1,0x10
800024ec:	02c77733          	remu	a4,a4,a2
800024f0:	03c50533          	mul	a0,a0,t3
800024f4:	0742                	slli	a4,a4,0x10
800024f6:	006767b3          	or	a5,a4,t1
800024fa:	f0a7fee3          	bleu	a0,a5,80002416 <__umoddi3+0xa8>
800024fe:	b731                	j	8000240a <__umoddi3+0x9c>
80002500:	0ff00793          	li	a5,255
80002504:	1ad7ff63          	bleu	a3,a5,800026c2 <__umoddi3+0x354>
80002508:	0086d813          	srli	a6,a3,0x8
8000250c:	4721                	li	a4,8
8000250e:	b735                	j	8000243a <__umoddi3+0xcc>
80002510:	0ff00713          	li	a4,255
80002514:	86c2                	mv	a3,a6
80002516:	f7077de3          	bleu	a6,a4,80002490 <__umoddi3+0x122>
8000251a:	00885693          	srli	a3,a6,0x8
8000251e:	47a1                	li	a5,8
80002520:	bf85                	j	80002490 <__umoddi3+0x122>
80002522:	010007b7          	lui	a5,0x1000
80002526:	1af66563          	bltu	a2,a5,800026d0 <__umoddi3+0x362>
8000252a:	01865693          	srli	a3,a2,0x18
8000252e:	47e1                	li	a5,24
80002530:	b58d                	j	80002392 <__umoddi3+0x24>
80002532:	01d658b3          	srl	a7,a2,t4
80002536:	006696b3          	sll	a3,a3,t1
8000253a:	00d8e6b3          	or	a3,a7,a3
8000253e:	01d5d833          	srl	a6,a1,t4
80002542:	0106d713          	srli	a4,a3,0x10
80002546:	02e858b3          	divu	a7,a6,a4
8000254a:	01069f13          	slli	t5,a3,0x10
8000254e:	010f5f13          	srli	t5,t5,0x10
80002552:	01d557b3          	srl	a5,a0,t4
80002556:	006595b3          	sll	a1,a1,t1
8000255a:	8ddd                	or	a1,a1,a5
8000255c:	0105df93          	srli	t6,a1,0x10
80002560:	006617b3          	sll	a5,a2,t1
80002564:	00651533          	sll	a0,a0,t1
80002568:	02e87833          	remu	a6,a6,a4
8000256c:	031f0e33          	mul	t3,t5,a7
80002570:	0842                	slli	a6,a6,0x10
80002572:	01f86633          	or	a2,a6,t6
80002576:	01c67863          	bleu	t3,a2,80002586 <__umoddi3+0x218>
8000257a:	9636                	add	a2,a2,a3
8000257c:	fff88813          	addi	a6,a7,-1 # ffff <_tbss_end+0xffbb>
80002580:	16d67163          	bleu	a3,a2,800026e2 <__umoddi3+0x374>
80002584:	88c2                	mv	a7,a6
80002586:	41c60633          	sub	a2,a2,t3
8000258a:	02e65833          	divu	a6,a2,a4
8000258e:	05c2                	slli	a1,a1,0x10
80002590:	81c1                	srli	a1,a1,0x10
80002592:	02e67633          	remu	a2,a2,a4
80002596:	030f0f33          	mul	t5,t5,a6
8000259a:	01061713          	slli	a4,a2,0x10
8000259e:	8f4d                	or	a4,a4,a1
800025a0:	01e77863          	bleu	t5,a4,800025b0 <__umoddi3+0x242>
800025a4:	9736                	add	a4,a4,a3
800025a6:	fff80613          	addi	a2,a6,-1
800025aa:	12d77763          	bleu	a3,a4,800026d8 <__umoddi3+0x36a>
800025ae:	8832                	mv	a6,a2
800025b0:	08c2                	slli	a7,a7,0x10
800025b2:	62c1                	lui	t0,0x10
800025b4:	0108e8b3          	or	a7,a7,a6
800025b8:	fff28813          	addi	a6,t0,-1 # ffff <_tbss_end+0xffbb>
800025bc:	0108fe33          	and	t3,a7,a6
800025c0:	0107d593          	srli	a1,a5,0x10
800025c4:	0108d893          	srli	a7,a7,0x10
800025c8:	0107f833          	and	a6,a5,a6
800025cc:	030e0fb3          	mul	t6,t3,a6
800025d0:	41e70733          	sub	a4,a4,t5
800025d4:	03088833          	mul	a6,a7,a6
800025d8:	010fd613          	srli	a2,t6,0x10
800025dc:	02be0e33          	mul	t3,t3,a1
800025e0:	9e42                	add	t3,t3,a6
800025e2:	9672                	add	a2,a2,t3
800025e4:	02b888b3          	mul	a7,a7,a1
800025e8:	01067363          	bleu	a6,a2,800025ee <__umoddi3+0x280>
800025ec:	9896                	add	a7,a7,t0
800025ee:	6841                	lui	a6,0x10
800025f0:	187d                	addi	a6,a6,-1
800025f2:	01065593          	srli	a1,a2,0x10
800025f6:	01067633          	and	a2,a2,a6
800025fa:	0642                	slli	a2,a2,0x10
800025fc:	010fffb3          	and	t6,t6,a6
80002600:	98ae                	add	a7,a7,a1
80002602:	967e                	add	a2,a2,t6
80002604:	09176463          	bltu	a4,a7,8000268c <__umoddi3+0x31e>
80002608:	0f170463          	beq	a4,a7,800026f0 <__umoddi3+0x382>
8000260c:	411705b3          	sub	a1,a4,a7
80002610:	87b2                	mv	a5,a2
80002612:	a071                	j	8000269e <__umoddi3+0x330>
80002614:	01181833          	sll	a6,a6,a7
80002618:	00f5d733          	srl	a4,a1,a5
8000261c:	01085613          	srli	a2,a6,0x10
80002620:	02c756b3          	divu	a3,a4,a2
80002624:	01081e13          	slli	t3,a6,0x10
80002628:	00f557b3          	srl	a5,a0,a5
8000262c:	010e5e13          	srli	t3,t3,0x10
80002630:	011595b3          	sll	a1,a1,a7
80002634:	8ddd                	or	a1,a1,a5
80002636:	0105de93          	srli	t4,a1,0x10
8000263a:	01151333          	sll	t1,a0,a7
8000263e:	02c77733          	remu	a4,a4,a2
80002642:	02de07b3          	mul	a5,t3,a3
80002646:	01071693          	slli	a3,a4,0x10
8000264a:	01d6e6b3          	or	a3,a3,t4
8000264e:	00f6f863          	bleu	a5,a3,8000265e <__umoddi3+0x2f0>
80002652:	96c2                	add	a3,a3,a6
80002654:	0106e563          	bltu	a3,a6,8000265e <__umoddi3+0x2f0>
80002658:	00f6f363          	bleu	a5,a3,8000265e <__umoddi3+0x2f0>
8000265c:	96c2                	add	a3,a3,a6
8000265e:	8e9d                	sub	a3,a3,a5
80002660:	02c6d733          	divu	a4,a3,a2
80002664:	01059793          	slli	a5,a1,0x10
80002668:	83c1                	srli	a5,a5,0x10
8000266a:	02c6f6b3          	remu	a3,a3,a2
8000266e:	02ee0733          	mul	a4,t3,a4
80002672:	01069593          	slli	a1,a3,0x10
80002676:	8ddd                	or	a1,a1,a5
80002678:	00e5f863          	bleu	a4,a1,80002688 <__umoddi3+0x31a>
8000267c:	95c2                	add	a1,a1,a6
8000267e:	0105e563          	bltu	a1,a6,80002688 <__umoddi3+0x31a>
80002682:	00e5f363          	bleu	a4,a1,80002688 <__umoddi3+0x31a>
80002686:	95c2                	add	a1,a1,a6
80002688:	8d99                	sub	a1,a1,a4
8000268a:	bd0d                	j	800024bc <__umoddi3+0x14e>
8000268c:	40f607b3          	sub	a5,a2,a5
80002690:	40d885b3          	sub	a1,a7,a3
80002694:	00f63633          	sltu	a2,a2,a5
80002698:	8d91                	sub	a1,a1,a2
8000269a:	40b705b3          	sub	a1,a4,a1
8000269e:	40f507b3          	sub	a5,a0,a5
800026a2:	00f53533          	sltu	a0,a0,a5
800026a6:	8d89                	sub	a1,a1,a0
800026a8:	01d59eb3          	sll	t4,a1,t4
800026ac:	0067d533          	srl	a0,a5,t1
800026b0:	00aee533          	or	a0,t4,a0
800026b4:	0065d5b3          	srl	a1,a1,t1
800026b8:	8082                	ret
800026ba:	0106d813          	srli	a6,a3,0x10
800026be:	4741                	li	a4,16
800026c0:	bbad                	j	8000243a <__umoddi3+0xcc>
800026c2:	8836                	mv	a6,a3
800026c4:	4701                	li	a4,0
800026c6:	bb95                	j	8000243a <__umoddi3+0xcc>
800026c8:	01085693          	srli	a3,a6,0x10
800026cc:	47c1                	li	a5,16
800026ce:	b3c9                	j	80002490 <__umoddi3+0x122>
800026d0:	01065693          	srli	a3,a2,0x10
800026d4:	47c1                	li	a5,16
800026d6:	b975                	j	80002392 <__umoddi3+0x24>
800026d8:	ede77be3          	bleu	t5,a4,800025ae <__umoddi3+0x240>
800026dc:	1879                	addi	a6,a6,-2
800026de:	9736                	add	a4,a4,a3
800026e0:	bdc1                	j	800025b0 <__umoddi3+0x242>
800026e2:	ebc671e3          	bleu	t3,a2,80002584 <__umoddi3+0x216>
800026e6:	18f9                	addi	a7,a7,-2
800026e8:	9636                	add	a2,a2,a3
800026ea:	bd71                	j	80002586 <__umoddi3+0x218>
800026ec:	9742                	add	a4,a4,a6
800026ee:	b301                	j	800023ee <__umoddi3+0x80>
800026f0:	f8c56ee3          	bltu	a0,a2,8000268c <__umoddi3+0x31e>
800026f4:	87b2                	mv	a5,a2
800026f6:	4581                	li	a1,0
800026f8:	b75d                	j	8000269e <__umoddi3+0x330>

Disassembly of section .rodata:

800026fc <.rodata>:
800026fc:	ee68                	fsw	fa0,92(a2)
800026fe:	ffff                	0xffff
80002700:	eeb8                	fsw	fa4,88(a3)
80002702:	ffff                	0xffff
80002704:	ee70                	fsw	fa2,92(a2)
80002706:	ffff                	0xffff
80002708:	eeb8                	fsw	fa4,88(a3)
8000270a:	ffff                	0xffff
8000270c:	eeb8                	fsw	fa4,88(a3)
8000270e:	ffff                	0xffff
80002710:	eeb8                	fsw	fa4,88(a3)
80002712:	ffff                	0xffff
80002714:	eeb8                	fsw	fa4,88(a3)
80002716:	ffff                	0xffff
80002718:	ed80                	fsw	fs0,24(a1)
8000271a:	ffff                	0xffff
8000271c:	eeb8                	fsw	fa4,88(a3)
8000271e:	ffff                	0xffff
80002720:	eeb8                	fsw	fa4,88(a3)
80002722:	ffff                	0xffff
80002724:	ed9a                	fsw	ft6,216(sp)
80002726:	ffff                	0xffff
80002728:	eda6                	fsw	fs1,216(sp)
8000272a:	ffff                	0xffff
8000272c:	eeb8                	fsw	fa4,88(a3)
8000272e:	ffff                	0xffff
80002730:	edb8                	fsw	fa4,88(a1)
80002732:	ffff                	0xffff
80002734:	edc4                	fsw	fs1,28(a1)
80002736:	ffff                	0xffff
80002738:	edc4                	fsw	fs1,28(a1)
8000273a:	ffff                	0xffff
8000273c:	edc4                	fsw	fs1,28(a1)
8000273e:	ffff                	0xffff
80002740:	edc4                	fsw	fs1,28(a1)
80002742:	ffff                	0xffff
80002744:	edc4                	fsw	fs1,28(a1)
80002746:	ffff                	0xffff
80002748:	edc4                	fsw	fs1,28(a1)
8000274a:	ffff                	0xffff
8000274c:	edc4                	fsw	fs1,28(a1)
8000274e:	ffff                	0xffff
80002750:	edc4                	fsw	fs1,28(a1)
80002752:	ffff                	0xffff
80002754:	edc4                	fsw	fs1,28(a1)
80002756:	ffff                	0xffff
80002758:	eeb8                	fsw	fa4,88(a3)
8000275a:	ffff                	0xffff
8000275c:	eeb8                	fsw	fa4,88(a3)
8000275e:	ffff                	0xffff
80002760:	eeb8                	fsw	fa4,88(a3)
80002762:	ffff                	0xffff
80002764:	eeb8                	fsw	fa4,88(a3)
80002766:	ffff                	0xffff
80002768:	eeb8                	fsw	fa4,88(a3)
8000276a:	ffff                	0xffff
8000276c:	eeb8                	fsw	fa4,88(a3)
8000276e:	ffff                	0xffff
80002770:	eeb8                	fsw	fa4,88(a3)
80002772:	ffff                	0xffff
80002774:	eeb8                	fsw	fa4,88(a3)
80002776:	ffff                	0xffff
80002778:	eeb8                	fsw	fa4,88(a3)
8000277a:	ffff                	0xffff
8000277c:	eeb8                	fsw	fa4,88(a3)
8000277e:	ffff                	0xffff
80002780:	eeb8                	fsw	fa4,88(a3)
80002782:	ffff                	0xffff
80002784:	eeb8                	fsw	fa4,88(a3)
80002786:	ffff                	0xffff
80002788:	eeb8                	fsw	fa4,88(a3)
8000278a:	ffff                	0xffff
8000278c:	eeb8                	fsw	fa4,88(a3)
8000278e:	ffff                	0xffff
80002790:	eeb8                	fsw	fa4,88(a3)
80002792:	ffff                	0xffff
80002794:	eeb8                	fsw	fa4,88(a3)
80002796:	ffff                	0xffff
80002798:	eeb8                	fsw	fa4,88(a3)
8000279a:	ffff                	0xffff
8000279c:	eeb8                	fsw	fa4,88(a3)
8000279e:	ffff                	0xffff
800027a0:	eeb8                	fsw	fa4,88(a3)
800027a2:	ffff                	0xffff
800027a4:	eeb8                	fsw	fa4,88(a3)
800027a6:	ffff                	0xffff
800027a8:	eeb8                	fsw	fa4,88(a3)
800027aa:	ffff                	0xffff
800027ac:	eeb8                	fsw	fa4,88(a3)
800027ae:	ffff                	0xffff
800027b0:	eeb8                	fsw	fa4,88(a3)
800027b2:	ffff                	0xffff
800027b4:	eeb8                	fsw	fa4,88(a3)
800027b6:	ffff                	0xffff
800027b8:	eeb8                	fsw	fa4,88(a3)
800027ba:	ffff                	0xffff
800027bc:	eeb8                	fsw	fa4,88(a3)
800027be:	ffff                	0xffff
800027c0:	eeb8                	fsw	fa4,88(a3)
800027c2:	ffff                	0xffff
800027c4:	eeb8                	fsw	fa4,88(a3)
800027c6:	ffff                	0xffff
800027c8:	eeb8                	fsw	fa4,88(a3)
800027ca:	ffff                	0xffff
800027cc:	eeb8                	fsw	fa4,88(a3)
800027ce:	ffff                	0xffff
800027d0:	eeb8                	fsw	fa4,88(a3)
800027d2:	ffff                	0xffff
800027d4:	eeb8                	fsw	fa4,88(a3)
800027d6:	ffff                	0xffff
800027d8:	eeb8                	fsw	fa4,88(a3)
800027da:	ffff                	0xffff
800027dc:	eeb8                	fsw	fa4,88(a3)
800027de:	ffff                	0xffff
800027e0:	eeb8                	fsw	fa4,88(a3)
800027e2:	ffff                	0xffff
800027e4:	eeb8                	fsw	fa4,88(a3)
800027e6:	ffff                	0xffff
800027e8:	eeb8                	fsw	fa4,88(a3)
800027ea:	ffff                	0xffff
800027ec:	eeb8                	fsw	fa4,88(a3)
800027ee:	ffff                	0xffff
800027f0:	eeb8                	fsw	fa4,88(a3)
800027f2:	ffff                	0xffff
800027f4:	eeb8                	fsw	fa4,88(a3)
800027f6:	ffff                	0xffff
800027f8:	eeb8                	fsw	fa4,88(a3)
800027fa:	ffff                	0xffff
800027fc:	edf8                	fsw	fa4,92(a1)
800027fe:	ffff                	0xffff
80002800:	ee08                	fsw	fa0,24(a2)
80002802:	ffff                	0xffff
80002804:	eeb8                	fsw	fa4,88(a3)
80002806:	ffff                	0xffff
80002808:	eeb8                	fsw	fa4,88(a3)
8000280a:	ffff                	0xffff
8000280c:	eeb8                	fsw	fa4,88(a3)
8000280e:	ffff                	0xffff
80002810:	eeb8                	fsw	fa4,88(a3)
80002812:	ffff                	0xffff
80002814:	eeb8                	fsw	fa4,88(a3)
80002816:	ffff                	0xffff
80002818:	eeb8                	fsw	fa4,88(a3)
8000281a:	ffff                	0xffff
8000281c:	eeb8                	fsw	fa4,88(a3)
8000281e:	ffff                	0xffff
80002820:	ee46                	fsw	fa7,28(sp)
80002822:	ffff                	0xffff
80002824:	eeb8                	fsw	fa4,88(a3)
80002826:	ffff                	0xffff
80002828:	eeb8                	fsw	fa4,88(a3)
8000282a:	ffff                	0xffff
8000282c:	eca2                	fsw	fs0,88(sp)
8000282e:	ffff                	0xffff
80002830:	ed5a                	fsw	fs6,152(sp)
80002832:	ffff                	0xffff
80002834:	eeb8                	fsw	fa4,88(a3)
80002836:	ffff                	0xffff
80002838:	eeb8                	fsw	fa4,88(a3)
8000283a:	ffff                	0xffff
8000283c:	ee7a                	fsw	ft10,28(sp)
8000283e:	ffff                	0xffff
80002840:	eeb8                	fsw	fa4,88(a3)
80002842:	ffff                	0xffff
80002844:	ee50                	fsw	fa2,28(a2)
80002846:	ffff                	0xffff
80002848:	eeb8                	fsw	fa4,88(a3)
8000284a:	ffff                	0xffff
8000284c:	eeb8                	fsw	fa4,88(a3)
8000284e:	ffff                	0xffff
80002850:	ee62                	fsw	fs8,28(sp)
80002852:	ffff                	0xffff

Disassembly of section .rodata.str1.4:

80002854 <.rodata.str1.4>:
80002854:	6e28                	flw	fa0,88(a2)
80002856:	6c75                	lui	s8,0x1d
80002858:	296c                	fld	fa1,208(a0)
8000285a:	0000                	unimp
8000285c:	636d                	lui	t1,0x1b
8000285e:	6379                	lui	t1,0x1e
80002860:	656c                	flw	fa1,76(a0)
80002862:	0000                	unimp
80002864:	696d                	lui	s2,0x1b
80002866:	736e                	flw	ft6,248(sp)
80002868:	7274                	flw	fa3,100(a2)
8000286a:	7465                	lui	s0,0xffff9
8000286c:	0000                	unimp
8000286e:	0000                	unimp
80002870:	6d49                	lui	s10,0x12
80002872:	6c70                	flw	fa2,92(s0)
80002874:	6d65                	lui	s10,0x19
80002876:	6e65                	lui	t3,0x19
80002878:	2074                	fld	fa3,192(s0)
8000287a:	616d                	addi	sp,sp,240
8000287c:	6e69                	lui	t3,0x1a
8000287e:	2928                	fld	fa0,80(a0)
80002880:	202c                	fld	fa1,64(s0)
80002882:	6f66                	flw	ft10,88(sp)
80002884:	000a216f          	jal	sp,800a4884 <__clz_tab+0xa1fa0>
80002888:	7325                	lui	t1,0xfffe9
8000288a:	3d20                	fld	fs0,120(a0)
8000288c:	2520                	fld	fs0,72(a0)
8000288e:	0a64                	addi	s1,sp,284
80002890:	0000                	unimp
	...

Disassembly of section .eh_frame:

80002894 <.eh_frame>:
80002894:	0010                	0x10
80002896:	0000                	unimp
80002898:	0000                	unimp
8000289a:	0000                	unimp
8000289c:	7a01                	lui	s4,0xfffe0
8000289e:	0052                	c.slli	zero,0x14
800028a0:	7c01                	lui	s8,0xfffe0
800028a2:	0101                	addi	sp,sp,0
800028a4:	00020d1b          	0x20d1b
800028a8:	0010                	0x10
800028aa:	0000                	unimp
800028ac:	0018                	0x18
800028ae:	0000                	unimp
800028b0:	f34a                	fsw	fs2,164(sp)
800028b2:	ffff                	0xffff
800028b4:	03d2                	slli	t2,t2,0x14
800028b6:	0000                	unimp
800028b8:	0000                	unimp
800028ba:	0000                	unimp
800028bc:	0010                	0x10
800028be:	0000                	unimp
800028c0:	002c                	addi	a1,sp,8
800028c2:	0000                	unimp
800028c4:	f708                	fsw	fa0,40(a4)
800028c6:	ffff                	0xffff
800028c8:	03a2                	slli	t2,t2,0x8
800028ca:	0000                	unimp
800028cc:	0000                	unimp
800028ce:	0000                	unimp
800028d0:	0010                	0x10
800028d2:	0000                	unimp
800028d4:	0040                	addi	s0,sp,4
800028d6:	0000                	unimp
800028d8:	fa96                	fsw	ft5,116(sp)
800028da:	ffff                	0xffff
800028dc:	038c                	addi	a1,sp,448
800028de:	0000                	unimp
800028e0:	0000                	unimp
	...

Disassembly of section .rodata.__clz_tab:

800028e4 <__clz_tab>:
800028e4:	0100                	addi	s0,sp,128
800028e6:	0202                	slli	tp,tp,0x0
800028e8:	03030303          	lb	t1,48(t1) # fffe9030 <__global_pointer$+0x6ffe8830>
800028ec:	0404                	addi	s1,sp,512
800028ee:	0404                	addi	s1,sp,512
800028f0:	0404                	addi	s1,sp,512
800028f2:	0404                	addi	s1,sp,512
800028f4:	0505                	addi	a0,a0,1
800028f6:	0505                	addi	a0,a0,1
800028f8:	0505                	addi	a0,a0,1
800028fa:	0505                	addi	a0,a0,1
800028fc:	0505                	addi	a0,a0,1
800028fe:	0505                	addi	a0,a0,1
80002900:	0505                	addi	a0,a0,1
80002902:	0505                	addi	a0,a0,1
80002904:	0606                	slli	a2,a2,0x1
80002906:	0606                	slli	a2,a2,0x1
80002908:	0606                	slli	a2,a2,0x1
8000290a:	0606                	slli	a2,a2,0x1
8000290c:	0606                	slli	a2,a2,0x1
8000290e:	0606                	slli	a2,a2,0x1
80002910:	0606                	slli	a2,a2,0x1
80002912:	0606                	slli	a2,a2,0x1
80002914:	0606                	slli	a2,a2,0x1
80002916:	0606                	slli	a2,a2,0x1
80002918:	0606                	slli	a2,a2,0x1
8000291a:	0606                	slli	a2,a2,0x1
8000291c:	0606                	slli	a2,a2,0x1
8000291e:	0606                	slli	a2,a2,0x1
80002920:	0606                	slli	a2,a2,0x1
80002922:	0606                	slli	a2,a2,0x1
80002924:	07070707          	0x7070707
80002928:	07070707          	0x7070707
8000292c:	07070707          	0x7070707
80002930:	07070707          	0x7070707
80002934:	07070707          	0x7070707
80002938:	07070707          	0x7070707
8000293c:	07070707          	0x7070707
80002940:	07070707          	0x7070707
80002944:	07070707          	0x7070707
80002948:	07070707          	0x7070707
8000294c:	07070707          	0x7070707
80002950:	07070707          	0x7070707
80002954:	07070707          	0x7070707
80002958:	07070707          	0x7070707
8000295c:	07070707          	0x7070707
80002960:	07070707          	0x7070707
80002964:	0808                	addi	a0,sp,16
80002966:	0808                	addi	a0,sp,16
80002968:	0808                	addi	a0,sp,16
8000296a:	0808                	addi	a0,sp,16
8000296c:	0808                	addi	a0,sp,16
8000296e:	0808                	addi	a0,sp,16
80002970:	0808                	addi	a0,sp,16
80002972:	0808                	addi	a0,sp,16
80002974:	0808                	addi	a0,sp,16
80002976:	0808                	addi	a0,sp,16
80002978:	0808                	addi	a0,sp,16
8000297a:	0808                	addi	a0,sp,16
8000297c:	0808                	addi	a0,sp,16
8000297e:	0808                	addi	a0,sp,16
80002980:	0808                	addi	a0,sp,16
80002982:	0808                	addi	a0,sp,16
80002984:	0808                	addi	a0,sp,16
80002986:	0808                	addi	a0,sp,16
80002988:	0808                	addi	a0,sp,16
8000298a:	0808                	addi	a0,sp,16
8000298c:	0808                	addi	a0,sp,16
8000298e:	0808                	addi	a0,sp,16
80002990:	0808                	addi	a0,sp,16
80002992:	0808                	addi	a0,sp,16
80002994:	0808                	addi	a0,sp,16
80002996:	0808                	addi	a0,sp,16
80002998:	0808                	addi	a0,sp,16
8000299a:	0808                	addi	a0,sp,16
8000299c:	0808                	addi	a0,sp,16
8000299e:	0808                	addi	a0,sp,16
800029a0:	0808                	addi	a0,sp,16
800029a2:	0808                	addi	a0,sp,16
800029a4:	0808                	addi	a0,sp,16
800029a6:	0808                	addi	a0,sp,16
800029a8:	0808                	addi	a0,sp,16
800029aa:	0808                	addi	a0,sp,16
800029ac:	0808                	addi	a0,sp,16
800029ae:	0808                	addi	a0,sp,16
800029b0:	0808                	addi	a0,sp,16
800029b2:	0808                	addi	a0,sp,16
800029b4:	0808                	addi	a0,sp,16
800029b6:	0808                	addi	a0,sp,16
800029b8:	0808                	addi	a0,sp,16
800029ba:	0808                	addi	a0,sp,16
800029bc:	0808                	addi	a0,sp,16
800029be:	0808                	addi	a0,sp,16
800029c0:	0808                	addi	a0,sp,16
800029c2:	0808                	addi	a0,sp,16
800029c4:	0808                	addi	a0,sp,16
800029c6:	0808                	addi	a0,sp,16
800029c8:	0808                	addi	a0,sp,16
800029ca:	0808                	addi	a0,sp,16
800029cc:	0808                	addi	a0,sp,16
800029ce:	0808                	addi	a0,sp,16
800029d0:	0808                	addi	a0,sp,16
800029d2:	0808                	addi	a0,sp,16
800029d4:	0808                	addi	a0,sp,16
800029d6:	0808                	addi	a0,sp,16
800029d8:	0808                	addi	a0,sp,16
800029da:	0808                	addi	a0,sp,16
800029dc:	0808                	addi	a0,sp,16
800029de:	0808                	addi	a0,sp,16
800029e0:	0808                	addi	a0,sp,16
800029e2:	0808                	addi	a0,sp,16

Disassembly of section .sbss:

90000000 <g_nodeFreeList>:
	...

90000008 <counter_names>:
	...

90000010 <counters>:
	...

Disassembly of section .bss:

90000018 <g_nodePool>:
	...

Disassembly of section .tbss:

90000080 <_tls_data>:
	...

Disassembly of section .comment:

00000000 <.comment>:
   0:	3a434347          	fmsub.d	ft6,ft6,ft4,ft7,rmm
   4:	2820                	fld	fs0,80(s0)
   6:	20554e47          	fmsub.s	ft8,fa0,ft5,ft4,rmm
   a:	434d                	li	t1,19
   c:	2055                	jal	b0 <_tbss_end+0x6c>
   e:	6345                	lui	t1,0x11
  10:	696c                	flw	fa1,84(a0)
  12:	7370                	flw	fa2,100(a4)
  14:	2065                	jal	bc <_tbss_end+0x78>
  16:	4952                	lw	s2,20(sp)
  18:	562d4353          	0x562d4353
  1c:	4520                	lw	s0,72(a0)
  1e:	626d                	lui	tp,0x1b
  20:	6465                	lui	s0,0x19
  22:	6564                	flw	fs1,76(a0)
  24:	2064                	fld	fs1,192(s0)
  26:	2c434347          	0x2c434347
  2a:	3620                	fld	fs0,104(a2)
  2c:	2d34                	fld	fa3,88(a0)
  2e:	6962                	flw	fs2,24(sp)
  30:	7374                	flw	fa3,100(a4)
  32:	2029                	jal	3c <_tdata_begin+0x3c>
  34:	2e322e37          	lui	t3,0x2e322
  38:	0030                	addi	a2,sp,8

Disassembly of section .debug_info:

00000000 <.debug_info>:
       0:	000008d7          	0x8d7
       4:	0004                	0x4
       6:	0000                	unimp
       8:	0000                	unimp
       a:	0104                	addi	s1,sp,128
       c:	00000027          	0x27
      10:	800c                	0x800c
      12:	0002                	c.slli	zero,0x0
      14:	2b00                	fld	fs0,16(a4)
      16:	50000003          	lb	zero,1280(zero) # 500 <_tbss_end+0x4bc>
      1a:	0001                	nop
	...
      24:	0200                	addi	s0,sp,256
      26:	0704                	addi	s1,sp,896
      28:	01ad                	addi	gp,gp,11
      2a:	0000                	unimp
      2c:	0802                	slli	a6,a6,0x0
      2e:	0001a307          	flw	ft6,0(gp) # 90000800 <__global_pointer$>
      32:	0300                	addi	s0,sp,384
      34:	0504                	addi	s1,sp,640
      36:	6e69                	lui	t3,0x1a
      38:	0074                	addi	a3,sp,12
      3a:	0802                	slli	a6,a6,0x0
      3c:	2a05                	jal	16c <_tbss_end+0x128>
      3e:	0001                	nop
      40:	0200                	addi	s0,sp,256
      42:	0410                	addi	a2,sp,512
      44:	0301                	addi	t1,t1,0
      46:	0000                	unimp
      48:	d504                	sw	s1,40(a0)
      4a:	0002                	c.slli	zero,0x0
      4c:	0200                	addi	s0,sp,256
      4e:	252a                	fld	fa0,136(sp)
      50:	0000                	unimp
      52:	0400                	addi	s0,sp,512
      54:	0199                	addi	gp,gp,6
      56:	0000                	unimp
      58:	2f02                	fld	ft10,0(sp)
      5a:	005e                	c.slli	zero,0x17
      5c:	0000                	unimp
      5e:	0405                	addi	s0,s0,1
      60:	0064                	addi	s1,sp,12
      62:	0000                	unimp
      64:	4806                	lw	a6,64(sp)
      66:	0000                	unimp
      68:	7300                	flw	fs0,32(a4)
      6a:	0000                	unimp
      6c:	0700                	addi	s0,sp,896
      6e:	00000073          	ecall
      72:	0500                	addi	s0,sp,640
      74:	7904                	flw	fs1,48(a0)
      76:	0000                	unimp
      78:	0800                	addi	s0,sp,16
      7a:	7204                	flw	fs1,32(a2)
      7c:	02000003          	lb	zero,32(zero) # 20 <_tdata_begin+0x20>
      80:	8536                	mv	a0,a3
      82:	0000                	unimp
      84:	0500                	addi	s0,sp,640
      86:	8b04                	0x8b04
      88:	0000                	unimp
      8a:	0600                	addi	s0,sp,768
      8c:	00000033          	add	zero,zero,zero
      90:	009f 0000 7307      	0x73070000009f
      96:	0000                	unimp
      98:	0700                	addi	s0,sp,896
      9a:	00000073          	ecall
      9e:	0900                	addi	s0,sp,144
      a0:	024a                	slli	tp,tp,0x12
      a2:	0000                	unimp
      a4:	bb02                	fsd	ft0,432(sp)
      a6:	00000053          	fadd.s	ft0,ft0,ft0,rne
      aa:	1709                	addi	a4,a4,-30
      ac:	0000                	unimp
      ae:	0200                	addi	s0,sp,256
      b0:	7abe                	flw	fs5,236(sp)
      b2:	0000                	unimp
      b4:	0200                	addi	s0,sp,256
      b6:	0801                	addi	a6,a6,0
      b8:	00000203          	lb	tp,0(zero) # 0 <_tdata_begin>
      bc:	1b0a                	slli	s6,s6,0x22
      be:	0001                	nop
      c0:	0700                	addi	s0,sp,896
      c2:	2504                	fld	fs1,8(a0)
      c4:	0000                	unimp
      c6:	0300                	addi	s0,sp,384
      c8:	f218                	fsw	fa4,32(a2)
      ca:	0000                	unimp
      cc:	0b00                	addi	s0,sp,400
      ce:	031c                	addi	a5,sp,384
      d0:	0000                	unimp
      d2:	0b00                	addi	s0,sp,400
      d4:	015f 0000 0b01      	0xb010000015f
      da:	01e2                	slli	gp,gp,0x18
      dc:	0000                	unimp
      de:	0b02                	slli	s6,s6,0x0
      e0:	0142                	slli	sp,sp,0x10
      e2:	0000                	unimp
      e4:	01ce0b03          	lb	s6,28(t3) # 1a01c <_tbss_end+0x19fd8>
      e8:	0000                	unimp
      ea:	0b04                	addi	s1,sp,400
      ec:	01c4                	addi	s1,sp,196
      ee:	0000                	unimp
      f0:	0005                	c.nop	1
      f2:	ba09                	j	fffffa04 <__global_pointer$+0x6ffff204>
      f4:	0001                	nop
      f6:	0300                	addi	s0,sp,384
      f8:	bc20                	fsd	fs0,120(s0)
      fa:	0000                	unimp
      fc:	0a00                	addi	s0,sp,272
      fe:	0000016f          	jal	sp,fe <_tbss_end+0xba>
     102:	00250407          	0x250407
     106:	0000                	unimp
     108:	01212203          	lw	tp,18(sp)
     10c:	0000                	unimp
     10e:	00018f0b          	0x18f0b
     112:	0000                	unimp
     114:	00037a0b          	0x37a0b
     118:	0100                	addi	s0,sp,128
     11a:	0001fc0b          	0x1fc0b
     11e:	0200                	addi	s0,sp,256
     120:	0900                	addi	s0,sp,144
     122:	0221                	addi	tp,tp,8
     124:	0000                	unimp
     126:	00fd2703          	lw	a4,15(s10) # 1900f <_tbss_end+0x18fcb>
     12a:	0000                	unimp
     12c:	420c                	lw	a1,0(a2)
     12e:	0001                	nop
     130:	3700                	fld	fs0,40(a4)
     132:	0001                	nop
     134:	0d00                	addi	s0,sp,656
     136:	0e00                	addi	s0,sp,784
     138:	012c                	addi	a1,sp,136
     13a:	0000                	unimp
     13c:	0405                	addi	s0,s0,1
     13e:	014e                	slli	sp,sp,0x13
     140:	0000                	unimp
     142:	3c0e                	fld	fs8,224(sp)
     144:	0001                	nop
     146:	0200                	addi	s0,sp,256
     148:	0801                	addi	a6,a6,0
     14a:	020c                	addi	a1,sp,256
     14c:	0000                	unimp
     14e:	470e                	lw	a4,192(sp)
     150:	0001                	nop
     152:	0900                	addi	s0,sp,144
     154:	0180                	addi	s0,sp,192
     156:	0000                	unimp
     158:	2504                	fld	fs1,8(a0)
     15a:	00000137          	lui	sp,0x0
     15e:	1109                	addi	sp,sp,-30
     160:	0002                	c.slli	zero,0x0
     162:	0400                	addi	s0,sp,512
     164:	3731                	jal	70 <_tbss_end+0x2c>
     166:	0001                	nop
     168:	0200                	addi	s0,sp,256
     16a:	0601                	addi	a2,a2,0
     16c:	0205                	addi	tp,tp,1
     16e:	0000                	unimp
     170:	4204                	lw	s1,0(a2)
     172:	0002                	c.slli	zero,0x0
     174:	0500                	addi	s0,sp,640
     176:	0000b57b          	0xb57b
     17a:	0e00                	addi	s0,sp,784
     17c:	0170                	addi	a2,sp,140
     17e:	0000                	unimp
     180:	0202                	slli	tp,tp,0x0
     182:	0405                	addi	s0,s0,1
     184:	0001                	nop
     186:	0200                	addi	s0,sp,256
     188:	0702                	slli	a4,a4,0x0
     18a:	025c                	addi	a5,sp,260
     18c:	0000                	unimp
     18e:	7904                	flw	fs1,48(a0)
     190:	0002                	c.slli	zero,0x0
     192:	0500                	addi	s0,sp,640
     194:	3380                	fld	fs0,32(a5)
     196:	0000                	unimp
     198:	0400                	addi	s0,sp,512
     19a:	0278                	addi	a4,sp,268
     19c:	0000                	unimp
     19e:	8105                	srli	a0,a0,0x1
     1a0:	0025                	c.nop	9
     1a2:	0000                	unimp
     1a4:	e004                	fsw	fs1,0(s0)
     1a6:	0002                	c.slli	zero,0x0
     1a8:	0500                	addi	s0,sp,640
     1aa:	3a84                	fld	fs1,48(a3)
     1ac:	0000                	unimp
     1ae:	0400                	addi	s0,sp,512
     1b0:	02df 0000 8505      	0x8505000002df
     1b6:	002c                	addi	a1,sp,8
     1b8:	0000                	unimp
     1ba:	0402                	slli	s0,s0,0x0
     1bc:	1104                	addi	s1,sp,160
     1be:	0000                	unimp
     1c0:	0200                	addi	s0,sp,256
     1c2:	0308                	addi	a0,sp,384
     1c4:	0009                	c.nop	2
     1c6:	0000                	unimp
     1c8:	0802                	slli	a6,a6,0x0
     1ca:	0604                	addi	s1,sp,768
     1cc:	02000003          	lb	zero,32(zero) # 20 <_tdata_begin+0x20>
     1d0:	0310                	addi	a2,sp,384
     1d2:	0000014b          	fnmsub.s	ft2,ft0,ft0,ft0,rne
     1d6:	2002                	fld	ft0,0(sp)
     1d8:	0002f903          	0x2f903
     1dc:	0f00                	addi	s0,sp,912
     1de:	0000                	unimp
     1e0:	0000                	unimp
     1e2:	0508                	addi	a0,sp,640
     1e4:	01ed                	addi	gp,gp,27
     1e6:	0205                	addi	tp,tp,1
     1e8:	0000                	unimp
     1ea:	6c10                	flw	fa2,24(s0)
     1ec:	0500776f          	jal	a4,723c <_tbss_end+0x71f8>
     1f0:	01ed                	addi	gp,gp,27
     1f2:	018e                	slli	gp,gp,0x3
     1f4:	0000                	unimp
     1f6:	1100                	addi	s0,sp,160
     1f8:	010e                	slli	sp,sp,0x3
     1fa:	0000                	unimp
     1fc:	ed05                	bnez	a0,234 <_tbss_end+0x1f0>
     1fe:	8e01                	sub	a2,a2,s0
     200:	0001                	nop
     202:	0400                	addi	s0,sp,512
     204:	1200                	addi	s0,sp,288
     206:	0508                	addi	a0,sp,640
     208:	01f4                	addi	a3,sp,204
     20a:	0224                	addi	s1,sp,264
     20c:	0000                	unimp
     20e:	05007313          	andi	t1,zero,80
     212:	01f6                	slli	gp,gp,0x1d
     214:	01dd                	addi	gp,gp,23
     216:	0000                	unimp
     218:	006c6c13          	ori	s8,s8,6
     21c:	f705                	bnez	a4,144 <_tbss_end+0x100>
     21e:	a401                	j	41e <_tbss_end+0x3da>
     220:	0001                	nop
     222:	0000                	unimp
     224:	1314                	addi	a3,sp,416
     226:	0001                	nop
     228:	0500                	addi	s0,sp,640
     22a:	01f8                	addi	a4,sp,204
     22c:	0205                	addi	tp,tp,1
     22e:	0000                	unimp
     230:	240e                	fld	fs0,192(sp)
     232:	0002                	c.slli	zero,0x0
     234:	0c00                	addi	s0,sp,528
     236:	0000017b          	0x17b
     23a:	0245                	addi	tp,tp,17
     23c:	0000                	unimp
     23e:	2515                	jal	862 <_tbss_end+0x81e>
     240:	0000                	unimp
     242:	ff00                	fsw	fs0,56(a4)
     244:	0e00                	addi	s0,sp,784
     246:	0235                	addi	tp,tp,13
     248:	0000                	unimp
     24a:	ed16                	fsw	ft5,152(sp)
     24c:	0001                	nop
     24e:	0500                	addi	s0,sp,640
     250:	01fc                	addi	a5,sp,204
     252:	0245                	addi	tp,tp,17
     254:	0000                	unimp
     256:	d816                	sw	t0,48(sp)
     258:	0001                	nop
     25a:	0500                	addi	s0,sp,640
     25c:	0202                	slli	tp,tp,0x0
     25e:	0245                	addi	tp,tp,17
     260:	0000                	unimp
     262:	00026f17          	auipc	t5,0x26
     266:	0100                	addi	s0,sp,128
     268:	04e6                	slli	s1,s1,0x19
     26a:	01a4                	addi	s1,sp,200
     26c:	0000                	unimp
     26e:	1bfa                	slli	s7,s7,0x3e
     270:	8000                	0x8000
     272:	03d2                	slli	t2,t2,0x14
     274:	0000                	unimp
     276:	9c01                	0x9c01
     278:	000005a3          	sb	zero,11(zero) # b <_tdata_begin+0xb>
     27c:	7518                	flw	fa4,40(a0)
     27e:	0100                	addi	s0,sp,128
     280:	04e6                	slli	s1,s1,0x19
     282:	01a4                	addi	s1,sp,200
     284:	0000                	unimp
     286:	0000                	unimp
     288:	0000                	unimp
     28a:	7618                	flw	fa4,40(a2)
     28c:	0100                	addi	s0,sp,128
     28e:	04e6                	slli	s1,s1,0x19
     290:	01a4                	addi	s1,sp,200
     292:	0000                	unimp
     294:	0048                	addi	a0,sp,4
     296:	0000                	unimp
     298:	6319                	lui	t1,0x6
     29a:	0100                	addi	s0,sp,128
     29c:	04e8                	addi	a0,sp,588
     29e:	018e                	slli	gp,gp,0x3
     2a0:	0000                	unimp
     2a2:	0090                	addi	a2,sp,64
     2a4:	0000                	unimp
     2a6:	7519                	lui	a0,0xfffe6
     2a8:	0075                	c.nop	29
     2aa:	e901                	bnez	a0,2ba <_tbss_end+0x276>
     2ac:	2404                	fld	fs1,8(s0)
     2ae:	0002                	c.slli	zero,0x0
     2b0:	c700                	sw	s0,8(a4)
     2b2:	0000                	unimp
     2b4:	1900                	addi	s0,sp,176
     2b6:	7676                	flw	fa2,124(sp)
     2b8:	0100                	addi	s0,sp,128
     2ba:	04ea                	slli	s1,s1,0x1a
     2bc:	0224                	addi	s1,sp,264
     2be:	0000                	unimp
     2c0:	00ff                	0xff
     2c2:	0000                	unimp
     2c4:	7719                	lui	a4,0xfffe6
     2c6:	0100                	addi	s0,sp,128
     2c8:	01a404eb          	0x1a404eb
     2cc:	0000                	unimp
     2ce:	00000127          	0x127
     2d2:	a31a                	fsd	ft6,384(sp)
     2d4:	0005                	c.nop	1
     2d6:	1200                	addi	s0,sp,288
     2d8:	001c                	0x1c
     2da:	0080                	addi	s0,sp,64
     2dc:	0000                	unimp
     2de:	0100                	addi	s0,sp,128
     2e0:	c81b04f3          	0xc81b04f3
     2e4:	0005                	c.nop	1
     2e6:	5f00                	lw	s0,56(a4)
     2e8:	0001                	nop
     2ea:	1c00                	addi	s0,sp,560
     2ec:	05be                	slli	a1,a1,0xf
     2ee:	0000                	unimp
     2f0:	b41c                	fsd	fa5,40(s0)
     2f2:	0005                	c.nop	1
     2f4:	1d00                	addi	s0,sp,688
     2f6:	0000                	unimp
     2f8:	0000                	unimp
     2fa:	d31e                	sw	t2,164(sp)
     2fc:	0005                	c.nop	1
     2fe:	1e00                	addi	s0,sp,816
     300:	05de                	slli	a1,a1,0x17
     302:	0000                	unimp
     304:	e91e                	fsw	ft7,144(sp)
     306:	0005                	c.nop	1
     308:	1f00                	addi	s0,sp,944
     30a:	05f4                	addi	a3,sp,716
     30c:	0000                	unimp
     30e:	00000197          	auipc	gp,0x0
     312:	ff1f 0005 5a00      	0x5a000005ff1f
     318:	0002                	c.slli	zero,0x0
     31a:	1f00                	addi	s0,sp,944
     31c:	060a                	slli	a2,a2,0x2
     31e:	0000                	unimp
     320:	02f1                	addi	t0,t0,28
     322:	0000                	unimp
     324:	151f 0006 aa00      	0xaa000006151f
     32a:	1f000003          	lb	zero,496(zero) # 1f0 <_tbss_end+0x1ac>
     32e:	0620                	addi	s0,sp,776
     330:	0000                	unimp
     332:	0420                	addi	s0,sp,520
     334:	0000                	unimp
     336:	2b1f 0006 4e00      	0x4e0000062b1f
     33c:	0004                	0x4
     33e:	1f00                	addi	s0,sp,944
     340:	0636                	slli	a2,a2,0xd
     342:	0000                	unimp
     344:	0462                	slli	s0,s0,0x18
     346:	0000                	unimp
     348:	411f 0006 8e00      	0x8e000006411f
     34e:	0004                	0x4
     350:	1f00                	addi	s0,sp,944
     352:	0000064b          	fnmsub.s	fa2,ft0,ft0,ft0,rne
     356:	04c2                	slli	s1,s1,0x10
     358:	0000                	unimp
     35a:	561e                	lw	a2,228(sp)
     35c:	0006                	c.slli	zero,0x1
     35e:	2000                	fld	fs0,0(s0)
     360:	0661                	addi	a2,a2,24
     362:	0000                	unimp
     364:	0020                	addi	s0,sp,8
     366:	0000                	unimp
     368:	037f                	0x37f
     36a:	0000                	unimp
     36c:	661f 0006 2200      	0x22000006661f
     372:	0005                	c.nop	1
     374:	1f00                	addi	s0,sp,944
     376:	0672                	slli	a2,a2,0x1c
     378:	0000                	unimp
     37a:	0000054b          	fnmsub.s	fa0,ft0,ft0,ft0,rne
     37e:	2100                	fld	fs0,0(a0)
     380:	067f                	0x67f
     382:	0000                	unimp
     384:	1c64                	addi	s1,sp,572
     386:	8000                	0x8000
     388:	004a                	c.slli	zero,0x12
     38a:	0000                	unimp
     38c:	03cc                	addi	a1,sp,452
     38e:	0000                	unimp
     390:	841f 0006 5e00      	0x5e000006841f
     396:	0005                	c.nop	1
     398:	1f00                	addi	s0,sp,944
     39a:	0690                	addi	a2,sp,832
     39c:	0000                	unimp
     39e:	0571                	addi	a0,a0,28
     3a0:	0000                	unimp
     3a2:	9c1f 0006 9500      	0x950000069c1f
     3a8:	0005                	c.nop	1
     3aa:	1e00                	addi	s0,sp,816
     3ac:	06a8                	addi	a0,sp,840
     3ae:	0000                	unimp
     3b0:	b41f 0006 e300      	0xe3000006b41f
     3b6:	0005                	c.nop	1
     3b8:	1f00                	addi	s0,sp,944
     3ba:	06c0                	addi	s0,sp,836
     3bc:	0000                	unimp
     3be:	0611                	addi	a2,a2,4
     3c0:	0000                	unimp
     3c2:	cc1f 0006 2f00      	0x2f000006cc1f
     3c8:	0006                	c.slli	zero,0x1
     3ca:	0000                	unimp
     3cc:	5120                	lw	s0,96(a0)
     3ce:	40000007          	0x40000007
     3d2:	0000                	unimp
     3d4:	1100                	addi	s0,sp,160
     3d6:	0004                	0x4
     3d8:	1f00                	addi	s0,sp,944
     3da:	0756                	slli	a4,a4,0x15
     3dc:	0000                	unimp
     3de:	067a                	slli	a2,a2,0x1e
     3e0:	0000                	unimp
     3e2:	621f 0007 a000      	0xa0000007621f
     3e8:	0006                	c.slli	zero,0x1
     3ea:	1e00                	addi	s0,sp,816
     3ec:	076e                	slli	a4,a4,0x1b
     3ee:	0000                	unimp
     3f0:	7a1e                	flw	fs4,228(sp)
     3f2:	1f000007          	0x1f000007
     3f6:	0786                	slli	a5,a5,0x1
     3f8:	0000                	unimp
     3fa:	06ca                	slli	a3,a3,0x12
     3fc:	0000                	unimp
     3fe:	921f 0007 f300      	0xf3000007921f
     404:	0006                	c.slli	zero,0x1
     406:	1f00                	addi	s0,sp,944
     408:	079e                	slli	a5,a5,0x7
     40a:	0000                	unimp
     40c:	0754                	addi	a3,sp,900
     40e:	0000                	unimp
     410:	2000                	fld	fs0,0(s0)
     412:	000007ab          	0x7ab
     416:	0060                	addi	s0,sp,12
     418:	0000                	unimp
     41a:	0431                	addi	s0,s0,12
     41c:	0000                	unimp
     41e:	b01f 0007 7d00      	0x7d000007b01f
     424:	1f000007          	0x1f000007
     428:	07bc                	addi	a5,sp,968
     42a:	0000                	unimp
     42c:	07bc                	addi	a5,sp,968
     42e:	0000                	unimp
     430:	2100                	fld	fs0,0(a0)
     432:	07c9                	addi	a5,a5,18
     434:	0000                	unimp
     436:	1d0a                	slli	s10,s10,0x22
     438:	8000                	0x8000
     43a:	000e                	c.slli	zero,0x3
     43c:	0000                	unimp
     43e:	044c                	addi	a1,sp,516
     440:	0000                	unimp
     442:	ce1f 0007 da00      	0xda000007ce1f
     448:	00000007          	0x7
     44c:	d920                	sw	s0,112(a0)
     44e:	0006                	c.slli	zero,0x1
     450:	8800                	0x8800
     452:	0000                	unimp
     454:	6c00                	flw	fs0,24(s0)
     456:	0004                	0x4
     458:	1f00                	addi	s0,sp,944
     45a:	06de                	slli	a3,a3,0x17
     45c:	0000                	unimp
     45e:	07ed                	addi	a5,a5,27
     460:	0000                	unimp
     462:	ea1f 0006 3700      	0x37000006ea1f
     468:	0008                	0x8
     46a:	0000                	unimp
     46c:	f720                	fsw	fs0,104(a4)
     46e:	0006                	c.slli	zero,0x1
     470:	a800                	fsd	fs0,16(s0)
     472:	0000                	unimp
     474:	b100                	fsd	fs0,32(a0)
     476:	0004                	0x4
     478:	1f00                	addi	s0,sp,944
     47a:	06fc                	addi	a5,sp,844
     47c:	0000                	unimp
     47e:	084a                	slli	a6,a6,0x12
     480:	0000                	unimp
     482:	081f 0007 5d00      	0x5d000007081f
     488:	0008                	0x8
     48a:	1e00                	addi	s0,sp,816
     48c:	0714                	addi	a3,sp,896
     48e:	0000                	unimp
     490:	201e                	fld	ft0,448(sp)
     492:	1f000007          	0x1f000007
     496:	072c                	addi	a1,sp,904
     498:	0000                	unimp
     49a:	0870                	addi	a2,sp,28
     49c:	0000                	unimp
     49e:	381f 0007 8e00      	0x8e000007381f
     4a4:	0008                	0x8
     4a6:	1f00                	addi	s0,sp,944
     4a8:	0744                	addi	s1,sp,900
     4aa:	0000                	unimp
     4ac:	08ac                	addi	a1,sp,88
     4ae:	0000                	unimp
     4b0:	2200                	fld	fs0,0(a2)
     4b2:	000007db          	0x7db
     4b6:	00d0                	addi	a2,sp,68
     4b8:	0000                	unimp
     4ba:	dc1f 0007 ca00      	0xca000007dc1f
     4c0:	0008                	0x8
     4c2:	1f00                	addi	s0,sp,944
     4c4:	000007e7          	jalr	a5,zero
     4c8:	0906                	slli	s2,s2,0x1
     4ca:	0000                	unimp
     4cc:	f220                	fsw	fs0,96(a2)
     4ce:	f0000007          	0xf0000007
     4d2:	0000                	unimp
     4d4:	1900                	addi	s0,sp,176
     4d6:	0005                	c.nop	1
     4d8:	1f00                	addi	s0,sp,944
     4da:	000007f7          	0x7f7
     4de:	0000092f          	0x92f
     4e2:	031f 0008 7a00      	0x7a000008031f
     4e8:	0009                	c.nop	2
     4ea:	1f00                	addi	s0,sp,944
     4ec:	0000080f          	0x80f
     4f0:	000009cb          	fnmsub.s	fs3,ft0,ft0,ft0,rne
     4f4:	1b1f 0008 0a00      	0xa0000081b1f
     4fa:	000a                	c.slli	zero,0x2
     4fc:	1f00                	addi	s0,sp,944
     4fe:	00000827          	0x827
     502:	0a3e                	slli	s4,s4,0xf
     504:	0000                	unimp
     506:	331f 0008 8200      	0x82000008331f
     50c:	000a                	c.slli	zero,0x2
     50e:	1f00                	addi	s0,sp,944
     510:	0000083f 00000ad3 	0xad30000083f
     518:	2000                	fld	fs0,0(s0)
     51a:	084c                	addi	a1,sp,20
     51c:	0000                	unimp
     51e:	0128                	addi	a0,sp,136
     520:	0000                	unimp
     522:	056d                	addi	a0,a0,27
     524:	0000                	unimp
     526:	511f 0008 1200      	0x12000008511f
     52c:	1f00000b          	0x1f00000b
     530:	085d                	addi	a6,a6,23
     532:	0000                	unimp
     534:	0b25                	addi	s6,s6,9
     536:	0000                	unimp
     538:	691f 0008 4a00      	0x4a000008691f
     53e:	1f00000b          	0x1f00000b
     542:	0875                	addi	a6,a6,29
     544:	0000                	unimp
     546:	0b5d                	addi	s6,s6,23
     548:	0000                	unimp
     54a:	811f 0008 7000      	0x70000008811f
     550:	1f00000b          	0x1f00000b
     554:	088d                	addi	a7,a7,3
     556:	0000                	unimp
     558:	00000b83          	lb	s7,0(zero) # 0 <_tdata_begin>
     55c:	991f 0008 d600      	0xd6000008991f
     562:	2300000b          	0x2300000b
     566:	08a5                	addi	a7,a7,9
     568:	0000                	unimp
     56a:	5b01                	li	s6,-32
     56c:	2100                	fld	fs0,0(a0)
     56e:	08b2                	slli	a7,a7,0xc
     570:	0000                	unimp
     572:	1f6a                	slli	t5,t5,0x3a
     574:	8000                	0x8000
     576:	0012                	c.slli	zero,0x4
     578:	0000                	unimp
     57a:	0588                	addi	a0,sp,704
     57c:	0000                	unimp
     57e:	b71f 0008 e900      	0xe9000008b71f
     584:	0000000b          	0xb
     588:	c424                	sw	s1,72(s0)
     58a:	0008                	0x8
     58c:	7c00                	flw	fs0,56(s0)
     58e:	001f 0a80 0000      	0xa80001f
     594:	1f00                	addi	s0,sp,944
     596:	08c5                	addi	a7,a7,17
     598:	0000                	unimp
     59a:	0bfc                	addi	a5,sp,476
     59c:	0000                	unimp
     59e:	0000                	unimp
     5a0:	0000                	unimp
     5a2:	2500                	fld	fs0,8(a0)
     5a4:	02ec                	addi	a1,sp,332
     5a6:	0000                	unimp
     5a8:	f601                	bnez	a2,4b0 <_tbss_end+0x46c>
     5aa:	0001af03          	lw	t5,0(gp) # 30e <_tbss_end+0x2ca>
     5ae:	0300                	addi	s0,sp,384
     5b0:	08d4                	addi	a3,sp,84
     5b2:	0000                	unimp
     5b4:	6e26                	flw	ft8,72(sp)
     5b6:	0100                	addi	s0,sp,128
     5b8:	03f6                	slli	t2,t2,0x1d
     5ba:	000001af          	0x1af
     5be:	6426                	flw	fs0,72(sp)
     5c0:	0100                	addi	s0,sp,128
     5c2:	03f6                	slli	t2,t2,0x1d
     5c4:	000001af          	0x1af
     5c8:	7226                	flw	ft4,104(sp)
     5ca:	0070                	addi	a2,sp,12
     5cc:	f601                	bnez	a2,4d4 <_tbss_end+0x490>
     5ce:	0008d403          	lhu	s0,0(a7)
     5d2:	2700                	fld	fs0,8(a4)
     5d4:	6e6e                	flw	ft8,216(sp)
     5d6:	0100                	addi	s0,sp,128
     5d8:	03f8                	addi	a4,sp,460
     5da:	0230                	addi	a2,sp,264
     5dc:	0000                	unimp
     5de:	00646427          	0x646427
     5e2:	f901                	bnez	a0,4f2 <_tbss_end+0x4ae>
     5e4:	00023003          	0x23003
     5e8:	2700                	fld	fs0,8(a4)
     5ea:	7272                	flw	ft4,60(sp)
     5ec:	0100                	addi	s0,sp,128
     5ee:	03fa                	slli	t2,t2,0x1e
     5f0:	0224                	addi	s1,sp,264
     5f2:	0000                	unimp
     5f4:	00306427          	0x306427
     5f8:	fb01                	bnez	a4,508 <_tbss_end+0x4c4>
     5fa:	00019903          	lh	s2,0(gp) # 90000800 <__global_pointer$>
     5fe:	2700                	fld	fs0,8(a4)
     600:	3164                	fld	fs1,224(a0)
     602:	0100                	addi	s0,sp,128
     604:	019903fb          	0x19903fb
     608:	0000                	unimp
     60a:	00306e27          	0x306e27
     60e:	fb01                	bnez	a4,51e <_tbss_end+0x4da>
     610:	00019903          	lh	s2,0(gp) # 90000800 <__global_pointer$>
     614:	2700                	fld	fs0,8(a4)
     616:	316e                	fld	ft2,248(sp)
     618:	0100                	addi	s0,sp,128
     61a:	019903fb          	0x19903fb
     61e:	0000                	unimp
     620:	00326e27          	0x326e27
     624:	fb01                	bnez	a4,534 <_tbss_end+0x4f0>
     626:	00019903          	lh	s2,0(gp) # 90000800 <__global_pointer$>
     62a:	2700                	fld	fs0,8(a4)
     62c:	3071                	jal	fffffeb8 <__global_pointer$+0x6ffff6b8>
     62e:	0100                	addi	s0,sp,128
     630:	03fc                	addi	a5,sp,460
     632:	0199                	addi	gp,gp,6
     634:	0000                	unimp
     636:	00317127          	0x317127
     63a:	fc01                	bnez	s0,552 <_tbss_end+0x50e>
     63c:	00019903          	lh	s2,0(gp) # 90000800 <__global_pointer$>
     640:	2700                	fld	fs0,8(a4)
     642:	0062                	c.slli	zero,0x18
     644:	fd01                	bnez	a0,55c <_tbss_end+0x518>
     646:	00019903          	lh	s2,0(gp) # 90000800 <__global_pointer$>
     64a:	2700                	fld	fs0,8(a4)
     64c:	6d62                	flw	fs10,24(sp)
     64e:	0100                	addi	s0,sp,128
     650:	03fd                	addi	t2,t2,31
     652:	0199                	addi	gp,gp,6
     654:	0000                	unimp
     656:	00777727          	0x777727
     65a:	c601                	beqz	a2,662 <_tbss_end+0x61e>
     65c:	3004                	fld	fs1,32(s0)
     65e:	0002                	c.slli	zero,0x0
     660:	2800                	fld	fs0,16(s0)
     662:	067f                	0x67f
     664:	0000                	unimp
     666:	e729                	bnez	a4,6b0 <_tbss_end+0x66c>
     668:	0002                	c.slli	zero,0x0
     66a:	0100                	addi	s0,sp,128
     66c:	042d                	addi	s0,s0,11
     66e:	0199                	addi	gp,gp,6
     670:	0000                	unimp
     672:	615f5f27          	0x615f5f27
     676:	0100                	addi	s0,sp,128
     678:	042d                	addi	s0,s0,11
     67a:	0199                	addi	gp,gp,6
     67c:	0000                	unimp
     67e:	2800                	fld	fs0,16(s0)
     680:	06d9                	addi	a3,a3,22
     682:	0000                	unimp
     684:	3d29                	jal	49e <_tbss_end+0x45a>
     686:	0001                	nop
     688:	0100                	addi	s0,sp,128
     68a:	0439                	addi	s0,s0,14
     68c:	0199                	addi	gp,gp,6
     68e:	0000                	unimp
     690:	3829                	jal	fffffeaa <__global_pointer$+0x6ffff6aa>
     692:	0001                	nop
     694:	0100                	addi	s0,sp,128
     696:	0439                	addi	s0,s0,14
     698:	0199                	addi	gp,gp,6
     69a:	0000                	unimp
     69c:	d029                	beqz	s0,5de <_tbss_end+0x59a>
     69e:	0002                	c.slli	zero,0x0
     6a0:	0100                	addi	s0,sp,128
     6a2:	0439                	addi	s0,s0,14
     6a4:	0199                	addi	gp,gp,6
     6a6:	0000                	unimp
     6a8:	cb29                	beqz	a4,6fa <_tbss_end+0x6b6>
     6aa:	0002                	c.slli	zero,0x0
     6ac:	0100                	addi	s0,sp,128
     6ae:	0439                	addi	s0,s0,14
     6b0:	0199                	addi	gp,gp,6
     6b2:	0000                	unimp
     6b4:	1229                	addi	tp,tp,-22
     6b6:	01000003          	lb	zero,16(zero) # 10 <_tdata_begin+0x10>
     6ba:	0439                	addi	s0,s0,14
     6bc:	0199                	addi	gp,gp,6
     6be:	0000                	unimp
     6c0:	0d29                	addi	s10,s10,10
     6c2:	01000003          	lb	zero,16(zero) # 10 <_tdata_begin+0x10>
     6c6:	0439                	addi	s0,s0,14
     6c8:	0199                	addi	gp,gp,6
     6ca:	0000                	unimp
     6cc:	6d5f5f27          	0x6d5f5f27
     6d0:	0100                	addi	s0,sp,128
     6d2:	0439                	addi	s0,s0,14
     6d4:	0199                	addi	gp,gp,6
     6d6:	0000                	unimp
     6d8:	2800                	fld	fs0,16(s0)
     6da:	000006f7          	0x6f7
     6de:	e729                	bnez	a4,728 <_tbss_end+0x6e4>
     6e0:	0002                	c.slli	zero,0x0
     6e2:	0100                	addi	s0,sp,128
     6e4:	0445                	addi	s0,s0,17
     6e6:	0199                	addi	gp,gp,6
     6e8:	0000                	unimp
     6ea:	615f5f27          	0x615f5f27
     6ee:	0100                	addi	s0,sp,128
     6f0:	0445                	addi	s0,s0,17
     6f2:	0199                	addi	gp,gp,6
     6f4:	0000                	unimp
     6f6:	2800                	fld	fs0,16(s0)
     6f8:	0751                	addi	a4,a4,20
     6fa:	0000                	unimp
     6fc:	3d29                	jal	516 <_tbss_end+0x4d2>
     6fe:	0001                	nop
     700:	0100                	addi	s0,sp,128
     702:	045e                	slli	s0,s0,0x17
     704:	0199                	addi	gp,gp,6
     706:	0000                	unimp
     708:	3829                	jal	ffffff22 <__global_pointer$+0x6ffff722>
     70a:	0001                	nop
     70c:	0100                	addi	s0,sp,128
     70e:	045e                	slli	s0,s0,0x17
     710:	0199                	addi	gp,gp,6
     712:	0000                	unimp
     714:	d029                	beqz	s0,656 <_tbss_end+0x612>
     716:	0002                	c.slli	zero,0x0
     718:	0100                	addi	s0,sp,128
     71a:	045e                	slli	s0,s0,0x17
     71c:	0199                	addi	gp,gp,6
     71e:	0000                	unimp
     720:	cb29                	beqz	a4,772 <_tbss_end+0x72e>
     722:	0002                	c.slli	zero,0x0
     724:	0100                	addi	s0,sp,128
     726:	045e                	slli	s0,s0,0x17
     728:	0199                	addi	gp,gp,6
     72a:	0000                	unimp
     72c:	1229                	addi	tp,tp,-22
     72e:	01000003          	lb	zero,16(zero) # 10 <_tdata_begin+0x10>
     732:	045e                	slli	s0,s0,0x17
     734:	0199                	addi	gp,gp,6
     736:	0000                	unimp
     738:	0d29                	addi	s10,s10,10
     73a:	01000003          	lb	zero,16(zero) # 10 <_tdata_begin+0x10>
     73e:	045e                	slli	s0,s0,0x17
     740:	0199                	addi	gp,gp,6
     742:	0000                	unimp
     744:	6d5f5f27          	0x6d5f5f27
     748:	0100                	addi	s0,sp,128
     74a:	045e                	slli	s0,s0,0x17
     74c:	0199                	addi	gp,gp,6
     74e:	0000                	unimp
     750:	2800                	fld	fs0,16(s0)
     752:	000007ab          	0x7ab
     756:	3d29                	jal	570 <_tbss_end+0x52c>
     758:	0001                	nop
     75a:	0100                	addi	s0,sp,128
     75c:	01990463          	beq	s2,s9,764 <_tbss_end+0x720>
     760:	0000                	unimp
     762:	3829                	jal	ffffff7c <__global_pointer$+0x6ffff77c>
     764:	0001                	nop
     766:	0100                	addi	s0,sp,128
     768:	01990463          	beq	s2,s9,770 <_tbss_end+0x72c>
     76c:	0000                	unimp
     76e:	d029                	beqz	s0,6b0 <_tbss_end+0x66c>
     770:	0002                	c.slli	zero,0x0
     772:	0100                	addi	s0,sp,128
     774:	01990463          	beq	s2,s9,77c <_tbss_end+0x738>
     778:	0000                	unimp
     77a:	cb29                	beqz	a4,7cc <_tbss_end+0x788>
     77c:	0002                	c.slli	zero,0x0
     77e:	0100                	addi	s0,sp,128
     780:	01990463          	beq	s2,s9,788 <_tbss_end+0x744>
     784:	0000                	unimp
     786:	1229                	addi	tp,tp,-22
     788:	01000003          	lb	zero,16(zero) # 10 <_tdata_begin+0x10>
     78c:	01990463          	beq	s2,s9,794 <_tbss_end+0x750>
     790:	0000                	unimp
     792:	0d29                	addi	s10,s10,10
     794:	01000003          	lb	zero,16(zero) # 10 <_tdata_begin+0x10>
     798:	01990463          	beq	s2,s9,7a0 <_tbss_end+0x75c>
     79c:	0000                	unimp
     79e:	6d5f5f27          	0x6d5f5f27
     7a2:	0100                	addi	s0,sp,128
     7a4:	01990463          	beq	s2,s9,7ac <_tbss_end+0x768>
     7a8:	0000                	unimp
     7aa:	2800                	fld	fs0,16(s0)
     7ac:	07c9                	addi	a5,a5,18
     7ae:	0000                	unimp
     7b0:	e729                	bnez	a4,7fa <_tbss_end+0x7b6>
     7b2:	0002                	c.slli	zero,0x0
     7b4:	0100                	addi	s0,sp,128
     7b6:	0486                	slli	s1,s1,0x1
     7b8:	0199                	addi	gp,gp,6
     7ba:	0000                	unimp
     7bc:	615f5f27          	0x615f5f27
     7c0:	0100                	addi	s0,sp,128
     7c2:	0486                	slli	s1,s1,0x1
     7c4:	0199                	addi	gp,gp,6
     7c6:	0000                	unimp
     7c8:	2800                	fld	fs0,16(s0)
     7ca:	000007db          	0x7db
     7ce:	785f5f27          	0x785f5f27
     7d2:	0100                	addi	s0,sp,128
     7d4:	0494                	addi	a3,sp,576
     7d6:	0199                	addi	gp,gp,6
     7d8:	0000                	unimp
     7da:	2a00                	fld	fs0,16(a2)
     7dc:	00316d27          	0x316d27
     7e0:	a401                	j	9e0 <_tbss_end+0x99c>
     7e2:	9904                	0x9904
     7e4:	0001                	nop
     7e6:	2700                	fld	fs0,8(a4)
     7e8:	306d                	jal	92 <_tbss_end+0x4e>
     7ea:	0100                	addi	s0,sp,128
     7ec:	04a4                	addi	s1,sp,584
     7ee:	0199                	addi	gp,gp,6
     7f0:	0000                	unimp
     7f2:	4c28                	lw	a0,88(s0)
     7f4:	0008                	0x8
     7f6:	2900                	fld	fs0,16(a0)
     7f8:	013d                	addi	sp,sp,15
     7fa:	0000                	unimp
     7fc:	af01                	j	f0c <_tbss_end+0xec8>
     7fe:	9904                	0x9904
     800:	0001                	nop
     802:	2900                	fld	fs0,16(a0)
     804:	0138                	addi	a4,sp,136
     806:	0000                	unimp
     808:	af01                	j	f18 <_tbss_end+0xed4>
     80a:	9904                	0x9904
     80c:	0001                	nop
     80e:	2900                	fld	fs0,16(a0)
     810:	02d0                	addi	a2,sp,324
     812:	0000                	unimp
     814:	af01                	j	f24 <_tbss_end+0xee0>
     816:	9904                	0x9904
     818:	0001                	nop
     81a:	2900                	fld	fs0,16(a0)
     81c:	000002cb          	fnmsub.s	ft5,ft0,ft0,ft0,rne
     820:	af01                	j	f30 <_tbss_end+0xeec>
     822:	9904                	0x9904
     824:	0001                	nop
     826:	2900                	fld	fs0,16(a0)
     828:	0312                	slli	t1,t1,0x4
     82a:	0000                	unimp
     82c:	af01                	j	f3c <_tbss_end+0xef8>
     82e:	9904                	0x9904
     830:	0001                	nop
     832:	2900                	fld	fs0,16(a0)
     834:	030d                	addi	t1,t1,3
     836:	0000                	unimp
     838:	af01                	j	f48 <_tbss_end+0xf04>
     83a:	9904                	0x9904
     83c:	0001                	nop
     83e:	2700                	fld	fs0,8(a4)
     840:	5f5f 006d af01      	0xaf01006d5f5f
     846:	9904                	0x9904
     848:	0001                	nop
     84a:	0000                	unimp
     84c:	b228                	fsd	fa0,96(a2)
     84e:	0008                	0x8
     850:	2900                	fld	fs0,16(a0)
     852:	022e                	slli	tp,tp,0xb
     854:	0000                	unimp
     856:	b001                	j	56 <_tbss_end+0x12>
     858:	9904                	0x9904
     85a:	0001                	nop
     85c:	2900                	fld	fs0,16(a0)
     85e:	00000233          	add	tp,zero,zero
     862:	b001                	j	62 <_tbss_end+0x1e>
     864:	9904                	0x9904
     866:	0001                	nop
     868:	2900                	fld	fs0,16(a0)
     86a:	0238                	addi	a4,sp,264
     86c:	0000                	unimp
     86e:	b001                	j	6e <_tbss_end+0x2a>
     870:	9904                	0x9904
     872:	0001                	nop
     874:	2900                	fld	fs0,16(a0)
     876:	023d                	addi	tp,tp,15
     878:	0000                	unimp
     87a:	b001                	j	7a <_tbss_end+0x36>
     87c:	9904                	0x9904
     87e:	0001                	nop
     880:	2900                	fld	fs0,16(a0)
     882:	0326                	slli	t1,t1,0x9
     884:	0000                	unimp
     886:	b001                	j	86 <_tbss_end+0x42>
     888:	9904                	0x9904
     88a:	0001                	nop
     88c:	2900                	fld	fs0,16(a0)
     88e:	016a                	slli	sp,sp,0x1a
     890:	0000                	unimp
     892:	b001                	j	92 <_tbss_end+0x4e>
     894:	9904                	0x9904
     896:	0001                	nop
     898:	2900                	fld	fs0,16(a0)
     89a:	00000317          	auipc	t1,0x0
     89e:	b001                	j	9e <_tbss_end+0x5a>
     8a0:	9904                	0x9904
     8a2:	0001                	nop
     8a4:	2900                	fld	fs0,16(a0)
     8a6:	015a                	slli	sp,sp,0x16
     8a8:	0000                	unimp
     8aa:	b001                	j	aa <_tbss_end+0x66>
     8ac:	9904                	0x9904
     8ae:	0001                	nop
     8b0:	0000                	unimp
     8b2:	c428                	sw	a0,72(s0)
     8b4:	0008                	0x8
     8b6:	2700                	fld	fs0,8(a4)
     8b8:	5f5f 0078 b501      	0xb50100785f5f
     8be:	9904                	0x9904
     8c0:	0001                	nop
     8c2:	0000                	unimp
     8c4:	272a                	fld	fa4,136(sp)
     8c6:	5f5f 0078 bd01      	0xbd0100785f5f
     8cc:	9904                	0x9904
     8ce:	0001                	nop
     8d0:	0000                	unimp
     8d2:	0000                	unimp
     8d4:	0405                	addi	s0,s0,1
     8d6:	000001af          	0x1af
     8da:	6600                	flw	fs0,8(a2)
     8dc:	0008                	0x8
     8de:	0400                	addi	s0,sp,512
     8e0:	f200                	fsw	fs0,32(a2)
     8e2:	0001                	nop
     8e4:	0400                	addi	s0,sp,512
     8e6:	2701                	jal	fe6 <_tbss_end+0xfa2>
     8e8:	0000                	unimp
     8ea:	0c00                	addi	s0,sp,528
     8ec:	0280                	addi	s0,sp,320
     8ee:	0000                	unimp
     8f0:	0000032b          	0x32b
     8f4:	0308                	addi	a0,sp,384
     8f6:	0000                	unimp
     8f8:	0000                	unimp
     8fa:	0000                	unimp
     8fc:	0348                	addi	a0,sp,388
     8fe:	0000                	unimp
     900:	0802                	slli	a6,a6,0x0
     902:	0001a307          	flw	ft6,0(gp) # 90000800 <__global_pointer$>
     906:	0200                	addi	s0,sp,256
     908:	0704                	addi	s1,sp,896
     90a:	01ad                	addi	gp,gp,11
     90c:	0000                	unimp
     90e:	69050403          	lb	s0,1680(a0) # fffe6690 <__global_pointer$+0x6ffe5e90>
     912:	746e                	flw	fs0,248(sp)
     914:	0200                	addi	s0,sp,256
     916:	0508                	addi	a0,sp,640
     918:	012a                	slli	sp,sp,0xa
     91a:	0000                	unimp
     91c:	1002                	c.slli	zero,0x20
     91e:	0104                	addi	s1,sp,128
     920:	04000003          	lb	zero,64(zero) # 40 <buflen.2811>
     924:	02d5                	addi	t0,t0,21
     926:	0000                	unimp
     928:	2a02                	fld	fs4,0(sp)
     92a:	002c                	addi	a1,sp,8
     92c:	0000                	unimp
     92e:	9904                	0x9904
     930:	0001                	nop
     932:	0200                	addi	s0,sp,256
     934:	00005e2f          	0x5e2f
     938:	0500                	addi	s0,sp,640
     93a:	6404                	flw	fs1,8(s0)
     93c:	0000                	unimp
     93e:	0600                	addi	s0,sp,768
     940:	0048                	addi	a0,sp,4
     942:	0000                	unimp
     944:	00000073          	ecall
     948:	00007307          	0x7307
     94c:	0000                	unimp
     94e:	0405                	addi	s0,s0,1
     950:	0079                	c.nop	30
     952:	0000                	unimp
     954:	0408                	addi	a0,sp,512
     956:	0372                	slli	t1,t1,0x1c
     958:	0000                	unimp
     95a:	3602                	fld	fa2,32(sp)
     95c:	0085                	addi	ra,ra,1
     95e:	0000                	unimp
     960:	0405                	addi	s0,s0,1
     962:	0000008b          	0x8b
     966:	3306                	fld	ft6,96(sp)
     968:	0000                	unimp
     96a:	9f00                	0x9f00
     96c:	0000                	unimp
     96e:	0700                	addi	s0,sp,896
     970:	00000073          	ecall
     974:	00007307          	0x7307
     978:	0000                	unimp
     97a:	4a09                	li	s4,2
     97c:	0002                	c.slli	zero,0x0
     97e:	0200                	addi	s0,sp,256
     980:	000053bb          	0x53bb
     984:	0900                	addi	s0,sp,144
     986:	00000017          	auipc	zero,0x0
     98a:	be02                	fsd	ft0,312(sp)
     98c:	007a                	c.slli	zero,0x1e
     98e:	0000                	unimp
     990:	0102                	slli	sp,sp,0x0
     992:	0308                	addi	a0,sp,384
     994:	0002                	c.slli	zero,0x0
     996:	0a00                	addi	s0,sp,272
     998:	0000011b          	0x11b
     99c:	002c0407          	0x2c0407
     9a0:	0000                	unimp
     9a2:	00f21803          	lh	a6,15(tp) # 1b00f <_tbss_end+0x1afcb>
     9a6:	0000                	unimp
     9a8:	00031c0b          	0x31c0b
     9ac:	0000                	unimp
     9ae:	00015f0b          	0x15f0b
     9b2:	0100                	addi	s0,sp,128
     9b4:	0001e20b          	0x1e20b
     9b8:	0200                	addi	s0,sp,256
     9ba:	0001420b          	0x1420b
     9be:	0300                	addi	s0,sp,384
     9c0:	0001ce0b          	0x1ce0b
     9c4:	0400                	addi	s0,sp,512
     9c6:	0001c40b          	0x1c40b
     9ca:	0500                	addi	s0,sp,640
     9cc:	0900                	addi	s0,sp,144
     9ce:	01ba                	slli	gp,gp,0xe
     9d0:	0000                	unimp
     9d2:	00bc2003          	lw	zero,11(s8) # fffe000b <__global_pointer$+0x6ffdf80b>
     9d6:	0000                	unimp
     9d8:	6f0a                	flw	ft10,128(sp)
     9da:	0001                	nop
     9dc:	0700                	addi	s0,sp,896
     9de:	2c04                	fld	fs1,24(s0)
     9e0:	0000                	unimp
     9e2:	0300                	addi	s0,sp,384
     9e4:	2122                	fld	ft2,8(sp)
     9e6:	0001                	nop
     9e8:	0b00                	addi	s0,sp,400
     9ea:	0000018f          	0x18f
     9ee:	0b00                	addi	s0,sp,400
     9f0:	037a                	slli	t1,t1,0x1e
     9f2:	0000                	unimp
     9f4:	0b01                	addi	s6,s6,0
     9f6:	01fc                	addi	a5,sp,204
     9f8:	0000                	unimp
     9fa:	0002                	c.slli	zero,0x0
     9fc:	2109                	jal	dfe <_tbss_end+0xdba>
     9fe:	0002                	c.slli	zero,0x0
     a00:	0300                	addi	s0,sp,384
     a02:	0000fd27          	0xfd27
     a06:	0c00                	addi	s0,sp,528
     a08:	0142                	slli	sp,sp,0x10
     a0a:	0000                	unimp
     a0c:	00000137          	lui	sp,0x0
     a10:	000d                	c.nop	3
     a12:	2c0e                	fld	fs8,192(sp)
     a14:	0001                	nop
     a16:	0500                	addi	s0,sp,640
     a18:	4e04                	lw	s1,24(a2)
     a1a:	0001                	nop
     a1c:	0e00                	addi	s0,sp,784
     a1e:	013c                	addi	a5,sp,136
     a20:	0000                	unimp
     a22:	0102                	slli	sp,sp,0x0
     a24:	0c08                	addi	a0,sp,528
     a26:	0002                	c.slli	zero,0x0
     a28:	0e00                	addi	s0,sp,784
     a2a:	00000147          	fmsub.s	ft2,ft0,ft0,ft0,rne
     a2e:	8009                	srli	s0,s0,0x2
     a30:	0001                	nop
     a32:	0400                	addi	s0,sp,512
     a34:	3725                	jal	95c <_tbss_end+0x918>
     a36:	0001                	nop
     a38:	0900                	addi	s0,sp,144
     a3a:	0211                	addi	tp,tp,4
     a3c:	0000                	unimp
     a3e:	3104                	fld	fs1,32(a0)
     a40:	00000137          	lui	sp,0x0
     a44:	0102                	slli	sp,sp,0x0
     a46:	0506                	slli	a0,a0,0x1
     a48:	0002                	c.slli	zero,0x0
     a4a:	0400                	addi	s0,sp,512
     a4c:	0242                	slli	tp,tp,0x10
     a4e:	0000                	unimp
     a50:	7b05                	lui	s6,0xfffe1
     a52:	00b5                	addi	ra,ra,13
     a54:	0000                	unimp
     a56:	700e                	flw	ft0,224(sp)
     a58:	0001                	nop
     a5a:	0200                	addi	s0,sp,256
     a5c:	0502                	slli	a0,a0,0x0
     a5e:	0104                	addi	s1,sp,128
     a60:	0000                	unimp
     a62:	0202                	slli	tp,tp,0x0
     a64:	00025c07          	0x25c07
     a68:	0400                	addi	s0,sp,512
     a6a:	0279                	addi	tp,tp,30
     a6c:	0000                	unimp
     a6e:	8005                	srli	s0,s0,0x1
     a70:	00000033          	add	zero,zero,zero
     a74:	7804                	flw	fs1,48(s0)
     a76:	0002                	c.slli	zero,0x0
     a78:	0500                	addi	s0,sp,640
     a7a:	2c81                	jal	cca <_tbss_end+0xc86>
     a7c:	0000                	unimp
     a7e:	0400                	addi	s0,sp,512
     a80:	02e0                	addi	s0,sp,332
     a82:	0000                	unimp
     a84:	8405                	srai	s0,s0,0x1
     a86:	003a                	c.slli	zero,0xe
     a88:	0000                	unimp
     a8a:	df04                	sw	s1,56(a4)
     a8c:	0002                	c.slli	zero,0x0
     a8e:	0500                	addi	s0,sp,640
     a90:	2585                	jal	10f0 <_tbss_end+0x10ac>
     a92:	0000                	unimp
     a94:	0200                	addi	s0,sp,256
     a96:	0404                	addi	s1,sp,512
     a98:	0011                	c.nop	4
     a9a:	0000                	unimp
     a9c:	0802                	slli	a6,a6,0x0
     a9e:	00000903          	lb	s2,0(zero) # 986 <_tbss_end+0x942>
     aa2:	0200                	addi	s0,sp,256
     aa4:	0408                	addi	a0,sp,512
     aa6:	0306                	slli	t1,t1,0x1
     aa8:	0000                	unimp
     aaa:	1002                	c.slli	zero,0x20
     aac:	00014b03          	lbu	s6,0(sp) # 0 <_tdata_begin>
     ab0:	0200                	addi	s0,sp,256
     ab2:	0320                	addi	s0,sp,392
     ab4:	02f9                	addi	t0,t0,30
     ab6:	0000                	unimp
     ab8:	0000000f          	fence	unknown,unknown
     abc:	0800                	addi	s0,sp,16
     abe:	ed05                	bnez	a0,af6 <_tbss_end+0xab2>
     ac0:	0501                	addi	a0,a0,0
     ac2:	0002                	c.slli	zero,0x0
     ac4:	1000                	addi	s0,sp,32
     ac6:	6f6c                	flw	fa1,92(a4)
     ac8:	ed050077          	0xed050077
     acc:	8e01                	sub	a2,a2,s0
     ace:	0001                	nop
     ad0:	0000                	unimp
     ad2:	0e11                	addi	t3,t3,4
     ad4:	0001                	nop
     ad6:	0500                	addi	s0,sp,640
     ad8:	01ed                	addi	gp,gp,27
     ada:	018e                	slli	gp,gp,0x3
     adc:	0000                	unimp
     ade:	0004                	0x4
     ae0:	0812                	slli	a6,a6,0x4
     ae2:	f405                	bnez	s0,a0a <_tbss_end+0x9c6>
     ae4:	2401                	jal	ce4 <_tbss_end+0xca0>
     ae6:	0002                	c.slli	zero,0x0
     ae8:	1300                	addi	s0,sp,416
     aea:	f6050073          	0xf6050073
     aee:	dd01                	beqz	a0,a06 <_tbss_end+0x9c2>
     af0:	0001                	nop
     af2:	1300                	addi	s0,sp,416
     af4:	6c6c                	flw	fa1,92(s0)
     af6:	0500                	addi	s0,sp,640
     af8:	01a401f7          	0x1a401f7
     afc:	0000                	unimp
     afe:	1400                	addi	s0,sp,544
     b00:	00000113          	li	sp,0
     b04:	f805                	bnez	s0,a34 <_tbss_end+0x9f0>
     b06:	0501                	addi	a0,a0,0
     b08:	0002                	c.slli	zero,0x0
     b0a:	0e00                	addi	s0,sp,784
     b0c:	0224                	addi	s1,sp,264
     b0e:	0000                	unimp
     b10:	7b0c                	flw	fa1,48(a4)
     b12:	0001                	nop
     b14:	4500                	lw	s0,8(a0)
     b16:	0002                	c.slli	zero,0x0
     b18:	1500                	addi	s0,sp,672
     b1a:	002c                	addi	a1,sp,8
     b1c:	0000                	unimp
     b1e:	00ff                	0xff
     b20:	350e                	fld	fa0,224(sp)
     b22:	0002                	c.slli	zero,0x0
     b24:	1600                	addi	s0,sp,800
     b26:	01ed                	addi	gp,gp,27
     b28:	0000                	unimp
     b2a:	fc05                	bnez	s0,a62 <_tbss_end+0xa1e>
     b2c:	4501                	li	a0,0
     b2e:	0002                	c.slli	zero,0x0
     b30:	1600                	addi	s0,sp,800
     b32:	01d8                	addi	a4,sp,196
     b34:	0000                	unimp
     b36:	0205                	addi	tp,tp,1
     b38:	4502                	lw	a0,0(sp)
     b3a:	0002                	c.slli	zero,0x0
     b3c:	1700                	addi	s0,sp,928
     b3e:	0384                	addi	s1,sp,448
     b40:	0000                	unimp
     b42:	2501                	jal	1142 <_tbss_end+0x10fe>
     b44:	af05                	j	1274 <_tbss_end+0x1230>
     b46:	0001                	nop
     b48:	cc00                	sw	s0,24(s0)
     b4a:	001f a280 0003      	0x3a280001f
     b50:	0100                	addi	s0,sp,128
     b52:	329c                	fld	fa5,32(a3)
     b54:	0005                	c.nop	1
     b56:	1800                	addi	s0,sp,48
     b58:	006e                	c.slli	zero,0x1b
     b5a:	2501                	jal	115a <_tbss_end+0x1116>
     b5c:	af05                	j	128c <_tbss_end+0x1248>
     b5e:	0001                	nop
     b60:	0f00                	addi	s0,sp,912
     b62:	000c                	0xc
     b64:	1800                	addi	s0,sp,48
     b66:	0064                	addi	s1,sp,12
     b68:	2501                	jal	1168 <_tbss_end+0x1124>
     b6a:	af05                	j	129a <_tbss_end+0x1256>
     b6c:	0001                	nop
     b6e:	3700                	fld	fs0,40(a4)
     b70:	000d                	c.nop	3
     b72:	1900                	addi	s0,sp,176
     b74:	0532                	slli	a0,a0,0xc
     b76:	0000                	unimp
     b78:	1fcc                	addi	a1,sp,1012
     b7a:	8000                	0x8000
     b7c:	0160                	addi	s0,sp,140
     b7e:	0000                	unimp
     b80:	2701                	jal	1280 <_tbss_end+0x123c>
     b82:	1a05                	addi	s4,s4,-31
     b84:	00000557          	0x557
     b88:	0dff                	0xdff
     b8a:	0000                	unimp
     b8c:	4d1a                	lw	s10,132(sp)
     b8e:	0005                	c.nop	1
     b90:	6700                	flw	fs0,8(a4)
     b92:	000e                	c.slli	zero,0x3
     b94:	1a00                	addi	s0,sp,304
     b96:	00000543          	fmadd.s	fa0,ft0,ft0,ft0,rne
     b9a:	00000f2f          	0xf2f
     b9e:	0001601b          	0x1601b
     ba2:	1c00                	addi	s0,sp,560
     ba4:	0562                	slli	a0,a0,0x18
     ba6:	0000                	unimp
     ba8:	6d1c                	flw	fa5,24(a0)
     baa:	0005                	c.nop	1
     bac:	1c00                	addi	s0,sp,560
     bae:	0578                	addi	a4,sp,652
     bb0:	0000                	unimp
     bb2:	831d                	srli	a4,a4,0x7
     bb4:	0005                	c.nop	1
     bb6:	1700                	addi	s0,sp,928
     bb8:	0010                	0x10
     bba:	1d00                	addi	s0,sp,688
     bbc:	058e                	slli	a1,a1,0x3
     bbe:	0000                	unimp
     bc0:	1125                	addi	sp,sp,-23
     bc2:	0000                	unimp
     bc4:	991d                	andi	a0,a0,-25
     bc6:	0005                	c.nop	1
     bc8:	c700                	sw	s0,8(a4)
     bca:	0011                	c.nop	4
     bcc:	1d00                	addi	s0,sp,688
     bce:	05a4                	addi	s1,sp,712
     bd0:	0000                	unimp
     bd2:	00001283          	lh	t0,0(zero) # 0 <_tdata_begin>
     bd6:	af1d                	j	130c <_tbss_end+0x12c8>
     bd8:	0005                	c.nop	1
     bda:	5100                	lw	s0,32(a0)
     bdc:	1d000013          	li	zero,464
     be0:	05ba                	slli	a1,a1,0xe
     be2:	0000                	unimp
     be4:	0000136f          	jal	t1,1be4 <_tbss_end+0x1ba0>
     be8:	c51d                	beqz	a0,c16 <_tbss_end+0xbd2>
     bea:	0005                	c.nop	1
     bec:	d400                	sw	s0,40(s0)
     bee:	1d000013          	li	zero,464
     bf2:	05d0                	addi	a2,sp,708
     bf4:	0000                	unimp
     bf6:	1406                	slli	s0,s0,0x21
     bf8:	0000                	unimp
     bfa:	da1d                	beqz	a2,b30 <_tbss_end+0xaec>
     bfc:	0005                	c.nop	1
     bfe:	2400                	fld	fs0,8(s0)
     c00:	0014                	0x14
     c02:	1c00                	addi	s0,sp,560
     c04:	05e5                	addi	a1,a1,25
     c06:	0000                	unimp
     c08:	f01e                	fsw	ft7,32(sp)
     c0a:	0005                	c.nop	1
     c0c:	a800                	fsd	fs0,16(s0)
     c0e:	0001                	nop
     c10:	4d00                	lw	s0,24(a0)
     c12:	1d000003          	lb	zero,464(zero) # 1d0 <_tbss_end+0x18c>
     c16:	05f5                	addi	a1,a1,29
     c18:	0000                	unimp
     c1a:	14a5                	addi	s1,s1,-23
     c1c:	0000                	unimp
     c1e:	011d                	addi	sp,sp,7
     c20:	0006                	c.slli	zero,0x1
     c22:	ff00                	fsw	fs0,56(a4)
     c24:	0014                	0x14
     c26:	0000                	unimp
     c28:	0e1e                	slli	t3,t3,0x7
     c2a:	0006                	c.slli	zero,0x1
     c2c:	c800                	sw	s0,16(s0)
     c2e:	0001                	nop
     c30:	9a00                	0x9a00
     c32:	1d000003          	lb	zero,464(zero) # 1d0 <_tbss_end+0x18c>
     c36:	00000613          	li	a2,0
     c3a:	1512                	slli	a0,a0,0x24
     c3c:	0000                	unimp
     c3e:	1f1d                	addi	t5,t5,-25
     c40:	0006                	c.slli	zero,0x1
     c42:	3b00                	fld	fs0,48(a4)
     c44:	0015                	c.nop	5
     c46:	1d00                	addi	s0,sp,688
     c48:	0000062b          	0x62b
     c4c:	0000157b          	0x157b
     c50:	371d                	jal	b76 <_tbss_end+0xb32>
     c52:	0006                	c.slli	zero,0x1
     c54:	c500                	sw	s0,8(a0)
     c56:	0015                	c.nop	5
     c58:	1d00                	addi	s0,sp,688
     c5a:	00000643          	fmadd.s	fa2,ft0,ft0,ft0,rne
     c5e:	15f9                	addi	a1,a1,-2
     c60:	0000                	unimp
     c62:	4f1d                	li	t5,7
     c64:	0006                	c.slli	zero,0x1
     c66:	4d00                	lw	s0,24(a0)
     c68:	0016                	c.slli	zero,0x5
     c6a:	1d00                	addi	s0,sp,688
     c6c:	0000065b          	0x65b
     c70:	0000166b          	0x166b
     c74:	1e00                	addi	s0,sp,816
     c76:	073a                	slli	a4,a4,0xe
     c78:	0000                	unimp
     c7a:	01e8                	addi	a0,sp,204
     c7c:	0000                	unimp
     c7e:	03ba                	slli	t2,t2,0xe
     c80:	0000                	unimp
     c82:	3f1d                	jal	bb8 <_tbss_end+0xb74>
     c84:	9f000007          	0x9f000007
     c88:	0016                	c.slli	zero,0x5
     c8a:	1d00                	addi	s0,sp,688
     c8c:	0000074b          	fnmsub.s	fa4,ft0,ft0,ft0,rne
     c90:	16de                	slli	a3,a3,0x37
     c92:	0000                	unimp
     c94:	1e00                	addi	s0,sp,816
     c96:	0668                	addi	a0,sp,780
     c98:	0000                	unimp
     c9a:	0208                	addi	a0,sp,256
     c9c:	0000                	unimp
     c9e:	03da                	slli	t2,t2,0x16
     ca0:	0000                	unimp
     ca2:	6d1d                	lui	s10,0x7
     ca4:	0006                	c.slli	zero,0x1
     ca6:	0700                	addi	s0,sp,896
     ca8:	1d000017          	auipc	zero,0x1d000
     cac:	0679                	addi	a2,a2,30
     cae:	0000                	unimp
     cb0:	1782                	slli	a5,a5,0x20
     cb2:	0000                	unimp
     cb4:	1e00                	addi	s0,sp,816
     cb6:	06e0                	addi	s0,sp,844
     cb8:	0000                	unimp
     cba:	0228                	addi	a0,sp,264
     cbc:	0000                	unimp
     cbe:	00000427          	0x427
     cc2:	e51d                	bnez	a0,cf0 <_tbss_end+0xcac>
     cc4:	0006                	c.slli	zero,0x1
     cc6:	a000                	fsd	fs0,0(s0)
     cc8:	1d000017          	auipc	zero,0x1d000
     ccc:	06f1                	addi	a3,a3,28
     cce:	0000                	unimp
     cd0:	17d5                	addi	a5,a5,-11
     cd2:	0000                	unimp
     cd4:	fd1d                	bnez	a0,c12 <_tbss_end+0xbce>
     cd6:	0006                	c.slli	zero,0x1
     cd8:	1000                	addi	s0,sp,32
     cda:	0018                	0x18
     cdc:	1d00                	addi	s0,sp,688
     cde:	0709                	addi	a4,a4,2
     ce0:	0000                	unimp
     ce2:	185a                	slli	a6,a6,0x36
     ce4:	0000                	unimp
     ce6:	151d                	addi	a0,a0,-25
     ce8:	8e000007          	0x8e000007
     cec:	0018                	0x18
     cee:	1d00                	addi	s0,sp,688
     cf0:	0721                	addi	a4,a4,8
     cf2:	0000                	unimp
     cf4:	18d4                	addi	a3,sp,116
     cf6:	0000                	unimp
     cf8:	2d1d                	jal	132e <_tbss_end+0x12ea>
     cfa:	f2000007          	0xf2000007
     cfe:	0018                	0x18
     d00:	0000                	unimp
     d02:	6a1e                	flw	fs4,196(sp)
     d04:	48000007          	0x48000007
     d08:	0002                	c.slli	zero,0x0
     d0a:	e600                	fsw	fs0,8(a2)
     d0c:	0004                	0x4
     d0e:	1d00                	addi	s0,sp,688
     d10:	0000076b          	0x76b
     d14:	1926                	slli	s2,s2,0x29
     d16:	0000                	unimp
     d18:	761d                	lui	a2,0xfffe7
     d1a:	44000007          	0x44000007
     d1e:	0019                	c.nop	6
     d20:	1e00                	addi	s0,sp,816
     d22:	0781                	addi	a5,a5,0
     d24:	0000                	unimp
     d26:	0268                	addi	a0,sp,268
     d28:	0000                	unimp
     d2a:	00000493          	li	s1,0
     d2e:	861d                	srai	a2,a2,0x7
     d30:	80000007          	0x80000007
     d34:	0019                	c.nop	6
     d36:	1d00                	addi	s0,sp,688
     d38:	0792                	slli	a5,a5,0x4
     d3a:	0000                	unimp
     d3c:	19ad                	addi	s3,s3,-21
     d3e:	0000                	unimp
     d40:	9e1d                	0x9e1d
     d42:	dc000007          	0xdc000007
     d46:	0019                	c.nop	6
     d48:	1d00                	addi	s0,sp,688
     d4a:	07aa                	slli	a5,a5,0xa
     d4c:	0000                	unimp
     d4e:	1a26                	slli	s4,s4,0x29
     d50:	0000                	unimp
     d52:	b61d                	j	878 <_tbss_end+0x834>
     d54:	65000007          	0x65000007
     d58:	001a                	c.slli	zero,0x6
     d5a:	1d00                	addi	s0,sp,688
     d5c:	07c2                	slli	a5,a5,0x10
     d5e:	0000                	unimp
     d60:	00001aab          	0x1aab
     d64:	ce1d                	beqz	a2,da2 <_tbss_end+0xd5e>
     d66:	fa000007          	0xfa000007
     d6a:	001a                	c.slli	zero,0x6
     d6c:	0000                	unimp
     d6e:	db1f 0007 a000      	0xa0000007db1f
     d74:	0002                	c.slli	zero,0x0
     d76:	1d00                	addi	s0,sp,688
     d78:	07e0                	addi	s0,sp,972
     d7a:	0000                	unimp
     d7c:	1b39                	addi	s6,s6,-18
     d7e:	0000                	unimp
     d80:	ec1d                	bnez	s0,dbe <_tbss_end+0xd7a>
     d82:	57000007          	0x57000007
     d86:	1d00001b          	0x1d00001b
     d8a:	07f8                	addi	a4,sp,972
     d8c:	0000                	unimp
     d8e:	00001ba3          	sh	zero,23(zero) # 1d000cdf <_tbss_end+0x1d000c9b>
     d92:	041d                	addi	s0,s0,7
     d94:	0008                	0x8
     d96:	c100                	sw	s0,0(a0)
     d98:	1d00001b          	0x1d00001b
     d9c:	0810                	addi	a2,sp,16
     d9e:	0000                	unimp
     da0:	1bd4                	addi	a3,sp,500
     da2:	0000                	unimp
     da4:	1c1d                	addi	s8,s8,-25
     da6:	0008                	0x8
     da8:	2700                	fld	fs0,8(a4)
     daa:	001c                	0x1c
     dac:	1d00                	addi	s0,sp,688
     dae:	0828                	addi	a0,sp,24
     db0:	0000                	unimp
     db2:	1c3a                	slli	s8,s8,0x2e
     db4:	0000                	unimp
     db6:	341d                	jal	7dc <_tbss_end+0x798>
     db8:	0008                	0x8
     dba:	6b00                	flw	fs0,16(a4)
     dbc:	001c                	0x1c
     dbe:	0000                	unimp
     dc0:	1f00                	addi	s0,sp,944
     dc2:	0686                	slli	a3,a3,0x1
     dc4:	0000                	unimp
     dc6:	02d0                	addi	a2,sp,324
     dc8:	0000                	unimp
     dca:	8b1d                	andi	a4,a4,7
     dcc:	0006                	c.slli	zero,0x1
     dce:	7e00                	flw	fs0,56(a2)
     dd0:	001c                	0x1c
     dd2:	1d00                	addi	s0,sp,688
     dd4:	00000697          	auipc	a3,0x0
     dd8:	1c9c                	addi	a5,sp,624
     dda:	0000                	unimp
     ddc:	a31d                	j	1302 <_tbss_end+0x12be>
     dde:	0006                	c.slli	zero,0x1
     de0:	ba00                	fsd	fs0,48(a2)
     de2:	001c                	0x1c
     de4:	1d00                	addi	s0,sp,688
     de6:	000006af          	0x6af
     dea:	1cf9                	addi	s9,s9,-2
     dec:	0000                	unimp
     dee:	bb1d                	j	b24 <_tbss_end+0xae0>
     df0:	0006                	c.slli	zero,0x1
     df2:	2d00                	fld	fs0,24(a0)
     df4:	001d                	c.nop	7
     df6:	1d00                	addi	s0,sp,688
     df8:	000006c7          	fmsub.s	fa3,ft0,ft0,ft0,rne
     dfc:	1d86                	slli	s11,s11,0x21
     dfe:	0000                	unimp
     e00:	d31d                	beqz	a4,d26 <_tbss_end+0xce2>
     e02:	0006                	c.slli	zero,0x1
     e04:	cc00                	sw	s0,24(s0)
     e06:	001d                	c.nop	7
     e08:	0000                	unimp
     e0a:	0000                	unimp
     e0c:	2000                	fld	fs0,0(s0)
     e0e:	02ec                	addi	a1,sp,332
     e10:	0000                	unimp
     e12:	f601                	bnez	a2,d1a <_tbss_end+0xcd6>
     e14:	0001af03          	lw	t5,0(gp) # 90000800 <__global_pointer$>
     e18:	0300                	addi	s0,sp,384
     e1a:	00000863          	beqz	zero,e2a <_tbss_end+0xde6>
     e1e:	6e21                	lui	t3,0x8
     e20:	0100                	addi	s0,sp,128
     e22:	03f6                	slli	t2,t2,0x1d
     e24:	000001af          	0x1af
     e28:	6421                	lui	s0,0x8
     e2a:	0100                	addi	s0,sp,128
     e2c:	03f6                	slli	t2,t2,0x1d
     e2e:	000001af          	0x1af
     e32:	7221                	lui	tp,0xfffe8
     e34:	0070                	addi	a2,sp,12
     e36:	f601                	bnez	a2,d3e <_tbss_end+0xcfa>
     e38:	00086303          	0x86303
     e3c:	2200                	fld	fs0,0(a2)
     e3e:	6e6e                	flw	ft8,216(sp)
     e40:	0100                	addi	s0,sp,128
     e42:	03f8                	addi	a4,sp,460
     e44:	0230                	addi	a2,sp,264
     e46:	0000                	unimp
     e48:	6422                	flw	fs0,8(sp)
     e4a:	0064                	addi	s1,sp,12
     e4c:	f901                	bnez	a0,d5c <_tbss_end+0xd18>
     e4e:	00023003          	0x23003
     e52:	2200                	fld	fs0,0(a2)
     e54:	7272                	flw	ft4,60(sp)
     e56:	0100                	addi	s0,sp,128
     e58:	03fa                	slli	t2,t2,0x1e
     e5a:	0224                	addi	s1,sp,264
     e5c:	0000                	unimp
     e5e:	6422                	flw	fs0,8(sp)
     e60:	0030                	addi	a2,sp,8
     e62:	fb01                	bnez	a4,d72 <_tbss_end+0xd2e>
     e64:	00019903          	lh	s2,0(gp) # 90000800 <__global_pointer$>
     e68:	2200                	fld	fs0,0(a2)
     e6a:	3164                	fld	fs1,224(a0)
     e6c:	0100                	addi	s0,sp,128
     e6e:	019903fb          	0x19903fb
     e72:	0000                	unimp
     e74:	6e22                	flw	ft8,8(sp)
     e76:	0030                	addi	a2,sp,8
     e78:	fb01                	bnez	a4,d88 <_tbss_end+0xd44>
     e7a:	00019903          	lh	s2,0(gp) # 90000800 <__global_pointer$>
     e7e:	2200                	fld	fs0,0(a2)
     e80:	316e                	fld	ft2,248(sp)
     e82:	0100                	addi	s0,sp,128
     e84:	019903fb          	0x19903fb
     e88:	0000                	unimp
     e8a:	6e22                	flw	ft8,8(sp)
     e8c:	0032                	c.slli	zero,0xc
     e8e:	fb01                	bnez	a4,d9e <_tbss_end+0xd5a>
     e90:	00019903          	lh	s2,0(gp) # 90000800 <__global_pointer$>
     e94:	2200                	fld	fs0,0(a2)
     e96:	3071                	jal	722 <_tbss_end+0x6de>
     e98:	0100                	addi	s0,sp,128
     e9a:	03fc                	addi	a5,sp,460
     e9c:	0199                	addi	gp,gp,6
     e9e:	0000                	unimp
     ea0:	7122                	flw	ft2,40(sp)
     ea2:	0031                	c.nop	12
     ea4:	fc01                	bnez	s0,dbc <_tbss_end+0xd78>
     ea6:	00019903          	lh	s2,0(gp) # 90000800 <__global_pointer$>
     eaa:	2200                	fld	fs0,0(a2)
     eac:	0062                	c.slli	zero,0x18
     eae:	fd01                	bnez	a0,dc6 <_tbss_end+0xd82>
     eb0:	00019903          	lh	s2,0(gp) # 90000800 <__global_pointer$>
     eb4:	2200                	fld	fs0,0(a2)
     eb6:	6d62                	flw	fs10,24(sp)
     eb8:	0100                	addi	s0,sp,128
     eba:	03fd                	addi	t2,t2,31
     ebc:	0199                	addi	gp,gp,6
     ebe:	0000                	unimp
     ec0:	7722                	flw	fa4,40(sp)
     ec2:	c6010077          	0xc6010077
     ec6:	3004                	fld	fs1,32(s0)
     ec8:	0002                	c.slli	zero,0x0
     eca:	2300                	fld	fs0,0(a4)
     ecc:	060e                	slli	a2,a2,0x3
     ece:	0000                	unimp
     ed0:	e724                	fsw	fs1,72(a4)
     ed2:	0002                	c.slli	zero,0x0
     ed4:	0100                	addi	s0,sp,128
     ed6:	042d                	addi	s0,s0,11
     ed8:	0199                	addi	gp,gp,6
     eda:	0000                	unimp
     edc:	5f22                	lw	t5,40(sp)
     ede:	615f 0100 042d      	0x42d0100615f
     ee4:	0199                	addi	gp,gp,6
     ee6:	0000                	unimp
     ee8:	2300                	fld	fs0,0(a4)
     eea:	0668                	addi	a0,sp,780
     eec:	0000                	unimp
     eee:	3d24                	fld	fs1,120(a0)
     ef0:	0001                	nop
     ef2:	0100                	addi	s0,sp,128
     ef4:	0439                	addi	s0,s0,14
     ef6:	0199                	addi	gp,gp,6
     ef8:	0000                	unimp
     efa:	3824                	fld	fs1,112(s0)
     efc:	0001                	nop
     efe:	0100                	addi	s0,sp,128
     f00:	0439                	addi	s0,s0,14
     f02:	0199                	addi	gp,gp,6
     f04:	0000                	unimp
     f06:	d024                	sw	s1,96(s0)
     f08:	0002                	c.slli	zero,0x0
     f0a:	0100                	addi	s0,sp,128
     f0c:	0439                	addi	s0,s0,14
     f0e:	0199                	addi	gp,gp,6
     f10:	0000                	unimp
     f12:	cb24                	sw	s1,80(a4)
     f14:	0002                	c.slli	zero,0x0
     f16:	0100                	addi	s0,sp,128
     f18:	0439                	addi	s0,s0,14
     f1a:	0199                	addi	gp,gp,6
     f1c:	0000                	unimp
     f1e:	1224                	addi	s1,sp,296
     f20:	01000003          	lb	zero,16(zero) # 10 <_tdata_begin+0x10>
     f24:	0439                	addi	s0,s0,14
     f26:	0199                	addi	gp,gp,6
     f28:	0000                	unimp
     f2a:	0d24                	addi	s1,sp,664
     f2c:	01000003          	lb	zero,16(zero) # 10 <_tdata_begin+0x10>
     f30:	0439                	addi	s0,s0,14
     f32:	0199                	addi	gp,gp,6
     f34:	0000                	unimp
     f36:	5f22                	lw	t5,40(sp)
     f38:	6d5f 0100 0439      	0x43901006d5f
     f3e:	0199                	addi	gp,gp,6
     f40:	0000                	unimp
     f42:	2300                	fld	fs0,0(a4)
     f44:	0686                	slli	a3,a3,0x1
     f46:	0000                	unimp
     f48:	e724                	fsw	fs1,72(a4)
     f4a:	0002                	c.slli	zero,0x0
     f4c:	0100                	addi	s0,sp,128
     f4e:	0445                	addi	s0,s0,17
     f50:	0199                	addi	gp,gp,6
     f52:	0000                	unimp
     f54:	5f22                	lw	t5,40(sp)
     f56:	615f 0100 0445      	0x4450100615f
     f5c:	0199                	addi	gp,gp,6
     f5e:	0000                	unimp
     f60:	2300                	fld	fs0,0(a4)
     f62:	06e0                	addi	s0,sp,844
     f64:	0000                	unimp
     f66:	3d24                	fld	fs1,120(a0)
     f68:	0001                	nop
     f6a:	0100                	addi	s0,sp,128
     f6c:	045e                	slli	s0,s0,0x17
     f6e:	0199                	addi	gp,gp,6
     f70:	0000                	unimp
     f72:	3824                	fld	fs1,112(s0)
     f74:	0001                	nop
     f76:	0100                	addi	s0,sp,128
     f78:	045e                	slli	s0,s0,0x17
     f7a:	0199                	addi	gp,gp,6
     f7c:	0000                	unimp
     f7e:	d024                	sw	s1,96(s0)
     f80:	0002                	c.slli	zero,0x0
     f82:	0100                	addi	s0,sp,128
     f84:	045e                	slli	s0,s0,0x17
     f86:	0199                	addi	gp,gp,6
     f88:	0000                	unimp
     f8a:	cb24                	sw	s1,80(a4)
     f8c:	0002                	c.slli	zero,0x0
     f8e:	0100                	addi	s0,sp,128
     f90:	045e                	slli	s0,s0,0x17
     f92:	0199                	addi	gp,gp,6
     f94:	0000                	unimp
     f96:	1224                	addi	s1,sp,296
     f98:	01000003          	lb	zero,16(zero) # 10 <_tdata_begin+0x10>
     f9c:	045e                	slli	s0,s0,0x17
     f9e:	0199                	addi	gp,gp,6
     fa0:	0000                	unimp
     fa2:	0d24                	addi	s1,sp,664
     fa4:	01000003          	lb	zero,16(zero) # 10 <_tdata_begin+0x10>
     fa8:	045e                	slli	s0,s0,0x17
     faa:	0199                	addi	gp,gp,6
     fac:	0000                	unimp
     fae:	5f22                	lw	t5,40(sp)
     fb0:	6d5f 0100 045e      	0x45e01006d5f
     fb6:	0199                	addi	gp,gp,6
     fb8:	0000                	unimp
     fba:	2300                	fld	fs0,0(a4)
     fbc:	073a                	slli	a4,a4,0xe
     fbe:	0000                	unimp
     fc0:	3d24                	fld	fs1,120(a0)
     fc2:	0001                	nop
     fc4:	0100                	addi	s0,sp,128
     fc6:	01990463          	beq	s2,s9,fce <_tbss_end+0xf8a>
     fca:	0000                	unimp
     fcc:	3824                	fld	fs1,112(s0)
     fce:	0001                	nop
     fd0:	0100                	addi	s0,sp,128
     fd2:	01990463          	beq	s2,s9,fda <_tbss_end+0xf96>
     fd6:	0000                	unimp
     fd8:	d024                	sw	s1,96(s0)
     fda:	0002                	c.slli	zero,0x0
     fdc:	0100                	addi	s0,sp,128
     fde:	01990463          	beq	s2,s9,fe6 <_tbss_end+0xfa2>
     fe2:	0000                	unimp
     fe4:	cb24                	sw	s1,80(a4)
     fe6:	0002                	c.slli	zero,0x0
     fe8:	0100                	addi	s0,sp,128
     fea:	01990463          	beq	s2,s9,ff2 <_tbss_end+0xfae>
     fee:	0000                	unimp
     ff0:	1224                	addi	s1,sp,296
     ff2:	01000003          	lb	zero,16(zero) # 10 <_tdata_begin+0x10>
     ff6:	01990463          	beq	s2,s9,ffe <_tbss_end+0xfba>
     ffa:	0000                	unimp
     ffc:	0d24                	addi	s1,sp,664
     ffe:	01000003          	lb	zero,16(zero) # 10 <_tdata_begin+0x10>
    1002:	01990463          	beq	s2,s9,100a <_tbss_end+0xfc6>
    1006:	0000                	unimp
    1008:	5f22                	lw	t5,40(sp)
    100a:	6d5f 0100 0463      	0x46301006d5f
    1010:	0199                	addi	gp,gp,6
    1012:	0000                	unimp
    1014:	2300                	fld	fs0,0(a4)
    1016:	0758                	addi	a4,sp,900
    1018:	0000                	unimp
    101a:	e724                	fsw	fs1,72(a4)
    101c:	0002                	c.slli	zero,0x0
    101e:	0100                	addi	s0,sp,128
    1020:	0486                	slli	s1,s1,0x1
    1022:	0199                	addi	gp,gp,6
    1024:	0000                	unimp
    1026:	5f22                	lw	t5,40(sp)
    1028:	615f 0100 0486      	0x4860100615f
    102e:	0199                	addi	gp,gp,6
    1030:	0000                	unimp
    1032:	2300                	fld	fs0,0(a4)
    1034:	076a                	slli	a4,a4,0x1a
    1036:	0000                	unimp
    1038:	5f22                	lw	t5,40(sp)
    103a:	785f 0100 0494      	0x4940100785f
    1040:	0199                	addi	gp,gp,6
    1042:	0000                	unimp
    1044:	2500                	fld	fs0,8(a0)
    1046:	6d22                	flw	fs10,8(sp)
    1048:	0031                	c.nop	12
    104a:	a401                	j	124a <_tbss_end+0x1206>
    104c:	9904                	0x9904
    104e:	0001                	nop
    1050:	2200                	fld	fs0,0(a2)
    1052:	306d                	jal	8fc <_tbss_end+0x8b8>
    1054:	0100                	addi	s0,sp,128
    1056:	04a4                	addi	s1,sp,584
    1058:	0199                	addi	gp,gp,6
    105a:	0000                	unimp
    105c:	0007db23          	0x7db23
    1060:	2400                	fld	fs0,8(s0)
    1062:	013d                	addi	sp,sp,15
    1064:	0000                	unimp
    1066:	af01                	j	1776 <_tbss_end+0x1732>
    1068:	9904                	0x9904
    106a:	0001                	nop
    106c:	2400                	fld	fs0,8(s0)
    106e:	0138                	addi	a4,sp,136
    1070:	0000                	unimp
    1072:	af01                	j	1782 <_tbss_end+0x173e>
    1074:	9904                	0x9904
    1076:	0001                	nop
    1078:	2400                	fld	fs0,8(s0)
    107a:	02d0                	addi	a2,sp,324
    107c:	0000                	unimp
    107e:	af01                	j	178e <_tbss_end+0x174a>
    1080:	9904                	0x9904
    1082:	0001                	nop
    1084:	2400                	fld	fs0,8(s0)
    1086:	000002cb          	fnmsub.s	ft5,ft0,ft0,ft0,rne
    108a:	af01                	j	179a <_tbss_end+0x1756>
    108c:	9904                	0x9904
    108e:	0001                	nop
    1090:	2400                	fld	fs0,8(s0)
    1092:	0312                	slli	t1,t1,0x4
    1094:	0000                	unimp
    1096:	af01                	j	17a6 <_tbss_end+0x1762>
    1098:	9904                	0x9904
    109a:	0001                	nop
    109c:	2400                	fld	fs0,8(s0)
    109e:	030d                	addi	t1,t1,3
    10a0:	0000                	unimp
    10a2:	af01                	j	17b2 <_tbss_end+0x176e>
    10a4:	9904                	0x9904
    10a6:	0001                	nop
    10a8:	2200                	fld	fs0,0(a2)
    10aa:	5f5f 006d af01      	0xaf01006d5f5f
    10b0:	9904                	0x9904
    10b2:	0001                	nop
    10b4:	0000                	unimp
    10b6:	00084123          	0x84123
    10ba:	2400                	fld	fs0,8(s0)
    10bc:	022e                	slli	tp,tp,0xb
    10be:	0000                	unimp
    10c0:	b001                	j	8c0 <_tbss_end+0x87c>
    10c2:	9904                	0x9904
    10c4:	0001                	nop
    10c6:	2400                	fld	fs0,8(s0)
    10c8:	00000233          	add	tp,zero,zero
    10cc:	b001                	j	8cc <_tbss_end+0x888>
    10ce:	9904                	0x9904
    10d0:	0001                	nop
    10d2:	2400                	fld	fs0,8(s0)
    10d4:	0238                	addi	a4,sp,264
    10d6:	0000                	unimp
    10d8:	b001                	j	8d8 <_tbss_end+0x894>
    10da:	9904                	0x9904
    10dc:	0001                	nop
    10de:	2400                	fld	fs0,8(s0)
    10e0:	023d                	addi	tp,tp,15
    10e2:	0000                	unimp
    10e4:	b001                	j	8e4 <_tbss_end+0x8a0>
    10e6:	9904                	0x9904
    10e8:	0001                	nop
    10ea:	2400                	fld	fs0,8(s0)
    10ec:	0326                	slli	t1,t1,0x9
    10ee:	0000                	unimp
    10f0:	b001                	j	8f0 <_tbss_end+0x8ac>
    10f2:	9904                	0x9904
    10f4:	0001                	nop
    10f6:	2400                	fld	fs0,8(s0)
    10f8:	016a                	slli	sp,sp,0x1a
    10fa:	0000                	unimp
    10fc:	b001                	j	8fc <_tbss_end+0x8b8>
    10fe:	9904                	0x9904
    1100:	0001                	nop
    1102:	2400                	fld	fs0,8(s0)
    1104:	00000317          	auipc	t1,0x0
    1108:	b001                	j	908 <_tbss_end+0x8c4>
    110a:	9904                	0x9904
    110c:	0001                	nop
    110e:	2400                	fld	fs0,8(s0)
    1110:	015a                	slli	sp,sp,0x16
    1112:	0000                	unimp
    1114:	b001                	j	914 <_tbss_end+0x8d0>
    1116:	9904                	0x9904
    1118:	0001                	nop
    111a:	0000                	unimp
    111c:	00085323          	0x85323
    1120:	2200                	fld	fs0,0(a2)
    1122:	5f5f 0078 b501      	0xb50100785f5f
    1128:	9904                	0x9904
    112a:	0001                	nop
    112c:	0000                	unimp
    112e:	2225                	jal	1256 <_tbss_end+0x1212>
    1130:	5f5f 0078 bd01      	0xbd0100785f5f
    1136:	9904                	0x9904
    1138:	0001                	nop
    113a:	0000                	unimp
    113c:	0000                	unimp
    113e:	0405                	addi	s0,s0,1
    1140:	000001af          	0x1af
    1144:	ab00                	fsd	fs0,16(a4)
    1146:	0008                	0x8
    1148:	0400                	addi	s0,sp,512
    114a:	ad00                	fsd	fs0,24(a0)
    114c:	04000003          	lb	zero,64(zero) # 40 <buflen.2811>
    1150:	2701                	jal	1850 <_tbss_end+0x180c>
    1152:	0000                	unimp
    1154:	0c00                	addi	s0,sp,528
    1156:	0280                	addi	s0,sp,320
    1158:	0000                	unimp
    115a:	0000032b          	0x32b
    115e:	0480                	addi	s0,sp,576
    1160:	0000                	unimp
    1162:	0000                	unimp
    1164:	0000                	unimp
    1166:	0680                	addi	s0,sp,832
    1168:	0000                	unimp
    116a:	0802                	slli	a6,a6,0x0
    116c:	0001a307          	flw	ft6,0(gp) # 90000800 <__global_pointer$>
    1170:	0200                	addi	s0,sp,256
    1172:	0704                	addi	s1,sp,896
    1174:	01ad                	addi	gp,gp,11
    1176:	0000                	unimp
    1178:	69050403          	lb	s0,1680(a0)
    117c:	746e                	flw	fs0,248(sp)
    117e:	0200                	addi	s0,sp,256
    1180:	0508                	addi	a0,sp,640
    1182:	012a                	slli	sp,sp,0xa
    1184:	0000                	unimp
    1186:	1002                	c.slli	zero,0x20
    1188:	0104                	addi	s1,sp,128
    118a:	04000003          	lb	zero,64(zero) # 40 <buflen.2811>
    118e:	02d5                	addi	t0,t0,21
    1190:	0000                	unimp
    1192:	2a02                	fld	fs4,0(sp)
    1194:	002c                	addi	a1,sp,8
    1196:	0000                	unimp
    1198:	9904                	0x9904
    119a:	0001                	nop
    119c:	0200                	addi	s0,sp,256
    119e:	00005e2f          	0x5e2f
    11a2:	0500                	addi	s0,sp,640
    11a4:	6404                	flw	fs1,8(s0)
    11a6:	0000                	unimp
    11a8:	0600                	addi	s0,sp,768
    11aa:	0048                	addi	a0,sp,4
    11ac:	0000                	unimp
    11ae:	00000073          	ecall
    11b2:	00007307          	0x7307
    11b6:	0000                	unimp
    11b8:	0405                	addi	s0,s0,1
    11ba:	0079                	c.nop	30
    11bc:	0000                	unimp
    11be:	0408                	addi	a0,sp,512
    11c0:	0372                	slli	t1,t1,0x1c
    11c2:	0000                	unimp
    11c4:	3602                	fld	fa2,32(sp)
    11c6:	0085                	addi	ra,ra,1
    11c8:	0000                	unimp
    11ca:	0405                	addi	s0,s0,1
    11cc:	0000008b          	0x8b
    11d0:	3306                	fld	ft6,96(sp)
    11d2:	0000                	unimp
    11d4:	9f00                	0x9f00
    11d6:	0000                	unimp
    11d8:	0700                	addi	s0,sp,896
    11da:	00000073          	ecall
    11de:	00007307          	0x7307
    11e2:	0000                	unimp
    11e4:	4a09                	li	s4,2
    11e6:	0002                	c.slli	zero,0x0
    11e8:	0200                	addi	s0,sp,256
    11ea:	000053bb          	0x53bb
    11ee:	0900                	addi	s0,sp,144
    11f0:	00000017          	auipc	zero,0x0
    11f4:	be02                	fsd	ft0,312(sp)
    11f6:	007a                	c.slli	zero,0x1e
    11f8:	0000                	unimp
    11fa:	0102                	slli	sp,sp,0x0
    11fc:	0308                	addi	a0,sp,384
    11fe:	0002                	c.slli	zero,0x0
    1200:	0a00                	addi	s0,sp,272
    1202:	0000011b          	0x11b
    1206:	002c0407          	0x2c0407
    120a:	0000                	unimp
    120c:	00f21803          	lh	a6,15(tp) # fffe800f <__global_pointer$+0x6ffe780f>
    1210:	0000                	unimp
    1212:	00031c0b          	0x31c0b
    1216:	0000                	unimp
    1218:	00015f0b          	0x15f0b
    121c:	0100                	addi	s0,sp,128
    121e:	0001e20b          	0x1e20b
    1222:	0200                	addi	s0,sp,256
    1224:	0001420b          	0x1420b
    1228:	0300                	addi	s0,sp,384
    122a:	0001ce0b          	0x1ce0b
    122e:	0400                	addi	s0,sp,512
    1230:	0001c40b          	0x1c40b
    1234:	0500                	addi	s0,sp,640
    1236:	0900                	addi	s0,sp,144
    1238:	01ba                	slli	gp,gp,0xe
    123a:	0000                	unimp
    123c:	00bc2003          	lw	zero,11(s8)
    1240:	0000                	unimp
    1242:	6f0a                	flw	ft10,128(sp)
    1244:	0001                	nop
    1246:	0700                	addi	s0,sp,896
    1248:	2c04                	fld	fs1,24(s0)
    124a:	0000                	unimp
    124c:	0300                	addi	s0,sp,384
    124e:	2122                	fld	ft2,8(sp)
    1250:	0001                	nop
    1252:	0b00                	addi	s0,sp,400
    1254:	0000018f          	0x18f
    1258:	0b00                	addi	s0,sp,400
    125a:	037a                	slli	t1,t1,0x1e
    125c:	0000                	unimp
    125e:	0b01                	addi	s6,s6,0
    1260:	01fc                	addi	a5,sp,204
    1262:	0000                	unimp
    1264:	0002                	c.slli	zero,0x0
    1266:	2109                	jal	1668 <_tbss_end+0x1624>
    1268:	0002                	c.slli	zero,0x0
    126a:	0300                	addi	s0,sp,384
    126c:	0000fd27          	0xfd27
    1270:	0c00                	addi	s0,sp,528
    1272:	0142                	slli	sp,sp,0x10
    1274:	0000                	unimp
    1276:	00000137          	lui	sp,0x0
    127a:	000d                	c.nop	3
    127c:	2c0e                	fld	fs8,192(sp)
    127e:	0001                	nop
    1280:	0500                	addi	s0,sp,640
    1282:	4e04                	lw	s1,24(a2)
    1284:	0001                	nop
    1286:	0e00                	addi	s0,sp,784
    1288:	013c                	addi	a5,sp,136
    128a:	0000                	unimp
    128c:	0102                	slli	sp,sp,0x0
    128e:	0c08                	addi	a0,sp,528
    1290:	0002                	c.slli	zero,0x0
    1292:	0e00                	addi	s0,sp,784
    1294:	00000147          	fmsub.s	ft2,ft0,ft0,ft0,rne
    1298:	8009                	srli	s0,s0,0x2
    129a:	0001                	nop
    129c:	0400                	addi	s0,sp,512
    129e:	3725                	jal	11c6 <_tbss_end+0x1182>
    12a0:	0001                	nop
    12a2:	0900                	addi	s0,sp,144
    12a4:	0211                	addi	tp,tp,4
    12a6:	0000                	unimp
    12a8:	3104                	fld	fs1,32(a0)
    12aa:	00000137          	lui	sp,0x0
    12ae:	0102                	slli	sp,sp,0x0
    12b0:	0506                	slli	a0,a0,0x1
    12b2:	0002                	c.slli	zero,0x0
    12b4:	0400                	addi	s0,sp,512
    12b6:	0242                	slli	tp,tp,0x10
    12b8:	0000                	unimp
    12ba:	7b05                	lui	s6,0xfffe1
    12bc:	00b5                	addi	ra,ra,13
    12be:	0000                	unimp
    12c0:	700e                	flw	ft0,224(sp)
    12c2:	0001                	nop
    12c4:	0200                	addi	s0,sp,256
    12c6:	0502                	slli	a0,a0,0x0
    12c8:	0104                	addi	s1,sp,128
    12ca:	0000                	unimp
    12cc:	0202                	slli	tp,tp,0x0
    12ce:	00025c07          	0x25c07
    12d2:	0400                	addi	s0,sp,512
    12d4:	0279                	addi	tp,tp,30
    12d6:	0000                	unimp
    12d8:	8005                	srli	s0,s0,0x1
    12da:	00000033          	add	zero,zero,zero
    12de:	7804                	flw	fs1,48(s0)
    12e0:	0002                	c.slli	zero,0x0
    12e2:	0500                	addi	s0,sp,640
    12e4:	2c81                	jal	1534 <_tbss_end+0x14f0>
    12e6:	0000                	unimp
    12e8:	0400                	addi	s0,sp,512
    12ea:	02e0                	addi	s0,sp,332
    12ec:	0000                	unimp
    12ee:	8405                	srai	s0,s0,0x1
    12f0:	003a                	c.slli	zero,0xe
    12f2:	0000                	unimp
    12f4:	df04                	sw	s1,56(a4)
    12f6:	0002                	c.slli	zero,0x0
    12f8:	0500                	addi	s0,sp,640
    12fa:	2585                	jal	195a <_tbss_end+0x1916>
    12fc:	0000                	unimp
    12fe:	0200                	addi	s0,sp,256
    1300:	0404                	addi	s1,sp,512
    1302:	0011                	c.nop	4
    1304:	0000                	unimp
    1306:	0802                	slli	a6,a6,0x0
    1308:	00000903          	lb	s2,0(zero) # 11f0 <_tbss_end+0x11ac>
    130c:	0200                	addi	s0,sp,256
    130e:	0408                	addi	a0,sp,512
    1310:	0306                	slli	t1,t1,0x1
    1312:	0000                	unimp
    1314:	1002                	c.slli	zero,0x20
    1316:	00014b03          	lbu	s6,0(sp) # 0 <_tdata_begin>
    131a:	0200                	addi	s0,sp,256
    131c:	0320                	addi	s0,sp,392
    131e:	02f9                	addi	t0,t0,30
    1320:	0000                	unimp
    1322:	0000000f          	fence	unknown,unknown
    1326:	0800                	addi	s0,sp,16
    1328:	ed05                	bnez	a0,1360 <_tbss_end+0x131c>
    132a:	0501                	addi	a0,a0,0
    132c:	0002                	c.slli	zero,0x0
    132e:	1000                	addi	s0,sp,32
    1330:	6f6c                	flw	fa1,92(a4)
    1332:	ed050077          	0xed050077
    1336:	8e01                	sub	a2,a2,s0
    1338:	0001                	nop
    133a:	0000                	unimp
    133c:	0e11                	addi	t3,t3,4
    133e:	0001                	nop
    1340:	0500                	addi	s0,sp,640
    1342:	01ed                	addi	gp,gp,27
    1344:	018e                	slli	gp,gp,0x3
    1346:	0000                	unimp
    1348:	0004                	0x4
    134a:	0812                	slli	a6,a6,0x4
    134c:	f405                	bnez	s0,1274 <_tbss_end+0x1230>
    134e:	2401                	jal	154e <_tbss_end+0x150a>
    1350:	0002                	c.slli	zero,0x0
    1352:	1300                	addi	s0,sp,416
    1354:	f6050073          	0xf6050073
    1358:	dd01                	beqz	a0,1270 <_tbss_end+0x122c>
    135a:	0001                	nop
    135c:	1300                	addi	s0,sp,416
    135e:	6c6c                	flw	fa1,92(s0)
    1360:	0500                	addi	s0,sp,640
    1362:	01a401f7          	0x1a401f7
    1366:	0000                	unimp
    1368:	1400                	addi	s0,sp,544
    136a:	00000113          	li	sp,0
    136e:	f805                	bnez	s0,129e <_tbss_end+0x125a>
    1370:	0501                	addi	a0,a0,0
    1372:	0002                	c.slli	zero,0x0
    1374:	0e00                	addi	s0,sp,784
    1376:	0224                	addi	s1,sp,264
    1378:	0000                	unimp
    137a:	7b0c                	flw	fa1,48(a4)
    137c:	0001                	nop
    137e:	4500                	lw	s0,8(a0)
    1380:	0002                	c.slli	zero,0x0
    1382:	1500                	addi	s0,sp,672
    1384:	002c                	addi	a1,sp,8
    1386:	0000                	unimp
    1388:	00ff                	0xff
    138a:	350e                	fld	fa0,224(sp)
    138c:	0002                	c.slli	zero,0x0
    138e:	1600                	addi	s0,sp,800
    1390:	01ed                	addi	gp,gp,27
    1392:	0000                	unimp
    1394:	fc05                	bnez	s0,12cc <_tbss_end+0x1288>
    1396:	4501                	li	a0,0
    1398:	0002                	c.slli	zero,0x0
    139a:	1600                	addi	s0,sp,800
    139c:	01d8                	addi	a4,sp,196
    139e:	0000                	unimp
    13a0:	0205                	addi	tp,tp,1
    13a2:	4502                	lw	a0,0(sp)
    13a4:	0002                	c.slli	zero,0x0
    13a6:	1700                	addi	s0,sp,928
    13a8:	038e                	slli	t2,t2,0x3
    13aa:	0000                	unimp
    13ac:	1901                	addi	s2,s2,-32
    13ae:	af05                	j	1ade <_tbss_end+0x1a9a>
    13b0:	0001                	nop
    13b2:	6e00                	flw	fs0,24(a2)
    13b4:	8c800023          	sb	s0,-1856(zero) # fffff8c0 <__global_pointer$+0x6ffff0c0>
    13b8:	01000003          	lb	zero,16(zero) # 10 <_tdata_begin+0x10>
    13bc:	779c                	flw	fa5,40(a5)
    13be:	0005                	c.nop	1
    13c0:	1800                	addi	s0,sp,48
    13c2:	0075                	c.nop	29
    13c4:	1901                	addi	s2,s2,-32
    13c6:	af05                	j	1af6 <_tbss_end+0x1ab2>
    13c8:	0001                	nop
    13ca:	0000                	unimp
    13cc:	001e                	c.slli	zero,0x7
    13ce:	1800                	addi	s0,sp,48
    13d0:	0076                	c.slli	zero,0x1d
    13d2:	1901                	addi	s2,s2,-32
    13d4:	af05                	j	1b04 <_tbss_end+0x1ac0>
    13d6:	0001                	nop
    13d8:	c800                	sw	s0,16(s0)
    13da:	001e                	c.slli	zero,0x7
    13dc:	1900                	addi	s0,sp,176
    13de:	1b010077          	0x1b010077
    13e2:	af05                	j	1b12 <_tbss_end+0x1ace>
    13e4:	0001                	nop
    13e6:	1a00                	addi	s0,sp,304
    13e8:	00000577          	0x577
    13ec:	236e                	fld	ft6,216(sp)
    13ee:	8000                	0x8000
    13f0:	0318                	addi	a4,sp,384
    13f2:	0000                	unimp
    13f4:	1d01                	addi	s10,s10,-32
    13f6:	1b05                	addi	s6,s6,-31
    13f8:	059c                	addi	a5,sp,704
    13fa:	0000                	unimp
    13fc:	1f70                	addi	a2,sp,956
    13fe:	0000                	unimp
    1400:	0005921b          	0x5921b
    1404:	9800                	0x9800
    1406:	001f 1b00 0588      	0x5881b00001f
    140c:	0000                	unimp
    140e:	2040                	fld	fs0,128(s0)
    1410:	0000                	unimp
    1412:	181c                	addi	a5,sp,48
    1414:	1d000003          	lb	zero,464(zero) # 1d0 <_tbss_end+0x18c>
    1418:	000005a7          	0x5a7
    141c:	b21d                	j	d42 <_tbss_end+0xcfe>
    141e:	0005                	c.nop	1
    1420:	1d00                	addi	s0,sp,688
    1422:	05bd                	addi	a1,a1,15
    1424:	0000                	unimp
    1426:	c81e                	sw	t2,16(sp)
    1428:	0005                	c.nop	1
    142a:	f800                	fsw	fs0,48(s0)
    142c:	0020                	addi	s0,sp,8
    142e:	1e00                	addi	s0,sp,816
    1430:	000005d3          	fadd.s	fa1,ft0,ft0,rne
    1434:	21c6                	fld	ft3,80(sp)
    1436:	0000                	unimp
    1438:	de1e                	sw	t2,60(sp)
    143a:	0005                	c.nop	1
    143c:	6800                	flw	fs0,16(s0)
    143e:	0022                	c.slli	zero,0x8
    1440:	1e00                	addi	s0,sp,816
    1442:	05e9                	addi	a1,a1,26
    1444:	0000                	unimp
    1446:	2315                	jal	196a <_tbss_end+0x1926>
    1448:	0000                	unimp
    144a:	f41e                	fsw	ft7,40(sp)
    144c:	0005                	c.nop	1
    144e:	e300                	fsw	fs0,0(a4)
    1450:	1e000023          	sb	zero,480(zero) # 1e0 <_tbss_end+0x19c>
    1454:	05ff                	0x5ff
    1456:	0000                	unimp
    1458:	2411                	jal	165c <_tbss_end+0x1618>
    145a:	0000                	unimp
    145c:	0a1e                	slli	s4,s4,0x7
    145e:	0006                	c.slli	zero,0x1
    1460:	2500                	fld	fs0,8(a0)
    1462:	0024                	addi	s1,sp,8
    1464:	1e00                	addi	s0,sp,816
    1466:	0615                	addi	a2,a2,5
    1468:	0000                	unimp
    146a:	2451                	jal	16ee <_tbss_end+0x16aa>
    146c:	0000                	unimp
    146e:	1f1e                	slli	t5,t5,0x27
    1470:	0006                	c.slli	zero,0x1
    1472:	9000                	0x9000
    1474:	0024                	addi	s1,sp,8
    1476:	1d00                	addi	s0,sp,688
    1478:	062a                	slli	a2,a2,0xa
    147a:	0000                	unimp
    147c:	351f 0006 4000      	0x40000006351f
    1482:	57000003          	lb	zero,1392(zero) # 570 <_tbss_end+0x52c>
    1486:	1e000003          	lb	zero,480(zero) # 1e0 <_tbss_end+0x19c>
    148a:	063a                	slli	a2,a2,0xe
    148c:	0000                	unimp
    148e:	000024fb          	0x24fb
    1492:	461e                	lw	a2,196(sp)
    1494:	0006                	c.slli	zero,0x1
    1496:	2400                	fld	fs0,8(s0)
    1498:	0025                	c.nop	9
    149a:	0000                	unimp
    149c:	531f 0006 6000      	0x60000006531f
    14a2:	a0000003          	lb	zero,-1536(zero) # fffffa00 <__global_pointer$+0x6ffff200>
    14a6:	1e000003          	lb	zero,480(zero) # 1e0 <_tbss_end+0x19c>
    14aa:	0658                	addi	a4,sp,772
    14ac:	0000                	unimp
    14ae:	00002537          	lui	a0,0x2
    14b2:	641e                	flw	fs0,196(sp)
    14b4:	0006                	c.slli	zero,0x1
    14b6:	5500                	lw	s0,40(a0)
    14b8:	0025                	c.nop	9
    14ba:	1e00                	addi	s0,sp,816
    14bc:	0670                	addi	a2,sp,780
    14be:	0000                	unimp
    14c0:	2584                	fld	fs1,8(a1)
    14c2:	0000                	unimp
    14c4:	7c1d                	lui	s8,0xfffe7
    14c6:	0006                	c.slli	zero,0x1
    14c8:	1e00                	addi	s0,sp,816
    14ca:	0688                	addi	a0,sp,832
    14cc:	0000                	unimp
    14ce:	25d2                	fld	fa1,272(sp)
    14d0:	0000                	unimp
    14d2:	941e                	add	s0,s0,t2
    14d4:	0006                	c.slli	zero,0x1
    14d6:	0b00                	addi	s0,sp,400
    14d8:	0026                	c.slli	zero,0x9
    14da:	1e00                	addi	s0,sp,816
    14dc:	06a0                	addi	s0,sp,840
    14de:	0000                	unimp
    14e0:	2629                	jal	17ea <_tbss_end+0x17a6>
    14e2:	0000                	unimp
    14e4:	1f00                	addi	s0,sp,944
    14e6:	0725                	addi	a4,a4,9
    14e8:	0000                	unimp
    14ea:	0378                	addi	a4,sp,396
    14ec:	0000                	unimp
    14ee:	03e5                	addi	t2,t2,25
    14f0:	0000                	unimp
    14f2:	2a1e                	fld	fs4,448(sp)
    14f4:	6b000007          	0x6b000007
    14f8:	0026                	c.slli	zero,0x9
    14fa:	1e00                	addi	s0,sp,816
    14fc:	0736                	slli	a4,a4,0xd
    14fe:	0000                	unimp
    1500:	2682                	fld	fa3,0(sp)
    1502:	0000                	unimp
    1504:	421d                	li	tp,7
    1506:	1d000007          	0x1d000007
    150a:	074e                	slli	a4,a4,0x13
    150c:	0000                	unimp
    150e:	5a1e                	lw	s4,228(sp)
    1510:	9b000007          	0x9b000007
    1514:	0026                	c.slli	zero,0x9
    1516:	1e00                	addi	s0,sp,816
    1518:	0766                	slli	a4,a4,0x19
    151a:	0000                	unimp
    151c:	26b9                	jal	186a <_tbss_end+0x1826>
    151e:	0000                	unimp
    1520:	721e                	flw	ft4,228(sp)
    1522:	ed000007          	0xed000007
    1526:	0026                	c.slli	zero,0x9
    1528:	0000                	unimp
    152a:	7f1f 0007 9000      	0x900000077f1f
    1530:	05000003          	lb	zero,80(zero) # 50 <_tbss_end+0xc>
    1534:	0004                	0x4
    1536:	1e00                	addi	s0,sp,816
    1538:	0784                	addi	s1,sp,960
    153a:	0000                	unimp
    153c:	0000270b          	0x270b
    1540:	901e                	c.add	zero,t2
    1542:	3f000007          	0x3f000007
    1546:	00000027          	0x27
    154a:	9d20                	0x9d20
    154c:	60000007          	0x60000007
    1550:	0024                	addi	s1,sp,8
    1552:	0e80                	addi	s0,sp,848
    1554:	0000                	unimp
    1556:	2000                	fld	fs0,0(s0)
    1558:	0004                	0x4
    155a:	1e00                	addi	s0,sp,816
    155c:	07a2                	slli	a5,a5,0x8
    155e:	0000                	unimp
    1560:	275d                	jal	1d06 <_tbss_end+0x1cc2>
    1562:	0000                	unimp
    1564:	1f00                	addi	s0,sp,944
    1566:	06ad                	addi	a3,a3,11
    1568:	0000                	unimp
    156a:	03b0                	addi	a2,sp,456
    156c:	0000                	unimp
    156e:	0440                	addi	s0,sp,516
    1570:	0000                	unimp
    1572:	b21e                	fsd	ft7,288(sp)
    1574:	0006                	c.slli	zero,0x1
    1576:	7000                	flw	fs0,32(s0)
    1578:	1e000027          	0x1e000027
    157c:	06be                	slli	a3,a3,0xf
    157e:	0000                	unimp
    1580:	27ba                	fld	fa5,392(sp)
    1582:	0000                	unimp
    1584:	1f00                	addi	s0,sp,944
    1586:	000007af          	0x7af
    158a:	03d0                	addi	a2,sp,452
    158c:	0000                	unimp
    158e:	00000533          	add	a0,zero,zero
    1592:	b01e                	fsd	ft7,32(sp)
    1594:	cd000007          	0xcd000007
    1598:	1e000027          	0x1e000027
    159c:	000007bb          	0x7bb
    15a0:	2814                	fld	fa3,16(s0)
    15a2:	0000                	unimp
    15a4:	c61f 0007 f800      	0xf8000007c61f
    15aa:	ac000003          	lb	zero,-1344(zero) # fffffac0 <__global_pointer$+0x6ffff2c0>
    15ae:	0004                	0x4
    15b0:	1e00                	addi	s0,sp,816
    15b2:	000007cb          	fnmsub.s	fa5,ft0,ft0,ft0,rne
    15b6:	2848                	fld	fa0,144(s0)
    15b8:	0000                	unimp
    15ba:	d71e                	sw	t2,172(sp)
    15bc:	a2000007          	0xa2000007
    15c0:	0028                	addi	a0,sp,8
    15c2:	1e00                	addi	s0,sp,816
    15c4:	000007e3          	beqz	zero,1dd2 <_tbss_end+0x1d8e>
    15c8:	2904                	fld	fs1,16(a0)
    15ca:	0000                	unimp
    15cc:	ef1e                	fsw	ft7,156(sp)
    15ce:	4e000007          	0x4e000007
    15d2:	0029                	c.nop	10
    15d4:	1e00                	addi	s0,sp,816
    15d6:	000007fb          	0x7fb
    15da:	298d                	jal	1a4c <_tbss_end+0x1a08>
    15dc:	0000                	unimp
    15de:	071e                	slli	a4,a4,0x7
    15e0:	0008                	0x8
    15e2:	d100                	sw	s0,32(a0)
    15e4:	0029                	c.nop	10
    15e6:	1e00                	addi	s0,sp,816
    15e8:	00000813          	li	a6,0
    15ec:	2a2d                	jal	1726 <_tbss_end+0x16e2>
    15ee:	0000                	unimp
    15f0:	1f00                	addi	s0,sp,944
    15f2:	0820                	addi	s0,sp,24
    15f4:	0000                	unimp
    15f6:	0430                	addi	a2,sp,520
    15f8:	0000                	unimp
    15fa:	0500                	addi	s0,sp,640
    15fc:	0000                	unimp
    15fe:	251e                	fld	fa0,448(sp)
    1600:	0008                	0x8
    1602:	7700                	flw	fs0,40(a4)
    1604:	002a                	c.slli	zero,0xa
    1606:	1e00                	addi	s0,sp,816
    1608:	0831                	addi	a6,a6,12
    160a:	0000                	unimp
    160c:	2a8a                	fld	fs5,128(sp)
    160e:	0000                	unimp
    1610:	3d1e                	fld	fs10,480(sp)
    1612:	0008                	0x8
    1614:	af00                	fsd	fs0,24(a4)
    1616:	002a                	c.slli	zero,0xa
    1618:	1e00                	addi	s0,sp,816
    161a:	0849                	addi	a6,a6,18
    161c:	0000                	unimp
    161e:	2ac2                	fld	fs5,16(sp)
    1620:	0000                	unimp
    1622:	551e                	lw	a0,228(sp)
    1624:	0008                	0x8
    1626:	d500                	sw	s0,40(a0)
    1628:	002a                	c.slli	zero,0xa
    162a:	1e00                	addi	s0,sp,816
    162c:	0861                	addi	a6,a6,24
    162e:	0000                	unimp
    1630:	2ae8                	fld	fa0,208(a3)
    1632:	0000                	unimp
    1634:	6d1e                	flw	fs10,196(sp)
    1636:	0008                	0x8
    1638:	3b00                	fld	fs0,48(a4)
    163a:	2100002b          	0x2100002b
    163e:	0879                	addi	a6,a6,30
    1640:	0000                	unimp
    1642:	5b01                	li	s6,-32
    1644:	2000                	fld	fs0,0(s0)
    1646:	0886                	slli	a7,a7,0x1
    1648:	0000                	unimp
    164a:	268c                	fld	fa1,8(a3)
    164c:	8000                	0x8000
    164e:	0012                	c.slli	zero,0x4
    1650:	0000                	unimp
    1652:	0000051b          	0x51b
    1656:	8b1e                	mv	s6,t2
    1658:	0008                	0x8
    165a:	4e00                	lw	s0,24(a2)
    165c:	0000002b          	0x2b
    1660:	9822                	add	a6,a6,s0
    1662:	0008                	0x8
    1664:	9e00                	0x9e00
    1666:	0026                	c.slli	zero,0x9
    1668:	0a80                	addi	s0,sp,336
    166a:	0000                	unimp
    166c:	1e00                	addi	s0,sp,816
    166e:	0899                	addi	a7,a7,6
    1670:	0000                	unimp
    1672:	2b61                	jal	1c0a <_tbss_end+0x1bc6>
    1674:	0000                	unimp
    1676:	0000                	unimp
    1678:	0006cb23          	0x6cb23
    167c:	5800                	lw	s0,48(s0)
    167e:	0004                	0x4
    1680:	1e00                	addi	s0,sp,816
    1682:	06d0                	addi	a2,sp,836
    1684:	0000                	unimp
    1686:	2b74                	fld	fa3,208(a4)
    1688:	0000                	unimp
    168a:	dc1e                	sw	t2,56(sp)
    168c:	0006                	c.slli	zero,0x1
    168e:	8700                	0x8700
    1690:	1d00002b          	0x1d00002b
    1694:	06e8                	addi	a0,sp,844
    1696:	0000                	unimp
    1698:	f41d                	bnez	s0,15c6 <_tbss_end+0x1582>
    169a:	0006                	c.slli	zero,0x1
    169c:	1e00                	addi	s0,sp,816
    169e:	0700                	addi	s0,sp,896
    16a0:	0000                	unimp
    16a2:	2b9a                	fld	fs7,384(sp)
    16a4:	0000                	unimp
    16a6:	0c1e                	slli	s8,s8,0x7
    16a8:	b8000007          	0xb8000007
    16ac:	1e00002b          	0x1e00002b
    16b0:	0718                	addi	a4,sp,896
    16b2:	0000                	unimp
    16b4:	2bd6                	fld	fs7,336(sp)
    16b6:	0000                	unimp
    16b8:	0000                	unimp
    16ba:	0000                	unimp
    16bc:	ec24                	fsw	fs1,88(s0)
    16be:	0002                	c.slli	zero,0x0
    16c0:	0100                	addi	s0,sp,128
    16c2:	03f6                	slli	t2,t2,0x1d
    16c4:	000001af          	0x1af
    16c8:	0008a803          	lw	a6,0(a7)
    16cc:	2500                	fld	fs0,8(a0)
    16ce:	006e                	c.slli	zero,0x1b
    16d0:	f601                	bnez	a2,15d8 <_tbss_end+0x1594>
    16d2:	0001af03          	lw	t5,0(gp) # 90000800 <__global_pointer$>
    16d6:	2500                	fld	fs0,8(a0)
    16d8:	0064                	addi	s1,sp,12
    16da:	f601                	bnez	a2,15e2 <_tbss_end+0x159e>
    16dc:	0001af03          	lw	t5,0(gp) # 90000800 <__global_pointer$>
    16e0:	2500                	fld	fs0,8(a0)
    16e2:	7072                	flw	ft0,60(sp)
    16e4:	0100                	addi	s0,sp,128
    16e6:	03f6                	slli	t2,t2,0x1d
    16e8:	08a8                	addi	a0,sp,88
    16ea:	0000                	unimp
    16ec:	6e19                	lui	t3,0x6
    16ee:	006e                	c.slli	zero,0x1b
    16f0:	f801                	bnez	s0,1600 <_tbss_end+0x15bc>
    16f2:	00023003          	0x23003
    16f6:	1900                	addi	s0,sp,176
    16f8:	6464                	flw	fs1,76(s0)
    16fa:	0100                	addi	s0,sp,128
    16fc:	03f9                	addi	t2,t2,30
    16fe:	0230                	addi	a2,sp,264
    1700:	0000                	unimp
    1702:	7219                	lui	tp,0xfffe6
    1704:	0072                	c.slli	zero,0x1c
    1706:	fa01                	bnez	a2,1616 <_tbss_end+0x15d2>
    1708:	00022403          	lw	s0,0(tp) # fffe6000 <__global_pointer$+0x6ffe5800>
    170c:	1900                	addi	s0,sp,176
    170e:	3064                	fld	fs1,224(s0)
    1710:	0100                	addi	s0,sp,128
    1712:	019903fb          	0x19903fb
    1716:	0000                	unimp
    1718:	6419                	lui	s0,0x6
    171a:	0031                	c.nop	12
    171c:	fb01                	bnez	a4,162c <_tbss_end+0x15e8>
    171e:	00019903          	lh	s2,0(gp) # 90000800 <__global_pointer$>
    1722:	1900                	addi	s0,sp,176
    1724:	306e                	fld	ft0,248(sp)
    1726:	0100                	addi	s0,sp,128
    1728:	019903fb          	0x19903fb
    172c:	0000                	unimp
    172e:	6e19                	lui	t3,0x6
    1730:	0031                	c.nop	12
    1732:	fb01                	bnez	a4,1642 <_tbss_end+0x15fe>
    1734:	00019903          	lh	s2,0(gp) # 90000800 <__global_pointer$>
    1738:	1900                	addi	s0,sp,176
    173a:	326e                	fld	ft4,248(sp)
    173c:	0100                	addi	s0,sp,128
    173e:	019903fb          	0x19903fb
    1742:	0000                	unimp
    1744:	7119                	addi	sp,sp,-128
    1746:	0030                	addi	a2,sp,8
    1748:	fc01                	bnez	s0,1660 <_tbss_end+0x161c>
    174a:	00019903          	lh	s2,0(gp) # 90000800 <__global_pointer$>
    174e:	1900                	addi	s0,sp,176
    1750:	3171                	jal	13dc <_tbss_end+0x1398>
    1752:	0100                	addi	s0,sp,128
    1754:	03fc                	addi	a5,sp,460
    1756:	0199                	addi	gp,gp,6
    1758:	0000                	unimp
    175a:	6219                	lui	tp,0x6
    175c:	0100                	addi	s0,sp,128
    175e:	03fd                	addi	t2,t2,31
    1760:	0199                	addi	gp,gp,6
    1762:	0000                	unimp
    1764:	6219                	lui	tp,0x6
    1766:	006d                	c.nop	27
    1768:	fd01                	bnez	a0,1680 <_tbss_end+0x163c>
    176a:	00019903          	lh	s2,0(gp) # 90000800 <__global_pointer$>
    176e:	1900                	addi	s0,sp,176
    1770:	01007777          	0x1007777
    1774:	04c6                	slli	s1,s1,0x11
    1776:	0230                	addi	a2,sp,264
    1778:	0000                	unimp
    177a:	5326                	lw	t1,104(sp)
    177c:	0006                	c.slli	zero,0x1
    177e:	2700                	fld	fs0,8(a4)
    1780:	000002e7          	jalr	t0,zero
    1784:	2d01                	jal	1d94 <_tbss_end+0x1d50>
    1786:	9904                	0x9904
    1788:	0001                	nop
    178a:	1900                	addi	s0,sp,176
    178c:	5f5f 0061 2d01      	0x2d0100615f5f
    1792:	9904                	0x9904
    1794:	0001                	nop
    1796:	0000                	unimp
    1798:	ad26                	fsd	fs1,152(sp)
    179a:	0006                	c.slli	zero,0x1
    179c:	2700                	fld	fs0,8(a4)
    179e:	013d                	addi	sp,sp,15
    17a0:	0000                	unimp
    17a2:	3901                	jal	13b2 <_tbss_end+0x136e>
    17a4:	9904                	0x9904
    17a6:	0001                	nop
    17a8:	2700                	fld	fs0,8(a4)
    17aa:	0138                	addi	a4,sp,136
    17ac:	0000                	unimp
    17ae:	3901                	jal	13be <_tbss_end+0x137a>
    17b0:	9904                	0x9904
    17b2:	0001                	nop
    17b4:	2700                	fld	fs0,8(a4)
    17b6:	02d0                	addi	a2,sp,324
    17b8:	0000                	unimp
    17ba:	3901                	jal	13ca <_tbss_end+0x1386>
    17bc:	9904                	0x9904
    17be:	0001                	nop
    17c0:	2700                	fld	fs0,8(a4)
    17c2:	000002cb          	fnmsub.s	ft5,ft0,ft0,ft0,rne
    17c6:	3901                	jal	13d6 <_tbss_end+0x1392>
    17c8:	9904                	0x9904
    17ca:	0001                	nop
    17cc:	2700                	fld	fs0,8(a4)
    17ce:	0312                	slli	t1,t1,0x4
    17d0:	0000                	unimp
    17d2:	3901                	jal	13e2 <_tbss_end+0x139e>
    17d4:	9904                	0x9904
    17d6:	0001                	nop
    17d8:	2700                	fld	fs0,8(a4)
    17da:	030d                	addi	t1,t1,3
    17dc:	0000                	unimp
    17de:	3901                	jal	13ee <_tbss_end+0x13aa>
    17e0:	9904                	0x9904
    17e2:	0001                	nop
    17e4:	1900                	addi	s0,sp,176
    17e6:	5f5f 006d 3901      	0x3901006d5f5f
    17ec:	9904                	0x9904
    17ee:	0001                	nop
    17f0:	0000                	unimp
    17f2:	cb26                	sw	s1,148(sp)
    17f4:	0006                	c.slli	zero,0x1
    17f6:	2700                	fld	fs0,8(a4)
    17f8:	000002e7          	jalr	t0,zero
    17fc:	4501                	li	a0,0
    17fe:	9904                	0x9904
    1800:	0001                	nop
    1802:	1900                	addi	s0,sp,176
    1804:	5f5f 0061 4501      	0x450100615f5f
    180a:	9904                	0x9904
    180c:	0001                	nop
    180e:	0000                	unimp
    1810:	2526                	fld	fa0,72(sp)
    1812:	27000007          	0x27000007
    1816:	013d                	addi	sp,sp,15
    1818:	0000                	unimp
    181a:	5e01                	li	t3,-32
    181c:	9904                	0x9904
    181e:	0001                	nop
    1820:	2700                	fld	fs0,8(a4)
    1822:	0138                	addi	a4,sp,136
    1824:	0000                	unimp
    1826:	5e01                	li	t3,-32
    1828:	9904                	0x9904
    182a:	0001                	nop
    182c:	2700                	fld	fs0,8(a4)
    182e:	02d0                	addi	a2,sp,324
    1830:	0000                	unimp
    1832:	5e01                	li	t3,-32
    1834:	9904                	0x9904
    1836:	0001                	nop
    1838:	2700                	fld	fs0,8(a4)
    183a:	000002cb          	fnmsub.s	ft5,ft0,ft0,ft0,rne
    183e:	5e01                	li	t3,-32
    1840:	9904                	0x9904
    1842:	0001                	nop
    1844:	2700                	fld	fs0,8(a4)
    1846:	0312                	slli	t1,t1,0x4
    1848:	0000                	unimp
    184a:	5e01                	li	t3,-32
    184c:	9904                	0x9904
    184e:	0001                	nop
    1850:	2700                	fld	fs0,8(a4)
    1852:	030d                	addi	t1,t1,3
    1854:	0000                	unimp
    1856:	5e01                	li	t3,-32
    1858:	9904                	0x9904
    185a:	0001                	nop
    185c:	1900                	addi	s0,sp,176
    185e:	5f5f 006d 5e01      	0x5e01006d5f5f
    1864:	9904                	0x9904
    1866:	0001                	nop
    1868:	0000                	unimp
    186a:	7f26                	flw	ft10,104(sp)
    186c:	27000007          	0x27000007
    1870:	013d                	addi	sp,sp,15
    1872:	0000                	unimp
    1874:	6301                	0x6301
    1876:	9904                	0x9904
    1878:	0001                	nop
    187a:	2700                	fld	fs0,8(a4)
    187c:	0138                	addi	a4,sp,136
    187e:	0000                	unimp
    1880:	6301                	0x6301
    1882:	9904                	0x9904
    1884:	0001                	nop
    1886:	2700                	fld	fs0,8(a4)
    1888:	02d0                	addi	a2,sp,324
    188a:	0000                	unimp
    188c:	6301                	0x6301
    188e:	9904                	0x9904
    1890:	0001                	nop
    1892:	2700                	fld	fs0,8(a4)
    1894:	000002cb          	fnmsub.s	ft5,ft0,ft0,ft0,rne
    1898:	6301                	0x6301
    189a:	9904                	0x9904
    189c:	0001                	nop
    189e:	2700                	fld	fs0,8(a4)
    18a0:	0312                	slli	t1,t1,0x4
    18a2:	0000                	unimp
    18a4:	6301                	0x6301
    18a6:	9904                	0x9904
    18a8:	0001                	nop
    18aa:	2700                	fld	fs0,8(a4)
    18ac:	030d                	addi	t1,t1,3
    18ae:	0000                	unimp
    18b0:	6301                	0x6301
    18b2:	9904                	0x9904
    18b4:	0001                	nop
    18b6:	1900                	addi	s0,sp,176
    18b8:	5f5f 006d 6301      	0x6301006d5f5f
    18be:	9904                	0x9904
    18c0:	0001                	nop
    18c2:	0000                	unimp
    18c4:	9d26                	add	s10,s10,s1
    18c6:	27000007          	0x27000007
    18ca:	000002e7          	jalr	t0,zero
    18ce:	8601                	srai	a2,a2,0x0
    18d0:	9904                	0x9904
    18d2:	0001                	nop
    18d4:	1900                	addi	s0,sp,176
    18d6:	5f5f 0061 8601      	0x860100615f5f
    18dc:	9904                	0x9904
    18de:	0001                	nop
    18e0:	0000                	unimp
    18e2:	af26                	fsd	fs1,408(sp)
    18e4:	19000007          	0x19000007
    18e8:	5f5f 0078 9401      	0x940100785f5f
    18ee:	9904                	0x9904
    18f0:	0001                	nop
    18f2:	0000                	unimp
    18f4:	1928                	addi	a0,sp,184
    18f6:	316d                	jal	15a0 <_tbss_end+0x155c>
    18f8:	0100                	addi	s0,sp,128
    18fa:	04a4                	addi	s1,sp,584
    18fc:	0199                	addi	gp,gp,6
    18fe:	0000                	unimp
    1900:	6d19                	lui	s10,0x6
    1902:	0030                	addi	a2,sp,8
    1904:	a401                	j	1b04 <_tbss_end+0x1ac0>
    1906:	9904                	0x9904
    1908:	0001                	nop
    190a:	2600                	fld	fs0,8(a2)
    190c:	0820                	addi	s0,sp,24
    190e:	0000                	unimp
    1910:	00013d27          	fsd	ft0,26(sp)
    1914:	0100                	addi	s0,sp,128
    1916:	019904af          	0x19904af
    191a:	0000                	unimp
    191c:	00013827          	fsd	ft0,16(sp)
    1920:	0100                	addi	s0,sp,128
    1922:	019904af          	0x19904af
    1926:	0000                	unimp
    1928:	0002d027          	0x2d027
    192c:	0100                	addi	s0,sp,128
    192e:	019904af          	0x19904af
    1932:	0000                	unimp
    1934:	0002cb27          	fsq	ft0,22(t0)
    1938:	0100                	addi	s0,sp,128
    193a:	019904af          	0x19904af
    193e:	0000                	unimp
    1940:	00031227          	0x31227
    1944:	0100                	addi	s0,sp,128
    1946:	019904af          	0x19904af
    194a:	0000                	unimp
    194c:	00030d27          	0x30d27
    1950:	0100                	addi	s0,sp,128
    1952:	019904af          	0x19904af
    1956:	0000                	unimp
    1958:	5f19                	li	t5,-26
    195a:	6d5f 0100 04af      	0x4af01006d5f
    1960:	0199                	addi	gp,gp,6
    1962:	0000                	unimp
    1964:	2600                	fld	fs0,8(a2)
    1966:	0886                	slli	a7,a7,0x1
    1968:	0000                	unimp
    196a:	00022e27          	fsw	ft0,28(tp) # 601c <_tbss_end+0x5fd8>
    196e:	0100                	addi	s0,sp,128
    1970:	04b0                	addi	a2,sp,584
    1972:	0199                	addi	gp,gp,6
    1974:	0000                	unimp
    1976:	00023327          	fsd	ft0,6(tp) # 6 <_tdata_begin+0x6>
    197a:	0100                	addi	s0,sp,128
    197c:	04b0                	addi	a2,sp,584
    197e:	0199                	addi	gp,gp,6
    1980:	0000                	unimp
    1982:	00023827          	fsd	ft0,16(tp) # 10 <_tdata_begin+0x10>
    1986:	0100                	addi	s0,sp,128
    1988:	04b0                	addi	a2,sp,584
    198a:	0199                	addi	gp,gp,6
    198c:	0000                	unimp
    198e:	00023d27          	fsd	ft0,26(tp) # 1a <_tdata_begin+0x1a>
    1992:	0100                	addi	s0,sp,128
    1994:	04b0                	addi	a2,sp,584
    1996:	0199                	addi	gp,gp,6
    1998:	0000                	unimp
    199a:	00032627          	fsw	ft0,12(t1) # 1110 <_tbss_end+0x10cc>
    199e:	0100                	addi	s0,sp,128
    19a0:	04b0                	addi	a2,sp,584
    19a2:	0199                	addi	gp,gp,6
    19a4:	0000                	unimp
    19a6:	00016a27          	0x16a27
    19aa:	0100                	addi	s0,sp,128
    19ac:	04b0                	addi	a2,sp,584
    19ae:	0199                	addi	gp,gp,6
    19b0:	0000                	unimp
    19b2:	00031727          	0x31727
    19b6:	0100                	addi	s0,sp,128
    19b8:	04b0                	addi	a2,sp,584
    19ba:	0199                	addi	gp,gp,6
    19bc:	0000                	unimp
    19be:	00015a27          	0x15a27
    19c2:	0100                	addi	s0,sp,128
    19c4:	04b0                	addi	a2,sp,584
    19c6:	0199                	addi	gp,gp,6
    19c8:	0000                	unimp
    19ca:	2600                	fld	fs0,8(a2)
    19cc:	0898                	addi	a4,sp,80
    19ce:	0000                	unimp
    19d0:	5f19                	li	t5,-26
    19d2:	785f 0100 04b5      	0x4b50100785f
    19d8:	0199                	addi	gp,gp,6
    19da:	0000                	unimp
    19dc:	2800                	fld	fs0,16(s0)
    19de:	5f19                	li	t5,-26
    19e0:	785f 0100 04bd      	0x4bd0100785f
    19e6:	0199                	addi	gp,gp,6
    19e8:	0000                	unimp
    19ea:	0000                	unimp
    19ec:	0500                	addi	s0,sp,640
    19ee:	af04                	fsd	fs1,24(a4)
    19f0:	0001                	nop
    19f2:	0000                	unimp
    19f4:	01e1                	addi	gp,gp,24
    19f6:	0000                	unimp
    19f8:	0004                	0x4
    19fa:	0589                	addi	a1,a1,2
    19fc:	0000                	unimp
    19fe:	0104                	addi	s1,sp,128
    1a00:	0398                	addi	a4,sp,448
    1a02:	0000                	unimp
    1a04:	800c                	0x800c
    1a06:	0002                	c.slli	zero,0x0
    1a08:	2b00                	fld	fs0,16(a4)
    1a0a:	94000003          	lb	zero,-1728(zero) # fffff940 <__global_pointer$+0x6ffff140>
    1a0e:	0009                	c.nop	2
    1a10:	0200                	addi	s0,sp,256
    1a12:	0504                	addi	s1,sp,640
    1a14:	6e69                	lui	t3,0x1a
    1a16:	0074                	addi	a3,sp,12
    1a18:	ad070403          	lb	s0,-1328(a4) # fffe5ad0 <__global_pointer$+0x6ffe52d0>
    1a1c:	0001                	nop
    1a1e:	0300                	addi	s0,sp,384
    1a20:	0508                	addi	a0,sp,640
    1a22:	012a                	slli	sp,sp,0xa
    1a24:	0000                	unimp
    1a26:	01041003          	lh	zero,16(s0) # 6010 <_tbss_end+0x5fcc>
    1a2a:	04000003          	lb	zero,64(zero) # 40 <buflen.2811>
    1a2e:	02d5                	addi	t0,t0,21
    1a30:	0000                	unimp
    1a32:	2a01                	jal	1b42 <_tbss_end+0x1afe>
    1a34:	0024                	addi	s1,sp,8
    1a36:	0000                	unimp
    1a38:	9904                	0x9904
    1a3a:	0001                	nop
    1a3c:	0100                	addi	s0,sp,128
    1a3e:	00004f2f          	0x4f2f
    1a42:	0500                	addi	s0,sp,640
    1a44:	5504                	lw	s1,40(a0)
    1a46:	0000                	unimp
    1a48:	0600                	addi	s0,sp,768
    1a4a:	0039                	c.nop	14
    1a4c:	0000                	unimp
    1a4e:	0064                	addi	s1,sp,12
    1a50:	0000                	unimp
    1a52:	00006407          	0x6407
    1a56:	0000                	unimp
    1a58:	0405                	addi	s0,s0,1
    1a5a:	006a                	c.slli	zero,0x1a
    1a5c:	0000                	unimp
    1a5e:	0408                	addi	a0,sp,512
    1a60:	0372                	slli	t1,t1,0x1c
    1a62:	0000                	unimp
    1a64:	3601                	jal	1564 <_tbss_end+0x1520>
    1a66:	0076                	c.slli	zero,0x1d
    1a68:	0000                	unimp
    1a6a:	0405                	addi	s0,s0,1
    1a6c:	007c                	addi	a5,sp,12
    1a6e:	0000                	unimp
    1a70:	1d06                	slli	s10,s10,0x21
    1a72:	0000                	unimp
    1a74:	9000                	0x9000
    1a76:	0000                	unimp
    1a78:	0700                	addi	s0,sp,896
    1a7a:	0064                	addi	s1,sp,12
    1a7c:	0000                	unimp
    1a7e:	00006407          	0x6407
    1a82:	0000                	unimp
    1a84:	4a09                	li	s4,2
    1a86:	0002                	c.slli	zero,0x0
    1a88:	0100                	addi	s0,sp,128
    1a8a:	000044bb          	0x44bb
    1a8e:	0900                	addi	s0,sp,144
    1a90:	00000017          	auipc	zero,0x0
    1a94:	be01                	j	15a4 <_tbss_end+0x1560>
    1a96:	0000006b          	0x6b
    1a9a:	03080103          	lb	sp,48(a6) # 10030 <_tbss_end+0xffec>
    1a9e:	0002                	c.slli	zero,0x0
    1aa0:	0a00                	addi	s0,sp,272
    1aa2:	0000011b          	0x11b
    1aa6:	00240407          	0x240407
    1aaa:	0000                	unimp
    1aac:	1802                	slli	a6,a6,0x20
    1aae:	000000e3          	beqz	zero,22ae <_tbss_end+0x226a>
    1ab2:	00031c0b          	0x31c0b
    1ab6:	0000                	unimp
    1ab8:	00015f0b          	0x15f0b
    1abc:	0100                	addi	s0,sp,128
    1abe:	0001e20b          	0x1e20b
    1ac2:	0200                	addi	s0,sp,256
    1ac4:	0001420b          	0x1420b
    1ac8:	0300                	addi	s0,sp,384
    1aca:	0001ce0b          	0x1ce0b
    1ace:	0400                	addi	s0,sp,512
    1ad0:	0001c40b          	0x1c40b
    1ad4:	0500                	addi	s0,sp,640
    1ad6:	0900                	addi	s0,sp,144
    1ad8:	01ba                	slli	gp,gp,0xe
    1ada:	0000                	unimp
    1adc:	2002                	fld	ft0,0(sp)
    1ade:	00ad                	addi	ra,ra,11
    1ae0:	0000                	unimp
    1ae2:	6f0a                	flw	ft10,128(sp)
    1ae4:	0001                	nop
    1ae6:	0700                	addi	s0,sp,896
    1ae8:	2404                	fld	fs1,8(s0)
    1aea:	0000                	unimp
    1aec:	0200                	addi	s0,sp,256
    1aee:	1222                	slli	tp,tp,0x28
    1af0:	0001                	nop
    1af2:	0b00                	addi	s0,sp,400
    1af4:	0000018f          	0x18f
    1af8:	0b00                	addi	s0,sp,400
    1afa:	037a                	slli	t1,t1,0x1e
    1afc:	0000                	unimp
    1afe:	0b01                	addi	s6,s6,0
    1b00:	01fc                	addi	a5,sp,204
    1b02:	0000                	unimp
    1b04:	0002                	c.slli	zero,0x0
    1b06:	2109                	jal	1f08 <_tbss_end+0x1ec4>
    1b08:	0002                	c.slli	zero,0x0
    1b0a:	0200                	addi	s0,sp,256
    1b0c:	0000ee27          	0xee27
    1b10:	0c00                	addi	s0,sp,528
    1b12:	00000133          	add	sp,zero,zero
    1b16:	0128                	addi	a0,sp,136
    1b18:	0000                	unimp
    1b1a:	000d                	c.nop	3
    1b1c:	1d0e                	slli	s10,s10,0x23
    1b1e:	0001                	nop
    1b20:	0500                	addi	s0,sp,640
    1b22:	3f04                	fld	fs1,56(a4)
    1b24:	0001                	nop
    1b26:	0e00                	addi	s0,sp,784
    1b28:	012d                	addi	sp,sp,11
    1b2a:	0000                	unimp
    1b2c:	0c080103          	lb	sp,192(a6)
    1b30:	0002                	c.slli	zero,0x0
    1b32:	0e00                	addi	s0,sp,784
    1b34:	0138                	addi	a4,sp,136
    1b36:	0000                	unimp
    1b38:	8009                	srli	s0,s0,0x2
    1b3a:	0001                	nop
    1b3c:	0300                	addi	s0,sp,384
    1b3e:	2825                	jal	1b76 <_tbss_end+0x1b32>
    1b40:	0001                	nop
    1b42:	0900                	addi	s0,sp,144
    1b44:	0211                	addi	tp,tp,4
    1b46:	0000                	unimp
    1b48:	01283103          	0x1283103
    1b4c:	0000                	unimp
    1b4e:	05060103          	lb	sp,80(a2) # fffe7050 <__global_pointer$+0x6ffe6850>
    1b52:	0002                	c.slli	zero,0x0
    1b54:	0400                	addi	s0,sp,512
    1b56:	0242                	slli	tp,tp,0x10
    1b58:	0000                	unimp
    1b5a:	7b04                	flw	fs1,48(a4)
    1b5c:	00a6                	slli	ra,ra,0x9
    1b5e:	0000                	unimp
    1b60:	610e                	flw	ft2,192(sp)
    1b62:	0001                	nop
    1b64:	0300                	addi	s0,sp,384
    1b66:	0502                	slli	a0,a0,0x0
    1b68:	0104                	addi	s1,sp,128
    1b6a:	0000                	unimp
    1b6c:	5c070203          	lb	tp,1472(a4)
    1b70:	0002                	c.slli	zero,0x0
    1b72:	0300                	addi	s0,sp,384
    1b74:	0708                	addi	a0,sp,896
    1b76:	000001a3          	sb	zero,3(zero) # 1a93 <_tbss_end+0x1a4f>
    1b7a:	11040403          	lb	s0,272(s0)
    1b7e:	0000                	unimp
    1b80:	0300                	addi	s0,sp,384
    1b82:	0308                	addi	a0,sp,384
    1b84:	0009                	c.nop	2
    1b86:	0000                	unimp
    1b88:	06040803          	lb	a6,96(s0)
    1b8c:	03000003          	lb	zero,48(zero) # 30 <_tdata_begin+0x30>
    1b90:	0310                	addi	a2,sp,384
    1b92:	0000014b          	fnmsub.s	ft2,ft0,ft0,ft0,rne
    1b96:	f9032003          	lw	zero,-112(t1)
    1b9a:	0002                	c.slli	zero,0x0
    1b9c:	0c00                	addi	s0,sp,528
    1b9e:	016c                	addi	a1,sp,140
    1ba0:	0000                	unimp
    1ba2:	01b9                	addi	gp,gp,14
    1ba4:	0000                	unimp
    1ba6:	0000240f          	0x240f
    1baa:	ff00                	fsw	fs0,56(a4)
    1bac:	0e00                	addi	s0,sp,784
    1bae:	01a9                	addi	gp,gp,10
    1bb0:	0000                	unimp
    1bb2:	ed10                	fsw	fa2,24(a0)
    1bb4:	0001                	nop
    1bb6:	0400                	addi	s0,sp,512
    1bb8:	01fc                	addi	a5,sp,204
    1bba:	01b9                	addi	gp,gp,14
    1bbc:	0000                	unimp
    1bbe:	d810                	sw	a2,48(s0)
    1bc0:	0001                	nop
    1bc2:	0400                	addi	s0,sp,512
    1bc4:	0202                	slli	tp,tp,0x0
    1bc6:	01b9                	addi	gp,gp,14
    1bc8:	0000                	unimp
    1bca:	ca11                	beqz	a2,1bde <_tbss_end+0x1b9a>
    1bcc:	0001                	nop
    1bce:	0500                	addi	s0,sp,640
    1bd0:	02b1                	addi	t0,t0,12
    1bd2:	0305                	addi	t1,t1,1
    1bd4:	28e4                	fld	fs1,208(s1)
    1bd6:	8000                	0x8000
	...

Disassembly of section .debug_abbrev:

00000000 <.debug_abbrev>:
   0:	1101                	addi	sp,sp,-32
   2:	2501                	jal	602 <_tbss_end+0x5be>
   4:	130e                	slli	t1,t1,0x23
   6:	1b0e030b          	0x1b0e030b
   a:	550e                	lw	a0,224(sp)
   c:	10011117          	auipc	sp,0x10011
  10:	02000017          	auipc	zero,0x2000
  14:	0024                	addi	s1,sp,8
  16:	0b3e0b0b          	0xb3e0b0b
  1a:	00000e03          	lb	t3,0(zero) # 2000010 <_tbss_end+0x1ffffcc>
  1e:	0b002403          	lw	s0,176(zero) # b0 <_tbss_end+0x6c>
  22:	030b3e0b          	0x30b3e0b
  26:	0008                	0x8
  28:	0400                	addi	s0,sp,512
  2a:	0016                	c.slli	zero,0x5
  2c:	0b3a0e03          	lb	t3,179(s4) # fffe00b3 <__global_pointer$+0x6ffdf8b3>
  30:	13490b3b          	0x13490b3b
  34:	0000                	unimp
  36:	0f05                	addi	t5,t5,1
  38:	0b00                	addi	s0,sp,400
  3a:	0013490b          	0x13490b
  3e:	0600                	addi	s0,sp,768
  40:	0115                	addi	sp,sp,5
  42:	13491927          	0x13491927
  46:	1301                	addi	t1,t1,-32
  48:	0000                	unimp
  4a:	49000507          	0x49000507
  4e:	08000013          	li	zero,128
  52:	0026                	c.slli	zero,0x9
  54:	0000                	unimp
  56:	3409                	jal	fffffa58 <__global_pointer$+0x6ffff258>
  58:	0300                	addi	s0,sp,384
  5a:	3a0e                	fld	fs4,224(sp)
  5c:	490b3b0b          	0x490b3b0b
  60:	3c193f13          	sltiu	t5,s2,961
  64:	0019                	c.nop	6
  66:	0a00                	addi	s0,sp,272
  68:	0104                	addi	s1,sp,128
  6a:	0b3e0e03          	lb	t3,179(t3) # 1a0b3 <_tbss_end+0x1a06f>
  6e:	13490b0b          	0x13490b0b
  72:	0b3a                	slli	s6,s6,0xe
  74:	13010b3b          	0x13010b3b
  78:	0000                	unimp
  7a:	0300280b          	0x300280b
  7e:	1c0e                	slli	s8,s8,0x23
  80:	0c00000b          	0xc00000b
  84:	0101                	addi	sp,sp,0
  86:	1349                	addi	t1,t1,-14
  88:	1301                	addi	t1,t1,-32
  8a:	0000                	unimp
  8c:	210d                	jal	4ae <_tbss_end+0x46a>
  8e:	0000                	unimp
  90:	0e00                	addi	s0,sp,784
  92:	0026                	c.slli	zero,0x9
  94:	1349                	addi	t1,t1,-14
  96:	0000                	unimp
  98:	0301130f          	0x301130f
  9c:	0b0e                	slli	s6,s6,0x3
  9e:	3b0b3a0b          	0x3b0b3a0b
  a2:	0105                	addi	sp,sp,1
  a4:	10000013          	li	zero,256
  a8:	000d                	c.nop	3
  aa:	0b3a0803          	lb	a6,179(s4)
  ae:	1349053b          	0x1349053b
  b2:	0b38                	addi	a4,sp,408
  b4:	0000                	unimp
  b6:	0d11                	addi	s10,s10,4
  b8:	0300                	addi	s0,sp,384
  ba:	3a0e                	fld	fs4,224(sp)
  bc:	49053b0b          	0x49053b0b
  c0:	000b3813          	sltiu	a6,s6,0
  c4:	1200                	addi	s0,sp,288
  c6:	0b0b0117          	auipc	sp,0xb0b0
  ca:	0b3a                	slli	s6,s6,0xe
  cc:	1301053b          	0x1301053b
  d0:	0000                	unimp
  d2:	03000d13          	li	s10,48
  d6:	3a08                	fld	fa0,48(a2)
  d8:	49053b0b          	0x49053b0b
  dc:	14000013          	li	zero,320
  e0:	0016                	c.slli	zero,0x5
  e2:	0b3a0e03          	lb	t3,179(s4)
  e6:	1349053b          	0x1349053b
  ea:	0000                	unimp
  ec:	2115                	jal	510 <_tbss_end+0x4cc>
  ee:	4900                	lw	s0,16(a0)
  f0:	000b2f13          	slti	t5,s6,0
  f4:	1600                	addi	s0,sp,800
  f6:	0034                	addi	a3,sp,8
  f8:	0b3a0e03          	lb	t3,179(s4)
  fc:	1349053b          	0x1349053b
 100:	193c193f 2e170000 	0x2e170000193c193f
 108:	3f01                	jal	18 <_tdata_begin+0x18>
 10a:	0319                	addi	t1,t1,6
 10c:	3a0e                	fld	fs4,224(sp)
 10e:	27053b0b          	0x27053b0b
 112:	4919                	li	s2,6
 114:	12011113          	0x12011113
 118:	4006                	0x4006
 11a:	9718                	0x9718
 11c:	1942                	slli	s2,s2,0x30
 11e:	1301                	addi	t1,t1,-32
 120:	0000                	unimp
 122:	0518                	addi	a4,sp,640
 124:	0300                	addi	s0,sp,384
 126:	3a08                	fld	fa0,48(a2)
 128:	49053b0b          	0x49053b0b
 12c:	00170213          	addi	tp,a4,1
 130:	1900                	addi	s0,sp,176
 132:	0034                	addi	a3,sp,8
 134:	0b3a0803          	lb	a6,179(s4)
 138:	1349053b          	0x1349053b
 13c:	1702                	slli	a4,a4,0x20
 13e:	0000                	unimp
 140:	1d1a                	slli	s10,s10,0x26
 142:	3101                	jal	fffffd42 <__global_pointer$+0x6ffff542>
 144:	55015213          	0x55015213
 148:	590b5817          	auipc	a6,0x590b5
 14c:	0005                	c.nop	1
 14e:	1b00                	addi	s0,sp,432
 150:	0005                	c.nop	1
 152:	1331                	addi	t1,t1,-20
 154:	1702                	slli	a4,a4,0x20
 156:	0000                	unimp
 158:	051c                	addi	a5,sp,640
 15a:	3100                	fld	fs0,32(a0)
 15c:	1d000013          	li	zero,464
 160:	1755010b          	0x1755010b
 164:	0000                	unimp
 166:	341e                	fld	fs0,480(sp)
 168:	3100                	fld	fs0,32(a0)
 16a:	1f000013          	li	zero,496
 16e:	0034                	addi	a3,sp,8
 170:	1331                	addi	t1,t1,-20
 172:	1702                	slli	a4,a4,0x20
 174:	0000                	unimp
 176:	0b20                	addi	s0,sp,408
 178:	3101                	jal	fffffd78 <__global_pointer$+0x6ffff578>
 17a:	01175513          	srli	a0,a4,0x11
 17e:	21000013          	li	zero,528
 182:	1331010b          	0x1331010b
 186:	0111                	addi	sp,sp,4
 188:	0612                	slli	a2,a2,0x4
 18a:	1301                	addi	t1,t1,-32
 18c:	0000                	unimp
 18e:	0b22                	slli	s6,s6,0x8
 190:	3101                	jal	fffffd90 <__global_pointer$+0x6ffff590>
 192:	00175513          	srli	a0,a4,0x1
 196:	2300                	fld	fs0,0(a4)
 198:	0034                	addi	a3,sp,8
 19a:	1331                	addi	t1,t1,-20
 19c:	1802                	slli	a6,a6,0x20
 19e:	0000                	unimp
 1a0:	0b24                	addi	s1,sp,408
 1a2:	3101                	jal	fffffda2 <__global_pointer$+0x6ffff5a2>
 1a4:	12011113          	0x12011113
 1a8:	0006                	c.slli	zero,0x1
 1aa:	2500                	fld	fs0,8(a0)
 1ac:	012e                	slli	sp,sp,0xb
 1ae:	0b3a0e03          	lb	t3,179(s4)
 1b2:	1927053b          	0x1927053b
 1b6:	1349                	addi	t1,t1,-14
 1b8:	0b20                	addi	s0,sp,408
 1ba:	1301                	addi	t1,t1,-32
 1bc:	0000                	unimp
 1be:	0526                	slli	a0,a0,0x9
 1c0:	0300                	addi	s0,sp,384
 1c2:	3a08                	fld	fa0,48(a2)
 1c4:	49053b0b          	0x49053b0b
 1c8:	27000013          	li	zero,624
 1cc:	0034                	addi	a3,sp,8
 1ce:	0b3a0803          	lb	a6,179(s4)
 1d2:	1349053b          	0x1349053b
 1d6:	0000                	unimp
 1d8:	0b28                	addi	a0,sp,408
 1da:	0101                	addi	sp,sp,0
 1dc:	29000013          	li	zero,656
 1e0:	0034                	addi	a3,sp,8
 1e2:	0b3a0e03          	lb	t3,179(s4)
 1e6:	1349053b          	0x1349053b
 1ea:	0000                	unimp
 1ec:	0b2a                	slli	s6,s6,0xa
 1ee:	0001                	nop
 1f0:	0000                	unimp
 1f2:	1101                	addi	sp,sp,-32
 1f4:	2501                	jal	7f4 <_tbss_end+0x7b0>
 1f6:	130e                	slli	t1,t1,0x23
 1f8:	1b0e030b          	0x1b0e030b
 1fc:	550e                	lw	a0,224(sp)
 1fe:	10011117          	auipc	sp,0x10011
 202:	02000017          	auipc	zero,0x2000
 206:	0024                	addi	s1,sp,8
 208:	0b3e0b0b          	0xb3e0b0b
 20c:	00000e03          	lb	t3,0(zero) # 2000202 <_tbss_end+0x20001be>
 210:	0b002403          	lw	s0,176(zero) # b0 <_tbss_end+0x6c>
 214:	030b3e0b          	0x30b3e0b
 218:	0008                	0x8
 21a:	0400                	addi	s0,sp,512
 21c:	0016                	c.slli	zero,0x5
 21e:	0b3a0e03          	lb	t3,179(s4)
 222:	13490b3b          	0x13490b3b
 226:	0000                	unimp
 228:	0f05                	addi	t5,t5,1
 22a:	0b00                	addi	s0,sp,400
 22c:	0013490b          	0x13490b
 230:	0600                	addi	s0,sp,768
 232:	0115                	addi	sp,sp,5
 234:	13491927          	0x13491927
 238:	1301                	addi	t1,t1,-32
 23a:	0000                	unimp
 23c:	49000507          	0x49000507
 240:	08000013          	li	zero,128
 244:	0026                	c.slli	zero,0x9
 246:	0000                	unimp
 248:	3409                	jal	fffffc4a <__global_pointer$+0x6ffff44a>
 24a:	0300                	addi	s0,sp,384
 24c:	3a0e                	fld	fs4,224(sp)
 24e:	490b3b0b          	0x490b3b0b
 252:	3c193f13          	sltiu	t5,s2,961
 256:	0019                	c.nop	6
 258:	0a00                	addi	s0,sp,272
 25a:	0104                	addi	s1,sp,128
 25c:	0b3e0e03          	lb	t3,179(t3)
 260:	13490b0b          	0x13490b0b
 264:	0b3a                	slli	s6,s6,0xe
 266:	13010b3b          	0x13010b3b
 26a:	0000                	unimp
 26c:	0300280b          	0x300280b
 270:	1c0e                	slli	s8,s8,0x23
 272:	0c00000b          	0xc00000b
 276:	0101                	addi	sp,sp,0
 278:	1349                	addi	t1,t1,-14
 27a:	1301                	addi	t1,t1,-32
 27c:	0000                	unimp
 27e:	210d                	jal	6a0 <_tbss_end+0x65c>
 280:	0000                	unimp
 282:	0e00                	addi	s0,sp,784
 284:	0026                	c.slli	zero,0x9
 286:	1349                	addi	t1,t1,-14
 288:	0000                	unimp
 28a:	0301130f          	0x301130f
 28e:	0b0e                	slli	s6,s6,0x3
 290:	3b0b3a0b          	0x3b0b3a0b
 294:	0105                	addi	sp,sp,1
 296:	10000013          	li	zero,256
 29a:	000d                	c.nop	3
 29c:	0b3a0803          	lb	a6,179(s4)
 2a0:	1349053b          	0x1349053b
 2a4:	0b38                	addi	a4,sp,408
 2a6:	0000                	unimp
 2a8:	0d11                	addi	s10,s10,4
 2aa:	0300                	addi	s0,sp,384
 2ac:	3a0e                	fld	fs4,224(sp)
 2ae:	49053b0b          	0x49053b0b
 2b2:	000b3813          	sltiu	a6,s6,0
 2b6:	1200                	addi	s0,sp,288
 2b8:	0b0b0117          	auipc	sp,0xb0b0
 2bc:	0b3a                	slli	s6,s6,0xe
 2be:	1301053b          	0x1301053b
 2c2:	0000                	unimp
 2c4:	03000d13          	li	s10,48
 2c8:	3a08                	fld	fa0,48(a2)
 2ca:	49053b0b          	0x49053b0b
 2ce:	14000013          	li	zero,320
 2d2:	0016                	c.slli	zero,0x5
 2d4:	0b3a0e03          	lb	t3,179(s4)
 2d8:	1349053b          	0x1349053b
 2dc:	0000                	unimp
 2de:	2115                	jal	702 <_tbss_end+0x6be>
 2e0:	4900                	lw	s0,16(a0)
 2e2:	000b2f13          	slti	t5,s6,0
 2e6:	1600                	addi	s0,sp,800
 2e8:	0034                	addi	a3,sp,8
 2ea:	0b3a0e03          	lb	t3,179(s4)
 2ee:	1349053b          	0x1349053b
 2f2:	193c193f 2e170000 	0x2e170000193c193f
 2fa:	3f01                	jal	20a <_tbss_end+0x1c6>
 2fc:	0319                	addi	t1,t1,6
 2fe:	3a0e                	fld	fs4,224(sp)
 300:	27053b0b          	0x27053b0b
 304:	4919                	li	s2,6
 306:	12011113          	0x12011113
 30a:	4006                	0x4006
 30c:	9718                	0x9718
 30e:	1942                	slli	s2,s2,0x30
 310:	1301                	addi	t1,t1,-32
 312:	0000                	unimp
 314:	0518                	addi	a4,sp,640
 316:	0300                	addi	s0,sp,384
 318:	3a08                	fld	fa0,48(a2)
 31a:	49053b0b          	0x49053b0b
 31e:	00170213          	addi	tp,a4,1
 322:	1900                	addi	s0,sp,176
 324:	011d                	addi	sp,sp,7
 326:	1331                	addi	t1,t1,-20
 328:	0152                	slli	sp,sp,0x14
 32a:	1755                	addi	a4,a4,-11
 32c:	0b58                	addi	a4,sp,404
 32e:	0559                	addi	a0,a0,22
 330:	0000                	unimp
 332:	051a                	slli	a0,a0,0x6
 334:	3100                	fld	fs0,32(a0)
 336:	00170213          	addi	tp,a4,1
 33a:	1b00                	addi	s0,sp,432
 33c:	1755010b          	0x1755010b
 340:	0000                	unimp
 342:	341c                	fld	fa5,40(s0)
 344:	3100                	fld	fs0,32(a0)
 346:	1d000013          	li	zero,464
 34a:	0034                	addi	a3,sp,8
 34c:	1331                	addi	t1,t1,-20
 34e:	1702                	slli	a4,a4,0x20
 350:	0000                	unimp
 352:	0b1e                	slli	s6,s6,0x7
 354:	3101                	jal	ffffff54 <__global_pointer$+0x6ffff754>
 356:	01175513          	srli	a0,a4,0x11
 35a:	1f000013          	li	zero,496
 35e:	1331010b          	0x1331010b
 362:	1755                	addi	a4,a4,-11
 364:	0000                	unimp
 366:	2e20                	fld	fs0,88(a2)
 368:	0301                	addi	t1,t1,0
 36a:	3a0e                	fld	fs4,224(sp)
 36c:	27053b0b          	0x27053b0b
 370:	4919                	li	s2,6
 372:	010b2013          	slti	zero,s6,16
 376:	21000013          	li	zero,528
 37a:	0005                	c.nop	1
 37c:	0b3a0803          	lb	a6,179(s4)
 380:	1349053b          	0x1349053b
 384:	0000                	unimp
 386:	3422                	fld	fs0,40(sp)
 388:	0300                	addi	s0,sp,384
 38a:	3a08                	fld	fa0,48(a2)
 38c:	49053b0b          	0x49053b0b
 390:	23000013          	li	zero,560
 394:	1301010b          	0x1301010b
 398:	0000                	unimp
 39a:	3424                	fld	fs1,104(s0)
 39c:	0300                	addi	s0,sp,384
 39e:	3a0e                	fld	fs4,224(sp)
 3a0:	49053b0b          	0x49053b0b
 3a4:	25000013          	li	zero,592
 3a8:	0000010b          	0x10b
 3ac:	0100                	addi	s0,sp,128
 3ae:	0111                	addi	sp,sp,4
 3b0:	0e25                	addi	t3,t3,9
 3b2:	0e030b13          	addi	s6,t1,224
 3b6:	17550e1b          	0x17550e1b
 3ba:	0111                	addi	sp,sp,4
 3bc:	1710                	addi	a2,sp,928
 3be:	0000                	unimp
 3c0:	2402                	fld	fs0,0(sp)
 3c2:	0b00                	addi	s0,sp,400
 3c4:	030b3e0b          	0x30b3e0b
 3c8:	000e                	c.slli	zero,0x3
 3ca:	0300                	addi	s0,sp,384
 3cc:	0024                	addi	s1,sp,8
 3ce:	0b3e0b0b          	0xb3e0b0b
 3d2:	00000803          	lb	a6,0(zero) # 0 <_tdata_begin>
 3d6:	1604                	addi	s1,sp,800
 3d8:	0300                	addi	s0,sp,384
 3da:	3a0e                	fld	fs4,224(sp)
 3dc:	490b3b0b          	0x490b3b0b
 3e0:	05000013          	li	zero,80
 3e4:	0b0b000f          	0xb0b000f
 3e8:	1349                	addi	t1,t1,-14
 3ea:	0000                	unimp
 3ec:	1506                	slli	a0,a0,0x21
 3ee:	2701                	jal	aee <_tbss_end+0xaaa>
 3f0:	4919                	li	s2,6
 3f2:	00130113          	addi	sp,t1,1
 3f6:	0700                	addi	s0,sp,896
 3f8:	0005                	c.nop	1
 3fa:	1349                	addi	t1,t1,-14
 3fc:	0000                	unimp
 3fe:	2608                	fld	fa0,8(a2)
 400:	0000                	unimp
 402:	0900                	addi	s0,sp,144
 404:	0034                	addi	a3,sp,8
 406:	0b3a0e03          	lb	t3,179(s4)
 40a:	13490b3b          	0x13490b3b
 40e:	193c193f 040a0000 	0x40a0000193c193f
 416:	0301                	addi	t1,t1,0
 418:	3e0e                	fld	ft8,224(sp)
 41a:	490b0b0b          	0x490b0b0b
 41e:	3b0b3a13          	sltiu	s4,s6,944
 422:	0013010b          	0x13010b
 426:	0b00                	addi	s0,sp,400
 428:	0028                	addi	a0,sp,8
 42a:	0b1c0e03          	lb	t3,177(s8) # fffe70b1 <__global_pointer$+0x6ffe68b1>
 42e:	0000                	unimp
 430:	010c                	addi	a1,sp,128
 432:	4901                	li	s2,0
 434:	00130113          	addi	sp,t1,1
 438:	0d00                	addi	s0,sp,656
 43a:	0021                	c.nop	8
 43c:	0000                	unimp
 43e:	260e                	fld	fa2,192(sp)
 440:	4900                	lw	s0,16(a0)
 442:	0f000013          	li	zero,240
 446:	0e030113          	addi	sp,t1,224
 44a:	0b3a0b0b          	0xb3a0b0b
 44e:	1301053b          	0x1301053b
 452:	0000                	unimp
 454:	0d10                	addi	a2,sp,656
 456:	0300                	addi	s0,sp,384
 458:	3a08                	fld	fa0,48(a2)
 45a:	49053b0b          	0x49053b0b
 45e:	000b3813          	sltiu	a6,s6,0
 462:	1100                	addi	s0,sp,160
 464:	000d                	c.nop	3
 466:	0b3a0e03          	lb	t3,179(s4)
 46a:	1349053b          	0x1349053b
 46e:	0b38                	addi	a4,sp,408
 470:	0000                	unimp
 472:	1712                	slli	a4,a4,0x24
 474:	0b01                	addi	s6,s6,0
 476:	3b0b3a0b          	0x3b0b3a0b
 47a:	0105                	addi	sp,sp,1
 47c:	13000013          	li	zero,304
 480:	000d                	c.nop	3
 482:	0b3a0803          	lb	a6,179(s4)
 486:	1349053b          	0x1349053b
 48a:	0000                	unimp
 48c:	1614                	addi	a3,sp,800
 48e:	0300                	addi	s0,sp,384
 490:	3a0e                	fld	fs4,224(sp)
 492:	49053b0b          	0x49053b0b
 496:	15000013          	li	zero,336
 49a:	0021                	c.nop	8
 49c:	1349                	addi	t1,t1,-14
 49e:	00000b2f          	0xb2f
 4a2:	3416                	fld	fs0,352(sp)
 4a4:	0300                	addi	s0,sp,384
 4a6:	3a0e                	fld	fs4,224(sp)
 4a8:	49053b0b          	0x49053b0b
 4ac:	3c193f13          	sltiu	t5,s2,961
 4b0:	0019                	c.nop	6
 4b2:	1700                	addi	s0,sp,928
 4b4:	012e                	slli	sp,sp,0xb
 4b6:	0e03193f 053b0b3a 	0x53b0b3a0e03193f
 4be:	13491927          	0x13491927
 4c2:	0111                	addi	sp,sp,4
 4c4:	0612                	slli	a2,a2,0x4
 4c6:	1840                	addi	s0,sp,52
 4c8:	01194297          	auipc	t0,0x1194
 4cc:	18000013          	li	zero,384
 4d0:	0005                	c.nop	1
 4d2:	0b3a0803          	lb	a6,179(s4)
 4d6:	1349053b          	0x1349053b
 4da:	1702                	slli	a4,a4,0x20
 4dc:	0000                	unimp
 4de:	3419                	jal	fffffee4 <__global_pointer$+0x6ffff6e4>
 4e0:	0300                	addi	s0,sp,384
 4e2:	3a08                	fld	fa0,48(a2)
 4e4:	49053b0b          	0x49053b0b
 4e8:	1a000013          	li	zero,416
 4ec:	011d                	addi	sp,sp,7
 4ee:	1331                	addi	t1,t1,-20
 4f0:	0152                	slli	sp,sp,0x14
 4f2:	1755                	addi	a4,a4,-11
 4f4:	0b58                	addi	a4,sp,404
 4f6:	0559                	addi	a0,a0,22
 4f8:	0000                	unimp
 4fa:	3100051b          	0x3100051b
 4fe:	00170213          	addi	tp,a4,1
 502:	1c00                	addi	s0,sp,560
 504:	1755010b          	0x1755010b
 508:	0000                	unimp
 50a:	341d                	jal	ffffff30 <__global_pointer$+0x6ffff730>
 50c:	3100                	fld	fs0,32(a0)
 50e:	1e000013          	li	zero,480
 512:	0034                	addi	a3,sp,8
 514:	1331                	addi	t1,t1,-20
 516:	1702                	slli	a4,a4,0x20
 518:	0000                	unimp
 51a:	0b1f 3101 5513      	0x551331010b1f
 520:	00130117          	auipc	sp,0x130
 524:	2000                	fld	fs0,0(s0)
 526:	1331010b          	0x1331010b
 52a:	0111                	addi	sp,sp,4
 52c:	0612                	slli	a2,a2,0x4
 52e:	1301                	addi	t1,t1,-32
 530:	0000                	unimp
 532:	3421                	jal	ffffff3a <__global_pointer$+0x6ffff73a>
 534:	3100                	fld	fs0,32(a0)
 536:	00180213          	addi	tp,a6,1 # 590b5149 <_tbss_end+0x590b5105>
 53a:	2200                	fld	fs0,0(a2)
 53c:	1331010b          	0x1331010b
 540:	0111                	addi	sp,sp,4
 542:	0612                	slli	a2,a2,0x4
 544:	0000                	unimp
 546:	31010b23          	sb	a6,790(sp) # 130836 <_tbss_end+0x1307f2>
 54a:	00175513          	srli	a0,a4,0x1
 54e:	2400                	fld	fs0,8(s0)
 550:	012e                	slli	sp,sp,0xb
 552:	0b3a0e03          	lb	t3,179(s4)
 556:	1927053b          	0x1927053b
 55a:	1349                	addi	t1,t1,-14
 55c:	0b20                	addi	s0,sp,408
 55e:	1301                	addi	t1,t1,-32
 560:	0000                	unimp
 562:	0525                	addi	a0,a0,9
 564:	0300                	addi	s0,sp,384
 566:	3a08                	fld	fa0,48(a2)
 568:	49053b0b          	0x49053b0b
 56c:	26000013          	li	zero,608
 570:	1301010b          	0x1301010b
 574:	0000                	unimp
 576:	03003427          	fsd	fa6,40(zero) # 28 <_tdata_begin+0x28>
 57a:	3a0e                	fld	fs4,224(sp)
 57c:	49053b0b          	0x49053b0b
 580:	28000013          	li	zero,640
 584:	0000010b          	0x10b
 588:	0100                	addi	s0,sp,128
 58a:	0111                	addi	sp,sp,4
 58c:	0e25                	addi	t3,t3,9
 58e:	0e030b13          	addi	s6,t1,224
 592:	17100e1b          	0x17100e1b
 596:	0000                	unimp
 598:	2402                	fld	fs0,0(sp)
 59a:	0b00                	addi	s0,sp,400
 59c:	030b3e0b          	0x30b3e0b
 5a0:	0008                	0x8
 5a2:	0300                	addi	s0,sp,384
 5a4:	0024                	addi	s1,sp,8
 5a6:	0b3e0b0b          	0xb3e0b0b
 5aa:	00000e03          	lb	t3,0(zero) # 0 <_tdata_begin>
 5ae:	1604                	addi	s1,sp,800
 5b0:	0300                	addi	s0,sp,384
 5b2:	3a0e                	fld	fs4,224(sp)
 5b4:	490b3b0b          	0x490b3b0b
 5b8:	05000013          	li	zero,80
 5bc:	0b0b000f          	0xb0b000f
 5c0:	1349                	addi	t1,t1,-14
 5c2:	0000                	unimp
 5c4:	1506                	slli	a0,a0,0x21
 5c6:	2701                	jal	cc6 <_tbss_end+0xc82>
 5c8:	4919                	li	s2,6
 5ca:	00130113          	addi	sp,t1,1
 5ce:	0700                	addi	s0,sp,896
 5d0:	0005                	c.nop	1
 5d2:	1349                	addi	t1,t1,-14
 5d4:	0000                	unimp
 5d6:	2608                	fld	fa0,8(a2)
 5d8:	0000                	unimp
 5da:	0900                	addi	s0,sp,144
 5dc:	0034                	addi	a3,sp,8
 5de:	0b3a0e03          	lb	t3,179(s4)
 5e2:	13490b3b          	0x13490b3b
 5e6:	193c193f 040a0000 	0x40a0000193c193f
 5ee:	0301                	addi	t1,t1,0
 5f0:	3e0e                	fld	ft8,224(sp)
 5f2:	490b0b0b          	0x490b0b0b
 5f6:	3b0b3a13          	sltiu	s4,s6,944
 5fa:	0013010b          	0x13010b
 5fe:	0b00                	addi	s0,sp,400
 600:	0028                	addi	a0,sp,8
 602:	0b1c0e03          	lb	t3,177(s8)
 606:	0000                	unimp
 608:	010c                	addi	a1,sp,128
 60a:	4901                	li	s2,0
 60c:	00130113          	addi	sp,t1,1
 610:	0d00                	addi	s0,sp,656
 612:	0021                	c.nop	8
 614:	0000                	unimp
 616:	260e                	fld	fa2,192(sp)
 618:	4900                	lw	s0,16(a0)
 61a:	0f000013          	li	zero,240
 61e:	0021                	c.nop	8
 620:	1349                	addi	t1,t1,-14
 622:	00000b2f          	0xb2f
 626:	3410                	fld	fa2,40(s0)
 628:	0300                	addi	s0,sp,384
 62a:	3a0e                	fld	fs4,224(sp)
 62c:	49053b0b          	0x49053b0b
 630:	3c193f13          	sltiu	t5,s2,961
 634:	0019                	c.nop	6
 636:	1100                	addi	s0,sp,160
 638:	0034                	addi	a3,sp,8
 63a:	0b3a1347          	fmsub.d	ft6,fs4,fs3,ft1,rtz
 63e:	1802053b          	0x1802053b
 642:	0000                	unimp
	...

Disassembly of section .debug_loc:

00000000 <.debug_loc>:
       0:	1bfa                	slli	s7,s7,0x3e
       2:	8000                	0x8000
       4:	1c00                	addi	s0,sp,560
       6:	8000                	0x8000
       8:	0006                	c.slli	zero,0x1
       a:	935a                	add	t1,t1,s6
       c:	5b04                	lw	s1,48(a4)
       e:	1c000493          	li	s1,448
      12:	8000                	0x8000
      14:	1d1e                	slli	s10,s10,0x27
      16:	8000                	0x8000
      18:	0006                	c.slli	zero,0x1
      1a:	0af503f3          	0xaf503f3
      1e:	9f2c                	0x9f2c
      20:	1d1e                	slli	s10,s10,0x27
      22:	8000                	0x8000
      24:	1d22                	slli	s10,s10,0x28
      26:	8000                	0x8000
      28:	0006                	c.slli	zero,0x1
      2a:	935a                	add	t1,t1,s6
      2c:	5b04                	lw	s1,48(a4)
      2e:	1d220493          	addi	s1,tp,466 # 1d2 <_tbss_end+0x18e>
      32:	8000                	0x8000
      34:	1fcc                	addi	a1,sp,1012
      36:	8000                	0x8000
      38:	0006                	c.slli	zero,0x1
      3a:	0af503f3          	0xaf503f3
      3e:	9f2c                	0x9f2c
	...
      48:	1bfa                	slli	s7,s7,0x3e
      4a:	8000                	0x8000
      4c:	1c08                	addi	a0,sp,560
      4e:	8000                	0x8000
      50:	0006                	c.slli	zero,0x1
      52:	935c                	0x935c
      54:	5d04                	lw	s1,56(a0)
      56:	1c080493          	addi	s1,a6,448
      5a:	8000                	0x8000
      5c:	1d1e                	slli	s10,s10,0x27
      5e:	8000                	0x8000
      60:	0006                	c.slli	zero,0x1
      62:	0cf503f3          	0xcf503f3
      66:	9f2c                	0x9f2c
      68:	1d1e                	slli	s10,s10,0x27
      6a:	8000                	0x8000
      6c:	1d30                	addi	a2,sp,696
      6e:	8000                	0x8000
      70:	0006                	c.slli	zero,0x1
      72:	935c                	0x935c
      74:	5d04                	lw	s1,56(a0)
      76:	1d300493          	li	s1,467
      7a:	8000                	0x8000
      7c:	1fcc                	addi	a1,sp,1012
      7e:	8000                	0x8000
      80:	0006                	c.slli	zero,0x1
      82:	0cf503f3          	0xcf503f3
      86:	9f2c                	0x9f2c
	...
      90:	1bfa                	slli	s7,s7,0x3e
      92:	8000                	0x8000
      94:	1c00                	addi	s0,sp,560
      96:	8000                	0x8000
      98:	0002                	c.slli	zero,0x0
      9a:	9f30                	0x9f30
      9c:	1c00                	addi	s0,sp,560
      9e:	8000                	0x8000
      a0:	1d1e                	slli	s10,s10,0x27
      a2:	8000                	0x8000
      a4:	0001                	nop
      a6:	1e60                	addi	s0,sp,828
      a8:	001d                	c.nop	7
      aa:	3080                	fld	fs0,32(s1)
      ac:	001d                	c.nop	7
      ae:	0380                	addi	s0,sp,448
      b0:	0900                	addi	s0,sp,144
      b2:	9fff                	0x9fff
      b4:	1d30                	addi	a2,sp,696
      b6:	8000                	0x8000
      b8:	1fcc                	addi	a1,sp,1012
      ba:	8000                	0x8000
      bc:	0001                	nop
      be:	0060                	addi	s0,sp,12
      c0:	0000                	unimp
      c2:	0000                	unimp
      c4:	0000                	unimp
      c6:	fa00                	fsw	fs0,48(a2)
      c8:	0080001b          	0x80001b
      cc:	001c                	0x1c
      ce:	0680                	addi	s0,sp,832
      d0:	5a00                	lw	s0,48(a2)
      d2:	935b0493          	addi	s1,s6,-1739 # fffe0935 <__global_pointer$+0x6ffe0135>
      d6:	1e04                	addi	s1,sp,816
      d8:	001d                	c.nop	7
      da:	2280                	fld	fs0,0(a3)
      dc:	001d                	c.nop	7
      de:	0680                	addi	s0,sp,832
      e0:	5a00                	lw	s0,48(a2)
      e2:	935b0493          	addi	s1,s6,-1739
      e6:	2c04                	fld	fs1,24(s0)
      e8:	001d                	c.nop	7
      ea:	3080                	fld	fs0,32(s1)
      ec:	001d                	c.nop	7
      ee:	0680                	addi	s0,sp,832
      f0:	5a00                	lw	s0,48(a2)
      f2:	935b0493          	addi	s1,s6,-1739
      f6:	0004                	0x4
      f8:	0000                	unimp
      fa:	0000                	unimp
      fc:	0000                	unimp
      fe:	fa00                	fsw	fs0,48(a2)
     100:	0880001b          	0x880001b
     104:	001c                	0x1c
     106:	0680                	addi	s0,sp,832
     108:	5c00                	lw	s0,56(s0)
     10a:	935d0493          	addi	s1,s10,-1739 # 5935 <_tbss_end+0x58f1>
     10e:	1e04                	addi	s1,sp,816
     110:	001d                	c.nop	7
     112:	3080                	fld	fs0,32(s1)
     114:	001d                	c.nop	7
     116:	0680                	addi	s0,sp,832
     118:	5c00                	lw	s0,56(s0)
     11a:	935d0493          	addi	s1,s10,-1739
     11e:	0004                	0x4
     120:	0000                	unimp
     122:	0000                	unimp
     124:	0000                	unimp
     126:	b800                	fsd	fs0,48(s0)
     128:	001c                	0x1c
     12a:	c080                	sw	s0,0(s1)
     12c:	001c                	0x1c
     12e:	0680                	addi	s0,sp,832
     130:	5a00                	lw	s0,48(a2)
     132:	935b0493          	addi	s1,s6,-1739
     136:	ce04                	sw	s1,24(a2)
     138:	001d                	c.nop	7
     13a:	d080                	sw	s0,32(s1)
     13c:	001d                	c.nop	7
     13e:	0680                	addi	s0,sp,832
     140:	5a00                	lw	s0,48(a2)
     142:	935b0493          	addi	s1,s6,-1739
     146:	9604                	0x9604
     148:	001f 9880 001f      	0x1f9880001f
     14e:	0680                	addi	s0,sp,832
     150:	5a00                	lw	s0,48(a2)
     152:	935b0493          	addi	s1,s6,-1739
     156:	0004                	0x4
     158:	0000                	unimp
     15a:	0000                	unimp
     15c:	0000                	unimp
     15e:	1200                	addi	s0,sp,288
     160:	001c                	0x1c
     162:	b880                	fsd	fs0,48(s1)
     164:	001c                	0x1c
     166:	0680                	addi	s0,sp,832
     168:	f200                	fsw	fs0,32(a2)
     16a:	02c4                	addi	s1,sp,324
     16c:	0000                	unimp
     16e:	cc00                	sw	s0,24(s0)
     170:	001c                	0x1c
     172:	1e80                	addi	s0,sp,880
     174:	001d                	c.nop	7
     176:	0680                	addi	s0,sp,832
     178:	f200                	fsw	fs0,32(a2)
     17a:	02c4                	addi	s1,sp,324
     17c:	0000                	unimp
     17e:	3000                	fld	fs0,32(s0)
     180:	001d                	c.nop	7
     182:	cc80                	sw	s0,24(s1)
     184:	001f 0680 f200      	0xf2000680001f
     18a:	02c4                	addi	s1,sp,324
	...
     194:	0000                	unimp
     196:	1600                	addi	s0,sp,800
     198:	001c                	0x1c
     19a:	5c80                	lw	s0,56(s1)
     19c:	001c                	0x1c
     19e:	0180                	addi	s0,sp,192
     1a0:	5c00                	lw	s0,56(s0)
     1a2:	1c5c                	addi	a5,sp,564
     1a4:	8000                	0x8000
     1a6:	1cb8                	addi	a4,sp,632
     1a8:	8000                	0x8000
     1aa:	0001                	nop
     1ac:	cc61                	beqz	s0,284 <_tbss_end+0x240>
     1ae:	001c                	0x1c
     1b0:	1e80                	addi	s0,sp,880
     1b2:	001d                	c.nop	7
     1b4:	0180                	addi	s0,sp,192
     1b6:	5c00                	lw	s0,56(s0)
     1b8:	1d30                	addi	a2,sp,696
     1ba:	8000                	0x8000
     1bc:	1d38                	addi	a4,sp,696
     1be:	8000                	0x8000
     1c0:	0001                	nop
     1c2:	385c                	fld	fa5,176(s0)
     1c4:	001d                	c.nop	7
     1c6:	da80                	sw	s0,48(a3)
     1c8:	001d                	c.nop	7
     1ca:	0180                	addi	s0,sp,192
     1cc:	6100                	flw	fs0,0(a0)
     1ce:	1dda                	slli	s11,s11,0x36
     1d0:	8000                	0x8000
     1d2:	1dde                	slli	s11,s11,0x37
     1d4:	8000                	0x8000
     1d6:	0001                	nop
     1d8:	de5d                	beqz	a2,196 <_tbss_end+0x152>
     1da:	001d                	c.nop	7
     1dc:	e280                	fsw	fs0,0(a3)
     1de:	001d                	c.nop	7
     1e0:	0180                	addi	s0,sp,192
     1e2:	6100                	flw	fs0,0(a0)
     1e4:	1de2                	slli	s11,s11,0x38
     1e6:	8000                	0x8000
     1e8:	1e04                	addi	s1,sp,816
     1ea:	8000                	0x8000
     1ec:	0001                	nop
     1ee:	045c                	addi	a5,sp,516
     1f0:	001e                	c.slli	zero,0x7
     1f2:	7c80                	flw	fs0,56(s1)
     1f4:	001e                	c.slli	zero,0x7
     1f6:	0180                	addi	s0,sp,192
     1f8:	6100                	flw	fs0,0(a0)
     1fa:	1e7c                	addi	a5,sp,828
     1fc:	8000                	0x8000
     1fe:	1eae                	slli	t4,t4,0x2b
     200:	8000                	0x8000
     202:	0001                	nop
     204:	ae5c                	fsd	fa5,152(a2)
     206:	001e                	c.slli	zero,0x7
     208:	6880                	flw	fs0,16(s1)
     20a:	001f 0180 5f00      	0x5f000180001f
     210:	1f6a                	slli	t5,t5,0x3a
     212:	8000                	0x8000
     214:	1f6e                	slli	t5,t5,0x3b
     216:	8000                	0x8000
     218:	0001                	nop
     21a:	985f 001f a080      	0xa080001f985f
     220:	001f 0180 6100      	0x61000180001f
     226:	1fa0                	addi	s0,sp,1016
     228:	8000                	0x8000
     22a:	1fb6                	slli	t6,t6,0x2d
     22c:	8000                	0x8000
     22e:	0001                	nop
     230:	b65c                	fsd	fa5,168(a2)
     232:	001f be80 001f      	0x1fbe80001f
     238:	0180                	addi	s0,sp,192
     23a:	5f00                	lw	s0,56(a4)
     23c:	1fbe                	slli	t6,t6,0x2f
     23e:	8000                	0x8000
     240:	1fc2                	slli	t6,t6,0x30
     242:	8000                	0x8000
     244:	0001                	nop
     246:	c261                	beqz	a2,306 <_tbss_end+0x2c2>
     248:	001f c880 001f      	0x1fc880001f
     24e:	0180                	addi	s0,sp,192
     250:	5f00                	lw	s0,56(a4)
	...
     25a:	1c16                	slli	s8,s8,0x25
     25c:	8000                	0x8000
     25e:	1c32                	slli	s8,s8,0x2c
     260:	8000                	0x8000
     262:	0001                	nop
     264:	cc5d                	beqz	s0,322 <_tbss_end+0x2de>
     266:	001c                	0x1c
     268:	1480                	addi	s0,sp,608
     26a:	001d                	c.nop	7
     26c:	0180                	addi	s0,sp,192
     26e:	5d00                	lw	s0,56(a0)
     270:	1d30                	addi	a2,sp,696
     272:	8000                	0x8000
     274:	1d4a                	slli	s10,s10,0x32
     276:	8000                	0x8000
     278:	0001                	nop
     27a:	d05d                	beqz	s0,220 <_tbss_end+0x1dc>
     27c:	001d                	c.nop	7
     27e:	d680                	sw	s0,40(a3)
     280:	001d                	c.nop	7
     282:	0180                	addi	s0,sp,192
     284:	5d00                	lw	s0,56(a0)
     286:	1dd6                	slli	s11,s11,0x35
     288:	8000                	0x8000
     28a:	1de0                	addi	s0,sp,764
     28c:	8000                	0x8000
     28e:	0001                	nop
     290:	e25f 001d e880      	0xe880001de25f
     296:	001d                	c.nop	7
     298:	0180                	addi	s0,sp,192
     29a:	5d00                	lw	s0,56(a0)
     29c:	1de8                	addi	a0,sp,764
     29e:	8000                	0x8000
     2a0:	1df2                	slli	s11,s11,0x3c
     2a2:	8000                	0x8000
     2a4:	0001                	nop
     2a6:	f45f 001d 0480      	0x480001df45f
     2ac:	001e                	c.slli	zero,0x7
     2ae:	0180                	addi	s0,sp,192
     2b0:	5d00                	lw	s0,56(a0)
     2b2:	1e7c                	addi	a5,sp,828
     2b4:	8000                	0x8000
     2b6:	1e84                	addi	s1,sp,880
     2b8:	8000                	0x8000
     2ba:	0001                	nop
     2bc:	885d                	andi	s0,s0,23
     2be:	001e                	c.slli	zero,0x7
     2c0:	9c80                	0x9c80
     2c2:	001f 0180 5d00      	0x5d000180001f
     2c8:	1fa0                	addi	s0,sp,1016
     2ca:	8000                	0x8000
     2cc:	1fac                	addi	a1,sp,1016
     2ce:	8000                	0x8000
     2d0:	0001                	nop
     2d2:	b05d                	j	fffffb78 <__global_pointer$+0x6ffff378>
     2d4:	001f be80 001f      	0x1fbe80001f
     2da:	0180                	addi	s0,sp,192
     2dc:	5d00                	lw	s0,56(a0)
     2de:	1fc2                	slli	t6,t6,0x30
     2e0:	8000                	0x8000
     2e2:	1fcc                	addi	a1,sp,1012
     2e4:	8000                	0x8000
     2e6:	0001                	nop
     2e8:	005d                	c.nop	23
     2ea:	0000                	unimp
     2ec:	0000                	unimp
     2ee:	0000                	unimp
     2f0:	1800                	addi	s0,sp,48
     2f2:	001c                	0x1c
     2f4:	6480                	flw	fs0,8(s1)
     2f6:	001c                	0x1c
     2f8:	0180                	addi	s0,sp,192
     2fa:	5a00                	lw	s0,48(a2)
     2fc:	1c64                	addi	s1,sp,572
     2fe:	8000                	0x8000
     300:	1cb2                	slli	s9,s9,0x2c
     302:	8000                	0x8000
     304:	0001                	nop
     306:	b26c                	fsd	fa1,224(a2)
     308:	001c                	0x1c
     30a:	b680                	fsd	fs0,40(a3)
     30c:	001c                	0x1c
     30e:	0180                	addi	s0,sp,192
     310:	5a00                	lw	s0,48(a2)
     312:	1cb6                	slli	s9,s9,0x2d
     314:	8000                	0x8000
     316:	1cb8                	addi	a4,sp,632
     318:	8000                	0x8000
     31a:	000d                	c.nop	3
     31c:	007f                	0x7f
     31e:	0081                	addi	ra,ra,0
     320:	2440                	fld	fs0,136(s0)
     322:	2540                	fld	fs0,136(a0)
     324:	007d                	c.nop	31
     326:	1c1e                	slli	s8,s8,0x27
     328:	cc9f 001c 1880      	0x1880001ccc9f
     32e:	001d                	c.nop	7
     330:	0180                	addi	s0,sp,192
     332:	5a00                	lw	s0,48(a2)
     334:	1d30                	addi	a2,sp,696
     336:	8000                	0x8000
     338:	1d78                	addi	a4,sp,700
     33a:	8000                	0x8000
     33c:	0001                	nop
     33e:	785a                	flw	fa6,180(sp)
     340:	001d                	c.nop	7
     342:	a280                	fsd	fs0,0(a3)
     344:	001d                	c.nop	7
     346:	0180                	addi	s0,sp,192
     348:	6c00                	flw	fs0,24(s0)
     34a:	1dc8                	addi	a0,sp,756
     34c:	8000                	0x8000
     34e:	1dcc                	addi	a1,sp,756
     350:	8000                	0x8000
     352:	0001                	nop
     354:	d05a                	sw	s6,32(sp)
     356:	001d                	c.nop	7
     358:	2e80                	fld	fs0,24(a3)
     35a:	001e                	c.slli	zero,0x7
     35c:	0180                	addi	s0,sp,192
     35e:	5a00                	lw	s0,48(a2)
     360:	1e2e                	slli	t3,t3,0x2b
     362:	8000                	0x8000
     364:	1e7c                	addi	a5,sp,828
     366:	8000                	0x8000
     368:	0001                	nop
     36a:	7c6c                	flw	fa1,124(s0)
     36c:	001e                	c.slli	zero,0x7
     36e:	8480                	0x8480
     370:	001f 0180 5a00      	0x5a000180001f
     376:	1f86                	slli	t6,t6,0x21
     378:	8000                	0x8000
     37a:	1f98                	addi	a4,sp,1008
     37c:	8000                	0x8000
     37e:	0001                	nop
     380:	985f 001f be80      	0xbe80001f985f
     386:	001f 0180 5a00      	0x5a000180001f
     38c:	1fbe                	slli	t6,t6,0x2f
     38e:	8000                	0x8000
     390:	1fc2                	slli	t6,t6,0x30
     392:	8000                	0x8000
     394:	0001                	nop
     396:	c26c                	sw	a1,68(a2)
     398:	001f cc80 001f      	0x1fcc80001f
     39e:	0180                	addi	s0,sp,192
     3a0:	5a00                	lw	s0,48(a2)
	...
     3aa:	1c60                	addi	s0,sp,572
     3ac:	8000                	0x8000
     3ae:	1cb8                	addi	a4,sp,632
     3b0:	8000                	0x8000
     3b2:	0001                	nop
     3b4:	186d                	addi	a6,a6,-5
     3b6:	001d                	c.nop	7
     3b8:	1e80                	addi	s0,sp,880
     3ba:	001d                	c.nop	7
     3bc:	0180                	addi	s0,sp,192
     3be:	6d00                	flw	fs0,24(a0)
     3c0:	1d70                	addi	a2,sp,700
     3c2:	8000                	0x8000
     3c4:	1d84                	addi	s1,sp,752
     3c6:	8000                	0x8000
     3c8:	0001                	nop
     3ca:	001e265b          	0x1e265b
     3ce:	6680                	flw	fs0,8(a3)
     3d0:	001e                	c.slli	zero,0x7
     3d2:	0180                	addi	s0,sp,192
     3d4:	5b00                	lw	s0,48(a4)
     3d6:	1e7a                	slli	t3,t3,0x3e
     3d8:	8000                	0x8000
     3da:	1e7c                	addi	a5,sp,828
     3dc:	8000                	0x8000
     3de:	0001                	nop
     3e0:	001eae5b          	0x1eae5b
     3e4:	e080                	fsw	fs0,0(s1)
     3e6:	001e                	c.slli	zero,0x7
     3e8:	0180                	addi	s0,sp,192
     3ea:	5b00                	lw	s0,48(a4)
     3ec:	1f2a                	slli	t5,t5,0x2a
     3ee:	8000                	0x8000
     3f0:	1f86                	slli	t6,t6,0x21
     3f2:	8000                	0x8000
     3f4:	0001                	nop
     3f6:	865e                	mv	a2,s7
     3f8:	001f 9680 001f      	0x1f9680001f
     3fe:	0180                	addi	s0,sp,192
     400:	5b00                	lw	s0,48(a4)
     402:	1fba                	slli	t6,t6,0x2e
     404:	8000                	0x8000
     406:	1fbe                	slli	t6,t6,0x2f
     408:	8000                	0x8000
     40a:	0001                	nop
     40c:	001fc25b          	0x1fc25b
     410:	cc80                	sw	s0,24(s1)
     412:	001f 0180 5e00      	0x5e000180001f
	...
     420:	1e0c                	addi	a1,sp,816
     422:	8000                	0x8000
     424:	1e32                	slli	t3,t3,0x2c
     426:	8000                	0x8000
     428:	0001                	nop
     42a:	ae5e                	fsd	fs7,280(sp)
     42c:	001e                	c.slli	zero,0x7
     42e:	b680                	fsd	fs0,40(a3)
     430:	001e                	c.slli	zero,0x7
     432:	0180                	addi	s0,sp,192
     434:	6100                	flw	fs0,0(a0)
     436:	1eb6                	slli	t4,t4,0x2d
     438:	8000                	0x8000
     43a:	1eba                	slli	t4,t4,0x2e
     43c:	8000                	0x8000
     43e:	0006                	c.slli	zero,0x1
     440:	008d                	addi	ra,ra,3
     442:	008e                	slli	ra,ra,0x3
     444:	9f25                	0x9f25
	...
     44e:	1d0a                	slli	s10,s10,0x22
     450:	8000                	0x8000
     452:	1d18                	addi	a4,sp,688
     454:	8000                	0x8000
     456:	0002                	c.slli	zero,0x0
     458:	9f31                	0x9f31
	...
     462:	1d18                	addi	a4,sp,688
     464:	8000                	0x8000
     466:	1d1e                	slli	s10,s10,0x27
     468:	8000                	0x8000
     46a:	0002                	c.slli	zero,0x0
     46c:	9f30                	0x9f30
     46e:	1d70                	addi	a2,sp,700
     470:	8000                	0x8000
     472:	1d78                	addi	a4,sp,700
     474:	8000                	0x8000
     476:	0002                	c.slli	zero,0x0
     478:	9f31                	0x9f31
     47a:	1f7c                	addi	a5,sp,956
     47c:	8000                	0x8000
     47e:	1f98                	addi	a4,sp,1008
     480:	8000                	0x8000
     482:	0002                	c.slli	zero,0x0
     484:	9f30                	0x9f30
	...
     48e:	1e04                	addi	s1,sp,816
     490:	8000                	0x8000
     492:	1e1c                	addi	a5,sp,816
     494:	8000                	0x8000
     496:	0001                	nop
     498:	7c5f 001e 8a80      	0x8a80001e7c5f
     49e:	001f 0180 6e00      	0x6e000180001f
     4a4:	1fb6                	slli	t6,t6,0x2d
     4a6:	8000                	0x8000
     4a8:	1fbe                	slli	t6,t6,0x2f
     4aa:	8000                	0x8000
     4ac:	0001                	nop
     4ae:	c26e                	sw	s11,4(sp)
     4b0:	001f cc80 001f      	0x1fcc80001f
     4b6:	0180                	addi	s0,sp,192
     4b8:	6e00                	flw	fs0,24(a2)
	...
     4c2:	1c4c                	addi	a1,sp,564
     4c4:	8000                	0x8000
     4c6:	1cb8                	addi	a4,sp,632
     4c8:	8000                	0x8000
     4ca:	0001                	nop
     4cc:	fc56                	fsw	fs5,56(sp)
     4ce:	001c                	0x1c
     4d0:	1e80                	addi	s0,sp,880
     4d2:	001d                	c.nop	7
     4d4:	0180                	addi	s0,sp,192
     4d6:	6c00                	flw	fs0,24(s0)
     4d8:	1d64                	addi	s1,sp,700
     4da:	8000                	0x8000
     4dc:	1dd0                	addi	a2,sp,756
     4de:	8000                	0x8000
     4e0:	0001                	nop
     4e2:	0456                	slli	s0,s0,0x15
     4e4:	001e                	c.slli	zero,0x7
     4e6:	7c80                	flw	fs0,56(s1)
     4e8:	001e                	c.slli	zero,0x7
     4ea:	0180                	addi	s0,sp,192
     4ec:	5600                	lw	s0,40(a2)
     4ee:	1e7c                	addi	a5,sp,828
     4f0:	8000                	0x8000
     4f2:	1f98                	addi	a4,sp,1008
     4f4:	8000                	0x8000
     4f6:	0001                	nop
     4f8:	b66c                	fsd	fa1,232(a2)
     4fa:	001f be80 001f      	0x1fbe80001f
     500:	0180                	addi	s0,sp,192
     502:	6c00                	flw	fs0,24(s0)
     504:	1fbe                	slli	t6,t6,0x2f
     506:	8000                	0x8000
     508:	1fc2                	slli	t6,t6,0x30
     50a:	8000                	0x8000
     50c:	0001                	nop
     50e:	c256                	sw	s5,4(sp)
     510:	001f cc80 001f      	0x1fcc80001f
     516:	0180                	addi	s0,sp,192
     518:	6c00                	flw	fs0,24(s0)
	...
     522:	1c20                	addi	s0,sp,568
     524:	8000                	0x8000
     526:	1c68                	addi	a0,sp,572
     528:	8000                	0x8000
     52a:	0001                	nop
     52c:	e25c                	fsw	fa5,4(a2)
     52e:	001d                	c.nop	7
     530:	f480                	fsw	fs0,40(s1)
     532:	001d                	c.nop	7
     534:	0180                	addi	s0,sp,192
     536:	5c00                	lw	s0,56(s0)
     538:	1fa8                	addi	a0,sp,1016
     53a:	8000                	0x8000
     53c:	1fb0                	addi	a2,sp,1016
     53e:	8000                	0x8000
     540:	0001                	nop
     542:	005c                	addi	a5,sp,4
     544:	0000                	unimp
     546:	0000                	unimp
     548:	0000                	unimp
     54a:	3400                	fld	fs0,40(s0)
     54c:	001c                	0x1c
     54e:	4880                	lw	s0,16(s1)
     550:	001c                	0x1c
     552:	0180                	addi	s0,sp,192
     554:	5f00                	lw	s0,56(a4)
	...
     55e:	1c68                	addi	a0,sp,572
     560:	8000                	0x8000
     562:	1cb8                	addi	a4,sp,632
     564:	8000                	0x8000
     566:	0001                	nop
     568:	005c                	addi	a5,sp,4
     56a:	0000                	unimp
     56c:	0000                	unimp
     56e:	0000                	unimp
     570:	7200                	flw	fs0,32(a2)
     572:	001c                	0x1c
     574:	a680                	fsd	fs0,8(a3)
     576:	001c                	0x1c
     578:	0180                	addi	s0,sp,192
     57a:	5a00                	lw	s0,48(a2)
     57c:	1ca6                	slli	s9,s9,0x29
     57e:	8000                	0x8000
     580:	1cb8                	addi	a4,sp,632
     582:	8000                	0x8000
     584:	00810007          	0x810007
     588:	2440                	fld	fs0,136(s0)
     58a:	2540                	fld	fs0,136(a0)
     58c:	009f 0000 0000      	0x9f
     592:	0000                	unimp
     594:	7a00                	flw	fs0,48(a2)
     596:	001c                	0x1c
     598:	8680                	0x8680
     59a:	001c                	0x1c
     59c:	0c80                	addi	s0,sp,592
     59e:	8d00                	0x8d00
     5a0:	f700                	fsw	fs0,40(a4)
     5a2:	7c25                	lui	s8,0xfffe9
     5a4:	f700                	fsw	fs0,40(a4)
     5a6:	1b25                	addi	s6,s6,-23
     5a8:	869f00f7          	0x869f00f7
     5ac:	001c                	0x1c
     5ae:	9080                	0x9080
     5b0:	001c                	0x1c
     5b2:	0e80                	addi	s0,sp,848
     5b4:	8d00                	0x8d00
     5b6:	f700                	fsw	fs0,40(a4)
     5b8:	7c25                	lui	s8,0xfffe9
     5ba:	f700                	fsw	fs0,40(a4)
     5bc:	1b25                	addi	s6,s6,-23
     5be:	1c3100f7          	0x1c3100f7
     5c2:	909f 001c 9280      	0x9280001c909f
     5c8:	001c                	0x1c
     5ca:	0e80                	addi	s0,sp,848
     5cc:	8d00                	0x8d00
     5ce:	f700                	fsw	fs0,40(a4)
     5d0:	7c25                	lui	s8,0xfffe9
     5d2:	f700                	fsw	fs0,40(a4)
     5d4:	1b25                	addi	s6,s6,-23
     5d6:	1c3200f7          	0x1c3200f7
     5da:	009f 0000 0000      	0x9f
     5e0:	0000                	unimp
     5e2:	7a00                	flw	fs0,48(a2)
     5e4:	001c                	0x1c
     5e6:	8080                	0x8080
     5e8:	001c                	0x1c
     5ea:	0180                	addi	s0,sp,192
     5ec:	5d00                	lw	s0,56(a0)
     5ee:	1c80                	addi	s0,sp,624
     5f0:	8000                	0x8000
     5f2:	1c82                	slli	s9,s9,0x20
     5f4:	8000                	0x8000
     5f6:	0006                	c.slli	zero,0x1
     5f8:	008d                	addi	ra,ra,3
     5fa:	007c                	addi	a5,sp,12
     5fc:	9f1d                	0x9f1d
     5fe:	1c82                	slli	s9,s9,0x20
     600:	8000                	0x8000
     602:	1ca2                	slli	s9,s9,0x28
     604:	8000                	0x8000
     606:	0001                	nop
     608:	005e                	c.slli	zero,0x17
     60a:	0000                	unimp
     60c:	0000                	unimp
     60e:	0000                	unimp
     610:	a200                	fsd	fs0,0(a2)
     612:	001c                	0x1c
     614:	a880                	fsd	fs0,16(s1)
     616:	001c                	0x1c
     618:	0180                	addi	s0,sp,192
     61a:	5e00                	lw	s0,56(a2)
     61c:	1caa                	slli	s9,s9,0x2a
     61e:	8000                	0x8000
     620:	1cb8                	addi	a4,sp,632
     622:	8000                	0x8000
     624:	0001                	nop
     626:	005f 0000 0000      	0x5f
     62c:	0000                	unimp
     62e:	7e00                	flw	fs0,56(a2)
     630:	001c                	0x1c
     632:	9c80                	0x9c80
     634:	001c                	0x1c
     636:	0180                	addi	s0,sp,192
     638:	5f00                	lw	s0,56(a4)
     63a:	1c9c                	addi	a5,sp,624
     63c:	8000                	0x8000
     63e:	1ca6                	slli	s9,s9,0x29
     640:	8000                	0x8000
     642:	008d000f          	0x8d000f
     646:	007c25f7          	0x7c25f7
     64a:	f71b25f7          	0xf71b25f7
     64e:	7a00                	flw	fs0,48(a2)
     650:	1e00                	addi	s0,sp,816
     652:	a69f 001c b280      	0xb280001ca69f
     658:	001c                	0x1c
     65a:	0180                	addi	s0,sp,192
     65c:	5a00                	lw	s0,48(a2)
     65e:	1cb2                	slli	s9,s9,0x2c
     660:	8000                	0x8000
     662:	1cb8                	addi	a4,sp,632
     664:	8000                	0x8000
     666:	000a                	c.slli	zero,0x2
     668:	0081                	addi	ra,ra,0
     66a:	2440                	fld	fs0,136(s0)
     66c:	2540                	fld	fs0,136(a0)
     66e:	007d                	c.nop	31
     670:	9f1e                	add	t5,t5,t2
	...
     67a:	1d78                	addi	a4,sp,700
     67c:	8000                	0x8000
     67e:	1db8                	addi	a4,sp,760
     680:	8000                	0x8000
     682:	0005                	c.nop	1
     684:	0081                	addi	ra,ra,0
     686:	2540                	fld	fs0,136(a0)
     688:	be9f 001f c280      	0xc280001fbe9f
     68e:	001f 0580 8100      	0x81000580001f
     694:	4000                	lw	s0,0(s0)
     696:	9f25                	0x9f25
	...
     6a0:	1d78                	addi	a4,sp,700
     6a2:	8000                	0x8000
     6a4:	1db8                	addi	a4,sp,760
     6a6:	8000                	0x8000
     6a8:	00810007          	0x810007
     6ac:	ff0a                	fsw	ft2,188(sp)
     6ae:	1aff                	0x1aff
     6b0:	be9f 001f c280      	0xc280001fbe9f
     6b6:	001f 0780 8100      	0x81000780001f
     6bc:	0a00                	addi	s0,sp,272
     6be:	ffff                	0xffff
     6c0:	9f1a                	add	t5,t5,t1
	...
     6ca:	1d84                	addi	s1,sp,752
     6cc:	8000                	0x8000
     6ce:	1d8a                	slli	s11,s11,0x22
     6d0:	8000                	0x8000
     6d2:	0001                	nop
     6d4:	001d8c5b          	0x1d8c5b
     6d8:	aa80                	fsd	fs0,16(a3)
     6da:	001d                	c.nop	7
     6dc:	0180                	addi	s0,sp,192
     6de:	5e00                	lw	s0,56(a2)
     6e0:	1fbe                	slli	t6,t6,0x2f
     6e2:	8000                	0x8000
     6e4:	1fc2                	slli	t6,t6,0x30
     6e6:	8000                	0x8000
     6e8:	0001                	nop
     6ea:	005e                	c.slli	zero,0x17
     6ec:	0000                	unimp
     6ee:	0000                	unimp
     6f0:	0000                	unimp
     6f2:	ae00                	fsd	fs0,24(a2)
     6f4:	001c                	0x1c
     6f6:	b280                	fsd	fs0,32(a3)
     6f8:	001c                	0x1c
     6fa:	0180                	addi	s0,sp,192
     6fc:	5f00                	lw	s0,56(a4)
     6fe:	1cb2                	slli	s9,s9,0x2c
     700:	8000                	0x8000
     702:	1cb6                	slli	s9,s9,0x2d
     704:	8000                	0x8000
     706:	0001                	nop
     708:	b65a                	fsd	fs6,296(sp)
     70a:	001c                	0x1c
     70c:	b880                	fsd	fs0,48(s1)
     70e:	001c                	0x1c
     710:	0d80                	addi	s0,sp,720
     712:	7f00                	flw	fs0,56(a4)
     714:	8100                	0x8100
     716:	4000                	lw	s0,0(s0)
     718:	4024                	lw	s1,64(s0)
     71a:	7d25                	lui	s10,0xfffe9
     71c:	1e00                	addi	s0,sp,816
     71e:	9f1c                	0x9f1c
     720:	1daa                	slli	s11,s11,0x2a
     722:	8000                	0x8000
     724:	1db0                	addi	a2,sp,760
     726:	8000                	0x8000
     728:	0001                	nop
     72a:	b45e                	fsd	fs7,40(sp)
     72c:	001d                	c.nop	7
     72e:	b880                	fsd	fs0,48(s1)
     730:	001d                	c.nop	7
     732:	0180                	addi	s0,sp,192
     734:	5f00                	lw	s0,56(a4)
     736:	1dba                	slli	s11,s11,0x2e
     738:	8000                	0x8000
     73a:	1dc8                	addi	a0,sp,756
     73c:	8000                	0x8000
     73e:	0001                	nop
     740:	c85f 001d cc80      	0xcc80001dc85f
     746:	001d                	c.nop	7
     748:	0180                	addi	s0,sp,192
     74a:	5a00                	lw	s0,48(a2)
	...
     754:	1d88                	addi	a0,sp,752
     756:	8000                	0x8000
     758:	1dae                	slli	s11,s11,0x2b
     75a:	8000                	0x8000
     75c:	0001                	nop
     75e:	ae5d                	j	b14 <_tbss_end+0xad0>
     760:	001d                	c.nop	7
     762:	b880                	fsd	fs0,48(s1)
     764:	001d                	c.nop	7
     766:	0180                	addi	s0,sp,192
     768:	5a00                	lw	s0,48(a2)
     76a:	1fbe                	slli	t6,t6,0x2f
     76c:	8000                	0x8000
     76e:	1fc2                	slli	t6,t6,0x30
     770:	8000                	0x8000
     772:	0001                	nop
     774:	005d                	c.nop	23
     776:	0000                	unimp
     778:	0000                	unimp
     77a:	0000                	unimp
     77c:	d000                	sw	s0,32(s0)
     77e:	001c                	0x1c
     780:	1480                	addi	s0,sp,608
     782:	001d                	c.nop	7
     784:	0180                	addi	s0,sp,192
     786:	5d00                	lw	s0,56(a0)
     788:	1df4                	addi	a3,sp,764
     78a:	8000                	0x8000
     78c:	1e04                	addi	s1,sp,816
     78e:	8000                	0x8000
     790:	0001                	nop
     792:	7c5d                	lui	s8,0xffff7
     794:	001e                	c.slli	zero,0x7
     796:	8480                	0x8480
     798:	001e                	c.slli	zero,0x7
     79a:	0180                	addi	s0,sp,192
     79c:	5d00                	lw	s0,56(a0)
     79e:	1fa0                	addi	s0,sp,1016
     7a0:	8000                	0x8000
     7a2:	1fa8                	addi	a0,sp,1016
     7a4:	8000                	0x8000
     7a6:	0001                	nop
     7a8:	b05d                	j	4e <_tbss_end+0xa>
     7aa:	001f b680 001f      	0x1fb680001f
     7b0:	0180                	addi	s0,sp,192
     7b2:	5d00                	lw	s0,56(a0)
	...
     7bc:	1ce4                	addi	s1,sp,636
     7be:	8000                	0x8000
     7c0:	1d1e                	slli	s10,s10,0x27
     7c2:	8000                	0x8000
     7c4:	0001                	nop
     7c6:	7c5e                	flw	fs8,244(sp)
     7c8:	001e                	c.slli	zero,0x7
     7ca:	9080                	0x9080
     7cc:	001e                	c.slli	zero,0x7
     7ce:	0180                	addi	s0,sp,192
     7d0:	5e00                	lw	s0,56(a2)
	...
     7da:	1d0e                	slli	s10,s10,0x23
     7dc:	8000                	0x8000
     7de:	1d18                	addi	a4,sp,688
     7e0:	8000                	0x8000
     7e2:	0001                	nop
     7e4:	0061                	c.nop	24
     7e6:	0000                	unimp
     7e8:	0000                	unimp
     7ea:	0000                	unimp
     7ec:	3800                	fld	fs0,48(s0)
     7ee:	001d                	c.nop	7
     7f0:	7880                	flw	fs0,48(s1)
     7f2:	001d                	c.nop	7
     7f4:	0180                	addi	s0,sp,192
     7f6:	6100                	flw	fs0,0(a0)
     7f8:	1dd0                	addi	a2,sp,756
     7fa:	8000                	0x8000
     7fc:	1dda                	slli	s11,s11,0x36
     7fe:	8000                	0x8000
     800:	0001                	nop
     802:	da61                	beqz	a2,7d2 <_tbss_end+0x78e>
     804:	001d                	c.nop	7
     806:	de80                	sw	s0,56(a3)
     808:	001d                	c.nop	7
     80a:	0180                	addi	s0,sp,192
     80c:	5d00                	lw	s0,56(a0)
     80e:	1dde                	slli	s11,s11,0x37
     810:	8000                	0x8000
     812:	1de2                	slli	s11,s11,0x38
     814:	8000                	0x8000
     816:	0001                	nop
     818:	0461                	addi	s0,s0,24
     81a:	001e                	c.slli	zero,0x7
     81c:	0880                	addi	s0,sp,80
     81e:	001e                	c.slli	zero,0x7
     820:	0180                	addi	s0,sp,192
     822:	6100                	flw	fs0,0(a0)
     824:	1f98                	addi	a4,sp,1008
     826:	8000                	0x8000
     828:	1fa0                	addi	s0,sp,1016
     82a:	8000                	0x8000
     82c:	0001                	nop
     82e:	0061                	c.nop	24
     830:	0000                	unimp
     832:	0000                	unimp
     834:	0000                	unimp
     836:	4c00                	lw	s0,24(s0)
     838:	001d                	c.nop	7
     83a:	6080                	flw	fs0,0(s1)
     83c:	001d                	c.nop	7
     83e:	0180                	addi	s0,sp,192
     840:	5f00                	lw	s0,56(a4)
	...
     84a:	1e2e                	slli	t3,t3,0x2b
     84c:	8000                	0x8000
     84e:	1e7c                	addi	a5,sp,828
     850:	8000                	0x8000
     852:	0001                	nop
     854:	005c                	addi	a5,sp,4
     856:	0000                	unimp
     858:	0000                	unimp
     85a:	0000                	unimp
     85c:	2e00                	fld	fs0,24(a2)
     85e:	001e                	c.slli	zero,0x7
     860:	7c80                	flw	fs0,56(s1)
     862:	001e                	c.slli	zero,0x7
     864:	0180                	addi	s0,sp,192
     866:	6d00                	flw	fs0,24(a0)
	...
     870:	1e32                	slli	t3,t3,0x2c
     872:	8000                	0x8000
     874:	1e3e                	slli	t3,t3,0x2f
     876:	8000                	0x8000
     878:	0001                	nop
     87a:	3e5e                	fld	ft8,496(sp)
     87c:	001e                	c.slli	zero,0x7
     87e:	5e80                	lw	s0,56(a3)
     880:	001e                	c.slli	zero,0x7
     882:	0180                	addi	s0,sp,192
     884:	5d00                	lw	s0,56(a0)
	...
     88e:	1e5e                	slli	t3,t3,0x37
     890:	8000                	0x8000
     892:	1e68                	addi	a0,sp,828
     894:	8000                	0x8000
     896:	0001                	nop
     898:	685d                	lui	a6,0x17
     89a:	001e                	c.slli	zero,0x7
     89c:	7c80                	flw	fs0,56(s1)
     89e:	001e                	c.slli	zero,0x7
     8a0:	0180                	addi	s0,sp,192
     8a2:	5b00                	lw	s0,48(a4)
	...
     8ac:	1e36                	slli	t3,t3,0x2d
     8ae:	8000                	0x8000
     8b0:	1e58                	addi	a4,sp,820
     8b2:	8000                	0x8000
     8b4:	0001                	nop
     8b6:	625f 001e 7c80      	0x7c80001e625f
     8bc:	001e                	c.slli	zero,0x7
     8be:	0180                	addi	s0,sp,192
     8c0:	5e00                	lw	s0,56(a2)
	...
     8ca:	1f58                	addi	a4,sp,948
     8cc:	8000                	0x8000
     8ce:	1f72                	slli	t5,t5,0x3c
     8d0:	8000                	0x8000
     8d2:	0001                	nop
     8d4:	7256                	flw	ft4,116(sp)
     8d6:	001f 7680 001f      	0x1f7680001f
     8dc:	1480                	addi	s0,sp,608
     8de:	7b00                	flw	fs0,48(a4)
     8e0:	7c00                	flw	fs0,56(s0)
     8e2:	4000                	lw	s0,0(s0)
     8e4:	7f22244b          	fnmsub.q	fs0,ft4,fs2,fa5,rdn
     8e8:	4000                	lw	s0,0(s0)
     8ea:	2d22244b          	0x2d22244b
     8ee:	ff08                	fsw	fa0,56(a4)
     8f0:	1c1a                	slli	s8,s8,0x26
     8f2:	c29f 001f cc80      	0xcc80001fc29f
     8f8:	001f 0180 5600      	0x56000180001f
	...
     906:	1f5a                	slli	t5,t5,0x36
     908:	8000                	0x8000
     90a:	1f72                	slli	t5,t5,0x3c
     90c:	8000                	0x8000
     90e:	0001                	nop
     910:	725c                	flw	fa5,36(a2)
     912:	001f 8080 001f      	0x1f8080001f
     918:	0180                	addi	s0,sp,192
     91a:	5f00                	lw	s0,56(a4)
     91c:	1fc2                	slli	t6,t6,0x30
     91e:	8000                	0x8000
     920:	1fcc                	addi	a1,sp,1012
     922:	8000                	0x8000
     924:	0001                	nop
     926:	005c                	addi	a5,sp,4
     928:	0000                	unimp
     92a:	0000                	unimp
     92c:	0000                	unimp
     92e:	b200                	fsd	fs0,32(a2)
     930:	001e                	c.slli	zero,0x7
     932:	ee80                	fsw	fs0,24(a3)
     934:	001e                	c.slli	zero,0x7
     936:	0180                	addi	s0,sp,192
     938:	5e00                	lw	s0,56(a2)
     93a:	1eee                	slli	t4,t4,0x3b
     93c:	8000                	0x8000
     93e:	1f98                	addi	a4,sp,1008
     940:	8000                	0x8000
     942:	0005                	c.nop	1
     944:	007d                	c.nop	31
     946:	2540                	fld	fs0,136(a0)
     948:	b69f 001f ba80      	0xba80001fb69f
     94e:	001f 0580 7d00      	0x7d000580001f
     954:	4000                	lw	s0,0(s0)
     956:	9f25                	0x9f25
     958:	1fba                	slli	t6,t6,0x2e
     95a:	8000                	0x8000
     95c:	1fbe                	slli	t6,t6,0x2f
     95e:	8000                	0x8000
     960:	0001                	nop
     962:	c25e                	sw	s7,4(sp)
     964:	001f cc80 001f      	0x1fcc80001f
     96a:	0580                	addi	s0,sp,704
     96c:	7d00                	flw	fs0,56(a0)
     96e:	4000                	lw	s0,0(s0)
     970:	9f25                	0x9f25
	...
     97a:	1eb2                	slli	t4,t4,0x2c
     97c:	8000                	0x8000
     97e:	1eea                	slli	t4,t4,0x3a
     980:	8000                	0x8000
     982:	0001                	nop
     984:	001eea6f          	jal	s4,ef184 <_tbss_end+0xef140>
     988:	9880                	0x9880
     98a:	001f 0780 7d00      	0x7d000780001f
     990:	4000                	lw	s0,0(s0)
     992:	4024                	lw	s1,64(s0)
     994:	9f25                	0x9f25
     996:	1fb6                	slli	t6,t6,0x2d
     998:	8000                	0x8000
     99a:	1fba                	slli	t6,t6,0x2e
     99c:	8000                	0x8000
     99e:	007d0007          	0x7d0007
     9a2:	2440                	fld	fs0,136(s0)
     9a4:	2540                	fld	fs0,136(a0)
     9a6:	ba9f 001f be80      	0xbe80001fba9f
     9ac:	001f 0180 6f00      	0x6f000180001f
     9b2:	1fc2                	slli	t6,t6,0x30
     9b4:	8000                	0x8000
     9b6:	1fcc                	addi	a1,sp,1012
     9b8:	8000                	0x8000
     9ba:	007d0007          	0x7d0007
     9be:	2440                	fld	fs0,136(s0)
     9c0:	2540                	fld	fs0,136(a0)
     9c2:	009f 0000 0000      	0x9f
     9c8:	0000                	unimp
     9ca:	b600                	fsd	fs0,40(a2)
     9cc:	001e                	c.slli	zero,0x7
     9ce:	ca80                	sw	s0,16(a3)
     9d0:	001e                	c.slli	zero,0x7
     9d2:	0180                	addi	s0,sp,192
     9d4:	5600                	lw	s0,40(a2)
     9d6:	1eca                	slli	t4,t4,0x32
     9d8:	8000                	0x8000
     9da:	1ed4                	addi	a3,sp,884
     9dc:	8000                	0x8000
     9de:	0001                	nop
     9e0:	d461                	beqz	s0,9a8 <_tbss_end+0x964>
     9e2:	001e                	c.slli	zero,0x7
     9e4:	0880                	addi	s0,sp,80
     9e6:	001f 0180 5600      	0x56000180001f
     9ec:	1fb6                	slli	t6,t6,0x2d
     9ee:	8000                	0x8000
     9f0:	1fba                	slli	t6,t6,0x2e
     9f2:	8000                	0x8000
     9f4:	0001                	nop
     9f6:	ba56                	fsd	fs5,304(sp)
     9f8:	001f be80 001f      	0x1fbe80001f
     9fe:	0180                	addi	s0,sp,192
     a00:	6100                	flw	fs0,0(a0)
	...
     a0a:	1ee6                	slli	t4,t4,0x39
     a0c:	8000                	0x8000
     a0e:	1efa                	slli	t4,t4,0x3e
     a10:	8000                	0x8000
     a12:	0001                	nop
     a14:	fa61                	bnez	a2,9e4 <_tbss_end+0x9a0>
     a16:	001e                	c.slli	zero,0x7
     a18:	0480                	addi	s0,sp,576
     a1a:	001f 0180 5c00      	0x5c000180001f
     a20:	1f04                	addi	s1,sp,944
     a22:	8000                	0x8000
     a24:	1f12                	slli	t5,t5,0x24
     a26:	8000                	0x8000
     a28:	0001                	nop
     a2a:	b661                	j	5b2 <_tbss_end+0x56e>
     a2c:	001f ba80 001f      	0x1fba80001f
     a32:	0180                	addi	s0,sp,192
     a34:	5c00                	lw	s0,56(s0)
	...
     a3e:	1eb6                	slli	t4,t4,0x2d
     a40:	8000                	0x8000
     a42:	1ebc                	addi	a5,sp,888
     a44:	8000                	0x8000
     a46:	0001                	nop
     a48:	c061                	beqz	s0,b08 <_tbss_end+0xac4>
     a4a:	001e                	c.slli	zero,0x7
     a4c:	c680                	sw	s0,8(a3)
     a4e:	001e                	c.slli	zero,0x7
     a50:	0180                	addi	s0,sp,192
     a52:	5c00                	lw	s0,56(s0)
     a54:	1ec6                	slli	t4,t4,0x31
     a56:	8000                	0x8000
     a58:	1eca                	slli	t4,t4,0x32
     a5a:	8000                	0x8000
     a5c:	0006                	c.slli	zero,0x1
     a5e:	0081                	addi	ra,ra,0
     a60:	0075                	c.nop	29
     a62:	9f21                	0x9f21
     a64:	1eca                	slli	t4,t4,0x32
     a66:	8000                	0x8000
     a68:	1ee6                	slli	t4,t4,0x39
     a6a:	8000                	0x8000
     a6c:	0001                	nop
     a6e:	ba5c                	fsd	fa5,176(a2)
     a70:	001f be80 001f      	0x1fbe80001f
     a76:	0180                	addi	s0,sp,192
     a78:	5c00                	lw	s0,56(s0)
	...
     a82:	1ee6                	slli	t4,t4,0x39
     a84:	8000                	0x8000
     a86:	1ef0                	addi	a2,sp,892
     a88:	8000                	0x8000
     a8a:	0001                	nop
     a8c:	f05c                	fsw	fa5,36(s0)
     a8e:	001e                	c.slli	zero,0x7
     a90:	f680                	fsw	fs0,40(a3)
     a92:	001e                	c.slli	zero,0x7
     a94:	0180                	addi	s0,sp,192
     a96:	5e00                	lw	s0,56(a2)
     a98:	1ef6                	slli	t4,t4,0x3d
     a9a:	8000                	0x8000
     a9c:	1efa                	slli	t4,t4,0x3e
     a9e:	8000                	0x8000
     aa0:	0008                	0x8
     aa2:	007c                	addi	a5,sp,12
     aa4:	2440                	fld	fs0,136(s0)
     aa6:	9f21007b          	0x9f21007b
     aaa:	1efa                	slli	t4,t4,0x3e
     aac:	8000                	0x8000
     aae:	1f98                	addi	a4,sp,1008
     ab0:	8000                	0x8000
     ab2:	0001                	nop
     ab4:	b65e                	fsd	fs7,296(sp)
     ab6:	001f ba80 001f      	0x1fba80001f
     abc:	0180                	addi	s0,sp,192
     abe:	5e00                	lw	s0,56(a2)
     ac0:	1fc2                	slli	t6,t6,0x30
     ac2:	8000                	0x8000
     ac4:	1fcc                	addi	a1,sp,1012
     ac6:	8000                	0x8000
     ac8:	0001                	nop
     aca:	005e                	c.slli	zero,0x17
     acc:	0000                	unimp
     ace:	0000                	unimp
     ad0:	0000                	unimp
     ad2:	ba00                	fsd	fs0,48(a2)
     ad4:	001e                	c.slli	zero,0x7
     ad6:	ea80                	fsw	fs0,16(a3)
     ad8:	001e                	c.slli	zero,0x7
     ada:	0180                	addi	s0,sp,192
     adc:	6d00                	flw	fs0,24(a0)
     ade:	1eea                	slli	t4,t4,0x3a
     ae0:	8000                	0x8000
     ae2:	1f98                	addi	a4,sp,1008
     ae4:	8000                	0x8000
     ae6:	0001                	nop
     ae8:	001fb66f          	jal	a2,fc2e8 <_tbss_end+0xfc2a4>
     aec:	ba80                	fsd	fs0,48(a3)
     aee:	001f 0180 6f00      	0x6f000180001f
     af4:	1fba                	slli	t6,t6,0x2e
     af6:	8000                	0x8000
     af8:	1fbe                	slli	t6,t6,0x2f
     afa:	8000                	0x8000
     afc:	0001                	nop
     afe:	c26d                	beqz	a2,be0 <_tbss_end+0xb9c>
     b00:	001f cc80 001f      	0x1fcc80001f
     b06:	0180                	addi	s0,sp,192
     b08:	6f00                	flw	fs0,24(a4)
	...
     b12:	1f2a                	slli	t5,t5,0x2a
     b14:	8000                	0x8000
     b16:	1f56                	slli	t5,t5,0x35
     b18:	8000                	0x8000
     b1a:	0001                	nop
     b1c:	0055                	c.nop	21
     b1e:	0000                	unimp
     b20:	0000                	unimp
     b22:	0000                	unimp
     b24:	3e00                	fld	fs0,56(a2)
     b26:	001f 5080 001f      	0x1f5080001f
     b2c:	0180                	addi	s0,sp,192
     b2e:	5c00                	lw	s0,56(s0)
     b30:	1f50                	addi	a2,sp,948
     b32:	8000                	0x8000
     b34:	1f56                	slli	t5,t5,0x35
     b36:	8000                	0x8000
     b38:	0008                	0x8
     b3a:	0075                	c.nop	29
     b3c:	2540                	fld	fs0,136(a0)
     b3e:	008d                	addi	ra,ra,3
     b40:	9f22                	add	t5,t5,s0
	...
     b4a:	1f2e                	slli	t5,t5,0x2b
     b4c:	8000                	0x8000
     b4e:	1f46                	slli	t5,t5,0x31
     b50:	8000                	0x8000
     b52:	0001                	nop
     b54:	0061                	c.nop	24
     b56:	0000                	unimp
     b58:	0000                	unimp
     b5a:	0000                	unimp
     b5c:	3e00                	fld	fs0,56(a2)
     b5e:	001f 5880 001f      	0x1f5880001f
     b64:	0180                	addi	s0,sp,192
     b66:	5600                	lw	s0,40(a2)
	...
     b70:	1f2a                	slli	t5,t5,0x2a
     b72:	8000                	0x8000
     b74:	1f36                	slli	t5,t5,0x2d
     b76:	8000                	0x8000
     b78:	0001                	nop
     b7a:	006d                	c.nop	27
     b7c:	0000                	unimp
     b7e:	0000                	unimp
     b80:	0000                	unimp
     b82:	2a00                	fld	fs0,16(a2)
     b84:	001f 2e80 001f      	0x1f2e80001f
     b8a:	0180                	addi	s0,sp,192
     b8c:	6100                	flw	fs0,0(a0)
     b8e:	1f2e                	slli	t5,t5,0x2b
     b90:	8000                	0x8000
     b92:	1f48                	addi	a0,sp,948
     b94:	8000                	0x8000
     b96:	0006                	c.slli	zero,0x1
     b98:	007f7f77          	0x7f7f77
     b9c:	9f1a                	add	t5,t5,t1
     b9e:	1f48                	addi	a0,sp,948
     ba0:	8000                	0x8000
     ba2:	1f68                	addi	a0,sp,956
     ba4:	8000                	0x8000
     ba6:	0006                	c.slli	zero,0x1
     ba8:	007f                	0x7f
     baa:	0081                	addi	ra,ra,0
     bac:	9f1a                	add	t5,t5,t1
     bae:	1f6a                	slli	t5,t5,0x3a
     bb0:	8000                	0x8000
     bb2:	1f6e                	slli	t5,t5,0x3b
     bb4:	8000                	0x8000
     bb6:	0006                	c.slli	zero,0x1
     bb8:	007f                	0x7f
     bba:	0081                	addi	ra,ra,0
     bbc:	9f1a                	add	t5,t5,t1
     bbe:	1fc2                	slli	t6,t6,0x30
     bc0:	8000                	0x8000
     bc2:	1fc8                	addi	a0,sp,1012
     bc4:	8000                	0x8000
     bc6:	0006                	c.slli	zero,0x1
     bc8:	007f                	0x7f
     bca:	0081                	addi	ra,ra,0
     bcc:	9f1a                	add	t5,t5,t1
	...
     bd6:	1f2a                	slli	t5,t5,0x2a
     bd8:	8000                	0x8000
     bda:	1f3e                	slli	t5,t5,0x2f
     bdc:	8000                	0x8000
     bde:	0001                	nop
     be0:	0056                	c.slli	zero,0x15
     be2:	0000                	unimp
     be4:	0000                	unimp
     be6:	0000                	unimp
     be8:	6e00                	flw	fs0,24(a2)
     bea:	001f 7c80 001f      	0x1f7c80001f
     bf0:	0180                	addi	s0,sp,192
     bf2:	5f00                	lw	s0,56(a4)
	...
     bfc:	1f80                	addi	s0,sp,1008
     bfe:	8000                	0x8000
     c00:	1f98                	addi	a4,sp,1008
     c02:	8000                	0x8000
     c04:	0001                	nop
     c06:	005f 0000 0000      	0x5f
     c0c:	0000                	unimp
     c0e:	cc00                	sw	s0,24(s0)
     c10:	001f 2280 0020      	0x202280001f
     c16:	0680                	addi	s0,sp,832
     c18:	5a00                	lw	s0,48(a2)
     c1a:	935b0493          	addi	s1,s6,-1739
     c1e:	2204                	fld	fs1,0(a2)
     c20:	0020                	addi	s0,sp,8
     c22:	8680                	0x8680
     c24:	0020                	addi	s0,sp,8
     c26:	0680                	addi	s0,sp,832
     c28:	f300                	fsw	fs0,32(a4)
     c2a:	250af503          	0x250af503
     c2e:	869f 0020 c280      	0xc2800020869f
     c34:	0020                	addi	s0,sp,8
     c36:	0680                	addi	s0,sp,832
     c38:	5a00                	lw	s0,48(a2)
     c3a:	935b0493          	addi	s1,s6,-1739
     c3e:	c204                	sw	s1,0(a2)
     c40:	0020                	addi	s0,sp,8
     c42:	ca80                	sw	s0,16(a3)
     c44:	0020                	addi	s0,sp,8
     c46:	0680                	addi	s0,sp,832
     c48:	f300                	fsw	fs0,32(a4)
     c4a:	250af503          	0x250af503
     c4e:	ca9f 0020 1c80      	0x1c800020ca9f
     c54:	0021                	c.nop	8
     c56:	0680                	addi	s0,sp,832
     c58:	5a00                	lw	s0,48(a2)
     c5a:	935b0493          	addi	s1,s6,-1739
     c5e:	1c04                	addi	s1,sp,560
     c60:	0021                	c.nop	8
     c62:	7080                	flw	fs0,32(s1)
     c64:	0021                	c.nop	8
     c66:	0680                	addi	s0,sp,832
     c68:	f300                	fsw	fs0,32(a4)
     c6a:	250af503          	0x250af503
     c6e:	709f 0021 7480      	0x74800021709f
     c74:	0021                	c.nop	8
     c76:	0680                	addi	s0,sp,832
     c78:	5a00                	lw	s0,48(a2)
     c7a:	935b0493          	addi	s1,s6,-1739
     c7e:	7404                	flw	fs1,40(s0)
     c80:	0021                	c.nop	8
     c82:	7680                	flw	fs0,40(a3)
     c84:	0021                	c.nop	8
     c86:	0680                	addi	s0,sp,832
     c88:	f300                	fsw	fs0,32(a4)
     c8a:	250af503          	0x250af503
     c8e:	769f 0021 aa80      	0xaa800021769f
     c94:	0021                	c.nop	8
     c96:	0680                	addi	s0,sp,832
     c98:	5a00                	lw	s0,48(a2)
     c9a:	935b0493          	addi	s1,s6,-1739
     c9e:	aa04                	fsd	fs1,16(a2)
     ca0:	0021                	c.nop	8
     ca2:	b280                	fsd	fs0,32(a3)
     ca4:	0021                	c.nop	8
     ca6:	0680                	addi	s0,sp,832
     ca8:	f300                	fsw	fs0,32(a4)
     caa:	250af503          	0x250af503
     cae:	b29f 0021 7680      	0x76800021b29f
     cb4:	0022                	c.slli	zero,0x8
     cb6:	0680                	addi	s0,sp,832
     cb8:	5a00                	lw	s0,48(a2)
     cba:	935b0493          	addi	s1,s6,-1739
     cbe:	7604                	flw	fs1,40(a2)
     cc0:	0022                	c.slli	zero,0x8
     cc2:	7a80                	flw	fs0,48(a3)
     cc4:	0022                	c.slli	zero,0x8
     cc6:	0680                	addi	s0,sp,832
     cc8:	f300                	fsw	fs0,32(a4)
     cca:	250af503          	0x250af503
     cce:	7a9f 0022 1e80      	0x1e8000227a9f
     cd4:	06800023          	sb	s0,96(zero) # 60 <_tbss_end+0x1c>
     cd8:	5a00                	lw	s0,48(a2)
     cda:	935b0493          	addi	s1,s6,-1739
     cde:	1e04                	addi	s1,sp,816
     ce0:	22800023          	sb	s0,544(zero) # 220 <_tbss_end+0x1dc>
     ce4:	06800023          	sb	s0,96(zero) # 60 <_tbss_end+0x1c>
     ce8:	f300                	fsw	fs0,32(a4)
     cea:	250af503          	0x250af503
     cee:	229f 0023 4480      	0x44800023229f
     cf4:	06800023          	sb	s0,96(zero) # 60 <_tbss_end+0x1c>
     cf8:	5a00                	lw	s0,48(a2)
     cfa:	935b0493          	addi	s1,s6,-1739
     cfe:	4404                	lw	s1,8(s0)
     d00:	46800023          	sb	s0,1120(zero) # 460 <_tbss_end+0x41c>
     d04:	06800023          	sb	s0,96(zero) # 60 <_tbss_end+0x1c>
     d08:	f300                	fsw	fs0,32(a4)
     d0a:	250af503          	0x250af503
     d0e:	469f 0023 6280      	0x62800023469f
     d14:	06800023          	sb	s0,96(zero) # 60 <_tbss_end+0x1c>
     d18:	5a00                	lw	s0,48(a2)
     d1a:	935b0493          	addi	s1,s6,-1739
     d1e:	6204                	flw	fs1,0(a2)
     d20:	6e800023          	sb	s0,1760(zero) # 6e0 <_tbss_end+0x69c>
     d24:	06800023          	sb	s0,96(zero) # 60 <_tbss_end+0x1c>
     d28:	f300                	fsw	fs0,32(a4)
     d2a:	250af503          	0x250af503
     d2e:	009f 0000 0000      	0x9f
     d34:	0000                	unimp
     d36:	cc00                	sw	s0,24(s0)
     d38:	001f 1e80 0020      	0x201e80001f
     d3e:	0680                	addi	s0,sp,832
     d40:	5c00                	lw	s0,56(s0)
     d42:	935d0493          	addi	s1,s10,-1739 # fffe8935 <__global_pointer$+0x6ffe8135>
     d46:	1e04                	addi	s1,sp,816
     d48:	0020                	addi	s0,sp,8
     d4a:	8680                	0x8680
     d4c:	0020                	addi	s0,sp,8
     d4e:	0680                	addi	s0,sp,832
     d50:	f300                	fsw	fs0,32(a4)
     d52:	250cf503          	0x250cf503
     d56:	869f 0020 1480      	0x14800020869f
     d5c:	0021                	c.nop	8
     d5e:	0680                	addi	s0,sp,832
     d60:	5c00                	lw	s0,56(s0)
     d62:	935d0493          	addi	s1,s10,-1739
     d66:	1404                	addi	s1,sp,544
     d68:	0021                	c.nop	8
     d6a:	7080                	flw	fs0,32(s1)
     d6c:	0021                	c.nop	8
     d6e:	0680                	addi	s0,sp,832
     d70:	f300                	fsw	fs0,32(a4)
     d72:	250cf503          	0x250cf503
     d76:	709f 0021 aa80      	0xaa800021709f
     d7c:	0021                	c.nop	8
     d7e:	0680                	addi	s0,sp,832
     d80:	5c00                	lw	s0,56(s0)
     d82:	935d0493          	addi	s1,s10,-1739
     d86:	aa04                	fsd	fs1,16(a2)
     d88:	0021                	c.nop	8
     d8a:	b280                	fsd	fs0,32(a3)
     d8c:	0021                	c.nop	8
     d8e:	0680                	addi	s0,sp,832
     d90:	f300                	fsw	fs0,32(a4)
     d92:	250cf503          	0x250cf503
     d96:	b29f 0021 e480      	0xe4800021b29f
     d9c:	0021                	c.nop	8
     d9e:	0680                	addi	s0,sp,832
     da0:	5c00                	lw	s0,56(s0)
     da2:	935d0493          	addi	s1,s10,-1739
     da6:	e404                	fsw	fs1,8(s0)
     da8:	0021                	c.nop	8
     daa:	7a80                	flw	fs0,48(a3)
     dac:	0022                	c.slli	zero,0x8
     dae:	0680                	addi	s0,sp,832
     db0:	f300                	fsw	fs0,32(a4)
     db2:	250cf503          	0x250cf503
     db6:	7a9f 0022 8280      	0x828000227a9f
     dbc:	0022                	c.slli	zero,0x8
     dbe:	0680                	addi	s0,sp,832
     dc0:	5c00                	lw	s0,56(s0)
     dc2:	935d0493          	addi	s1,s10,-1739
     dc6:	8204                	0x8204
     dc8:	0022                	c.slli	zero,0x8
     dca:	2280                	fld	fs0,0(a3)
     dcc:	06800023          	sb	s0,96(zero) # 60 <_tbss_end+0x1c>
     dd0:	f300                	fsw	fs0,32(a4)
     dd2:	250cf503          	0x250cf503
     dd6:	229f 0023 4680      	0x46800023229f
     ddc:	06800023          	sb	s0,96(zero) # 60 <_tbss_end+0x1c>
     de0:	5c00                	lw	s0,56(s0)
     de2:	935d0493          	addi	s1,s10,-1739
     de6:	4604                	lw	s1,8(a2)
     de8:	6e800023          	sb	s0,1760(zero) # 6e0 <_tbss_end+0x69c>
     dec:	06800023          	sb	s0,96(zero) # 60 <_tbss_end+0x1c>
     df0:	f300                	fsw	fs0,32(a4)
     df2:	250cf503          	0x250cf503
     df6:	009f 0000 0000      	0x9f
     dfc:	0000                	unimp
     dfe:	cc00                	sw	s0,24(s0)
     e00:	001f 8480 0020      	0x208480001f
     e06:	0280                	addi	s0,sp,320
     e08:	3000                	fld	fs0,32(s0)
     e0a:	869f 0020 c880      	0xc8800020869f
     e10:	0020                	addi	s0,sp,8
     e12:	0280                	addi	s0,sp,320
     e14:	3000                	fld	fs0,32(s0)
     e16:	ca9f 0020 6e80      	0x6e800020ca9f
     e1c:	0021                	c.nop	8
     e1e:	0280                	addi	s0,sp,320
     e20:	3000                	fld	fs0,32(s0)
     e22:	709f 0021 7480      	0x74800021709f
     e28:	0021                	c.nop	8
     e2a:	0280                	addi	s0,sp,320
     e2c:	3000                	fld	fs0,32(s0)
     e2e:	769f 0021 7880      	0x78800021769f
     e34:	0022                	c.slli	zero,0x8
     e36:	0280                	addi	s0,sp,320
     e38:	3000                	fld	fs0,32(s0)
     e3a:	7a9f 0022 2080      	0x208000227a9f
     e40:	02800023          	sb	s0,32(zero) # 20 <_tdata_begin+0x20>
     e44:	3000                	fld	fs0,32(s0)
     e46:	229f 0023 4480      	0x44800023229f
     e4c:	02800023          	sb	s0,32(zero) # 20 <_tdata_begin+0x20>
     e50:	3000                	fld	fs0,32(s0)
     e52:	469f 0023 6e80      	0x6e800023469f
     e58:	02800023          	sb	s0,32(zero) # 20 <_tdata_begin+0x20>
     e5c:	3000                	fld	fs0,32(s0)
     e5e:	009f 0000 0000      	0x9f
     e64:	0000                	unimp
     e66:	cc00                	sw	s0,24(s0)
     e68:	001f ec80 001f      	0x1fec80001f
     e6e:	0680                	addi	s0,sp,832
     e70:	5c00                	lw	s0,56(s0)
     e72:	935d0493          	addi	s1,s10,-1739
     e76:	8604                	0x8604
     e78:	0020                	addi	s0,sp,8
     e7a:	c880                	sw	s0,16(s1)
     e7c:	0020                	addi	s0,sp,8
     e7e:	0680                	addi	s0,sp,832
     e80:	5c00                	lw	s0,56(s0)
     e82:	935d0493          	addi	s1,s10,-1739
     e86:	ca04                	sw	s1,16(a2)
     e88:	0020                	addi	s0,sp,8
     e8a:	e480                	fsw	fs0,8(s1)
     e8c:	0020                	addi	s0,sp,8
     e8e:	0680                	addi	s0,sp,832
     e90:	5c00                	lw	s0,56(s0)
     e92:	935d0493          	addi	s1,s10,-1739
     e96:	7004                	flw	fs1,32(s0)
     e98:	0021                	c.nop	8
     e9a:	7480                	flw	fs0,40(s1)
     e9c:	0021                	c.nop	8
     e9e:	0680                	addi	s0,sp,832
     ea0:	5c00                	lw	s0,56(s0)
     ea2:	935d0493          	addi	s1,s10,-1739
     ea6:	7604                	flw	fs1,40(a2)
     ea8:	0021                	c.nop	8
     eaa:	8c80                	0x8c80
     eac:	0021                	c.nop	8
     eae:	0680                	addi	s0,sp,832
     eb0:	5c00                	lw	s0,56(s0)
     eb2:	935d0493          	addi	s1,s10,-1739
     eb6:	8c04                	0x8c04
     eb8:	0021                	c.nop	8
     eba:	9680                	0x9680
     ebc:	0021                	c.nop	8
     ebe:	0680                	addi	s0,sp,832
     ec0:	5c00                	lw	s0,56(s0)
     ec2:	935f0493          	addi	s1,t5,-1739 # 25b97 <_tbss_end+0x25b53>
     ec6:	9804                	0x9804
     ec8:	0021                	c.nop	8
     eca:	9e80                	0x9e80
     ecc:	0021                	c.nop	8
     ece:	0680                	addi	s0,sp,832
     ed0:	5c00                	lw	s0,56(s0)
     ed2:	935d0493          	addi	s1,s10,-1739
     ed6:	9e04                	0x9e04
     ed8:	0021                	c.nop	8
     eda:	a880                	fsd	fs0,16(s1)
     edc:	0021                	c.nop	8
     ede:	0680                	addi	s0,sp,832
     ee0:	5c00                	lw	s0,56(s0)
     ee2:	935f0493          	addi	s1,t5,-1739
     ee6:	b204                	fsd	fs1,32(a2)
     ee8:	0021                	c.nop	8
     eea:	ba80                	fsd	fs0,48(a3)
     eec:	0021                	c.nop	8
     eee:	0680                	addi	s0,sp,832
     ef0:	5c00                	lw	s0,56(s0)
     ef2:	935d0493          	addi	s1,s10,-1739
     ef6:	2204                	fld	fs1,0(a2)
     ef8:	34800023          	sb	s0,832(zero) # 340 <_tbss_end+0x2fc>
     efc:	06800023          	sb	s0,96(zero) # 60 <_tbss_end+0x1c>
     f00:	5c00                	lw	s0,56(s0)
     f02:	935d0493          	addi	s1,s10,-1739
     f06:	3804                	fld	fs1,48(s0)
     f08:	3c800023          	sb	s0,960(zero) # 3c0 <_tbss_end+0x37c>
     f0c:	06800023          	sb	s0,96(zero) # 60 <_tbss_end+0x1c>
     f10:	5c00                	lw	s0,56(s0)
     f12:	935d0493          	addi	s1,s10,-1739
     f16:	4004                	lw	s1,0(s0)
     f18:	44800023          	sb	s0,1088(zero) # 440 <_tbss_end+0x3fc>
     f1c:	06800023          	sb	s0,96(zero) # 60 <_tbss_end+0x1c>
     f20:	5c00                	lw	s0,56(s0)
     f22:	935d0493          	addi	s1,s10,-1739
     f26:	0004                	0x4
     f28:	0000                	unimp
     f2a:	0000                	unimp
     f2c:	0000                	unimp
     f2e:	cc00                	sw	s0,24(s0)
     f30:	001f 2280 0020      	0x202280001f
     f36:	0680                	addi	s0,sp,832
     f38:	5a00                	lw	s0,48(a2)
     f3a:	935b0493          	addi	s1,s6,-1739
     f3e:	8604                	0x8604
     f40:	0020                	addi	s0,sp,8
     f42:	b680                	fsd	fs0,40(a3)
     f44:	0020                	addi	s0,sp,8
     f46:	0680                	addi	s0,sp,832
     f48:	5600                	lw	s0,40(a2)
     f4a:	935b0493          	addi	s1,s6,-1739
     f4e:	b604                	fsd	fs1,40(a2)
     f50:	0020                	addi	s0,sp,8
     f52:	c280                	sw	s0,0(a3)
     f54:	0020                	addi	s0,sp,8
     f56:	0680                	addi	s0,sp,832
     f58:	5a00                	lw	s0,48(a2)
     f5a:	935b0493          	addi	s1,s6,-1739
     f5e:	ca04                	sw	s1,16(a2)
     f60:	0020                	addi	s0,sp,8
     f62:	1480                	addi	s0,sp,608
     f64:	0021                	c.nop	8
     f66:	0680                	addi	s0,sp,832
     f68:	5600                	lw	s0,40(a2)
     f6a:	935b0493          	addi	s1,s6,-1739
     f6e:	7004                	flw	fs1,32(s0)
     f70:	0021                	c.nop	8
     f72:	7280                	flw	fs0,32(a3)
     f74:	0021                	c.nop	8
     f76:	0680                	addi	s0,sp,832
     f78:	5600                	lw	s0,40(a2)
     f7a:	935b0493          	addi	s1,s6,-1739
     f7e:	7204                	flw	fs1,32(a2)
     f80:	0021                	c.nop	8
     f82:	7480                	flw	fs0,40(s1)
     f84:	0021                	c.nop	8
     f86:	0680                	addi	s0,sp,832
     f88:	5600                	lw	s0,40(a2)
     f8a:	93600493          	li	s1,-1738
     f8e:	7604                	flw	fs1,40(a2)
     f90:	0021                	c.nop	8
     f92:	aa80                	fsd	fs0,16(a3)
     f94:	0021                	c.nop	8
     f96:	0680                	addi	s0,sp,832
     f98:	5600                	lw	s0,40(a2)
     f9a:	935b0493          	addi	s1,s6,-1739
     f9e:	b204                	fsd	fs1,32(a2)
     fa0:	0021                	c.nop	8
     fa2:	ec80                	fsw	fs0,24(s1)
     fa4:	0021                	c.nop	8
     fa6:	0680                	addi	s0,sp,832
     fa8:	5a00                	lw	s0,48(a2)
     faa:	935b0493          	addi	s1,s6,-1739
     fae:	7a04                	flw	fs1,48(a2)
     fb0:	0022                	c.slli	zero,0x8
     fb2:	a080                	fsd	fs0,0(s1)
     fb4:	0022                	c.slli	zero,0x8
     fb6:	0680                	addi	s0,sp,832
     fb8:	5600                	lw	s0,40(a2)
     fba:	935b0493          	addi	s1,s6,-1739
     fbe:	a004                	fsd	fs1,0(s0)
     fc0:	0022                	c.slli	zero,0x8
     fc2:	a480                	fsd	fs0,8(s1)
     fc4:	0022                	c.slli	zero,0x8
     fc6:	0680                	addi	s0,sp,832
     fc8:	5600                	lw	s0,40(a2)
     fca:	93600493          	li	s1,-1738
     fce:	a404                	fsd	fs1,8(s0)
     fd0:	0022                	c.slli	zero,0x8
     fd2:	d080                	sw	s0,32(s1)
     fd4:	0022                	c.slli	zero,0x8
     fd6:	0680                	addi	s0,sp,832
     fd8:	5a00                	lw	s0,48(a2)
     fda:	93600493          	li	s1,-1738
     fde:	2204                	fld	fs1,0(a2)
     fe0:	40800023          	sb	s0,1024(zero) # 400 <_tbss_end+0x3bc>
     fe4:	06800023          	sb	s0,96(zero) # 60 <_tbss_end+0x1c>
     fe8:	5600                	lw	s0,40(a2)
     fea:	935b0493          	addi	s1,s6,-1739
     fee:	4004                	lw	s1,0(s0)
     ff0:	42800023          	sb	s0,1056(zero) # 420 <_tbss_end+0x3dc>
     ff4:	06800023          	sb	s0,96(zero) # 60 <_tbss_end+0x1c>
     ff8:	5a00                	lw	s0,48(a2)
     ffa:	935b0493          	addi	s1,s6,-1739
     ffe:	5e04                	lw	s1,56(a2)
    1000:	62800023          	sb	s0,1568(zero) # 620 <_tbss_end+0x5dc>
    1004:	06800023          	sb	s0,96(zero) # 60 <_tbss_end+0x1c>
    1008:	5a00                	lw	s0,48(a2)
    100a:	93600493          	li	s1,-1738
    100e:	0004                	0x4
    1010:	0000                	unimp
    1012:	0000                	unimp
    1014:	0000                	unimp
    1016:	d000                	sw	s0,32(s0)
    1018:	001f 0680 0020      	0x200680001f
    101e:	0180                	addi	s0,sp,192
    1020:	5c00                	lw	s0,56(s0)
    1022:	2006                	fld	ft0,64(sp)
    1024:	8000                	0x8000
    1026:	2012                	fld	ft0,256(sp)
    1028:	8000                	0x8000
    102a:	0006                	c.slli	zero,0x1
    102c:	007c                	addi	a5,sp,12
    102e:	007e                	c.slli	zero,0x1f
    1030:	9f24                	0x9f24
    1032:	2012                	fld	ft0,256(sp)
    1034:	8000                	0x8000
    1036:	2084                	fld	fs1,0(s1)
    1038:	8000                	0x8000
    103a:	0001                	nop
    103c:	8661                	srai	a2,a2,0x18
    103e:	0020                	addi	s0,sp,8
    1040:	c880                	sw	s0,16(s1)
    1042:	0020                	addi	s0,sp,8
    1044:	0180                	addi	s0,sp,192
    1046:	5c00                	lw	s0,56(s0)
    1048:	20ca                	fld	ft1,144(sp)
    104a:	8000                	0x8000
    104c:	20ce                	fld	ft1,208(sp)
    104e:	8000                	0x8000
    1050:	0001                	nop
    1052:	ce5c                	sw	a5,28(a2)
    1054:	0020                	addi	s0,sp,8
    1056:	d280                	sw	s0,32(a3)
    1058:	0020                	addi	s0,sp,8
    105a:	0b80                	addi	s0,sp,464
    105c:	3100                	fld	fs0,32(a0)
    105e:	007c2cf7          	0x7c2cf7
    1062:	f71b2cf7          	0xf71b2cf7
    1066:	9f00                	0x9f00
    1068:	20d2                	fld	ft1,272(sp)
    106a:	8000                	0x8000
    106c:	216e                	fld	ft2,216(sp)
    106e:	8000                	0x8000
    1070:	0001                	nop
    1072:	7061                	c.lui	zero,0xffff8
    1074:	0021                	c.nop	8
    1076:	7480                	flw	fs0,40(s1)
    1078:	0021                	c.nop	8
    107a:	0180                	addi	s0,sp,192
    107c:	5c00                	lw	s0,56(s0)
    107e:	2176                	fld	ft2,344(sp)
    1080:	8000                	0x8000
    1082:	2186                	fld	ft3,64(sp)
    1084:	8000                	0x8000
    1086:	0001                	nop
    1088:	865c                	0x865c
    108a:	0021                	c.nop	8
    108c:	9080                	0x9080
    108e:	0021                	c.nop	8
    1090:	0180                	addi	s0,sp,192
    1092:	6100                	flw	fs0,0(a0)
    1094:	2190                	fld	fa2,0(a1)
    1096:	8000                	0x8000
    1098:	2194                	fld	fa3,0(a1)
    109a:	8000                	0x8000
    109c:	0001                	nop
    109e:	945d                	srai	s0,s0,0x37
    10a0:	0021                	c.nop	8
    10a2:	9880                	0x9880
    10a4:	0021                	c.nop	8
    10a6:	0180                	addi	s0,sp,192
    10a8:	6100                	flw	fs0,0(a0)
    10aa:	2198                	fld	fa4,0(a1)
    10ac:	8000                	0x8000
    10ae:	21aa                	fld	ft3,136(sp)
    10b0:	8000                	0x8000
    10b2:	0001                	nop
    10b4:	aa5c                	fsd	fa5,144(a2)
    10b6:	0021                	c.nop	8
    10b8:	b280                	fsd	fs0,32(a3)
    10ba:	0021                	c.nop	8
    10bc:	0180                	addi	s0,sp,192
    10be:	6100                	flw	fs0,0(a0)
    10c0:	21b2                	fld	ft3,264(sp)
    10c2:	8000                	0x8000
    10c4:	2244                	fld	fs1,128(a2)
    10c6:	8000                	0x8000
    10c8:	0001                	nop
    10ca:	7a5c                	flw	fa5,52(a2)
    10cc:	0022                	c.slli	zero,0x8
    10ce:	7e80                	flw	fs0,56(a3)
    10d0:	0022                	c.slli	zero,0x8
    10d2:	0680                	addi	s0,sp,832
    10d4:	8100                	0x8100
    10d6:	8f00                	0x8f00
    10d8:	2400                	fld	fs0,8(s0)
    10da:	7e9f 0022 0480      	0x48000227e9f
    10e0:	01800023          	sb	s8,0(zero) # ffff8000 <__global_pointer$+0x6fff7800>
    10e4:	6100                	flw	fs0,0(a0)
    10e6:	2322                	fld	ft6,8(sp)
    10e8:	8000                	0x8000
    10ea:	2330                	fld	fa2,64(a4)
    10ec:	8000                	0x8000
    10ee:	0001                	nop
    10f0:	305c                	fld	fa5,160(s0)
    10f2:	38800023          	sb	s0,896(zero) # 380 <_tbss_end+0x33c>
    10f6:	01800023          	sb	s8,0(zero) # 0 <_tdata_begin>
    10fa:	6100                	flw	fs0,0(a0)
    10fc:	2338                	fld	fa4,64(a4)
    10fe:	8000                	0x8000
    1100:	2344                	fld	fs1,128(a4)
    1102:	8000                	0x8000
    1104:	0001                	nop
    1106:	465c                	lw	a5,12(a2)
    1108:	5a800023          	sb	s0,1440(zero) # 5a0 <_tbss_end+0x55c>
    110c:	01800023          	sb	s8,0(zero) # 0 <_tdata_begin>
    1110:	5c00                	lw	s0,56(s0)
    1112:	235a                	fld	ft6,400(sp)
    1114:	8000                	0x8000
    1116:	236e                	fld	ft6,216(sp)
    1118:	8000                	0x8000
    111a:	0001                	nop
    111c:	0061                	c.nop	24
    111e:	0000                	unimp
    1120:	0000                	unimp
    1122:	0000                	unimp
    1124:	d000                	sw	s0,32(s0)
    1126:	001f ec80 001f      	0x1fec80001f
    112c:	0180                	addi	s0,sp,192
    112e:	5d00                	lw	s0,56(a0)
    1130:	2086                	fld	ft1,64(sp)
    1132:	8000                	0x8000
    1134:	20c8                	fld	fa0,128(s1)
    1136:	8000                	0x8000
    1138:	0001                	nop
    113a:	ca5d                	beqz	a2,11f0 <_tbss_end+0x11ac>
    113c:	0020                	addi	s0,sp,8
    113e:	e480                	fsw	fs0,8(s1)
    1140:	0020                	addi	s0,sp,8
    1142:	0180                	addi	s0,sp,192
    1144:	5d00                	lw	s0,56(a0)
    1146:	2170                	fld	fa2,192(a0)
    1148:	8000                	0x8000
    114a:	2174                	fld	fa3,192(a0)
    114c:	8000                	0x8000
    114e:	0001                	nop
    1150:	765d                	lui	a2,0xffff7
    1152:	0021                	c.nop	8
    1154:	8c80                	0x8c80
    1156:	0021                	c.nop	8
    1158:	0180                	addi	s0,sp,192
    115a:	5d00                	lw	s0,56(a0)
    115c:	218c                	fld	fa1,0(a1)
    115e:	8000                	0x8000
    1160:	2196                	fld	ft3,320(sp)
    1162:	8000                	0x8000
    1164:	0001                	nop
    1166:	985f 0021 9e80      	0x9e800021985f
    116c:	0021                	c.nop	8
    116e:	0180                	addi	s0,sp,192
    1170:	5d00                	lw	s0,56(a0)
    1172:	219e                	fld	ft3,448(sp)
    1174:	8000                	0x8000
    1176:	21a8                	fld	fa0,64(a1)
    1178:	8000                	0x8000
    117a:	0001                	nop
    117c:	b25f 0021 ba80      	0xba800021b25f
    1182:	0021                	c.nop	8
    1184:	0180                	addi	s0,sp,192
    1186:	5d00                	lw	s0,56(a0)
    1188:	21bc                	fld	fa5,64(a1)
    118a:	8000                	0x8000
    118c:	2254                	fld	fa3,128(a2)
    118e:	8000                	0x8000
    1190:	0001                	nop
    1192:	225d                	jal	1338 <_tbss_end+0x12f4>
    1194:	34800023          	sb	s0,832(zero) # 340 <_tbss_end+0x2fc>
    1198:	01800023          	sb	s8,0(zero) # 0 <_tdata_begin>
    119c:	5d00                	lw	s0,56(a0)
    119e:	2338                	fld	fa4,64(a4)
    11a0:	8000                	0x8000
    11a2:	233c                	fld	fa5,64(a4)
    11a4:	8000                	0x8000
    11a6:	0001                	nop
    11a8:	405d                	c.li	zero,23
    11aa:	44800023          	sb	s0,1088(zero) # 440 <_tbss_end+0x3fc>
    11ae:	01800023          	sb	s8,0(zero) # 0 <_tdata_begin>
    11b2:	5d00                	lw	s0,56(a0)
    11b4:	2346                	fld	ft6,80(sp)
    11b6:	8000                	0x8000
    11b8:	235a                	fld	ft6,400(sp)
    11ba:	8000                	0x8000
    11bc:	0001                	nop
    11be:	005d                	c.nop	23
    11c0:	0000                	unimp
    11c2:	0000                	unimp
    11c4:	0000                	unimp
    11c6:	d200                	sw	s0,32(a2)
    11c8:	001f 1a80 0020      	0x201a80001f
    11ce:	0180                	addi	s0,sp,192
    11d0:	5a00                	lw	s0,48(a2)
    11d2:	201a                	fld	ft0,384(sp)
    11d4:	8000                	0x8000
    11d6:	2058                	fld	fa4,128(s0)
    11d8:	8000                	0x8000
    11da:	0001                	nop
    11dc:	8656                	mv	a2,s5
    11de:	0020                	addi	s0,sp,8
    11e0:	b680                	fsd	fs0,40(a3)
    11e2:	0020                	addi	s0,sp,8
    11e4:	0180                	addi	s0,sp,192
    11e6:	5600                	lw	s0,40(a2)
    11e8:	20b6                	fld	ft1,328(sp)
    11ea:	8000                	0x8000
    11ec:	20c2                	fld	ft1,16(sp)
    11ee:	8000                	0x8000
    11f0:	0001                	nop
    11f2:	ca5a                	sw	s6,20(sp)
    11f4:	0020                	addi	s0,sp,8
    11f6:	4480                	lw	s0,8(s1)
    11f8:	0021                	c.nop	8
    11fa:	0180                	addi	s0,sp,192
    11fc:	5600                	lw	s0,40(a2)
    11fe:	2170                	fld	fa2,192(a0)
    1200:	8000                	0x8000
    1202:	2174                	fld	fa3,192(a0)
    1204:	8000                	0x8000
    1206:	0001                	nop
    1208:	7656                	flw	fa2,116(sp)
    120a:	0021                	c.nop	8
    120c:	aa80                	fsd	fs0,16(a3)
    120e:	0021                	c.nop	8
    1210:	0180                	addi	s0,sp,192
    1212:	5600                	lw	s0,40(a2)
    1214:	21b2                	fld	ft3,264(sp)
    1216:	8000                	0x8000
    1218:	21e4                	fld	fs1,192(a1)
    121a:	8000                	0x8000
    121c:	0001                	nop
    121e:	e45a                	fsw	fs6,8(sp)
    1220:	0021                	c.nop	8
    1222:	7680                	flw	fs0,40(a3)
    1224:	0022                	c.slli	zero,0x8
    1226:	0680                	addi	s0,sp,832
    1228:	7a00                	flw	fs0,48(a2)
    122a:	7600                	flw	fs0,40(a2)
    122c:	2400                	fld	fs0,8(s0)
    122e:	7a9f 0022 0480      	0x48000227a9f
    1234:	01800023          	sb	s8,0(zero) # 0 <_tdata_begin>
    1238:	5600                	lw	s0,40(a2)
    123a:	2304                	fld	fs1,0(a4)
    123c:	8000                	0x8000
    123e:	231e                	fld	ft6,448(sp)
    1240:	8000                	0x8000
    1242:	0006                	c.slli	zero,0x1
    1244:	007a                	c.slli	zero,0x1e
    1246:	0076                	c.slli	zero,0x1d
    1248:	9f24                	0x9f24
    124a:	2322                	fld	ft6,8(sp)
    124c:	8000                	0x8000
    124e:	2340                	fld	fs0,128(a4)
    1250:	8000                	0x8000
    1252:	0001                	nop
    1254:	4056                	0x4056
    1256:	44800023          	sb	s0,1088(zero) # 440 <_tbss_end+0x3fc>
    125a:	01800023          	sb	s8,0(zero) # 0 <_tdata_begin>
    125e:	5a00                	lw	s0,48(a2)
    1260:	2346                	fld	ft6,80(sp)
    1262:	8000                	0x8000
    1264:	235a                	fld	ft6,400(sp)
    1266:	8000                	0x8000
    1268:	0006                	c.slli	zero,0x1
    126a:	007a                	c.slli	zero,0x1e
    126c:	0076                	c.slli	zero,0x1d
    126e:	9f24                	0x9f24
    1270:	235a                	fld	ft6,400(sp)
    1272:	8000                	0x8000
    1274:	236e                	fld	ft6,216(sp)
    1276:	8000                	0x8000
    1278:	0001                	nop
    127a:	0056                	c.slli	zero,0x15
    127c:	0000                	unimp
    127e:	0000                	unimp
    1280:	0000                	unimp
    1282:	d400                	sw	s0,40(s0)
    1284:	001f 1680 0020      	0x201680001f
    128a:	0180                	addi	s0,sp,192
    128c:	5b00                	lw	s0,48(a4)
    128e:	2016                	fld	ft0,320(sp)
    1290:	8000                	0x8000
    1292:	203a                	fld	ft0,392(sp)
    1294:	8000                	0x8000
    1296:	0001                	nop
    1298:	8660                	0x8660
    129a:	0020                	addi	s0,sp,8
    129c:	c880                	sw	s0,16(s1)
    129e:	0020                	addi	s0,sp,8
    12a0:	0180                	addi	s0,sp,192
    12a2:	5b00                	lw	s0,48(a4)
    12a4:	20ca                	fld	ft1,144(sp)
    12a6:	8000                	0x8000
    12a8:	210a                	fld	ft2,128(sp)
    12aa:	8000                	0x8000
    12ac:	0001                	nop
    12ae:	00210a5b          	0x210a5b
    12b2:	2080                	fld	fs0,0(s1)
    12b4:	0021                	c.nop	8
    12b6:	0180                	addi	s0,sp,192
    12b8:	5e00                	lw	s0,56(a2)
    12ba:	2170                	fld	fa2,192(a0)
    12bc:	8000                	0x8000
    12be:	2172                	fld	ft2,280(sp)
    12c0:	8000                	0x8000
    12c2:	0001                	nop
    12c4:	0021725b          	0x21725b
    12c8:	7480                	flw	fs0,40(s1)
    12ca:	0021                	c.nop	8
    12cc:	0180                	addi	s0,sp,192
    12ce:	6000                	flw	fs0,0(s0)
    12d0:	2176                	fld	ft2,344(sp)
    12d2:	8000                	0x8000
    12d4:	21aa                	fld	ft3,136(sp)
    12d6:	8000                	0x8000
    12d8:	0001                	nop
    12da:	0021b25b          	0x21b25b
    12de:	e480                	fsw	fs0,8(s1)
    12e0:	0021                	c.nop	8
    12e2:	0180                	addi	s0,sp,192
    12e4:	5b00                	lw	s0,48(a4)
    12e6:	21e4                	fld	fs1,192(a1)
    12e8:	8000                	0x8000
    12ea:	220a                	fld	ft4,128(sp)
    12ec:	8000                	0x8000
    12ee:	0001                	nop
    12f0:	4c60                	lw	s0,92(s0)
    12f2:	0022                	c.slli	zero,0x8
    12f4:	7880                	flw	fs0,48(s1)
    12f6:	0022                	c.slli	zero,0x8
    12f8:	0180                	addi	s0,sp,192
    12fa:	5b00                	lw	s0,48(a4)
    12fc:	227a                	fld	ft4,408(sp)
    12fe:	8000                	0x8000
    1300:	229c                	fld	fa5,0(a3)
    1302:	8000                	0x8000
    1304:	0001                	nop
    1306:	00229c5b          	0x229c5b
    130a:	e080                	fsw	fs0,0(s1)
    130c:	0022                	c.slli	zero,0x8
    130e:	0180                	addi	s0,sp,192
    1310:	5e00                	lw	s0,56(a2)
    1312:	2300                	fld	fs0,0(a4)
    1314:	8000                	0x8000
    1316:	2304                	fld	fs1,0(a4)
    1318:	8000                	0x8000
    131a:	0001                	nop
    131c:	045e                	slli	s0,s0,0x17
    131e:	20800023          	sb	s0,512(zero) # 200 <_tbss_end+0x1bc>
    1322:	01800023          	sb	s8,0(zero) # 0 <_tdata_begin>
    1326:	5b00                	lw	s0,48(a4)
    1328:	2322                	fld	ft6,8(sp)
    132a:	8000                	0x8000
    132c:	2342                	fld	ft6,16(sp)
    132e:	8000                	0x8000
    1330:	0001                	nop
    1332:	0023505b          	0x23505b
    1336:	5a80                	lw	s0,48(a3)
    1338:	01800023          	sb	s8,0(zero) # 0 <_tdata_begin>
    133c:	6000                	flw	fs0,0(s0)
    133e:	235e                	fld	ft6,464(sp)
    1340:	8000                	0x8000
    1342:	2362                	fld	ft6,24(sp)
    1344:	8000                	0x8000
    1346:	0001                	nop
    1348:	005e                	c.slli	zero,0x17
    134a:	0000                	unimp
    134c:	0000                	unimp
    134e:	0000                	unimp
    1350:	e400                	fsw	fs0,8(s0)
    1352:	0021                	c.nop	8
    1354:	e880                	fsw	fs0,16(s1)
    1356:	0021                	c.nop	8
    1358:	0180                	addi	s0,sp,192
    135a:	6100                	flw	fs0,0(a0)
    135c:	2282                	fld	ft5,0(sp)
    135e:	8000                	0x8000
    1360:	22ba                	fld	ft5,392(sp)
    1362:	8000                	0x8000
    1364:	0001                	nop
    1366:	005c                	addi	a5,sp,4
    1368:	0000                	unimp
    136a:	0000                	unimp
    136c:	0000                	unimp
    136e:	7e00                	flw	fs0,56(a2)
    1370:	0020                	addi	s0,sp,8
    1372:	8080                	0x8080
    1374:	0020                	addi	s0,sp,8
    1376:	0880                	addi	s0,sp,80
    1378:	7a00                	flw	fs0,48(a2)
    137a:	4000                	lw	s0,0(s0)
    137c:	7e24                	flw	fs1,120(a2)
    137e:	2100                	fld	fs0,0(a0)
    1380:	829f 0020 8480      	0x84800020829f
    1386:	0020                	addi	s0,sp,8
    1388:	0180                	addi	s0,sp,192
    138a:	5a00                	lw	s0,48(a2)
    138c:	216a                	fld	ft2,152(sp)
    138e:	8000                	0x8000
    1390:	216c                	fld	fa1,192(a0)
    1392:	8000                	0x8000
    1394:	0008                	0x8
    1396:	007a                	c.slli	zero,0x1e
    1398:	2440                	fld	fs0,136(s0)
    139a:	007c                	addi	a5,sp,12
    139c:	9f21                	0x9f21
    139e:	224c                	fld	fa1,128(a2)
    13a0:	8000                	0x8000
    13a2:	2278                	fld	fa4,192(a2)
    13a4:	8000                	0x8000
    13a6:	0001                	nop
    13a8:	046d                	addi	s0,s0,27
    13aa:	1a800023          	sb	s0,416(zero) # 1a0 <_tbss_end+0x15c>
    13ae:	01800023          	sb	s8,0(zero) # 0 <_tdata_begin>
    13b2:	6d00                	flw	fs0,24(a0)
    13b4:	231a                	fld	ft6,384(sp)
    13b6:	8000                	0x8000
    13b8:	231e                	fld	ft6,448(sp)
    13ba:	8000                	0x8000
    13bc:	7f8d0003          	lb	zero,2040(s10)
    13c0:	1e9f 0023 2080      	0x208000231e9f
    13c6:	01800023          	sb	s8,0(zero) # 0 <_tdata_begin>
    13ca:	5a00                	lw	s0,48(a2)
	...
    13d4:	207e                	fld	ft0,472(sp)
    13d6:	8000                	0x8000
    13d8:	2084                	fld	fs1,0(s1)
    13da:	8000                	0x8000
    13dc:	0002                	c.slli	zero,0x0
    13de:	9f30                	0x9f30
    13e0:	210a                	fld	ft2,128(sp)
    13e2:	8000                	0x8000
    13e4:	2114                	fld	fa3,0(a0)
    13e6:	8000                	0x8000
    13e8:	0002                	c.slli	zero,0x0
    13ea:	9f31                	0x9f31
    13ec:	2300                	fld	fs0,0(a4)
    13ee:	8000                	0x8000
    13f0:	2304                	fld	fs1,0(a4)
    13f2:	8000                	0x8000
    13f4:	0008                	0x8
    13f6:	008c                	addi	a1,sp,64
    13f8:	2440                	fld	fs0,136(s0)
    13fa:	007f                	0x7f
    13fc:	9f21                	0x9f21
	...
    1406:	21b2                	fld	ft3,264(sp)
    1408:	8000                	0x8000
    140a:	21d8                	fld	fa4,128(a1)
    140c:	8000                	0x8000
    140e:	0001                	nop
    1410:	7a5e                	flw	fs4,244(sp)
    1412:	0022                	c.slli	zero,0x8
    1414:	a880                	fsd	fs0,16(s1)
    1416:	0022                	c.slli	zero,0x8
    1418:	0180                	addi	s0,sp,192
    141a:	5d00                	lw	s0,56(a0)
	...
    1424:	2004                	fld	fs1,0(s0)
    1426:	8000                	0x8000
    1428:	2030                	fld	fa2,64(s0)
    142a:	8000                	0x8000
    142c:	0001                	nop
    142e:	b65e                	fsd	fs7,296(sp)
    1430:	0020                	addi	s0,sp,8
    1432:	c880                	sw	s0,16(s1)
    1434:	0020                	addi	s0,sp,8
    1436:	0180                	addi	s0,sp,192
    1438:	5600                	lw	s0,40(a2)
    143a:	20fe                	fld	ft1,472(sp)
    143c:	8000                	0x8000
    143e:	216e                	fld	ft2,216(sp)
    1440:	8000                	0x8000
    1442:	0001                	nop
    1444:	0021ae6f          	jal	t3,1b446 <_tbss_end+0x1b402>
    1448:	b280                	fsd	fs0,32(a3)
    144a:	0021                	c.nop	8
    144c:	0180                	addi	s0,sp,192
    144e:	6f00                	flw	fs0,24(a4)
    1450:	21b2                	fld	ft3,264(sp)
    1452:	8000                	0x8000
    1454:	2278                	fld	fa4,192(a2)
    1456:	8000                	0x8000
    1458:	0001                	nop
    145a:	7a56                	flw	fs4,116(sp)
    145c:	0022                	c.slli	zero,0x8
    145e:	0480                	addi	s0,sp,576
    1460:	01800023          	sb	s8,0(zero) # 0 <_tdata_begin>
    1464:	6f00                	flw	fs0,24(a4)
    1466:	2304                	fld	fs1,0(a4)
    1468:	8000                	0x8000
    146a:	2320                	fld	fs0,64(a4)
    146c:	8000                	0x8000
    146e:	0001                	nop
    1470:	4056                	0x4056
    1472:	44800023          	sb	s0,1088(zero) # 440 <_tbss_end+0x3fc>
    1476:	01800023          	sb	s8,0(zero) # 0 <_tdata_begin>
    147a:	5600                	lw	s0,40(a2)
    147c:	2346                	fld	ft6,80(sp)
    147e:	8000                	0x8000
    1480:	235a                	fld	ft6,400(sp)
    1482:	8000                	0x8000
    1484:	0001                	nop
    1486:	5a56                	lw	s4,116(sp)
    1488:	62800023          	sb	s0,1568(zero) # 620 <_tbss_end+0x5dc>
    148c:	01800023          	sb	s8,0(zero) # 0 <_tdata_begin>
    1490:	6f00                	flw	fs0,24(a4)
    1492:	2368                	fld	fa0,192(a4)
    1494:	8000                	0x8000
    1496:	236e                	fld	ft6,216(sp)
    1498:	8000                	0x8000
    149a:	0001                	nop
    149c:	0000006f          	j	149c <_tbss_end+0x1458>
    14a0:	0000                	unimp
    14a2:	0000                	unimp
    14a4:	da00                	sw	s0,48(a2)
    14a6:	001f 0680 0020      	0x200680001f
    14ac:	0180                	addi	s0,sp,192
    14ae:	5c00                	lw	s0,56(s0)
    14b0:	2006                	fld	ft0,64(sp)
    14b2:	8000                	0x8000
    14b4:	2012                	fld	ft0,256(sp)
    14b6:	8000                	0x8000
    14b8:	0006                	c.slli	zero,0x1
    14ba:	007c                	addi	a5,sp,12
    14bc:	007e                	c.slli	zero,0x1f
    14be:	9f24                	0x9f24
    14c0:	2012                	fld	ft0,256(sp)
    14c2:	8000                	0x8000
    14c4:	2086                	fld	ft1,64(sp)
    14c6:	8000                	0x8000
    14c8:	0001                	nop
    14ca:	9861                	andi	s0,s0,-8
    14cc:	0021                	c.nop	8
    14ce:	aa80                	fsd	fs0,16(a3)
    14d0:	0021                	c.nop	8
    14d2:	0180                	addi	s0,sp,192
    14d4:	5c00                	lw	s0,56(s0)
    14d6:	21aa                	fld	ft3,136(sp)
    14d8:	8000                	0x8000
    14da:	21ae                	fld	ft3,200(sp)
    14dc:	8000                	0x8000
    14de:	0001                	nop
    14e0:	3861                	jal	d78 <_tbss_end+0xd34>
    14e2:	40800023          	sb	s0,1024(zero) # 400 <_tbss_end+0x3bc>
    14e6:	01800023          	sb	s8,0(zero) # 0 <_tdata_begin>
    14ea:	5c00                	lw	s0,56(s0)
    14ec:	2362                	fld	ft6,24(sp)
    14ee:	8000                	0x8000
    14f0:	2368                	fld	fa0,192(a4)
    14f2:	8000                	0x8000
    14f4:	0001                	nop
    14f6:	0061                	c.nop	24
    14f8:	0000                	unimp
    14fa:	0000                	unimp
    14fc:	0000                	unimp
    14fe:	ee00                	fsw	fs0,24(a2)
    1500:	001f fe80 001f      	0x1ffe80001f
    1506:	0180                	addi	s0,sp,192
    1508:	5f00                	lw	s0,56(a4)
	...
    1512:	201e                	fld	ft0,448(sp)
    1514:	8000                	0x8000
    1516:	2084                	fld	fs1,0(s1)
    1518:	8000                	0x8000
    151a:	0001                	nop
    151c:	aa5c                	fsd	fa5,144(a2)
    151e:	0021                	c.nop	8
    1520:	ae80                	fsd	fs0,24(a3)
    1522:	0021                	c.nop	8
    1524:	0180                	addi	s0,sp,192
    1526:	5c00                	lw	s0,56(s0)
    1528:	2362                	fld	ft6,24(sp)
    152a:	8000                	0x8000
    152c:	2368                	fld	fa0,192(a4)
    152e:	8000                	0x8000
    1530:	0001                	nop
    1532:	005c                	addi	a5,sp,4
    1534:	0000                	unimp
    1536:	0000                	unimp
    1538:	0000                	unimp
    153a:	2800                	fld	fs0,16(s0)
    153c:	0020                	addi	s0,sp,8
    153e:	6480                	flw	fs0,8(s1)
    1540:	0020                	addi	s0,sp,8
    1542:	0180                	addi	s0,sp,192
    1544:	5d00                	lw	s0,56(a0)
    1546:	2064                	fld	fs1,192(s0)
    1548:	8000                	0x8000
    154a:	2084                	fld	fs1,0(s1)
    154c:	8000                	0x8000
    154e:	00810007          	0x810007
    1552:	2440                	fld	fs0,136(s0)
    1554:	2540                	fld	fs0,136(a0)
    1556:	aa9f 0021 ae80      	0xae800021aa9f
    155c:	0021                	c.nop	8
    155e:	0780                	addi	s0,sp,960
    1560:	8100                	0x8100
    1562:	4000                	lw	s0,0(s0)
    1564:	4024                	lw	s1,64(s0)
    1566:	9f25                	0x9f25
    1568:	2362                	fld	ft6,24(sp)
    156a:	8000                	0x8000
    156c:	2368                	fld	fa0,192(a4)
    156e:	8000                	0x8000
    1570:	0001                	nop
    1572:	005d                	c.nop	23
    1574:	0000                	unimp
    1576:	0000                	unimp
    1578:	0000                	unimp
    157a:	3000                	fld	fs0,32(s0)
    157c:	0020                	addi	s0,sp,8
    157e:	4480                	lw	s0,8(s1)
    1580:	0020                	addi	s0,sp,8
    1582:	0180                	addi	s0,sp,192
    1584:	5a00                	lw	s0,48(a2)
    1586:	2044                	fld	fs1,128(s0)
    1588:	8000                	0x8000
    158a:	204e                	fld	ft0,208(sp)
    158c:	8000                	0x8000
    158e:	0001                	nop
    1590:	4e5f 0020 8080      	0x808000204e5f
    1596:	0020                	addi	s0,sp,8
    1598:	0180                	addi	s0,sp,192
    159a:	5a00                	lw	s0,48(a2)
    159c:	21aa                	fld	ft3,136(sp)
    159e:	8000                	0x8000
    15a0:	21ae                	fld	ft3,200(sp)
    15a2:	8000                	0x8000
    15a4:	0001                	nop
    15a6:	625a                	flw	ft4,148(sp)
    15a8:	64800023          	sb	s0,1600(zero) # 640 <_tbss_end+0x5fc>
    15ac:	01800023          	sb	s8,0(zero) # 0 <_tdata_begin>
    15b0:	5f00                	lw	s0,56(a4)
    15b2:	2364                	fld	fs1,192(a4)
    15b4:	8000                	0x8000
    15b6:	2368                	fld	fa0,192(a4)
    15b8:	8000                	0x8000
    15ba:	0001                	nop
    15bc:	005a                	c.slli	zero,0x16
    15be:	0000                	unimp
    15c0:	0000                	unimp
    15c2:	0000                	unimp
    15c4:	6000                	flw	fs0,0(s0)
    15c6:	0020                	addi	s0,sp,8
    15c8:	7480                	flw	fs0,40(s1)
    15ca:	0020                	addi	s0,sp,8
    15cc:	0180                	addi	s0,sp,192
    15ce:	5e00                	lw	s0,56(a2)
    15d0:	2074                	fld	fa3,192(s0)
    15d2:	8000                	0x8000
    15d4:	207e                	fld	ft0,472(sp)
    15d6:	8000                	0x8000
    15d8:	0001                	nop
    15da:	7e5f 0020 8480      	0x848000207e5f
    15e0:	0020                	addi	s0,sp,8
    15e2:	0180                	addi	s0,sp,192
    15e4:	5e00                	lw	s0,56(a2)
    15e6:	21aa                	fld	ft3,136(sp)
    15e8:	8000                	0x8000
    15ea:	21ae                	fld	ft3,200(sp)
    15ec:	8000                	0x8000
    15ee:	0001                	nop
    15f0:	005f 0000 0000      	0x5f
    15f6:	0000                	unimp
    15f8:	3000                	fld	fs0,32(s0)
    15fa:	0020                	addi	s0,sp,8
    15fc:	3680                	fld	fs0,40(a3)
    15fe:	0020                	addi	s0,sp,8
    1600:	0180                	addi	s0,sp,192
    1602:	5e00                	lw	s0,56(a2)
    1604:	2036                	fld	ft0,328(sp)
    1606:	8000                	0x8000
    1608:	203a                	fld	ft0,392(sp)
    160a:	8000                	0x8000
    160c:	0006                	c.slli	zero,0x1
    160e:	0080                	addi	s0,sp,64
    1610:	007c                	addi	a5,sp,12
    1612:	9f1d                	0x9f1d
    1614:	203a                	fld	ft0,392(sp)
    1616:	8000                	0x8000
    1618:	2040                	fld	fs0,128(s0)
    161a:	8000                	0x8000
    161c:	0001                	nop
    161e:	4060                	lw	s0,68(s0)
    1620:	0020                	addi	s0,sp,8
    1622:	4480                	lw	s0,8(s1)
    1624:	0020                	addi	s0,sp,8
    1626:	0680                	addi	s0,sp,832
    1628:	7e00                	flw	fs0,56(a2)
    162a:	7f00                	flw	fs0,56(a4)
    162c:	2100                	fld	fs0,0(a0)
    162e:	449f 0020 6080      	0x60800020449f
    1634:	0020                	addi	s0,sp,8
    1636:	0180                	addi	s0,sp,192
    1638:	6000                	flw	fs0,0(s0)
    163a:	2362                	fld	ft6,24(sp)
    163c:	8000                	0x8000
    163e:	2368                	fld	fa0,192(a4)
    1640:	8000                	0x8000
    1642:	0001                	nop
    1644:	0060                	addi	s0,sp,12
    1646:	0000                	unimp
    1648:	0000                	unimp
    164a:	0000                	unimp
    164c:	6000                	flw	fs0,0(s0)
    164e:	0020                	addi	s0,sp,8
    1650:	6680                	flw	fs0,8(a3)
    1652:	0020                	addi	s0,sp,8
    1654:	0180                	addi	s0,sp,192
    1656:	6000                	flw	fs0,0(s0)
    1658:	206a                	fld	ft0,152(sp)
    165a:	8000                	0x8000
    165c:	2070                	fld	fa2,192(s0)
    165e:	8000                	0x8000
    1660:	0001                	nop
    1662:	0060                	addi	s0,sp,12
    1664:	0000                	unimp
    1666:	0000                	unimp
    1668:	0000                	unimp
    166a:	3400                	fld	fs0,40(s0)
    166c:	0020                	addi	s0,sp,8
    166e:	6480                	flw	fs0,8(s1)
    1670:	0020                	addi	s0,sp,8
    1672:	0180                	addi	s0,sp,192
    1674:	5b00                	lw	s0,48(a4)
    1676:	2064                	fld	fs1,192(s0)
    1678:	8000                	0x8000
    167a:	2084                	fld	fs1,0(s1)
    167c:	8000                	0x8000
    167e:	0001                	nop
    1680:	aa5d                	j	1836 <_tbss_end+0x17f2>
    1682:	0021                	c.nop	8
    1684:	ae80                	fsd	fs0,24(a3)
    1686:	0021                	c.nop	8
    1688:	0180                	addi	s0,sp,192
    168a:	5d00                	lw	s0,56(a0)
    168c:	2362                	fld	ft6,24(sp)
    168e:	8000                	0x8000
    1690:	2368                	fld	fa0,192(a4)
    1692:	8000                	0x8000
    1694:	0001                	nop
    1696:	0000005b          	0x5b
    169a:	0000                	unimp
    169c:	0000                	unimp
    169e:	8a00                	0x8a00
    16a0:	0020                	addi	s0,sp,8
    16a2:	ca80                	sw	s0,16(a3)
    16a4:	0020                	addi	s0,sp,8
    16a6:	0180                	addi	s0,sp,192
    16a8:	5d00                	lw	s0,56(a0)
    16aa:	2176                	fld	ft2,344(sp)
    16ac:	8000                	0x8000
    16ae:	2186                	fld	ft3,64(sp)
    16b0:	8000                	0x8000
    16b2:	0001                	nop
    16b4:	b25d                	j	105a <_tbss_end+0x1016>
    16b6:	0021                	c.nop	8
    16b8:	ba80                	fsd	fs0,48(a3)
    16ba:	0021                	c.nop	8
    16bc:	0180                	addi	s0,sp,192
    16be:	5d00                	lw	s0,56(a0)
    16c0:	2322                	fld	ft6,8(sp)
    16c2:	8000                	0x8000
    16c4:	2330                	fld	fa2,64(a4)
    16c6:	8000                	0x8000
    16c8:	0001                	nop
    16ca:	405d                	c.li	zero,23
    16cc:	46800023          	sb	s0,1120(zero) # 460 <_tbss_end+0x41c>
    16d0:	01800023          	sb	s8,0(zero) # 0 <_tdata_begin>
    16d4:	5d00                	lw	s0,56(a0)
	...
    16de:	209e                	fld	ft1,448(sp)
    16e0:	8000                	0x8000
    16e2:	20ca                	fld	ft1,144(sp)
    16e4:	8000                	0x8000
    16e6:	0001                	nop
    16e8:	b260                	fsd	fs0,224(a2)
    16ea:	0021                	c.nop	8
    16ec:	d480                	sw	s0,40(s1)
    16ee:	0021                	c.nop	8
    16f0:	0180                	addi	s0,sp,192
    16f2:	6000                	flw	fs0,0(s0)
    16f4:	2340                	fld	fs0,128(a4)
    16f6:	8000                	0x8000
    16f8:	2346                	fld	ft6,80(sp)
    16fa:	8000                	0x8000
    16fc:	0001                	nop
    16fe:	0060                	addi	s0,sp,12
    1700:	0000                	unimp
    1702:	0000                	unimp
    1704:	0000                	unimp
    1706:	d200                	sw	s0,32(a2)
    1708:	0020                	addi	s0,sp,8
    170a:	7080                	flw	fs0,32(s1)
    170c:	0021                	c.nop	8
    170e:	0180                	addi	s0,sp,192
    1710:	6100                	flw	fs0,0(a0)
    1712:	2186                	fld	ft3,64(sp)
    1714:	8000                	0x8000
    1716:	2190                	fld	fa2,0(a1)
    1718:	8000                	0x8000
    171a:	0001                	nop
    171c:	9061                	srli	s0,s0,0x38
    171e:	0021                	c.nop	8
    1720:	9480                	0x9480
    1722:	0021                	c.nop	8
    1724:	0180                	addi	s0,sp,192
    1726:	5d00                	lw	s0,56(a0)
    1728:	2194                	fld	fa3,0(a1)
    172a:	8000                	0x8000
    172c:	2198                	fld	fa4,0(a1)
    172e:	8000                	0x8000
    1730:	0001                	nop
    1732:	ae61                	j	1aca <_tbss_end+0x1a86>
    1734:	0021                	c.nop	8
    1736:	b280                	fsd	fs0,32(a3)
    1738:	0021                	c.nop	8
    173a:	0180                	addi	s0,sp,192
    173c:	6100                	flw	fs0,0(a0)
    173e:	227a                	fld	ft4,408(sp)
    1740:	8000                	0x8000
    1742:	227e                	fld	ft4,472(sp)
    1744:	8000                	0x8000
    1746:	0006                	c.slli	zero,0x1
    1748:	0081                	addi	ra,ra,0
    174a:	9f24008f          	0x9f24008f
    174e:	227e                	fld	ft4,472(sp)
    1750:	8000                	0x8000
    1752:	2304                	fld	fs1,0(a4)
    1754:	8000                	0x8000
    1756:	0001                	nop
    1758:	3061                	jal	fe0 <_tbss_end+0xf9c>
    175a:	38800023          	sb	s0,896(zero) # 380 <_tbss_end+0x33c>
    175e:	01800023          	sb	s8,0(zero) # 0 <_tdata_begin>
    1762:	6100                	flw	fs0,0(a0)
    1764:	235a                	fld	ft6,400(sp)
    1766:	8000                	0x8000
    1768:	2362                	fld	ft6,24(sp)
    176a:	8000                	0x8000
    176c:	0001                	nop
    176e:	6861                	lui	a6,0x18
    1770:	6e800023          	sb	s0,1760(zero) # 6e0 <_tbss_end+0x69c>
    1774:	01800023          	sb	s8,0(zero) # 0 <_tdata_begin>
    1778:	6100                	flw	fs0,0(a0)
	...
    1782:	20e6                	fld	ft1,88(sp)
    1784:	8000                	0x8000
    1786:	2114                	fld	fa3,0(a0)
    1788:	8000                	0x8000
    178a:	0001                	nop
    178c:	7a5f 0022 8e80      	0x8e8000227a5f
    1792:	0022                	c.slli	zero,0x8
    1794:	0180                	addi	s0,sp,192
    1796:	5f00                	lw	s0,56(a4)
	...
    17a0:	2114                	fld	fa3,0(a0)
    17a2:	8000                	0x8000
    17a4:	216e                	fld	ft2,216(sp)
    17a6:	8000                	0x8000
    17a8:	0005                	c.nop	1
    17aa:	0081                	addi	ra,ra,0
    17ac:	2540                	fld	fs0,136(a0)
    17ae:	ae9f 0021 b280      	0xb2800021ae9f
    17b4:	0021                	c.nop	8
    17b6:	0580                	addi	s0,sp,704
    17b8:	8100                	0x8100
    17ba:	4000                	lw	s0,0(s0)
    17bc:	9f25                	0x9f25
    17be:	2368                	fld	fa0,192(a4)
    17c0:	8000                	0x8000
    17c2:	236e                	fld	ft6,216(sp)
    17c4:	8000                	0x8000
    17c6:	0005                	c.nop	1
    17c8:	0081                	addi	ra,ra,0
    17ca:	2540                	fld	fs0,136(a0)
    17cc:	009f 0000 0000      	0x9f
    17d2:	0000                	unimp
    17d4:	1400                	addi	s0,sp,544
    17d6:	0021                	c.nop	8
    17d8:	6e80                	flw	fs0,24(a3)
    17da:	0021                	c.nop	8
    17dc:	0780                	addi	s0,sp,960
    17de:	8100                	0x8100
    17e0:	0a00                	addi	s0,sp,272
    17e2:	ffff                	0xffff
    17e4:	9f1a                	add	t5,t5,t1
    17e6:	21ae                	fld	ft3,200(sp)
    17e8:	8000                	0x8000
    17ea:	21b2                	fld	ft3,264(sp)
    17ec:	8000                	0x8000
    17ee:	00810007          	0x810007
    17f2:	ff0a                	fsw	ft2,188(sp)
    17f4:	1aff                	0x1aff
    17f6:	689f 0023 6e80      	0x6e800023689f
    17fc:	07800023          	sb	s8,96(zero) # 60 <_tbss_end+0x1c>
    1800:	8100                	0x8100
    1802:	0a00                	addi	s0,sp,272
    1804:	ffff                	0xffff
    1806:	9f1a                	add	t5,t5,t1
	...
    1810:	2120                	fld	fs0,64(a0)
    1812:	8000                	0x8000
    1814:	2132                	fld	ft2,264(sp)
    1816:	8000                	0x8000
    1818:	0001                	nop
    181a:	325a                	fld	ft4,432(sp)
    181c:	0021                	c.nop	8
    181e:	3c80                	fld	fs0,56(s1)
    1820:	0021                	c.nop	8
    1822:	0180                	addi	s0,sp,192
    1824:	5e00                	lw	s0,56(a2)
    1826:	213c                	fld	fa5,64(a0)
    1828:	8000                	0x8000
    182a:	216c                	fld	fa1,192(a0)
    182c:	8000                	0x8000
    182e:	0001                	nop
    1830:	ae5a                	fsd	fs6,280(sp)
    1832:	0021                	c.nop	8
    1834:	b280                	fsd	fs0,32(a3)
    1836:	0021                	c.nop	8
    1838:	0180                	addi	s0,sp,192
    183a:	5a00                	lw	s0,48(a2)
    183c:	2368                	fld	fa0,192(a4)
    183e:	8000                	0x8000
    1840:	236a                	fld	ft6,152(sp)
    1842:	8000                	0x8000
    1844:	0001                	nop
    1846:	6a5e                	flw	fs4,212(sp)
    1848:	6e800023          	sb	s0,1760(zero) # 6e0 <_tbss_end+0x69c>
    184c:	01800023          	sb	s8,0(zero) # 0 <_tdata_begin>
    1850:	5a00                	lw	s0,48(a2)
	...
    185a:	214c                	fld	fa1,128(a0)
    185c:	8000                	0x8000
    185e:	2160                	fld	fs0,192(a0)
    1860:	8000                	0x8000
    1862:	0001                	nop
    1864:	605c                	flw	fa5,4(s0)
    1866:	0021                	c.nop	8
    1868:	6a80                	flw	fs0,16(a3)
    186a:	0021                	c.nop	8
    186c:	0180                	addi	s0,sp,192
    186e:	5e00                	lw	s0,56(a2)
    1870:	216a                	fld	ft2,152(sp)
    1872:	8000                	0x8000
    1874:	216e                	fld	ft2,216(sp)
    1876:	8000                	0x8000
    1878:	0001                	nop
    187a:	ae5c                	fsd	fa5,152(a2)
    187c:	0021                	c.nop	8
    187e:	b280                	fsd	fs0,32(a3)
    1880:	0021                	c.nop	8
    1882:	0180                	addi	s0,sp,192
    1884:	5e00                	lw	s0,56(a2)
	...
    188e:	2120                	fld	fs0,64(a0)
    1890:	8000                	0x8000
    1892:	2126                	fld	ft2,72(sp)
    1894:	8000                	0x8000
    1896:	0001                	nop
    1898:	285e                	fld	fa6,464(sp)
    189a:	0021                	c.nop	8
    189c:	2e80                	fld	fs0,24(a3)
    189e:	0021                	c.nop	8
    18a0:	0180                	addi	s0,sp,192
    18a2:	5f00                	lw	s0,56(a4)
    18a4:	212e                	fld	ft2,200(sp)
    18a6:	8000                	0x8000
    18a8:	2132                	fld	ft2,264(sp)
    18aa:	8000                	0x8000
    18ac:	0008                	0x8
    18ae:	0076                	c.slli	zero,0x1d
    18b0:	2540                	fld	fs0,136(a0)
    18b2:	007e                	c.slli	zero,0x1f
    18b4:	9f21                	0x9f21
    18b6:	2132                	fld	ft2,264(sp)
    18b8:	8000                	0x8000
    18ba:	214c                	fld	fa1,128(a0)
    18bc:	8000                	0x8000
    18be:	0001                	nop
    18c0:	685f 0023 6e80      	0x6e800023685f
    18c6:	01800023          	sb	s8,0(zero) # 0 <_tdata_begin>
    18ca:	5f00                	lw	s0,56(a4)
	...
    18d4:	214c                	fld	fa1,128(a0)
    18d6:	8000                	0x8000
    18d8:	2152                	fld	ft2,272(sp)
    18da:	8000                	0x8000
    18dc:	0001                	nop
    18de:	565f 0021 5c80      	0x5c800021565f
    18e4:	0021                	c.nop	8
    18e6:	0180                	addi	s0,sp,192
    18e8:	5f00                	lw	s0,56(a4)
	...
    18f2:	2124                	fld	fs1,64(a0)
    18f4:	8000                	0x8000
    18f6:	2150                	fld	fa2,128(a0)
    18f8:	8000                	0x8000
    18fa:	0001                	nop
    18fc:	505d                	c.li	zero,-9
    18fe:	0021                	c.nop	8
    1900:	6e80                	flw	fs0,24(a3)
    1902:	0021                	c.nop	8
    1904:	0180                	addi	s0,sp,192
    1906:	6d00                	flw	fs0,24(a0)
    1908:	21ae                	fld	ft3,200(sp)
    190a:	8000                	0x8000
    190c:	21b2                	fld	ft3,264(sp)
    190e:	8000                	0x8000
    1910:	0001                	nop
    1912:	686d                	lui	a6,0x1b
    1914:	6e800023          	sb	s0,1760(zero) # 6e0 <_tbss_end+0x69c>
    1918:	01800023          	sb	s8,0(zero) # 0 <_tdata_begin>
    191c:	5d00                	lw	s0,56(a0)
	...
    1926:	226c                	fld	fa1,192(a2)
    1928:	8000                	0x8000
    192a:	2278                	fld	fa4,192(a2)
    192c:	8000                	0x8000
    192e:	0001                	nop
    1930:	045c                	addi	a5,sp,516
    1932:	1a800023          	sb	s0,416(zero) # 1a0 <_tbss_end+0x15c>
    1936:	01800023          	sb	s8,0(zero) # 0 <_tdata_begin>
    193a:	5c00                	lw	s0,56(s0)
	...
    1944:	226c                	fld	fa1,192(a2)
    1946:	8000                	0x8000
    1948:	2274                	fld	fa3,192(a2)
    194a:	8000                	0x8000
    194c:	0010                	0x10
    194e:	008c                	addi	a1,sp,64
    1950:	ff0a                	fsw	ft2,188(sp)
    1952:	1aff                	0x1aff
    1954:	007e                	c.slli	zero,0x1f
    1956:	ff0a                	fsw	ft2,188(sp)
    1958:	1aff                	0x1aff
    195a:	2440                	fld	fs0,136(s0)
    195c:	9f22                	add	t5,t5,s0
    195e:	2304                	fld	fs1,0(a4)
    1960:	8000                	0x8000
    1962:	230a                	fld	ft6,128(sp)
    1964:	8000                	0x8000
    1966:	0010                	0x10
    1968:	008c                	addi	a1,sp,64
    196a:	ff0a                	fsw	ft2,188(sp)
    196c:	1aff                	0x1aff
    196e:	007e                	c.slli	zero,0x1f
    1970:	ff0a                	fsw	ft2,188(sp)
    1972:	1aff                	0x1aff
    1974:	2440                	fld	fs0,136(s0)
    1976:	9f22                	add	t5,t5,s0
	...
    1980:	21e4                	fld	fs1,192(a1)
    1982:	8000                	0x8000
    1984:	2230                	fld	fa2,64(a2)
    1986:	8000                	0x8000
    1988:	0001                	nop
    198a:	306e                	fld	ft0,248(sp)
    198c:	0022                	c.slli	zero,0x8
    198e:	5480                	lw	s0,40(s1)
    1990:	0022                	c.slli	zero,0x8
    1992:	0580                	addi	s0,sp,704
    1994:	7d00                	flw	fs0,56(a0)
    1996:	4000                	lw	s0,0(s0)
    1998:	9f25                	0x9f25
    199a:	2346                	fld	ft6,80(sp)
    199c:	8000                	0x8000
    199e:	235a                	fld	ft6,400(sp)
    19a0:	8000                	0x8000
    19a2:	0001                	nop
    19a4:	006e                	c.slli	zero,0x1b
    19a6:	0000                	unimp
    19a8:	0000                	unimp
    19aa:	0000                	unimp
    19ac:	e400                	fsw	fs0,8(s0)
    19ae:	0021                	c.nop	8
    19b0:	4880                	lw	s0,16(s1)
    19b2:	0022                	c.slli	zero,0x8
    19b4:	0180                	addi	s0,sp,192
    19b6:	6c00                	flw	fs0,24(s0)
    19b8:	2248                	fld	fa0,128(a2)
    19ba:	8000                	0x8000
    19bc:	2254                	fld	fa3,128(a2)
    19be:	8000                	0x8000
    19c0:	007d0007          	0x7d0007
    19c4:	2440                	fld	fs0,136(s0)
    19c6:	2540                	fld	fs0,136(a0)
    19c8:	469f 0023 5a80      	0x5a800023469f
    19ce:	01800023          	sb	s8,0(zero) # 0 <_tdata_begin>
    19d2:	6c00                	flw	fs0,24(s0)
	...
    19dc:	21e8                	fld	fa0,192(a1)
    19de:	8000                	0x8000
    19e0:	21fc                	fld	fa5,192(a1)
    19e2:	8000                	0x8000
    19e4:	0001                	nop
    19e6:	fc6d                	bnez	s0,19e0 <_tbss_end+0x199c>
    19e8:	0021                	c.nop	8
    19ea:	0280                	addi	s0,sp,320
    19ec:	0022                	c.slli	zero,0x8
    19ee:	0180                	addi	s0,sp,192
    19f0:	5e00                	lw	s0,56(a2)
    19f2:	2202                	fld	ft4,0(sp)
    19f4:	8000                	0x8000
    19f6:	222e                	fld	ft4,200(sp)
    19f8:	8000                	0x8000
    19fa:	0001                	nop
    19fc:	466d                	li	a2,27
    19fe:	50800023          	sb	s0,1280(zero) # 500 <_tbss_end+0x4bc>
    1a02:	01800023          	sb	s8,0(zero) # 0 <_tdata_begin>
    1a06:	6d00                	flw	fs0,24(a0)
    1a08:	2350                	fld	fa2,128(a4)
    1a0a:	8000                	0x8000
    1a0c:	2356                	fld	ft6,336(sp)
    1a0e:	8000                	0x8000
    1a10:	0001                	nop
    1a12:	565e                	lw	a2,244(sp)
    1a14:	5a800023          	sb	s0,1440(zero) # 5a0 <_tbss_end+0x55c>
    1a18:	01800023          	sb	s8,0(zero) # 0 <_tdata_begin>
    1a1c:	6d00                	flw	fs0,24(a0)
	...
    1a26:	2212                	fld	ft4,256(sp)
    1a28:	8000                	0x8000
    1a2a:	2226                	fld	ft4,72(sp)
    1a2c:	8000                	0x8000
    1a2e:	0001                	nop
    1a30:	265e                	fld	fa2,464(sp)
    1a32:	0022                	c.slli	zero,0x8
    1a34:	2c80                	fld	fs0,24(s1)
    1a36:	0022                	c.slli	zero,0x8
    1a38:	0180                	addi	s0,sp,192
    1a3a:	5f00                	lw	s0,56(a4)
    1a3c:	222c                	fld	fa1,64(a2)
    1a3e:	8000                	0x8000
    1a40:	223c                	fld	fa5,64(a2)
    1a42:	8000                	0x8000
    1a44:	0001                	nop
    1a46:	465e                	lw	a2,212(sp)
    1a48:	4c800023          	sb	s0,1216(zero) # 4c0 <_tbss_end+0x47c>
    1a4c:	01800023          	sb	s8,0(zero) # 0 <_tdata_begin>
    1a50:	5f00                	lw	s0,56(a4)
    1a52:	234c                	fld	fa1,128(a4)
    1a54:	8000                	0x8000
    1a56:	2350                	fld	fa2,128(a4)
    1a58:	8000                	0x8000
    1a5a:	0001                	nop
    1a5c:	005e                	c.slli	zero,0x17
    1a5e:	0000                	unimp
    1a60:	0000                	unimp
    1a62:	0000                	unimp
    1a64:	e800                	fsw	fs0,16(s0)
    1a66:	0021                	c.nop	8
    1a68:	ee80                	fsw	fs0,24(a3)
    1a6a:	0021                	c.nop	8
    1a6c:	0180                	addi	s0,sp,192
    1a6e:	6100                	flw	fs0,0(a0)
    1a70:	21f2                	fld	ft3,280(sp)
    1a72:	8000                	0x8000
    1a74:	21f8                	fld	fa4,192(a1)
    1a76:	8000                	0x8000
    1a78:	0001                	nop
    1a7a:	f85f 0021 fc80      	0xfc800021f85f
    1a80:	0021                	c.nop	8
    1a82:	0880                	addi	s0,sp,80
    1a84:	8000                	0x8000
    1a86:	4000                	lw	s0,0(s0)
    1a88:	8125                	srli	a0,a0,0x9
    1a8a:	2100                	fld	fs0,0(a0)
    1a8c:	fc9f 0021 1280      	0x12800021fc9f
    1a92:	0022                	c.slli	zero,0x8
    1a94:	0180                	addi	s0,sp,192
    1a96:	5f00                	lw	s0,56(a4)
    1a98:	2350                	fld	fa2,128(a4)
    1a9a:	8000                	0x8000
    1a9c:	235a                	fld	ft6,400(sp)
    1a9e:	8000                	0x8000
    1aa0:	0001                	nop
    1aa2:	005f 0000 0000      	0x5f
    1aa8:	0000                	unimp
    1aaa:	1200                	addi	s0,sp,288
    1aac:	0022                	c.slli	zero,0x8
    1aae:	1880                	addi	s0,sp,112
    1ab0:	0022                	c.slli	zero,0x8
    1ab2:	0180                	addi	s0,sp,192
    1ab4:	5f00                	lw	s0,56(a4)
    1ab6:	221c                	fld	fa5,0(a2)
    1ab8:	8000                	0x8000
    1aba:	2222                	fld	ft4,8(sp)
    1abc:	8000                	0x8000
    1abe:	0001                	nop
    1ac0:	0022225b          	0x22225b
    1ac4:	2680                	fld	fs0,8(a3)
    1ac6:	0022                	c.slli	zero,0x8
    1ac8:	0680                	addi	s0,sp,832
    1aca:	7f00                	flw	fs0,56(a4)
    1acc:	8000                	0x8000
    1ace:	2100                	fld	fs0,0(a0)
    1ad0:	269f 0022 7880      	0x78800022269f
    1ad6:	0022                	c.slli	zero,0x8
    1ad8:	0180                	addi	s0,sp,192
    1ada:	5b00                	lw	s0,48(a4)
    1adc:	2304                	fld	fs1,0(a4)
    1ade:	8000                	0x8000
    1ae0:	2320                	fld	fs0,64(a4)
    1ae2:	8000                	0x8000
    1ae4:	0001                	nop
    1ae6:	0023465b          	0x23465b
    1aea:	5080                	lw	s0,32(s1)
    1aec:	01800023          	sb	s8,0(zero) # 0 <_tdata_begin>
    1af0:	5b00                	lw	s0,48(a4)
	...
    1afa:	21ec                	fld	fa1,192(a1)
    1afc:	8000                	0x8000
    1afe:	2216                	fld	ft4,320(sp)
    1b00:	8000                	0x8000
    1b02:	0001                	nop
    1b04:	0022165b          	0x22165b
    1b08:	7880                	flw	fs0,48(s1)
    1b0a:	0022                	c.slli	zero,0x8
    1b0c:	0180                	addi	s0,sp,192
    1b0e:	6100                	flw	fs0,0(a0)
    1b10:	2304                	fld	fs1,0(a4)
    1b12:	8000                	0x8000
    1b14:	2320                	fld	fs0,64(a4)
    1b16:	8000                	0x8000
    1b18:	0001                	nop
    1b1a:	4661                	li	a2,24
    1b1c:	50800023          	sb	s0,1280(zero) # 500 <_tbss_end+0x4bc>
    1b20:	01800023          	sb	s8,0(zero) # 0 <_tdata_begin>
    1b24:	6100                	flw	fs0,0(a0)
    1b26:	2350                	fld	fa2,128(a4)
    1b28:	8000                	0x8000
    1b2a:	235a                	fld	ft6,400(sp)
    1b2c:	8000                	0x8000
    1b2e:	0001                	nop
    1b30:	0000005b          	0x5b
    1b34:	0000                	unimp
    1b36:	0000                	unimp
    1b38:	4c00                	lw	s0,24(s0)
    1b3a:	0022                	c.slli	zero,0x8
    1b3c:	7480                	flw	fs0,40(s1)
    1b3e:	0022                	c.slli	zero,0x8
    1b40:	0180                	addi	s0,sp,192
    1b42:	6c00                	flw	fs0,24(s0)
    1b44:	2304                	fld	fs1,0(a4)
    1b46:	8000                	0x8000
    1b48:	230e                	fld	ft6,192(sp)
    1b4a:	8000                	0x8000
    1b4c:	0001                	nop
    1b4e:	006c                	addi	a1,sp,12
    1b50:	0000                	unimp
    1b52:	0000                	unimp
    1b54:	0000                	unimp
    1b56:	4c00                	lw	s0,24(s0)
    1b58:	0022                	c.slli	zero,0x8
    1b5a:	5080                	lw	s0,32(s1)
    1b5c:	0022                	c.slli	zero,0x8
    1b5e:	0680                	addi	s0,sp,832
    1b60:	7e00                	flw	fs0,56(a2)
    1b62:	7c00                	flw	fs0,56(s0)
    1b64:	1e00                	addi	s0,sp,816
    1b66:	509f 0022 5a80      	0x5a800022509f
    1b6c:	0022                	c.slli	zero,0x8
    1b6e:	0180                	addi	s0,sp,192
    1b70:	5e00                	lw	s0,56(a2)
    1b72:	225a                	fld	ft4,400(sp)
    1b74:	8000                	0x8000
    1b76:	2260                	fld	fs0,192(a2)
    1b78:	8000                	0x8000
    1b7a:	0009                	c.nop	2
    1b7c:	7f8e                	flw	ft11,224(sp)
    1b7e:	008d                	addi	ra,ra,3
    1b80:	7c1a                	flw	fs8,164(sp)
    1b82:	1e00                	addi	s0,sp,816
    1b84:	609f 0022 7480      	0x74800022609f
    1b8a:	0022                	c.slli	zero,0x8
    1b8c:	0180                	addi	s0,sp,192
    1b8e:	5e00                	lw	s0,56(a2)
    1b90:	2304                	fld	fs1,0(a4)
    1b92:	8000                	0x8000
    1b94:	230a                	fld	ft6,128(sp)
    1b96:	8000                	0x8000
    1b98:	0001                	nop
    1b9a:	005e                	c.slli	zero,0x17
    1b9c:	0000                	unimp
    1b9e:	0000                	unimp
    1ba0:	0000                	unimp
    1ba2:	5800                	lw	s0,48(s0)
    1ba4:	0022                	c.slli	zero,0x8
    1ba6:	7480                	flw	fs0,40(s1)
    1ba8:	0022                	c.slli	zero,0x8
    1baa:	0180                	addi	s0,sp,192
    1bac:	5f00                	lw	s0,56(a4)
    1bae:	2304                	fld	fs1,0(a4)
    1bb0:	8000                	0x8000
    1bb2:	2306                	fld	ft6,64(sp)
    1bb4:	8000                	0x8000
    1bb6:	0001                	nop
    1bb8:	005f 0000 0000      	0x5f
    1bbe:	0000                	unimp
    1bc0:	6000                	flw	fs0,0(s0)
    1bc2:	0022                	c.slli	zero,0x8
    1bc4:	6c80                	flw	fs0,24(s1)
    1bc6:	0022                	c.slli	zero,0x8
    1bc8:	0180                	addi	s0,sp,192
    1bca:	5c00                	lw	s0,56(s0)
	...
    1bd4:	224c                	fld	fa1,128(a2)
    1bd6:	8000                	0x8000
    1bd8:	2250                	fld	fa2,128(a2)
    1bda:	8000                	0x8000
    1bdc:	0001                	nop
    1bde:	505e                	0x505e
    1be0:	0022                	c.slli	zero,0x8
    1be2:	7880                	flw	fs0,48(s1)
    1be4:	0022                	c.slli	zero,0x8
    1be6:	0680                	addi	s0,sp,832
    1be8:	8e00                	0x8e00
    1bea:	8d7f                	0x8d7f
    1bec:	1a00                	addi	s0,sp,304
    1bee:	049f 0023 0880      	0x8800023049f
    1bf4:	06800023          	sb	s0,96(zero) # 60 <_tbss_end+0x1c>
    1bf8:	8e00                	0x8e00
    1bfa:	8d7f                	0x8d7f
    1bfc:	1a00                	addi	s0,sp,304
    1bfe:	089f 0023 1480      	0x14800023089f
    1c04:	06800023          	sb	s0,96(zero) # 60 <_tbss_end+0x1c>
    1c08:	8d00                	0x8d00
    1c0a:	7f00                	flw	fs0,56(a4)
    1c0c:	1a00                	addi	s0,sp,304
    1c0e:	149f 0023 2080      	0x20800023149f
    1c14:	06800023          	sb	s0,96(zero) # 60 <_tbss_end+0x1c>
    1c18:	8e00                	0x8e00
    1c1a:	8d7f                	0x8d7f
    1c1c:	1a00                	addi	s0,sp,304
    1c1e:	009f 0000 0000      	0x9f
    1c24:	0000                	unimp
    1c26:	4c00                	lw	s0,24(s0)
    1c28:	0022                	c.slli	zero,0x8
    1c2a:	5880                	lw	s0,48(s1)
    1c2c:	0022                	c.slli	zero,0x8
    1c2e:	0180                	addi	s0,sp,192
    1c30:	5f00                	lw	s0,56(a4)
	...
    1c3a:	224c                	fld	fa1,128(a2)
    1c3c:	8000                	0x8000
    1c3e:	226a                	fld	ft4,152(sp)
    1c40:	8000                	0x8000
    1c42:	0001                	nop
    1c44:	6a60                	flw	fs0,84(a2)
    1c46:	0022                	c.slli	zero,0x8
    1c48:	7880                	flw	fs0,48(s1)
    1c4a:	0022                	c.slli	zero,0x8
    1c4c:	0580                	addi	s0,sp,704
    1c4e:	8d00                	0x8d00
    1c50:	4000                	lw	s0,0(s0)
    1c52:	9f25                	0x9f25
    1c54:	2304                	fld	fs1,0(a4)
    1c56:	8000                	0x8000
    1c58:	2320                	fld	fs0,64(a4)
    1c5a:	8000                	0x8000
    1c5c:	0005                	c.nop	1
    1c5e:	008d                	addi	ra,ra,3
    1c60:	2540                	fld	fs0,136(a0)
    1c62:	009f 0000 0000      	0x9f
    1c68:	0000                	unimp
    1c6a:	4c00                	lw	s0,24(s0)
    1c6c:	0022                	c.slli	zero,0x8
    1c6e:	6080                	flw	fs0,0(s1)
    1c70:	0022                	c.slli	zero,0x8
    1c72:	0180                	addi	s0,sp,192
    1c74:	5c00                	lw	s0,56(s0)
	...
    1c7e:	22a4                	fld	fs1,64(a3)
    1c80:	8000                	0x8000
    1c82:	2304                	fld	fs1,0(a4)
    1c84:	8000                	0x8000
    1c86:	0001                	nop
    1c88:	5a6e                	lw	s4,248(sp)
    1c8a:	62800023          	sb	s0,1568(zero) # 620 <_tbss_end+0x5dc>
    1c8e:	01800023          	sb	s8,0(zero) # 0 <_tdata_begin>
    1c92:	6e00                	flw	fs0,24(a2)
	...
    1c9c:	22a4                	fld	fs1,64(a3)
    1c9e:	8000                	0x8000
    1ca0:	2304                	fld	fs1,0(a4)
    1ca2:	8000                	0x8000
    1ca4:	0001                	nop
    1ca6:	5a6d                	li	s4,-5
    1ca8:	62800023          	sb	s0,1568(zero) # 620 <_tbss_end+0x5dc>
    1cac:	01800023          	sb	s8,0(zero) # 0 <_tdata_begin>
    1cb0:	6d00                	flw	fs0,24(a0)
	...
    1cba:	22a8                	fld	fa0,64(a3)
    1cbc:	8000                	0x8000
    1cbe:	22ba                	fld	ft5,392(sp)
    1cc0:	8000                	0x8000
    1cc2:	0001                	nop
    1cc4:	ba6c                	fsd	fa1,240(a2)
    1cc6:	0022                	c.slli	zero,0x8
    1cc8:	c480                	sw	s0,8(s1)
    1cca:	0022                	c.slli	zero,0x8
    1ccc:	0180                	addi	s0,sp,192
    1cce:	5c00                	lw	s0,56(s0)
    1cd0:	22c4                	fld	fs1,128(a3)
    1cd2:	8000                	0x8000
    1cd4:	2304                	fld	fs1,0(a4)
    1cd6:	8000                	0x8000
    1cd8:	0001                	nop
    1cda:	5a6c                	lw	a1,116(a2)
    1cdc:	5e800023          	sb	s0,1504(zero) # 5e0 <_tbss_end+0x59c>
    1ce0:	01800023          	sb	s8,0(zero) # 0 <_tdata_begin>
    1ce4:	6c00                	flw	fs0,24(s0)
    1ce6:	235e                	fld	ft6,464(sp)
    1ce8:	8000                	0x8000
    1cea:	2362                	fld	ft6,24(sp)
    1cec:	8000                	0x8000
    1cee:	0001                	nop
    1cf0:	005c                	addi	a5,sp,4
    1cf2:	0000                	unimp
    1cf4:	0000                	unimp
    1cf6:	0000                	unimp
    1cf8:	d800                	sw	s0,48(s0)
    1cfa:	0022                	c.slli	zero,0x8
    1cfc:	ee80                	fsw	fs0,24(a3)
    1cfe:	0022                	c.slli	zero,0x8
    1d00:	0180                	addi	s0,sp,192
    1d02:	5f00                	lw	s0,56(a4)
    1d04:	22ee                	fld	ft5,216(sp)
    1d06:	8000                	0x8000
    1d08:	22f8                	fld	fa4,192(a3)
    1d0a:	8000                	0x8000
    1d0c:	0001                	nop
    1d0e:	f85d                	bnez	s0,1cc4 <_tbss_end+0x1c80>
    1d10:	0022                	c.slli	zero,0x8
    1d12:	0480                	addi	s0,sp,576
    1d14:	01800023          	sb	s8,0(zero) # 0 <_tdata_begin>
    1d18:	5f00                	lw	s0,56(a4)
    1d1a:	235a                	fld	ft6,400(sp)
    1d1c:	8000                	0x8000
    1d1e:	235e                	fld	ft6,464(sp)
    1d20:	8000                	0x8000
    1d22:	0001                	nop
    1d24:	005d                	c.nop	23
    1d26:	0000                	unimp
    1d28:	0000                	unimp
    1d2a:	0000                	unimp
    1d2c:	a800                	fsd	fs0,16(s0)
    1d2e:	0022                	c.slli	zero,0x8
    1d30:	ae80                	fsd	fs0,24(a3)
    1d32:	0022                	c.slli	zero,0x8
    1d34:	0180                	addi	s0,sp,192
    1d36:	5d00                	lw	s0,56(a0)
    1d38:	22ae                	fld	ft5,200(sp)
    1d3a:	8000                	0x8000
    1d3c:	22b0                	fld	fa2,64(a3)
    1d3e:	8000                	0x8000
    1d40:	0006                	c.slli	zero,0x1
    1d42:	007c                	addi	a5,sp,12
    1d44:	008e                	slli	ra,ra,0x3
    1d46:	9f1d                	0x9f1d
    1d48:	22b0                	fld	fa2,64(a3)
    1d4a:	8000                	0x8000
    1d4c:	22b6                	fld	ft5,328(sp)
    1d4e:	8000                	0x8000
    1d50:	0001                	nop
    1d52:	b65d                	j	18f8 <_tbss_end+0x18b4>
    1d54:	0022                	c.slli	zero,0x8
    1d56:	ba80                	fsd	fs0,48(a3)
    1d58:	0022                	c.slli	zero,0x8
    1d5a:	0b80                	addi	s0,sp,464
    1d5c:	7c00                	flw	fs0,56(s0)
    1d5e:	8e00                	0x8e00
    1d60:	1d00                	addi	s0,sp,688
    1d62:	2440                	fld	fs0,136(s0)
    1d64:	9f21007b          	0x9f21007b
    1d68:	22ba                	fld	ft5,392(sp)
    1d6a:	8000                	0x8000
    1d6c:	22d8                	fld	fa4,128(a3)
    1d6e:	8000                	0x8000
    1d70:	0001                	nop
    1d72:	5e5d                	li	t3,-9
    1d74:	62800023          	sb	s0,1568(zero) # 620 <_tbss_end+0x5dc>
    1d78:	01800023          	sb	s8,0(zero) # 0 <_tdata_begin>
    1d7c:	5d00                	lw	s0,56(a0)
	...
    1d86:	22d8                	fld	fa4,128(a3)
    1d88:	8000                	0x8000
    1d8a:	22e4                	fld	fs1,192(a3)
    1d8c:	8000                	0x8000
    1d8e:	0001                	nop
    1d90:	e45d                	bnez	s0,1e3e <_tbss_end+0x1dfa>
    1d92:	0022                	c.slli	zero,0x8
    1d94:	ea80                	fsw	fs0,16(a3)
    1d96:	0022                	c.slli	zero,0x8
    1d98:	0180                	addi	s0,sp,192
    1d9a:	5e00                	lw	s0,56(a2)
    1d9c:	22ea                	fld	ft5,152(sp)
    1d9e:	8000                	0x8000
    1da0:	22ee                	fld	ft5,216(sp)
    1da2:	8000                	0x8000
    1da4:	0008                	0x8
    1da6:	007d                	c.nop	31
    1da8:	2440                	fld	fs0,136(s0)
    1daa:	0080                	addi	s0,sp,64
    1dac:	9f21                	0x9f21
    1dae:	22ee                	fld	ft5,216(sp)
    1db0:	8000                	0x8000
    1db2:	2304                	fld	fs1,0(a4)
    1db4:	8000                	0x8000
    1db6:	0001                	nop
    1db8:	5a5e                	lw	s4,244(sp)
    1dba:	5e800023          	sb	s0,1504(zero) # 5e0 <_tbss_end+0x59c>
    1dbe:	01800023          	sb	s8,0(zero) # 0 <_tdata_begin>
    1dc2:	5e00                	lw	s0,56(a2)
	...
    1dcc:	22ac                	fld	fa1,64(a3)
    1dce:	8000                	0x8000
    1dd0:	22cc                	fld	fa1,128(a3)
    1dd2:	8000                	0x8000
    1dd4:	0001                	nop
    1dd6:	dc5f 0022 0480      	0x4800022dc5f
    1ddc:	01800023          	sb	s8,0(zero) # 0 <_tdata_begin>
    1de0:	5c00                	lw	s0,56(s0)
    1de2:	235a                	fld	ft6,400(sp)
    1de4:	8000                	0x8000
    1de6:	235e                	fld	ft6,464(sp)
    1de8:	8000                	0x8000
    1dea:	0001                	nop
    1dec:	5e5c                	lw	a5,60(a2)
    1dee:	62800023          	sb	s0,1568(zero) # 620 <_tbss_end+0x5dc>
    1df2:	01800023          	sb	s8,0(zero) # 0 <_tdata_begin>
    1df6:	5f00                	lw	s0,56(a4)
	...
    1e00:	236e                	fld	ft6,216(sp)
    1e02:	8000                	0x8000
    1e04:	23ce                	fld	ft7,208(sp)
    1e06:	8000                	0x8000
    1e08:	0006                	c.slli	zero,0x1
    1e0a:	935a                	add	t1,t1,s6
    1e0c:	5b04                	lw	s1,48(a4)
    1e0e:	23ce0493          	addi	s1,t3,572
    1e12:	8000                	0x8000
    1e14:	2422                	fld	fs0,8(sp)
    1e16:	8000                	0x8000
    1e18:	0006                	c.slli	zero,0x1
    1e1a:	0af503f3          	0xaf503f3
    1e1e:	9f25                	0x9f25
    1e20:	2422                	fld	fs0,8(sp)
    1e22:	8000                	0x8000
    1e24:	2470                	fld	fa2,200(s0)
    1e26:	8000                	0x8000
    1e28:	0006                	c.slli	zero,0x1
    1e2a:	935a                	add	t1,t1,s6
    1e2c:	5b04                	lw	s1,48(a4)
    1e2e:	24700493          	li	s1,583
    1e32:	8000                	0x8000
    1e34:	2474                	fld	fa3,200(s0)
    1e36:	8000                	0x8000
    1e38:	0006                	c.slli	zero,0x1
    1e3a:	0af503f3          	0xaf503f3
    1e3e:	9f25                	0x9f25
    1e40:	2474                	fld	fa3,200(s0)
    1e42:	8000                	0x8000
    1e44:	24e6                	fld	fs1,88(sp)
    1e46:	8000                	0x8000
    1e48:	0006                	c.slli	zero,0x1
    1e4a:	935a                	add	t1,t1,s6
    1e4c:	5b04                	lw	s1,48(a4)
    1e4e:	24e60493          	addi	s1,a2,590 # ffff724e <__global_pointer$+0x6fff6a4e>
    1e52:	8000                	0x8000
    1e54:	2500                	fld	fs0,8(a0)
    1e56:	8000                	0x8000
    1e58:	0006                	c.slli	zero,0x1
    1e5a:	0af503f3          	0xaf503f3
    1e5e:	9f25                	0x9f25
    1e60:	2500                	fld	fs0,8(a0)
    1e62:	8000                	0x8000
    1e64:	2568                	fld	fa0,200(a0)
    1e66:	8000                	0x8000
    1e68:	0006                	c.slli	zero,0x1
    1e6a:	935a                	add	t1,t1,s6
    1e6c:	5b04                	lw	s1,48(a4)
    1e6e:	25680493          	addi	s1,a6,598 # 1b256 <_tbss_end+0x1b212>
    1e72:	8000                	0x8000
    1e74:	2614                	fld	fa3,8(a2)
    1e76:	8000                	0x8000
    1e78:	0006                	c.slli	zero,0x1
    1e7a:	0af503f3          	0xaf503f3
    1e7e:	9f25                	0x9f25
    1e80:	2614                	fld	fa3,8(a2)
    1e82:	8000                	0x8000
    1e84:	268c                	fld	fa1,8(a3)
    1e86:	8000                	0x8000
    1e88:	0006                	c.slli	zero,0x1
    1e8a:	935a                	add	t1,t1,s6
    1e8c:	5b04                	lw	s1,48(a4)
    1e8e:	268c0493          	addi	s1,s8,616 # ffff7268 <__global_pointer$+0x6fff6a68>
    1e92:	8000                	0x8000
    1e94:	26ba                	fld	fa3,392(sp)
    1e96:	8000                	0x8000
    1e98:	0006                	c.slli	zero,0x1
    1e9a:	0af503f3          	0xaf503f3
    1e9e:	9f25                	0x9f25
    1ea0:	26ba                	fld	fa3,392(sp)
    1ea2:	8000                	0x8000
    1ea4:	26d8                	fld	fa4,136(a3)
    1ea6:	8000                	0x8000
    1ea8:	0006                	c.slli	zero,0x1
    1eaa:	935a                	add	t1,t1,s6
    1eac:	5b04                	lw	s1,48(a4)
    1eae:	26d80493          	addi	s1,a6,621
    1eb2:	8000                	0x8000
    1eb4:	26fa                	fld	fa3,408(sp)
    1eb6:	8000                	0x8000
    1eb8:	0006                	c.slli	zero,0x1
    1eba:	0af503f3          	0xaf503f3
    1ebe:	9f25                	0x9f25
	...
    1ec8:	236e                	fld	ft6,216(sp)
    1eca:	8000                	0x8000
    1ecc:	23c6                	fld	ft7,80(sp)
    1ece:	8000                	0x8000
    1ed0:	0006                	c.slli	zero,0x1
    1ed2:	935c                	0x935c
    1ed4:	5d04                	lw	s1,56(a0)
    1ed6:	23c60493          	addi	s1,a2,572
    1eda:	8000                	0x8000
    1edc:	2422                	fld	fs0,8(sp)
    1ede:	8000                	0x8000
    1ee0:	0006                	c.slli	zero,0x1
    1ee2:	0cf503f3          	0xcf503f3
    1ee6:	9f25                	0x9f25
    1ee8:	2422                	fld	fs0,8(sp)
    1eea:	8000                	0x8000
    1eec:	24b8                	fld	fa4,72(s1)
    1eee:	8000                	0x8000
    1ef0:	0006                	c.slli	zero,0x1
    1ef2:	935c                	0x935c
    1ef4:	5d04                	lw	s1,56(a0)
    1ef6:	24b80493          	addi	s1,a6,587
    1efa:	8000                	0x8000
    1efc:	2500                	fld	fs0,8(a0)
    1efe:	8000                	0x8000
    1f00:	0006                	c.slli	zero,0x1
    1f02:	0cf503f3          	0xcf503f3
    1f06:	9f25                	0x9f25
    1f08:	2500                	fld	fs0,8(a0)
    1f0a:	8000                	0x8000
    1f0c:	2576                	fld	fa0,344(sp)
    1f0e:	8000                	0x8000
    1f10:	0006                	c.slli	zero,0x1
    1f12:	935c                	0x935c
    1f14:	5d04                	lw	s1,56(a0)
    1f16:	25760493          	addi	s1,a2,599
    1f1a:	8000                	0x8000
    1f1c:	2614                	fld	fa3,8(a2)
    1f1e:	8000                	0x8000
    1f20:	0006                	c.slli	zero,0x1
    1f22:	0cf503f3          	0xcf503f3
    1f26:	9f25                	0x9f25
    1f28:	2614                	fld	fa3,8(a2)
    1f2a:	8000                	0x8000
    1f2c:	2620                	fld	fs0,72(a2)
    1f2e:	8000                	0x8000
    1f30:	0006                	c.slli	zero,0x1
    1f32:	935c                	0x935c
    1f34:	5d04                	lw	s1,56(a0)
    1f36:	26200493          	li	s1,610
    1f3a:	8000                	0x8000
    1f3c:	26ba                	fld	fa3,392(sp)
    1f3e:	8000                	0x8000
    1f40:	0006                	c.slli	zero,0x1
    1f42:	0cf503f3          	0xcf503f3
    1f46:	9f25                	0x9f25
    1f48:	26ba                	fld	fa3,392(sp)
    1f4a:	8000                	0x8000
    1f4c:	26d8                	fld	fa4,136(a3)
    1f4e:	8000                	0x8000
    1f50:	0006                	c.slli	zero,0x1
    1f52:	935c                	0x935c
    1f54:	5d04                	lw	s1,56(a0)
    1f56:	26d80493          	addi	s1,a6,621
    1f5a:	8000                	0x8000
    1f5c:	26fa                	fld	fa3,408(sp)
    1f5e:	8000                	0x8000
    1f60:	0006                	c.slli	zero,0x1
    1f62:	0cf503f3          	0xcf503f3
    1f66:	9f25                	0x9f25
	...
    1f70:	236e                	fld	ft6,216(sp)
    1f72:	8000                	0x8000
    1f74:	26b8                	fld	fa4,72(a3)
    1f76:	8000                	0x8000
    1f78:	0006                	c.slli	zero,0x1
    1f7a:	ddf2                	sw	t3,248(sp)
    1f7c:	00000013          	nop
    1f80:	26ba                	fld	fa3,392(sp)
    1f82:	8000                	0x8000
    1f84:	26fa                	fld	fa3,408(sp)
    1f86:	8000                	0x8000
    1f88:	0006                	c.slli	zero,0x1
    1f8a:	ddf2                	sw	t3,248(sp)
    1f8c:	00000013          	nop
	...
    1f98:	236e                	fld	ft6,216(sp)
    1f9a:	8000                	0x8000
    1f9c:	2388                	fld	fa0,0(a5)
    1f9e:	8000                	0x8000
    1fa0:	0006                	c.slli	zero,0x1
    1fa2:	935c                	0x935c
    1fa4:	5d04                	lw	s1,56(a0)
    1fa6:	23880493          	addi	s1,a6,568
    1faa:	8000                	0x8000
    1fac:	2392                	fld	ft7,256(sp)
    1fae:	8000                	0x8000
    1fb0:	0006                	c.slli	zero,0x1
    1fb2:	935c                	0x935c
    1fb4:	5f04                	lw	s1,56(a4)
    1fb6:	24220493          	addi	s1,tp,578 # 242 <_tbss_end+0x1fe>
    1fba:	8000                	0x8000
    1fbc:	246a                	fld	fs0,152(sp)
    1fbe:	8000                	0x8000
    1fc0:	0006                	c.slli	zero,0x1
    1fc2:	935c                	0x935c
    1fc4:	5d04                	lw	s1,56(a0)
    1fc6:	24740493          	addi	s1,s0,583
    1fca:	8000                	0x8000
    1fcc:	248e                	fld	fs1,192(sp)
    1fce:	8000                	0x8000
    1fd0:	0006                	c.slli	zero,0x1
    1fd2:	935c                	0x935c
    1fd4:	5d04                	lw	s1,56(a0)
    1fd6:	25000493          	li	s1,592
    1fda:	8000                	0x8000
    1fdc:	2516                	fld	fa0,320(sp)
    1fde:	8000                	0x8000
    1fe0:	0006                	c.slli	zero,0x1
    1fe2:	935c                	0x935c
    1fe4:	5d04                	lw	s1,56(a0)
    1fe6:	25160493          	addi	s1,a2,593
    1fea:	8000                	0x8000
    1fec:	2520                	fld	fs0,72(a0)
    1fee:	8000                	0x8000
    1ff0:	0006                	c.slli	zero,0x1
    1ff2:	935c                	0x935c
    1ff4:	5f04                	lw	s1,56(a4)
    1ff6:	25220493          	addi	s1,tp,594 # 252 <_tbss_end+0x20e>
    1ffa:	8000                	0x8000
    1ffc:	252e                	fld	fa0,200(sp)
    1ffe:	8000                	0x8000
    2000:	0006                	c.slli	zero,0x1
    2002:	935c                	0x935c
    2004:	5d04                	lw	s1,56(a0)
    2006:	25320493          	addi	s1,tp,595 # 253 <_tbss_end+0x20f>
    200a:	8000                	0x8000
    200c:	253a                	fld	fa0,392(sp)
    200e:	8000                	0x8000
    2010:	0006                	c.slli	zero,0x1
    2012:	935c                	0x935c
    2014:	5d04                	lw	s1,56(a0)
    2016:	26ba0493          	addi	s1,s4,619
    201a:	8000                	0x8000
    201c:	26cc                	fld	fa1,136(a3)
    201e:	8000                	0x8000
    2020:	0006                	c.slli	zero,0x1
    2022:	935c                	0x935c
    2024:	5d04                	lw	s1,56(a0)
    2026:	26d00493          	li	s1,621
    202a:	8000                	0x8000
    202c:	26d4                	fld	fa3,136(a3)
    202e:	8000                	0x8000
    2030:	0006                	c.slli	zero,0x1
    2032:	935c                	0x935c
    2034:	5d04                	lw	s1,56(a0)
    2036:	00000493          	li	s1,0
    203a:	0000                	unimp
    203c:	0000                	unimp
    203e:	0000                	unimp
    2040:	236e                	fld	ft6,216(sp)
    2042:	8000                	0x8000
    2044:	23b2                	fld	ft7,264(sp)
    2046:	8000                	0x8000
    2048:	0006                	c.slli	zero,0x1
    204a:	935a                	add	t1,t1,s6
    204c:	5b04                	lw	s1,48(a4)
    204e:	23b20493          	addi	s1,tp,571 # 23b <_tbss_end+0x1f7>
    2052:	8000                	0x8000
    2054:	23be                	fld	ft7,456(sp)
    2056:	8000                	0x8000
    2058:	0006                	c.slli	zero,0x1
    205a:	935a                	add	t1,t1,s6
    205c:	6c04                	flw	fs1,24(s0)
    205e:	24220493          	addi	s1,tp,578 # 242 <_tbss_end+0x1fe>
    2062:	8000                	0x8000
    2064:	244c                	fld	fa1,136(s0)
    2066:	8000                	0x8000
    2068:	0006                	c.slli	zero,0x1
    206a:	9356                	add	t1,t1,s5
    206c:	5b04                	lw	s1,48(a4)
    206e:	244c0493          	addi	s1,s8,580
    2072:	8000                	0x8000
    2074:	2466                	fld	fs0,88(sp)
    2076:	8000                	0x8000
    2078:	0006                	c.slli	zero,0x1
    207a:	935a                	add	t1,t1,s6
    207c:	5b04                	lw	s1,48(a4)
    207e:	24660493          	addi	s1,a2,582
    2082:	8000                	0x8000
    2084:	246e                	fld	fs0,216(sp)
    2086:	8000                	0x8000
    2088:	0006                	c.slli	zero,0x1
    208a:	935a                	add	t1,t1,s6
    208c:	6c04                	flw	fs1,24(s0)
    208e:	24740493          	addi	s1,s0,583
    2092:	8000                	0x8000
    2094:	24b4                	fld	fa3,72(s1)
    2096:	8000                	0x8000
    2098:	0006                	c.slli	zero,0x1
    209a:	9356                	add	t1,t1,s5
    209c:	5b04                	lw	s1,48(a4)
    209e:	25000493          	li	s1,592
    20a2:	8000                	0x8000
    20a4:	2532                	fld	fa0,264(sp)
    20a6:	8000                	0x8000
    20a8:	0006                	c.slli	zero,0x1
    20aa:	9356                	add	t1,t1,s5
    20ac:	5b04                	lw	s1,48(a4)
    20ae:	25320493          	addi	s1,tp,595 # 253 <_tbss_end+0x20f>
    20b2:	8000                	0x8000
    20b4:	255a                	fld	fa0,400(sp)
    20b6:	8000                	0x8000
    20b8:	0006                	c.slli	zero,0x1
    20ba:	935a                	add	t1,t1,s6
    20bc:	5b04                	lw	s1,48(a4)
    20be:	255a0493          	addi	s1,s4,597
    20c2:	8000                	0x8000
    20c4:	2568                	fld	fa0,200(a0)
    20c6:	8000                	0x8000
    20c8:	0006                	c.slli	zero,0x1
    20ca:	935a                	add	t1,t1,s6
    20cc:	6c04                	flw	fs1,24(s0)
    20ce:	26140493          	addi	s1,s0,609
    20d2:	8000                	0x8000
    20d4:	2634                	fld	fa3,72(a2)
    20d6:	8000                	0x8000
    20d8:	0006                	c.slli	zero,0x1
    20da:	9356                	add	t1,t1,s5
    20dc:	5b04                	lw	s1,48(a4)
    20de:	26ba0493          	addi	s1,s4,619
    20e2:	8000                	0x8000
    20e4:	26d8                	fld	fa4,136(a3)
    20e6:	8000                	0x8000
    20e8:	0006                	c.slli	zero,0x1
    20ea:	9356                	add	t1,t1,s5
    20ec:	5b04                	lw	s1,48(a4)
    20ee:	00000493          	li	s1,0
    20f2:	0000                	unimp
    20f4:	0000                	unimp
    20f6:	0000                	unimp
    20f8:	2372                	fld	ft6,280(sp)
    20fa:	8000                	0x8000
    20fc:	23ba                	fld	ft7,392(sp)
    20fe:	8000                	0x8000
    2100:	0001                	nop
    2102:	ba5c                	fsd	fa5,176(a2)
    2104:	22800023          	sb	s0,544(zero) # 220 <_tbss_end+0x1dc>
    2108:	0024                	addi	s1,sp,8
    210a:	0180                	addi	s0,sp,192
    210c:	6000                	flw	fs0,0(s0)
    210e:	2422                	fld	fs0,8(sp)
    2110:	8000                	0x8000
    2112:	247c                	fld	fa5,200(s0)
    2114:	8000                	0x8000
    2116:	0001                	nop
    2118:	7c5c                	flw	fa5,60(s0)
    211a:	0024                	addi	s1,sp,8
    211c:	0080                	addi	s0,sp,64
    211e:	0025                	c.nop	9
    2120:	0180                	addi	s0,sp,192
    2122:	6000                	flw	fs0,0(s0)
    2124:	2500                	fld	fs0,8(a0)
    2126:	8000                	0x8000
    2128:	2510                	fld	fa2,8(a0)
    212a:	8000                	0x8000
    212c:	0001                	nop
    212e:	105c                	addi	a5,sp,36
    2130:	0025                	c.nop	9
    2132:	1a80                	addi	s0,sp,368
    2134:	0025                	c.nop	9
    2136:	0180                	addi	s0,sp,192
    2138:	6000                	flw	fs0,0(s0)
    213a:	251a                	fld	fa0,384(sp)
    213c:	8000                	0x8000
    213e:	251e                	fld	fa0,448(sp)
    2140:	8000                	0x8000
    2142:	0001                	nop
    2144:	1e5d                	addi	t3,t3,-9
    2146:	0025                	c.nop	9
    2148:	2280                	fld	fs0,0(a3)
    214a:	0025                	c.nop	9
    214c:	0180                	addi	s0,sp,192
    214e:	6000                	flw	fs0,0(s0)
    2150:	2522                	fld	fa0,8(sp)
    2152:	8000                	0x8000
    2154:	2564                	fld	fs1,200(a0)
    2156:	8000                	0x8000
    2158:	0001                	nop
    215a:	645c                	flw	fa5,12(s0)
    215c:	0025                	c.nop	9
    215e:	1280                	addi	s0,sp,352
    2160:	0026                	c.slli	zero,0x9
    2162:	0180                	addi	s0,sp,192
    2164:	5f00                	lw	s0,56(a4)
    2166:	2614                	fld	fa3,8(a2)
    2168:	8000                	0x8000
    216a:	268c                	fld	fa1,8(a3)
    216c:	8000                	0x8000
    216e:	0001                	nop
    2170:	8c60                	0x8c60
    2172:	0026                	c.slli	zero,0x9
    2174:	9080                	0x9080
    2176:	0026                	c.slli	zero,0x9
    2178:	0180                	addi	s0,sp,192
    217a:	5f00                	lw	s0,56(a4)
    217c:	26ba                	fld	fa3,392(sp)
    217e:	8000                	0x8000
    2180:	26c8                	fld	fa0,136(a3)
    2182:	8000                	0x8000
    2184:	0001                	nop
    2186:	c85c                	sw	a5,20(s0)
    2188:	0026                	c.slli	zero,0x9
    218a:	d080                	sw	s0,32(s1)
    218c:	0026                	c.slli	zero,0x9
    218e:	0180                	addi	s0,sp,192
    2190:	6000                	flw	fs0,0(s0)
    2192:	26d0                	fld	fa2,136(a3)
    2194:	8000                	0x8000
    2196:	26d8                	fld	fa4,136(a3)
    2198:	8000                	0x8000
    219a:	0001                	nop
    219c:	d85c                	sw	a5,52(s0)
    219e:	0026                	c.slli	zero,0x9
    21a0:	ec80                	fsw	fs0,24(s1)
    21a2:	0026                	c.slli	zero,0x9
    21a4:	0180                	addi	s0,sp,192
    21a6:	5f00                	lw	s0,56(a4)
    21a8:	26ec                	fld	fa1,200(a3)
    21aa:	8000                	0x8000
    21ac:	26f0                	fld	fa2,200(a3)
    21ae:	8000                	0x8000
    21b0:	0001                	nop
    21b2:	f060                	fsw	fs0,100(s0)
    21b4:	0026                	c.slli	zero,0x9
    21b6:	f680                	fsw	fs0,40(a3)
    21b8:	0026                	c.slli	zero,0x9
    21ba:	0180                	addi	s0,sp,192
    21bc:	5f00                	lw	s0,56(a4)
	...
    21c6:	2372                	fld	ft6,280(sp)
    21c8:	8000                	0x8000
    21ca:	2388                	fld	fa0,0(a5)
    21cc:	8000                	0x8000
    21ce:	0001                	nop
    21d0:	885d                	andi	s0,s0,23
    21d2:	92800023          	sb	s0,-1760(zero) # fffff920 <__global_pointer$+0x6ffff120>
    21d6:	01800023          	sb	s8,0(zero) # 0 <_tdata_begin>
    21da:	5f00                	lw	s0,56(a4)
    21dc:	2422                	fld	fs0,8(sp)
    21de:	8000                	0x8000
    21e0:	246a                	fld	fs0,152(sp)
    21e2:	8000                	0x8000
    21e4:	0001                	nop
    21e6:	745d                	lui	s0,0xffff7
    21e8:	0024                	addi	s1,sp,8
    21ea:	8e80                	0x8e80
    21ec:	0024                	addi	s1,sp,8
    21ee:	0180                	addi	s0,sp,192
    21f0:	5d00                	lw	s0,56(a0)
    21f2:	2500                	fld	fs0,8(a0)
    21f4:	8000                	0x8000
    21f6:	2516                	fld	fa0,320(sp)
    21f8:	8000                	0x8000
    21fa:	0001                	nop
    21fc:	165d                	addi	a2,a2,-9
    21fe:	0025                	c.nop	9
    2200:	2080                	fld	fs0,0(s1)
    2202:	0025                	c.nop	9
    2204:	0180                	addi	s0,sp,192
    2206:	5f00                	lw	s0,56(a4)
    2208:	2522                	fld	fa0,8(sp)
    220a:	8000                	0x8000
    220c:	252e                	fld	fa0,200(sp)
    220e:	8000                	0x8000
    2210:	0001                	nop
    2212:	325d                	jal	1bb8 <_tbss_end+0x1b74>
    2214:	0025                	c.nop	9
    2216:	3a80                	fld	fs0,48(a3)
    2218:	0025                	c.nop	9
    221a:	0180                	addi	s0,sp,192
    221c:	5d00                	lw	s0,56(a0)
    221e:	253e                	fld	fa0,456(sp)
    2220:	8000                	0x8000
    2222:	2614                	fld	fa3,8(a2)
    2224:	8000                	0x8000
    2226:	0001                	nop
    2228:	8c5d                	or	s0,s0,a5
    222a:	0026                	c.slli	zero,0x9
    222c:	b880                	fsd	fs0,48(s1)
    222e:	0026                	c.slli	zero,0x9
    2230:	0180                	addi	s0,sp,192
    2232:	5d00                	lw	s0,56(a0)
    2234:	26ba                	fld	fa3,392(sp)
    2236:	8000                	0x8000
    2238:	26cc                	fld	fa1,136(a3)
    223a:	8000                	0x8000
    223c:	0001                	nop
    223e:	d05d                	beqz	s0,21e4 <_tbss_end+0x21a0>
    2240:	0026                	c.slli	zero,0x9
    2242:	d480                	sw	s0,40(s1)
    2244:	0026                	c.slli	zero,0x9
    2246:	0180                	addi	s0,sp,192
    2248:	5d00                	lw	s0,56(a0)
    224a:	26d8                	fld	fa4,136(a3)
    224c:	8000                	0x8000
    224e:	26ec                	fld	fa1,200(a3)
    2250:	8000                	0x8000
    2252:	0001                	nop
    2254:	f05d                	bnez	s0,21fa <_tbss_end+0x21b6>
    2256:	0026                	c.slli	zero,0x9
    2258:	fa80                	fsw	fs0,48(a3)
    225a:	0026                	c.slli	zero,0x9
    225c:	0180                	addi	s0,sp,192
    225e:	5d00                	lw	s0,56(a0)
	...
    2268:	2374                	fld	fa3,192(a4)
    226a:	8000                	0x8000
    226c:	23c2                	fld	ft7,16(sp)
    226e:	8000                	0x8000
    2270:	0001                	nop
    2272:	c25a                	sw	s6,4(sp)
    2274:	0a800023          	sb	s0,160(zero) # a0 <_tbss_end+0x5c>
    2278:	0024                	addi	s1,sp,8
    227a:	0180                	addi	s0,sp,192
    227c:	5600                	lw	s0,40(a2)
    227e:	241a                	fld	fs0,384(sp)
    2280:	8000                	0x8000
    2282:	241e                	fld	fs0,448(sp)
    2284:	8000                	0x8000
    2286:	0001                	nop
    2288:	225a                	fld	ft4,400(sp)
    228a:	0024                	addi	s1,sp,8
    228c:	4c80                	lw	s0,24(s1)
    228e:	0024                	addi	s1,sp,8
    2290:	0180                	addi	s0,sp,192
    2292:	5600                	lw	s0,40(a2)
    2294:	244c                	fld	fa1,136(s0)
    2296:	8000                	0x8000
    2298:	246e                	fld	fs0,216(sp)
    229a:	8000                	0x8000
    229c:	0001                	nop
    229e:	745a                	flw	fs0,180(sp)
    22a0:	0024                	addi	s1,sp,8
    22a2:	e880                	fsw	fs0,16(s1)
    22a4:	0024                	addi	s1,sp,8
    22a6:	0180                	addi	s0,sp,192
    22a8:	5600                	lw	s0,40(a2)
    22aa:	2500                	fld	fs0,8(a0)
    22ac:	8000                	0x8000
    22ae:	2532                	fld	fa0,264(sp)
    22b0:	8000                	0x8000
    22b2:	0001                	nop
    22b4:	3256                	fld	ft4,368(sp)
    22b6:	0025                	c.nop	9
    22b8:	1480                	addi	s0,sp,608
    22ba:	0026                	c.slli	zero,0x9
    22bc:	0180                	addi	s0,sp,192
    22be:	5a00                	lw	s0,48(a2)
    22c0:	2614                	fld	fa3,8(a2)
    22c2:	8000                	0x8000
    22c4:	268c                	fld	fa1,8(a3)
    22c6:	8000                	0x8000
    22c8:	0001                	nop
    22ca:	8c56                	mv	s8,s5
    22cc:	0026                	c.slli	zero,0x9
    22ce:	a680                	fsd	fs0,8(a3)
    22d0:	0026                	c.slli	zero,0x9
    22d2:	0180                	addi	s0,sp,192
    22d4:	5a00                	lw	s0,48(a2)
    22d6:	26a8                	fld	fa0,72(a3)
    22d8:	8000                	0x8000
    22da:	26b8                	fld	fa4,72(a3)
    22dc:	8000                	0x8000
    22de:	0001                	nop
    22e0:	ba5f 0026 d880      	0xd8800026ba5f
    22e6:	0026                	c.slli	zero,0x9
    22e8:	0180                	addi	s0,sp,192
    22ea:	5600                	lw	s0,40(a2)
    22ec:	26d8                	fld	fa4,136(a3)
    22ee:	8000                	0x8000
    22f0:	26ec                	fld	fa1,200(a3)
    22f2:	8000                	0x8000
    22f4:	0001                	nop
    22f6:	ec5a                	fsw	fs6,24(sp)
    22f8:	0026                	c.slli	zero,0x9
    22fa:	f080                	fsw	fs0,32(s1)
    22fc:	0026                	c.slli	zero,0x9
    22fe:	0180                	addi	s0,sp,192
    2300:	5600                	lw	s0,40(a2)
    2302:	26f0                	fld	fa2,200(a3)
    2304:	8000                	0x8000
    2306:	26fa                	fld	fa3,408(sp)
    2308:	8000                	0x8000
    230a:	0001                	nop
    230c:	005a                	c.slli	zero,0x16
    230e:	0000                	unimp
    2310:	0000                	unimp
    2312:	0000                	unimp
    2314:	7600                	flw	fs0,40(a2)
    2316:	b2800023          	sb	s0,-1248(zero) # fffffb20 <__global_pointer$+0x6ffff320>
    231a:	01800023          	sb	s8,0(zero) # 0 <_tdata_begin>
    231e:	5b00                	lw	s0,48(a4)
    2320:	23b2                	fld	ft7,264(sp)
    2322:	8000                	0x8000
    2324:	240a                	fld	fs0,128(sp)
    2326:	8000                	0x8000
    2328:	0001                	nop
    232a:	226c                	fld	fa1,192(a2)
    232c:	0024                	addi	s1,sp,8
    232e:	6680                	flw	fs0,8(a3)
    2330:	0024                	addi	s1,sp,8
    2332:	0180                	addi	s0,sp,192
    2334:	5b00                	lw	s0,48(a4)
    2336:	2466                	fld	fs0,88(sp)
    2338:	8000                	0x8000
    233a:	2474                	fld	fa3,200(s0)
    233c:	8000                	0x8000
    233e:	0001                	nop
    2340:	746c                	flw	fa1,108(s0)
    2342:	0024                	addi	s1,sp,8
    2344:	c880                	sw	s0,16(s1)
    2346:	0024                	addi	s1,sp,8
    2348:	0180                	addi	s0,sp,192
    234a:	5b00                	lw	s0,48(a4)
    234c:	2500                	fld	fs0,8(a0)
    234e:	8000                	0x8000
    2350:	255a                	fld	fa0,400(sp)
    2352:	8000                	0x8000
    2354:	0001                	nop
    2356:	00255a5b          	0x255a5b
    235a:	6480                	flw	fs0,8(s1)
    235c:	0025                	c.nop	9
    235e:	0180                	addi	s0,sp,192
    2360:	6c00                	flw	fs0,24(s0)
    2362:	2564                	fld	fs1,200(a0)
    2364:	8000                	0x8000
    2366:	2590                	fld	fa2,8(a1)
    2368:	8000                	0x8000
    236a:	0001                	nop
    236c:	0025d45b          	0x25d45b
    2370:	1480                	addi	s0,sp,608
    2372:	0026                	c.slli	zero,0x9
    2374:	0180                	addi	s0,sp,192
    2376:	5e00                	lw	s0,56(a2)
    2378:	2614                	fld	fa3,8(a2)
    237a:	8000                	0x8000
    237c:	2634                	fld	fa3,72(a2)
    237e:	8000                	0x8000
    2380:	0001                	nop
    2382:	0026365b          	0x26365b
    2386:	7680                	flw	fs0,40(a3)
    2388:	0026                	c.slli	zero,0x9
    238a:	0180                	addi	s0,sp,192
    238c:	5b00                	lw	s0,48(a4)
    238e:	268a                	fld	fa3,128(sp)
    2390:	8000                	0x8000
    2392:	268c                	fld	fa1,8(a3)
    2394:	8000                	0x8000
    2396:	0001                	nop
    2398:	00268c5b          	0x268c5b
    239c:	a880                	fsd	fs0,16(s1)
    239e:	0026                	c.slli	zero,0x9
    23a0:	0180                	addi	s0,sp,192
    23a2:	5e00                	lw	s0,56(a2)
    23a4:	26a8                	fld	fa0,72(a3)
    23a6:	8000                	0x8000
    23a8:	26b8                	fld	fa4,72(a3)
    23aa:	8000                	0x8000
    23ac:	0001                	nop
    23ae:	0026ba5b          	0x26ba5b
    23b2:	d880                	sw	s0,48(s1)
    23b4:	0026                	c.slli	zero,0x9
    23b6:	0180                	addi	s0,sp,192
    23b8:	5b00                	lw	s0,48(a4)
    23ba:	26e2                	fld	fa3,24(sp)
    23bc:	8000                	0x8000
    23be:	26ec                	fld	fa1,200(a3)
    23c0:	8000                	0x8000
    23c2:	0001                	nop
    23c4:	0026ec5b          	0x26ec5b
    23c8:	f080                	fsw	fs0,32(s1)
    23ca:	0026                	c.slli	zero,0x9
    23cc:	0180                	addi	s0,sp,192
    23ce:	6c00                	flw	fs0,24(s0)
    23d0:	26f0                	fld	fa2,200(a3)
    23d2:	8000                	0x8000
    23d4:	26fa                	fld	fa3,408(sp)
    23d6:	8000                	0x8000
    23d8:	0001                	nop
    23da:	005e                	c.slli	zero,0x17
    23dc:	0000                	unimp
    23de:	0000                	unimp
    23e0:	0000                	unimp
    23e2:	6400                	flw	fs0,8(s0)
    23e4:	0025                	c.nop	9
    23e6:	6c80                	flw	fs0,24(s1)
    23e8:	0025                	c.nop	9
    23ea:	0180                	addi	s0,sp,192
    23ec:	6000                	flw	fs0,0(s0)
    23ee:	256c                	fld	fa1,200(a0)
    23f0:	8000                	0x8000
    23f2:	2570                	fld	fa2,200(a0)
    23f4:	8000                	0x8000
    23f6:	0006                	c.slli	zero,0x1
    23f8:	008c                	addi	a1,sp,64
    23fa:	008d                	addi	ra,ra,3
    23fc:	9f25                	0x9f25
    23fe:	261c                	fld	fa5,8(a2)
    2400:	8000                	0x8000
    2402:	2642                	fld	fa2,16(sp)
    2404:	8000                	0x8000
    2406:	0001                	nop
    2408:	005e                	c.slli	zero,0x17
    240a:	0000                	unimp
    240c:	0000                	unimp
    240e:	0000                	unimp
    2410:	6000                	flw	fs0,0(s0)
    2412:	0024                	addi	s1,sp,8
    2414:	6e80                	flw	fs0,24(a3)
    2416:	0024                	addi	s1,sp,8
    2418:	0280                	addi	s0,sp,320
    241a:	3100                	fld	fs0,32(a0)
    241c:	009f 0000 0000      	0x9f
    2422:	0000                	unimp
    2424:	6e00                	flw	fs0,24(a2)
    2426:	0024                	addi	s1,sp,8
    2428:	7480                	flw	fs0,40(s1)
    242a:	0024                	addi	s1,sp,8
    242c:	0280                	addi	s0,sp,320
    242e:	3000                	fld	fs0,32(s0)
    2430:	b49f 0024 bc80      	0xbc800024b49f
    2436:	0024                	addi	s1,sp,8
    2438:	0280                	addi	s0,sp,320
    243a:	3100                	fld	fs0,32(a0)
    243c:	9e9f 0026 b880      	0xb88000269e9f
    2442:	0026                	c.slli	zero,0x9
    2444:	0280                	addi	s0,sp,320
    2446:	3000                	fld	fs0,32(s0)
    2448:	009f 0000 0000      	0x9f
    244e:	0000                	unimp
    2450:	3200                	fld	fs0,32(a2)
    2452:	0025                	c.nop	9
    2454:	1480                	addi	s0,sp,608
    2456:	0026                	c.slli	zero,0x9
    2458:	0180                	addi	s0,sp,192
    245a:	6d00                	flw	fs0,24(a0)
    245c:	2614                	fld	fa3,8(a2)
    245e:	8000                	0x8000
    2460:	262c                	fld	fa1,72(a2)
    2462:	8000                	0x8000
    2464:	0001                	nop
    2466:	8c5f 0026 ac80      	0xac8000268c5f
    246c:	0026                	c.slli	zero,0x9
    246e:	0180                	addi	s0,sp,192
    2470:	6d00                	flw	fs0,24(a0)
    2472:	26d8                	fld	fa4,136(a3)
    2474:	8000                	0x8000
    2476:	26ec                	fld	fa1,200(a3)
    2478:	8000                	0x8000
    247a:	0001                	nop
    247c:	f06d                	bnez	s0,245e <_tbss_end+0x241a>
    247e:	0026                	c.slli	zero,0x9
    2480:	fa80                	fsw	fs0,48(a3)
    2482:	0026                	c.slli	zero,0x9
    2484:	0180                	addi	s0,sp,192
    2486:	6d00                	flw	fs0,24(a0)
	...
    2490:	23aa                	fld	ft7,136(sp)
    2492:	8000                	0x8000
    2494:	2420                	fld	fs0,72(s0)
    2496:	8000                	0x8000
    2498:	0001                	nop
    249a:	5261                	li	tp,-8
    249c:	0024                	addi	s1,sp,8
    249e:	7480                	flw	fs0,40(s1)
    24a0:	0024                	addi	s1,sp,8
    24a2:	0180                	addi	s0,sp,192
    24a4:	5600                	lw	s0,40(a2)
    24a6:	24a8                	fld	fa0,72(s1)
    24a8:	8000                	0x8000
    24aa:	2500                	fld	fs0,8(a0)
    24ac:	8000                	0x8000
    24ae:	0001                	nop
    24b0:	3261                	jal	1e38 <_tbss_end+0x1df4>
    24b2:	0025                	c.nop	9
    24b4:	1480                	addi	s0,sp,608
    24b6:	0026                	c.slli	zero,0x9
    24b8:	0180                	addi	s0,sp,192
    24ba:	5600                	lw	s0,40(a2)
    24bc:	2614                	fld	fa3,8(a2)
    24be:	8000                	0x8000
    24c0:	268c                	fld	fa1,8(a3)
    24c2:	8000                	0x8000
    24c4:	0001                	nop
    24c6:	8c61                	and	s0,s0,s0
    24c8:	0026                	c.slli	zero,0x9
    24ca:	b880                	fsd	fs0,48(s1)
    24cc:	0026                	c.slli	zero,0x9
    24ce:	0180                	addi	s0,sp,192
    24d0:	5600                	lw	s0,40(a2)
    24d2:	26d8                	fld	fa4,136(a3)
    24d4:	8000                	0x8000
    24d6:	26ec                	fld	fa1,200(a3)
    24d8:	8000                	0x8000
    24da:	0001                	nop
    24dc:	ec56                	fsw	fs5,24(sp)
    24de:	0026                	c.slli	zero,0x9
    24e0:	f080                	fsw	fs0,32(s1)
    24e2:	0026                	c.slli	zero,0x9
    24e4:	0180                	addi	s0,sp,192
    24e6:	6100                	flw	fs0,0(a0)
    24e8:	26f0                	fld	fa2,200(a3)
    24ea:	8000                	0x8000
    24ec:	26fa                	fld	fa3,408(sp)
    24ee:	8000                	0x8000
    24f0:	0001                	nop
    24f2:	0056                	c.slli	zero,0x15
    24f4:	0000                	unimp
    24f6:	0000                	unimp
    24f8:	0000                	unimp
    24fa:	7c00                	flw	fs0,56(s0)
    24fc:	c6800023          	sb	s0,-928(zero) # fffffc60 <__global_pointer$+0x6ffff460>
    2500:	01800023          	sb	s8,0(zero) # 0 <_tdata_begin>
    2504:	5c00                	lw	s0,56(s0)
    2506:	2522                	fld	fa0,8(sp)
    2508:	8000                	0x8000
    250a:	2532                	fld	fa0,264(sp)
    250c:	8000                	0x8000
    250e:	0001                	nop
    2510:	d05c                	sw	a5,36(s0)
    2512:	0026                	c.slli	zero,0x9
    2514:	d880                	sw	s0,48(s1)
    2516:	0026                	c.slli	zero,0x9
    2518:	0180                	addi	s0,sp,192
    251a:	5c00                	lw	s0,56(s0)
	...
    2524:	2392                	fld	ft7,256(sp)
    2526:	8000                	0x8000
    2528:	23a6                	fld	ft7,72(sp)
    252a:	8000                	0x8000
    252c:	0001                	nop
    252e:	005f 0000 0000      	0x5f
    2534:	0000                	unimp
    2536:	c600                	sw	s0,8(a2)
    2538:	0a800023          	sb	s0,160(zero) # a0 <_tbss_end+0x5c>
    253c:	0024                	addi	s1,sp,8
    253e:	0180                	addi	s0,sp,192
    2540:	5c00                	lw	s0,56(s0)
    2542:	26ec                	fld	fa1,200(a3)
    2544:	8000                	0x8000
    2546:	26f0                	fld	fa2,200(a3)
    2548:	8000                	0x8000
    254a:	0001                	nop
    254c:	005c                	addi	a5,sp,4
    254e:	0000                	unimp
    2550:	0000                	unimp
    2552:	0000                	unimp
    2554:	d000                	sw	s0,32(s0)
    2556:	02800023          	sb	s0,32(zero) # 20 <_tdata_begin+0x20>
    255a:	0024                	addi	s1,sp,8
    255c:	0180                	addi	s0,sp,192
    255e:	5a00                	lw	s0,48(a2)
    2560:	2402                	fld	fs0,0(sp)
    2562:	8000                	0x8000
    2564:	240a                	fld	fs0,128(sp)
    2566:	8000                	0x8000
    2568:	00800007          	0x800007
    256c:	2440                	fld	fs0,136(s0)
    256e:	2540                	fld	fs0,136(a0)
    2570:	ec9f 0026 f080      	0xf0800026ec9f
    2576:	0026                	c.slli	zero,0x9
    2578:	0180                	addi	s0,sp,192
    257a:	5a00                	lw	s0,48(a2)
	...
    2584:	23d8                	fld	fa4,128(a5)
    2586:	8000                	0x8000
    2588:	23e4                	fld	fs1,192(a5)
    258a:	8000                	0x8000
    258c:	000c                	0xc
    258e:	008c                	addi	a1,sp,64
    2590:	007c2cf7          	0x7c2cf7
    2594:	f71b2cf7          	0xf71b2cf7
    2598:	9f00                	0x9f00
    259a:	23e4                	fld	fs1,192(a5)
    259c:	8000                	0x8000
    259e:	23ee                	fld	ft7,216(sp)
    25a0:	8000                	0x8000
    25a2:	000e                	c.slli	zero,0x3
    25a4:	008c                	addi	a1,sp,64
    25a6:	007c2cf7          	0x7c2cf7
    25aa:	f71b2cf7          	0xf71b2cf7
    25ae:	3100                	fld	fs0,32(a0)
    25b0:	9f1c                	0x9f1c
    25b2:	26ec                	fld	fa1,200(a3)
    25b4:	8000                	0x8000
    25b6:	26f0                	fld	fa2,200(a3)
    25b8:	8000                	0x8000
    25ba:	000e                	c.slli	zero,0x3
    25bc:	008c                	addi	a1,sp,64
    25be:	007c2cf7          	0x7c2cf7
    25c2:	f71b2cf7          	0xf71b2cf7
    25c6:	3200                	fld	fs0,32(a2)
    25c8:	9f1c                	0x9f1c
	...
    25d2:	23d8                	fld	fa4,128(a5)
    25d4:	8000                	0x8000
    25d6:	23de                	fld	ft7,464(sp)
    25d8:	8000                	0x8000
    25da:	0001                	nop
    25dc:	de5d                	beqz	a2,259a <_tbss_end+0x2556>
    25de:	e0800023          	sb	s0,-512(zero) # fffffe00 <__global_pointer$+0x6ffff600>
    25e2:	06800023          	sb	s0,96(zero) # 60 <_tbss_end+0x1c>
    25e6:	8c00                	0x8c00
    25e8:	7c00                	flw	fs0,56(s0)
    25ea:	1d00                	addi	s0,sp,688
    25ec:	e09f 0023 fe80      	0xfe800023e09f
    25f2:	01800023          	sb	s8,0(zero) # 0 <_tdata_begin>
    25f6:	5e00                	lw	s0,56(a2)
    25f8:	26ec                	fld	fa1,200(a3)
    25fa:	8000                	0x8000
    25fc:	26f0                	fld	fa2,200(a3)
    25fe:	8000                	0x8000
    2600:	0001                	nop
    2602:	005e                	c.slli	zero,0x17
    2604:	0000                	unimp
    2606:	0000                	unimp
    2608:	0000                	unimp
    260a:	fe00                	fsw	fs0,56(a2)
    260c:	04800023          	sb	s0,64(zero) # 40 <buflen.2811>
    2610:	0024                	addi	s1,sp,8
    2612:	0180                	addi	s0,sp,192
    2614:	5e00                	lw	s0,56(a2)
    2616:	2406                	fld	fs0,64(sp)
    2618:	8000                	0x8000
    261a:	240a                	fld	fs0,128(sp)
    261c:	8000                	0x8000
    261e:	0001                	nop
    2620:	005f 0000 0000      	0x5f
    2626:	0000                	unimp
    2628:	dc00                	sw	s0,56(s0)
    262a:	f8800023          	sb	s0,-128(zero) # ffffff80 <__global_pointer$+0x6ffff780>
    262e:	01800023          	sb	s8,0(zero) # 0 <_tdata_begin>
    2632:	5f00                	lw	s0,56(a4)
    2634:	23f8                	fld	fa4,192(a5)
    2636:	8000                	0x8000
    2638:	2402                	fld	fs0,0(sp)
    263a:	8000                	0x8000
    263c:	008c000f          	0x8c000f
    2640:	007c2cf7          	0x7c2cf7
    2644:	f71b2cf7          	0xf71b2cf7
    2648:	7a00                	flw	fs0,48(a2)
    264a:	1e00                	addi	s0,sp,816
    264c:	029f 0024 0a80      	0xa800024029f
    2652:	0024                	addi	s1,sp,8
    2654:	0180                	addi	s0,sp,192
    2656:	5a00                	lw	s0,48(a2)
    2658:	26ec                	fld	fa1,200(a3)
    265a:	8000                	0x8000
    265c:	26f0                	fld	fa2,200(a3)
    265e:	8000                	0x8000
    2660:	0001                	nop
    2662:	005f 0000 0000      	0x5f
    2668:	0000                	unimp
    266a:	bc00                	fsd	fs0,56(s0)
    266c:	0024                	addi	s1,sp,8
    266e:	0080                	addi	s0,sp,64
    2670:	0025                	c.nop	9
    2672:	0580                	addi	s0,sp,704
    2674:	8000                	0x8000
    2676:	4000                	lw	s0,0(s0)
    2678:	9f25                	0x9f25
	...
    2682:	24bc                	fld	fa5,72(s1)
    2684:	8000                	0x8000
    2686:	2500                	fld	fs0,8(a0)
    2688:	8000                	0x8000
    268a:	00800007          	0x800007
    268e:	ff0a                	fsw	ft2,188(sp)
    2690:	1aff                	0x1aff
    2692:	009f 0000 0000      	0x9f
    2698:	0000                	unimp
    269a:	c800                	sw	s0,16(s0)
    269c:	0024                	addi	s1,sp,8
    269e:	ce80                	sw	s0,24(a3)
    26a0:	0024                	addi	s1,sp,8
    26a2:	0180                	addi	s0,sp,192
    26a4:	5b00                	lw	s0,48(a4)
    26a6:	24d0                	fld	fa2,136(s1)
    26a8:	8000                	0x8000
    26aa:	24f0                	fld	fa2,200(s1)
    26ac:	8000                	0x8000
    26ae:	0001                	nop
    26b0:	005e                	c.slli	zero,0x17
    26b2:	0000                	unimp
    26b4:	0000                	unimp
    26b6:	0000                	unimp
    26b8:	0c00                	addi	s0,sp,528
    26ba:	0024                	addi	s1,sp,8
    26bc:	1a80                	addi	s0,sp,368
    26be:	0024                	addi	s1,sp,8
    26c0:	0180                	addi	s0,sp,192
    26c2:	5f00                	lw	s0,56(a4)
    26c4:	241a                	fld	fs0,384(sp)
    26c6:	8000                	0x8000
    26c8:	241e                	fld	fs0,448(sp)
    26ca:	8000                	0x8000
    26cc:	0001                	nop
    26ce:	f05a                	fsw	fs6,32(sp)
    26d0:	0024                	addi	s1,sp,8
    26d2:	f680                	fsw	fs0,40(a3)
    26d4:	0024                	addi	s1,sp,8
    26d6:	0180                	addi	s0,sp,192
    26d8:	5e00                	lw	s0,56(a2)
    26da:	24fa                	fld	fs1,408(sp)
    26dc:	8000                	0x8000
    26de:	2500                	fld	fs0,8(a0)
    26e0:	8000                	0x8000
    26e2:	0001                	nop
    26e4:	005f 0000 0000      	0x5f
    26ea:	0000                	unimp
    26ec:	cc00                	sw	s0,24(s0)
    26ee:	0024                	addi	s1,sp,8
    26f0:	f480                	fsw	fs0,40(s1)
    26f2:	0024                	addi	s1,sp,8
    26f4:	0180                	addi	s0,sp,192
    26f6:	5d00                	lw	s0,56(a0)
    26f8:	24f4                	fld	fa3,200(s1)
    26fa:	8000                	0x8000
    26fc:	2500                	fld	fs0,8(a0)
    26fe:	8000                	0x8000
    2700:	0001                	nop
    2702:	005a                	c.slli	zero,0x16
    2704:	0000                	unimp
    2706:	0000                	unimp
    2708:	0000                	unimp
    270a:	2600                	fld	fs0,8(a2)
    270c:	0024                	addi	s1,sp,8
    270e:	6a80                	flw	fs0,16(a3)
    2710:	0024                	addi	s1,sp,8
    2712:	0180                	addi	s0,sp,192
    2714:	5d00                	lw	s0,56(a0)
    2716:	2500                	fld	fs0,8(a0)
    2718:	8000                	0x8000
    271a:	2510                	fld	fa2,8(a0)
    271c:	8000                	0x8000
    271e:	0001                	nop
    2720:	325d                	jal	20c6 <_tbss_end+0x2082>
    2722:	0025                	c.nop	9
    2724:	3a80                	fld	fs0,48(a3)
    2726:	0025                	c.nop	9
    2728:	0180                	addi	s0,sp,192
    272a:	5d00                	lw	s0,56(a0)
    272c:	26ba                	fld	fa3,392(sp)
    272e:	8000                	0x8000
    2730:	26c8                	fld	fa0,136(a3)
    2732:	8000                	0x8000
    2734:	0001                	nop
    2736:	005d                	c.nop	23
    2738:	0000                	unimp
    273a:	0000                	unimp
    273c:	0000                	unimp
    273e:	3a00                	fld	fs0,48(a2)
    2740:	0024                	addi	s1,sp,8
    2742:	7480                	flw	fs0,40(s1)
    2744:	0024                	addi	s1,sp,8
    2746:	0180                	addi	s0,sp,192
    2748:	5e00                	lw	s0,56(a2)
    274a:	2532                	fld	fa0,264(sp)
    274c:	8000                	0x8000
    274e:	2546                	fld	fa0,80(sp)
    2750:	8000                	0x8000
    2752:	0001                	nop
    2754:	005e                	c.slli	zero,0x17
    2756:	0000                	unimp
    2758:	0000                	unimp
    275a:	0000                	unimp
    275c:	6400                	flw	fs0,8(s0)
    275e:	0024                	addi	s1,sp,8
    2760:	6e80                	flw	fs0,24(a3)
    2762:	0024                	addi	s1,sp,8
    2764:	0180                	addi	s0,sp,192
    2766:	6000                	flw	fs0,0(s0)
	...
    2770:	247c                	fld	fa5,200(s0)
    2772:	8000                	0x8000
    2774:	24bc                	fld	fa5,72(s1)
    2776:	8000                	0x8000
    2778:	0001                	nop
    277a:	1060                	addi	s0,sp,44
    277c:	0025                	c.nop	9
    277e:	1a80                	addi	s0,sp,368
    2780:	0025                	c.nop	9
    2782:	0180                	addi	s0,sp,192
    2784:	6000                	flw	fs0,0(s0)
    2786:	251a                	fld	fa0,384(sp)
    2788:	8000                	0x8000
    278a:	251e                	fld	fa0,448(sp)
    278c:	8000                	0x8000
    278e:	0001                	nop
    2790:	1e5d                	addi	t3,t3,-9
    2792:	0025                	c.nop	9
    2794:	2280                	fld	fs0,0(a3)
    2796:	0025                	c.nop	9
    2798:	0180                	addi	s0,sp,192
    279a:	6000                	flw	fs0,0(s0)
    279c:	2614                	fld	fa3,8(a2)
    279e:	8000                	0x8000
    27a0:	2618                	fld	fa4,8(a2)
    27a2:	8000                	0x8000
    27a4:	0001                	nop
    27a6:	c860                	sw	s0,84(s0)
    27a8:	0026                	c.slli	zero,0x9
    27aa:	d080                	sw	s0,32(s1)
    27ac:	0026                	c.slli	zero,0x9
    27ae:	0180                	addi	s0,sp,192
    27b0:	6000                	flw	fs0,0(s0)
	...
    27ba:	2490                	fld	fa2,8(s1)
    27bc:	8000                	0x8000
    27be:	24a4                	fld	fs1,72(s1)
    27c0:	8000                	0x8000
    27c2:	0001                	nop
    27c4:	005f 0000 0000      	0x5f
    27ca:	0000                	unimp
    27cc:	0200                	addi	s0,sp,256
    27ce:	0026                	c.slli	zero,0x9
    27d0:	1480                	addi	s0,sp,608
    27d2:	0026                	c.slli	zero,0x9
    27d4:	0180                	addi	s0,sp,192
    27d6:	6100                	flw	fs0,0(a0)
    27d8:	268c                	fld	fa1,8(a3)
    27da:	8000                	0x8000
    27dc:	2694                	fld	fa3,8(a3)
    27de:	8000                	0x8000
    27e0:	0001                	nop
    27e2:	9461                	srai	s0,s0,0x38
    27e4:	0026                	c.slli	zero,0x9
    27e6:	9880                	0x9880
    27e8:	0026                	c.slli	zero,0x9
    27ea:	1480                	addi	s0,sp,608
    27ec:	7b00                	flw	fs0,48(a4)
    27ee:	7c00                	flw	fs0,56(s0)
    27f0:	4000                	lw	s0,0(s0)
    27f2:	7f22244b          	fnmsub.q	fs0,ft4,fs2,fa5,rdn
    27f6:	4000                	lw	s0,0(s0)
    27f8:	2d22244b          	0x2d22244b
    27fc:	ff08                	fsw	fa0,56(a4)
    27fe:	1c1a                	slli	s8,s8,0x26
    2800:	f09f 0026 fa80      	0xfa800026f09f
    2806:	0026                	c.slli	zero,0x9
    2808:	0180                	addi	s0,sp,192
    280a:	6100                	flw	fs0,0(a0)
	...
    2814:	2604                	fld	fs1,8(a2)
    2816:	8000                	0x8000
    2818:	2614                	fld	fa3,8(a2)
    281a:	8000                	0x8000
    281c:	0001                	nop
    281e:	8c5c                	0x8c5c
    2820:	0026                	c.slli	zero,0x9
    2822:	9480                	0x9480
    2824:	0026                	c.slli	zero,0x9
    2826:	0180                	addi	s0,sp,192
    2828:	5c00                	lw	s0,56(s0)
    282a:	2694                	fld	fa3,8(a3)
    282c:	8000                	0x8000
    282e:	26a2                	fld	fa3,8(sp)
    2830:	8000                	0x8000
    2832:	0001                	nop
    2834:	f05f 0026 fa80      	0xfa800026f05f
    283a:	0026                	c.slli	zero,0x9
    283c:	0180                	addi	s0,sp,192
    283e:	5c00                	lw	s0,56(s0)
	...
    2848:	2568                	fld	fa0,200(a0)
    284a:	8000                	0x8000
    284c:	259e                	fld	fa1,448(sp)
    284e:	8000                	0x8000
    2850:	0001                	nop
    2852:	9e5e                	add	t3,t3,s7
    2854:	0025                	c.nop	9
    2856:	1480                	addi	s0,sp,608
    2858:	0026                	c.slli	zero,0x9
    285a:	0580                	addi	s0,sp,704
    285c:	7d00                	flw	fs0,56(a0)
    285e:	4000                	lw	s0,0(s0)
    2860:	9f25                	0x9f25
    2862:	268c                	fld	fa1,8(a3)
    2864:	8000                	0x8000
    2866:	26b8                	fld	fa4,72(a3)
    2868:	8000                	0x8000
    286a:	0005                	c.nop	1
    286c:	007d                	c.nop	31
    286e:	2540                	fld	fs0,136(a0)
    2870:	d89f 0026 e280      	0xe2800026d89f
    2876:	0026                	c.slli	zero,0x9
    2878:	0580                	addi	s0,sp,704
    287a:	7d00                	flw	fs0,56(a0)
    287c:	4000                	lw	s0,0(s0)
    287e:	9f25                	0x9f25
    2880:	26e2                	fld	fa3,24(sp)
    2882:	8000                	0x8000
    2884:	26ec                	fld	fa1,200(a3)
    2886:	8000                	0x8000
    2888:	0001                	nop
    288a:	f05e                	fsw	fs7,32(sp)
    288c:	0026                	c.slli	zero,0x9
    288e:	fa80                	fsw	fs0,48(a3)
    2890:	0026                	c.slli	zero,0x9
    2892:	0580                	addi	s0,sp,704
    2894:	7d00                	flw	fs0,56(a0)
    2896:	4000                	lw	s0,0(s0)
    2898:	9f25                	0x9f25
	...
    28a2:	2568                	fld	fa0,200(a0)
    28a4:	8000                	0x8000
    28a6:	259a                	fld	fa1,384(sp)
    28a8:	8000                	0x8000
    28aa:	0001                	nop
    28ac:	9a6e                	add	s4,s4,s11
    28ae:	0025                	c.nop	9
    28b0:	1480                	addi	s0,sp,608
    28b2:	0026                	c.slli	zero,0x9
    28b4:	0780                	addi	s0,sp,960
    28b6:	7d00                	flw	fs0,56(a0)
    28b8:	4000                	lw	s0,0(s0)
    28ba:	4024                	lw	s1,64(s0)
    28bc:	9f25                	0x9f25
    28be:	268c                	fld	fa1,8(a3)
    28c0:	8000                	0x8000
    28c2:	26b8                	fld	fa4,72(a3)
    28c4:	8000                	0x8000
    28c6:	007d0007          	0x7d0007
    28ca:	2440                	fld	fs0,136(s0)
    28cc:	2540                	fld	fs0,136(a0)
    28ce:	d89f 0026 e280      	0xe2800026d89f
    28d4:	0026                	c.slli	zero,0x9
    28d6:	0780                	addi	s0,sp,960
    28d8:	7d00                	flw	fs0,56(a0)
    28da:	4000                	lw	s0,0(s0)
    28dc:	4024                	lw	s1,64(s0)
    28de:	9f25                	0x9f25
    28e0:	26e2                	fld	fa3,24(sp)
    28e2:	8000                	0x8000
    28e4:	26ec                	fld	fa1,200(a3)
    28e6:	8000                	0x8000
    28e8:	0001                	nop
    28ea:	f06e                	fsw	fs11,32(sp)
    28ec:	0026                	c.slli	zero,0x9
    28ee:	fa80                	fsw	fs0,48(a3)
    28f0:	0026                	c.slli	zero,0x9
    28f2:	0780                	addi	s0,sp,960
    28f4:	7d00                	flw	fs0,56(a0)
    28f6:	4000                	lw	s0,0(s0)
    28f8:	4024                	lw	s1,64(s0)
    28fa:	9f25                	0x9f25
	...
    2904:	256c                	fld	fa1,200(a0)
    2906:	8000                	0x8000
    2908:	2580                	fld	fs0,8(a1)
    290a:	8000                	0x8000
    290c:	0001                	nop
    290e:	8061                	srli	s0,s0,0x18
    2910:	0025                	c.nop	9
    2912:	8680                	0x8680
    2914:	0025                	c.nop	9
    2916:	0180                	addi	s0,sp,192
    2918:	6000                	flw	fs0,0(s0)
    291a:	2586                	fld	fa1,64(sp)
    291c:	8000                	0x8000
    291e:	25b2                	fld	fa1,264(sp)
    2920:	8000                	0x8000
    2922:	0001                	nop
    2924:	d861                	beqz	s0,28f4 <_tbss_end+0x28b0>
    2926:	0026                	c.slli	zero,0x9
    2928:	e280                	fsw	fs0,0(a3)
    292a:	0026                	c.slli	zero,0x9
    292c:	0180                	addi	s0,sp,192
    292e:	6100                	flw	fs0,0(a0)
    2930:	26e2                	fld	fa3,24(sp)
    2932:	8000                	0x8000
    2934:	26e8                	fld	fa0,200(a3)
    2936:	8000                	0x8000
    2938:	0001                	nop
    293a:	e860                	fsw	fs0,84(s0)
    293c:	0026                	c.slli	zero,0x9
    293e:	ec80                	fsw	fs0,24(s1)
    2940:	0026                	c.slli	zero,0x9
    2942:	0180                	addi	s0,sp,192
    2944:	6100                	flw	fs0,0(a0)
	...
    294e:	2596                	fld	fa1,320(sp)
    2950:	8000                	0x8000
    2952:	25aa                	fld	fa1,136(sp)
    2954:	8000                	0x8000
    2956:	0001                	nop
    2958:	aa60                	fsd	fs0,208(a2)
    295a:	0025                	c.nop	9
    295c:	b080                	fsd	fs0,32(s1)
    295e:	0025                	c.nop	9
    2960:	0180                	addi	s0,sp,192
    2962:	5c00                	lw	s0,56(s0)
    2964:	25b0                	fld	fa2,72(a1)
    2966:	8000                	0x8000
    2968:	25bc                	fld	fa5,72(a1)
    296a:	8000                	0x8000
    296c:	0001                	nop
    296e:	d860                	sw	s0,116(s0)
    2970:	0026                	c.slli	zero,0x9
    2972:	de80                	sw	s0,56(a3)
    2974:	0026                	c.slli	zero,0x9
    2976:	0180                	addi	s0,sp,192
    2978:	5c00                	lw	s0,56(s0)
    297a:	26de                	fld	fa3,464(sp)
    297c:	8000                	0x8000
    297e:	26e2                	fld	fa3,24(sp)
    2980:	8000                	0x8000
    2982:	0001                	nop
    2984:	0060                	addi	s0,sp,12
    2986:	0000                	unimp
    2988:	0000                	unimp
    298a:	0000                	unimp
    298c:	6c00                	flw	fs0,24(s0)
    298e:	0025                	c.nop	9
    2990:	7280                	flw	fs0,32(a3)
    2992:	0025                	c.nop	9
    2994:	0180                	addi	s0,sp,192
    2996:	6000                	flw	fs0,0(s0)
    2998:	2576                	fld	fa0,344(sp)
    299a:	8000                	0x8000
    299c:	257c                	fld	fa5,200(a0)
    299e:	8000                	0x8000
    29a0:	0001                	nop
    29a2:	7c5c                	flw	fa5,60(s0)
    29a4:	0025                	c.nop	9
    29a6:	8080                	0x8080
    29a8:	0025                	c.nop	9
    29aa:	0680                	addi	s0,sp,832
    29ac:	8000                	0x8000
    29ae:	8f00                	0x8f00
    29b0:	2100                	fld	fs0,0(a0)
    29b2:	809f 0025 9680      	0x96800025809f
    29b8:	0025                	c.nop	9
    29ba:	0180                	addi	s0,sp,192
    29bc:	5c00                	lw	s0,56(s0)
    29be:	26e2                	fld	fa3,24(sp)
    29c0:	8000                	0x8000
    29c2:	26ec                	fld	fa1,200(a3)
    29c4:	8000                	0x8000
    29c6:	0001                	nop
    29c8:	005c                	addi	a5,sp,4
    29ca:	0000                	unimp
    29cc:	0000                	unimp
    29ce:	0000                	unimp
    29d0:	9600                	0x9600
    29d2:	0025                	c.nop	9
    29d4:	a080                	fsd	fs0,0(s1)
    29d6:	0025                	c.nop	9
    29d8:	0180                	addi	s0,sp,192
    29da:	5c00                	lw	s0,56(s0)
    29dc:	25a0                	fld	fs0,72(a1)
    29de:	8000                	0x8000
    29e0:	25a6                	fld	fa1,72(sp)
    29e2:	8000                	0x8000
    29e4:	0001                	nop
    29e6:	a65e                	fsd	fs7,264(sp)
    29e8:	0025                	c.nop	9
    29ea:	aa80                	fsd	fs0,16(a3)
    29ec:	0025                	c.nop	9
    29ee:	0880                	addi	s0,sp,80
    29f0:	7c00                	flw	fs0,56(s0)
    29f2:	4000                	lw	s0,0(s0)
    29f4:	7b24                	flw	fs1,112(a4)
    29f6:	2100                	fld	fs0,0(a0)
    29f8:	aa9f 0025 1480      	0x14800025aa9f
    29fe:	0026                	c.slli	zero,0x9
    2a00:	0180                	addi	s0,sp,192
    2a02:	5e00                	lw	s0,56(a2)
    2a04:	268c                	fld	fa1,8(a3)
    2a06:	8000                	0x8000
    2a08:	26b8                	fld	fa4,72(a3)
    2a0a:	8000                	0x8000
    2a0c:	0001                	nop
    2a0e:	d85e                	sw	s7,48(sp)
    2a10:	0026                	c.slli	zero,0x9
    2a12:	e280                	fsw	fs0,0(a3)
    2a14:	0026                	c.slli	zero,0x9
    2a16:	0180                	addi	s0,sp,192
    2a18:	5e00                	lw	s0,56(a2)
    2a1a:	26f0                	fld	fa2,200(a3)
    2a1c:	8000                	0x8000
    2a1e:	26fa                	fld	fa3,408(sp)
    2a20:	8000                	0x8000
    2a22:	0001                	nop
    2a24:	005e                	c.slli	zero,0x17
    2a26:	0000                	unimp
    2a28:	0000                	unimp
    2a2a:	0000                	unimp
    2a2c:	7000                	flw	fs0,32(s0)
    2a2e:	0025                	c.nop	9
    2a30:	9a80                	0x9a80
    2a32:	0025                	c.nop	9
    2a34:	0180                	addi	s0,sp,192
    2a36:	6c00                	flw	fs0,24(s0)
    2a38:	259a                	fld	fa1,384(sp)
    2a3a:	8000                	0x8000
    2a3c:	2614                	fld	fa3,8(a2)
    2a3e:	8000                	0x8000
    2a40:	0001                	nop
    2a42:	8c6e                	mv	s8,s11
    2a44:	0026                	c.slli	zero,0x9
    2a46:	b880                	fsd	fs0,48(s1)
    2a48:	0026                	c.slli	zero,0x9
    2a4a:	0180                	addi	s0,sp,192
    2a4c:	6e00                	flw	fs0,24(a2)
    2a4e:	26d8                	fld	fa4,136(a3)
    2a50:	8000                	0x8000
    2a52:	26e2                	fld	fa3,24(sp)
    2a54:	8000                	0x8000
    2a56:	0001                	nop
    2a58:	e26e                	fsw	fs11,4(sp)
    2a5a:	0026                	c.slli	zero,0x9
    2a5c:	ec80                	fsw	fs0,24(s1)
    2a5e:	0026                	c.slli	zero,0x9
    2a60:	0180                	addi	s0,sp,192
    2a62:	6c00                	flw	fs0,24(s0)
    2a64:	26f0                	fld	fa2,200(a3)
    2a66:	8000                	0x8000
    2a68:	26fa                	fld	fa3,408(sp)
    2a6a:	8000                	0x8000
    2a6c:	0001                	nop
    2a6e:	006e                	c.slli	zero,0x1b
    2a70:	0000                	unimp
    2a72:	0000                	unimp
    2a74:	0000                	unimp
    2a76:	d400                	sw	s0,40(s0)
    2a78:	0025                	c.nop	9
    2a7a:	0080                	addi	s0,sp,64
    2a7c:	0026                	c.slli	zero,0x9
    2a7e:	0180                	addi	s0,sp,192
    2a80:	6f00                	flw	fs0,24(a4)
	...
    2a8a:	25e8                	fld	fa0,200(a1)
    2a8c:	8000                	0x8000
    2a8e:	25fa                	fld	fa1,408(sp)
    2a90:	8000                	0x8000
    2a92:	0001                	nop
    2a94:	fa5c                	fsw	fa5,52(a2)
    2a96:	0025                	c.nop	9
    2a98:	0080                	addi	s0,sp,64
    2a9a:	0026                	c.slli	zero,0x9
    2a9c:	0880                	addi	s0,sp,80
    2a9e:	8f00                	0x8f00
    2aa0:	4000                	lw	s0,0(s0)
    2aa2:	8c25                	xor	s0,s0,s1
    2aa4:	2200                	fld	fs0,0(a2)
    2aa6:	009f 0000 0000      	0x9f
    2aac:	0000                	unimp
    2aae:	d800                	sw	s0,48(s0)
    2ab0:	0025                	c.nop	9
    2ab2:	f080                	fsw	fs0,32(s1)
    2ab4:	0025                	c.nop	9
    2ab6:	0180                	addi	s0,sp,192
    2ab8:	6000                	flw	fs0,0(s0)
	...
    2ac2:	25e8                	fld	fa0,200(a1)
    2ac4:	8000                	0x8000
    2ac6:	2602                	fld	fa2,0(sp)
    2ac8:	8000                	0x8000
    2aca:	0001                	nop
    2acc:	0061                	c.nop	24
    2ace:	0000                	unimp
    2ad0:	0000                	unimp
    2ad2:	0000                	unimp
    2ad4:	d400                	sw	s0,40(s0)
    2ad6:	0025                	c.nop	9
    2ad8:	e080                	fsw	fs0,0(s1)
    2ada:	0025                	c.nop	9
    2adc:	0180                	addi	s0,sp,192
    2ade:	6c00                	flw	fs0,24(s0)
	...
    2ae8:	25d4                	fld	fa3,136(a1)
    2aea:	8000                	0x8000
    2aec:	25d8                	fld	fa4,136(a1)
    2aee:	8000                	0x8000
    2af0:	0001                	nop
    2af2:	d860                	sw	s0,116(s0)
    2af4:	0025                	c.nop	9
    2af6:	f280                	fsw	fs0,32(a3)
    2af8:	0025                	c.nop	9
    2afa:	0680                	addi	s0,sp,832
    2afc:	7500                	flw	fs0,40(a0)
    2afe:	7f7f                	0x7f7f
    2b00:	1a00                	addi	s0,sp,304
    2b02:	f29f 0025 1280      	0x12800025f29f
    2b08:	0026                	c.slli	zero,0x9
    2b0a:	0680                	addi	s0,sp,832
    2b0c:	7f00                	flw	fs0,56(a4)
    2b0e:	8000                	0x8000
    2b10:	1a00                	addi	s0,sp,304
    2b12:	8c9f 0026 9080      	0x908000268c9f
    2b18:	0026                	c.slli	zero,0x9
    2b1a:	0680                	addi	s0,sp,832
    2b1c:	7f00                	flw	fs0,56(a4)
    2b1e:	8000                	0x8000
    2b20:	1a00                	addi	s0,sp,304
    2b22:	f09f 0026 f680      	0xf6800026f09f
    2b28:	0026                	c.slli	zero,0x9
    2b2a:	0680                	addi	s0,sp,832
    2b2c:	7f00                	flw	fs0,56(a4)
    2b2e:	8000                	0x8000
    2b30:	1a00                	addi	s0,sp,304
    2b32:	009f 0000 0000      	0x9f
    2b38:	0000                	unimp
    2b3a:	d400                	sw	s0,40(s0)
    2b3c:	0025                	c.nop	9
    2b3e:	e880                	fsw	fs0,16(s1)
    2b40:	0025                	c.nop	9
    2b42:	0180                	addi	s0,sp,192
    2b44:	6100                	flw	fs0,0(a0)
	...
    2b4e:	2690                	fld	fa2,8(a3)
    2b50:	8000                	0x8000
    2b52:	269e                	fld	fa3,448(sp)
    2b54:	8000                	0x8000
    2b56:	0001                	nop
    2b58:	005f 0000 0000      	0x5f
    2b5e:	0000                	unimp
    2b60:	a200                	fsd	fs0,0(a2)
    2b62:	0026                	c.slli	zero,0x9
    2b64:	b880                	fsd	fs0,48(s1)
    2b66:	0026                	c.slli	zero,0x9
    2b68:	0180                	addi	s0,sp,192
    2b6a:	5f00                	lw	s0,56(a4)
	...
    2b74:	263e                	fld	fa2,456(sp)
    2b76:	8000                	0x8000
    2b78:	268c                	fld	fa1,8(a3)
    2b7a:	8000                	0x8000
    2b7c:	0001                	nop
    2b7e:	005c                	addi	a5,sp,4
    2b80:	0000                	unimp
    2b82:	0000                	unimp
    2b84:	0000                	unimp
    2b86:	3e00                	fld	fs0,56(a2)
    2b88:	0026                	c.slli	zero,0x9
    2b8a:	8c80                	0x8c80
    2b8c:	0026                	c.slli	zero,0x9
    2b8e:	0180                	addi	s0,sp,192
    2b90:	6c00                	flw	fs0,24(s0)
	...
    2b9a:	2642                	fld	fa2,16(sp)
    2b9c:	8000                	0x8000
    2b9e:	264e                	fld	fa2,208(sp)
    2ba0:	8000                	0x8000
    2ba2:	0001                	nop
    2ba4:	4e5e                	lw	t3,212(sp)
    2ba6:	0026                	c.slli	zero,0x9
    2ba8:	6e80                	flw	fs0,24(a3)
    2baa:	0026                	c.slli	zero,0x9
    2bac:	0180                	addi	s0,sp,192
    2bae:	5d00                	lw	s0,56(a0)
	...
    2bb8:	266e                	fld	fa2,216(sp)
    2bba:	8000                	0x8000
    2bbc:	2678                	fld	fa4,200(a2)
    2bbe:	8000                	0x8000
    2bc0:	0001                	nop
    2bc2:	785d                	lui	a6,0xffff7
    2bc4:	0026                	c.slli	zero,0x9
    2bc6:	8c80                	0x8c80
    2bc8:	0026                	c.slli	zero,0x9
    2bca:	0180                	addi	s0,sp,192
    2bcc:	5b00                	lw	s0,48(a4)
	...
    2bd6:	2646                	fld	fa2,80(sp)
    2bd8:	8000                	0x8000
    2bda:	2668                	fld	fa0,200(a2)
    2bdc:	8000                	0x8000
    2bde:	0001                	nop
    2be0:	725f 0026 8c80      	0x8c800026725f
    2be6:	0026                	c.slli	zero,0x9
    2be8:	0180                	addi	s0,sp,192
    2bea:	5e00                	lw	s0,56(a2)
	...

Disassembly of section .debug_aranges:

00000000 <.debug_aranges>:
   0:	001c                	0x1c
   2:	0000                	unimp
   4:	0002                	c.slli	zero,0x0
   6:	0000                	unimp
   8:	0000                	unimp
   a:	0004                	0x4
   c:	0000                	unimp
   e:	0000                	unimp
  10:	1bfa                	slli	s7,s7,0x3e
  12:	8000                	0x8000
  14:	03d2                	slli	t2,t2,0x14
	...
  1e:	0000                	unimp
  20:	001c                	0x1c
  22:	0000                	unimp
  24:	0002                	c.slli	zero,0x0
  26:	000008db          	0x8db
  2a:	0004                	0x4
  2c:	0000                	unimp
  2e:	0000                	unimp
  30:	1fcc                	addi	a1,sp,1012
  32:	8000                	0x8000
  34:	03a2                	slli	t2,t2,0x8
	...
  3e:	0000                	unimp
  40:	001c                	0x1c
  42:	0000                	unimp
  44:	0002                	c.slli	zero,0x0
  46:	1145                	addi	sp,sp,-15
  48:	0000                	unimp
  4a:	0004                	0x4
  4c:	0000                	unimp
  4e:	0000                	unimp
  50:	236e                	fld	ft6,216(sp)
  52:	8000                	0x8000
  54:	038c                	addi	a1,sp,448
	...
  5e:	0000                	unimp
  60:	0014                	0x14
  62:	0000                	unimp
  64:	0002                	c.slli	zero,0x0
  66:	19f4                	addi	a3,sp,252
  68:	0000                	unimp
  6a:	0004                	0x4
	...

Disassembly of section .debug_ranges:

00000000 <.debug_ranges>:
   0:	1c12                	slli	s8,s8,0x24
   2:	8000                	0x8000
   4:	1cb8                	addi	a4,sp,632
   6:	8000                	0x8000
   8:	1ccc                	addi	a1,sp,628
   a:	8000                	0x8000
   c:	1d1e                	slli	s10,s10,0x27
   e:	8000                	0x8000
  10:	1d30                	addi	a2,sp,696
  12:	8000                	0x8000
  14:	1fcc                	addi	a1,sp,1012
  16:	8000                	0x8000
	...
  20:	1c20                	addi	s0,sp,568
  22:	8000                	0x8000
  24:	1c4c                	addi	a1,sp,564
  26:	8000                	0x8000
  28:	1de2                	slli	s11,s11,0x38
  2a:	8000                	0x8000
  2c:	1df4                	addi	a3,sp,764
  2e:	8000                	0x8000
  30:	1fac                	addi	a1,sp,1016
  32:	8000                	0x8000
  34:	1fb0                	addi	a2,sp,1016
  36:	8000                	0x8000
	...
  40:	1cae                	slli	s9,s9,0x2b
  42:	8000                	0x8000
  44:	1cb2                	slli	s9,s9,0x2c
  46:	8000                	0x8000
  48:	1d78                	addi	a4,sp,700
  4a:	8000                	0x8000
  4c:	1dc8                	addi	a0,sp,756
  4e:	8000                	0x8000
  50:	1fbe                	slli	t6,t6,0x2f
  52:	8000                	0x8000
  54:	1fc2                	slli	t6,t6,0x30
  56:	8000                	0x8000
	...
  60:	1cd0                	addi	a2,sp,628
  62:	8000                	0x8000
  64:	1cfc                	addi	a5,sp,636
  66:	8000                	0x8000
  68:	1df4                	addi	a3,sp,764
  6a:	8000                	0x8000
  6c:	1e04                	addi	s1,sp,816
  6e:	8000                	0x8000
  70:	1fa4                	addi	s1,sp,1016
  72:	8000                	0x8000
  74:	1fac                	addi	a1,sp,1016
  76:	8000                	0x8000
  78:	1fb0                	addi	a2,sp,1016
  7a:	8000                	0x8000
  7c:	1fb6                	slli	t6,t6,0x2d
  7e:	8000                	0x8000
	...
  88:	1d38                	addi	a4,sp,696
  8a:	8000                	0x8000
  8c:	1d64                	addi	s1,sp,700
  8e:	8000                	0x8000
  90:	1dd0                	addi	a2,sp,756
  92:	8000                	0x8000
  94:	1de2                	slli	s11,s11,0x38
  96:	8000                	0x8000
  98:	1f9c                	addi	a5,sp,1008
  9a:	8000                	0x8000
  9c:	1fa4                	addi	s1,sp,1016
  9e:	8000                	0x8000
	...
  a8:	1e0c                	addi	a1,sp,816
  aa:	8000                	0x8000
  ac:	1e18                	addi	a4,sp,816
  ae:	8000                	0x8000
  b0:	1e1c                	addi	a5,sp,816
  b2:	8000                	0x8000
  b4:	1e20                	addi	s0,sp,824
  b6:	8000                	0x8000
  b8:	1e26                	slli	t3,t3,0x29
  ba:	8000                	0x8000
  bc:	1e2a                	slli	t3,t3,0x2a
  be:	8000                	0x8000
  c0:	1e2e                	slli	t3,t3,0x2b
  c2:	8000                	0x8000
  c4:	1e7c                	addi	a5,sp,828
  c6:	8000                	0x8000
	...
  d0:	1e7c                	addi	a5,sp,828
  d2:	8000                	0x8000
  d4:	1f9c                	addi	a5,sp,1008
  d6:	8000                	0x8000
  d8:	1fb6                	slli	t6,t6,0x2d
  da:	8000                	0x8000
  dc:	1fbe                	slli	t6,t6,0x2f
  de:	8000                	0x8000
  e0:	1fc2                	slli	t6,t6,0x30
  e2:	8000                	0x8000
  e4:	1fcc                	addi	a1,sp,1012
  e6:	8000                	0x8000
	...
  f0:	1e8c                	addi	a1,sp,880
  f2:	8000                	0x8000
  f4:	1e9c                	addi	a5,sp,880
  f6:	8000                	0x8000
  f8:	1ea6                	slli	t4,t4,0x29
  fa:	8000                	0x8000
  fc:	1eaa                	slli	t4,t4,0x2a
  fe:	8000                	0x8000
 100:	1eb2                	slli	t4,t4,0x2c
 102:	8000                	0x8000
 104:	1f08                	addi	a0,sp,944
 106:	8000                	0x8000
 108:	1f0a                	slli	t5,t5,0x22
 10a:	8000                	0x8000
 10c:	1f0e                	slli	t5,t5,0x23
 10e:	8000                	0x8000
 110:	1f26                	slli	t5,t5,0x29
 112:	8000                	0x8000
 114:	1f2a                	slli	t5,t5,0x2a
 116:	8000                	0x8000
 118:	1fb6                	slli	t6,t6,0x2d
 11a:	8000                	0x8000
 11c:	1fbe                	slli	t6,t6,0x2f
 11e:	8000                	0x8000
	...
 128:	1f08                	addi	a0,sp,944
 12a:	8000                	0x8000
 12c:	1f0a                	slli	t5,t5,0x22
 12e:	8000                	0x8000
 130:	1f0e                	slli	t5,t5,0x23
 132:	8000                	0x8000
 134:	1f26                	slli	t5,t5,0x29
 136:	8000                	0x8000
 138:	1f2a                	slli	t5,t5,0x2a
 13a:	8000                	0x8000
 13c:	1f5a                	slli	t5,t5,0x36
 13e:	8000                	0x8000
 140:	1f66                	slli	t5,t5,0x39
 142:	8000                	0x8000
 144:	1f6a                	slli	t5,t5,0x3a
 146:	8000                	0x8000
	...
 150:	1bfa                	slli	s7,s7,0x3e
 152:	8000                	0x8000
 154:	1fcc                	addi	a1,sp,1012
 156:	8000                	0x8000
	...
 160:	1fcc                	addi	a1,sp,1012
 162:	8000                	0x8000
 164:	2084                	fld	fs1,0(s1)
 166:	8000                	0x8000
 168:	2086                	fld	ft1,64(sp)
 16a:	8000                	0x8000
 16c:	20c8                	fld	fa0,128(s1)
 16e:	8000                	0x8000
 170:	20ca                	fld	ft1,144(sp)
 172:	8000                	0x8000
 174:	216e                	fld	ft2,216(sp)
 176:	8000                	0x8000
 178:	2170                	fld	fa2,192(a0)
 17a:	8000                	0x8000
 17c:	2174                	fld	fa3,192(a0)
 17e:	8000                	0x8000
 180:	2176                	fld	ft2,344(sp)
 182:	8000                	0x8000
 184:	2278                	fld	fa4,192(a2)
 186:	8000                	0x8000
 188:	227a                	fld	ft4,408(sp)
 18a:	8000                	0x8000
 18c:	2320                	fld	fs0,64(a4)
 18e:	8000                	0x8000
 190:	2326                	fld	ft6,72(sp)
 192:	8000                	0x8000
 194:	2344                	fld	fs1,128(a4)
 196:	8000                	0x8000
 198:	2346                	fld	ft6,80(sp)
 19a:	8000                	0x8000
 19c:	236e                	fld	ft6,216(sp)
 19e:	8000                	0x8000
	...
 1a8:	1fda                	slli	t6,t6,0x36
 1aa:	8000                	0x8000
 1ac:	2004                	fld	fs1,0(s0)
 1ae:	8000                	0x8000
 1b0:	2198                	fld	fa4,0(a1)
 1b2:	8000                	0x8000
 1b4:	21aa                	fld	ft3,136(sp)
 1b6:	8000                	0x8000
 1b8:	233c                	fld	fa5,64(a4)
 1ba:	8000                	0x8000
 1bc:	2340                	fld	fs0,128(a4)
 1be:	8000                	0x8000
	...
 1c8:	201a                	fld	ft0,384(sp)
 1ca:	8000                	0x8000
 1cc:	2084                	fld	fs1,0(s1)
 1ce:	8000                	0x8000
 1d0:	21aa                	fld	ft3,136(sp)
 1d2:	8000                	0x8000
 1d4:	21ae                	fld	ft3,200(sp)
 1d6:	8000                	0x8000
 1d8:	2362                	fld	ft6,24(sp)
 1da:	8000                	0x8000
 1dc:	2368                	fld	fa0,192(a4)
 1de:	8000                	0x8000
	...
 1e8:	208a                	fld	ft1,128(sp)
 1ea:	8000                	0x8000
 1ec:	20b6                	fld	ft1,328(sp)
 1ee:	8000                	0x8000
 1f0:	2176                	fld	ft2,344(sp)
 1f2:	8000                	0x8000
 1f4:	2186                	fld	ft3,64(sp)
 1f6:	8000                	0x8000
 1f8:	2326                	fld	ft6,72(sp)
 1fa:	8000                	0x8000
 1fc:	2334                	fld	fa3,64(a4)
 1fe:	8000                	0x8000
	...
 208:	20d2                	fld	ft1,272(sp)
 20a:	8000                	0x8000
 20c:	20fe                	fld	ft1,472(sp)
 20e:	8000                	0x8000
 210:	2186                	fld	ft3,64(sp)
 212:	8000                	0x8000
 214:	2198                	fld	fa4,0(a1)
 216:	8000                	0x8000
 218:	2334                	fld	fa3,64(a4)
 21a:	8000                	0x8000
 21c:	233c                	fld	fa5,64(a4)
 21e:	8000                	0x8000
	...
 228:	2114                	fld	fa3,0(a0)
 22a:	8000                	0x8000
 22c:	216e                	fld	ft2,216(sp)
 22e:	8000                	0x8000
 230:	21ae                	fld	ft3,200(sp)
 232:	8000                	0x8000
 234:	21b2                	fld	ft3,264(sp)
 236:	8000                	0x8000
 238:	2368                	fld	fa0,192(a4)
 23a:	8000                	0x8000
 23c:	236e                	fld	ft6,216(sp)
 23e:	8000                	0x8000
	...
 248:	21b2                	fld	ft3,264(sp)
 24a:	8000                	0x8000
 24c:	2278                	fld	fa4,192(a2)
 24e:	8000                	0x8000
 250:	2304                	fld	fs1,0(a4)
 252:	8000                	0x8000
 254:	2320                	fld	fs0,64(a4)
 256:	8000                	0x8000
 258:	2346                	fld	ft6,80(sp)
 25a:	8000                	0x8000
 25c:	235a                	fld	ft6,400(sp)
 25e:	8000                	0x8000
	...
 268:	21c0                	fld	fs0,128(a1)
 26a:	8000                	0x8000
 26c:	21d0                	fld	fa2,128(a1)
 26e:	8000                	0x8000
 270:	21dc                	fld	fa5,128(a1)
 272:	8000                	0x8000
 274:	21e0                	fld	fs0,192(a1)
 276:	8000                	0x8000
 278:	21e4                	fld	fs1,192(a1)
 27a:	8000                	0x8000
 27c:	222e                	fld	ft4,200(sp)
 27e:	8000                	0x8000
 280:	2230                	fld	fa2,64(a2)
 282:	8000                	0x8000
 284:	2234                	fld	fa3,64(a2)
 286:	8000                	0x8000
 288:	2248                	fld	fa0,128(a2)
 28a:	8000                	0x8000
 28c:	224c                	fld	fa1,128(a2)
 28e:	8000                	0x8000
 290:	2346                	fld	ft6,80(sp)
 292:	8000                	0x8000
 294:	235a                	fld	ft6,400(sp)
 296:	8000                	0x8000
	...
 2a0:	222e                	fld	ft4,200(sp)
 2a2:	8000                	0x8000
 2a4:	2230                	fld	fa2,64(a2)
 2a6:	8000                	0x8000
 2a8:	2234                	fld	fa3,64(a2)
 2aa:	8000                	0x8000
 2ac:	2248                	fld	fa0,128(a2)
 2ae:	8000                	0x8000
 2b0:	224c                	fld	fa1,128(a2)
 2b2:	8000                	0x8000
 2b4:	226c                	fld	fa1,192(a2)
 2b6:	8000                	0x8000
 2b8:	2304                	fld	fs1,0(a4)
 2ba:	8000                	0x8000
 2bc:	2310                	fld	fa2,0(a4)
 2be:	8000                	0x8000
 2c0:	2314                	fld	fa3,0(a4)
 2c2:	8000                	0x8000
 2c4:	2316                	fld	ft6,320(sp)
 2c6:	8000                	0x8000
	...
 2d0:	2282                	fld	ft5,0(sp)
 2d2:	8000                	0x8000
 2d4:	228a                	fld	ft5,128(sp)
 2d6:	8000                	0x8000
 2d8:	228e                	fld	ft5,192(sp)
 2da:	8000                	0x8000
 2dc:	2292                	fld	ft5,256(sp)
 2de:	8000                	0x8000
 2e0:	2296                	fld	ft5,320(sp)
 2e2:	8000                	0x8000
 2e4:	229a                	fld	ft5,384(sp)
 2e6:	8000                	0x8000
 2e8:	229c                	fld	fa5,0(a3)
 2ea:	8000                	0x8000
 2ec:	22a0                	fld	fs0,64(a3)
 2ee:	8000                	0x8000
 2f0:	22a4                	fld	fs1,64(a3)
 2f2:	8000                	0x8000
 2f4:	2304                	fld	fs1,0(a4)
 2f6:	8000                	0x8000
 2f8:	235a                	fld	ft6,400(sp)
 2fa:	8000                	0x8000
 2fc:	2362                	fld	ft6,24(sp)
 2fe:	8000                	0x8000
	...
 308:	1fcc                	addi	a1,sp,1012
 30a:	8000                	0x8000
 30c:	236e                	fld	ft6,216(sp)
 30e:	8000                	0x8000
	...
 318:	236e                	fld	ft6,216(sp)
 31a:	8000                	0x8000
 31c:	2420                	fld	fs0,72(s0)
 31e:	8000                	0x8000
 320:	2422                	fld	fs0,8(sp)
 322:	8000                	0x8000
 324:	2472                	fld	fs0,280(sp)
 326:	8000                	0x8000
 328:	2474                	fld	fa3,200(s0)
 32a:	8000                	0x8000
 32c:	26b8                	fld	fa4,72(a3)
 32e:	8000                	0x8000
 330:	26be                	fld	fa3,456(sp)
 332:	8000                	0x8000
 334:	26fa                	fld	fa3,408(sp)
 336:	8000                	0x8000
	...
 340:	237c                	fld	fa5,192(a4)
 342:	8000                	0x8000
 344:	23aa                	fld	ft7,136(sp)
 346:	8000                	0x8000
 348:	2522                	fld	fa0,8(sp)
 34a:	8000                	0x8000
 34c:	2532                	fld	fa0,264(sp)
 34e:	8000                	0x8000
 350:	26d4                	fld	fa3,136(a3)
 352:	8000                	0x8000
 354:	26d8                	fld	fa4,136(a3)
 356:	8000                	0x8000
	...
 360:	23c2                	fld	ft7,16(sp)
 362:	8000                	0x8000
 364:	240a                	fld	fs0,128(sp)
 366:	8000                	0x8000
 368:	26ec                	fld	fa1,200(a3)
 36a:	8000                	0x8000
 36c:	26f0                	fld	fa2,200(a3)
 36e:	8000                	0x8000
	...
 378:	240a                	fld	fs0,128(sp)
 37a:	8000                	0x8000
 37c:	241a                	fld	fs0,384(sp)
 37e:	8000                	0x8000
 380:	24bc                	fld	fa5,72(s1)
 382:	8000                	0x8000
 384:	2500                	fld	fs0,8(a0)
 386:	8000                	0x8000
	...
 390:	2426                	fld	fs0,72(sp)
 392:	8000                	0x8000
 394:	2452                	fld	fs0,272(sp)
 396:	8000                	0x8000
 398:	2500                	fld	fs0,8(a0)
 39a:	8000                	0x8000
 39c:	2510                	fld	fa2,8(a0)
 39e:	8000                	0x8000
 3a0:	26be                	fld	fa3,456(sp)
 3a2:	8000                	0x8000
 3a4:	26cc                	fld	fa1,136(a3)
 3a6:	8000                	0x8000
	...
 3b0:	247c                	fld	fa5,200(s0)
 3b2:	8000                	0x8000
 3b4:	24a8                	fld	fa0,72(s1)
 3b6:	8000                	0x8000
 3b8:	2510                	fld	fa2,8(a0)
 3ba:	8000                	0x8000
 3bc:	2522                	fld	fa0,8(sp)
 3be:	8000                	0x8000
 3c0:	26cc                	fld	fa1,136(a3)
 3c2:	8000                	0x8000
 3c4:	26d4                	fld	fa3,136(a3)
 3c6:	8000                	0x8000
	...
 3d0:	2532                	fld	fa0,264(sp)
 3d2:	8000                	0x8000
 3d4:	2614                	fld	fa3,8(a2)
 3d6:	8000                	0x8000
 3d8:	268c                	fld	fa1,8(a3)
 3da:	8000                	0x8000
 3dc:	26b8                	fld	fa4,72(a3)
 3de:	8000                	0x8000
 3e0:	26d8                	fld	fa4,136(a3)
 3e2:	8000                	0x8000
 3e4:	26ec                	fld	fa1,200(a3)
 3e6:	8000                	0x8000
 3e8:	26f0                	fld	fa2,200(a3)
 3ea:	8000                	0x8000
 3ec:	26fa                	fld	fa3,408(sp)
 3ee:	8000                	0x8000
	...
 3f8:	2542                	fld	fa0,16(sp)
 3fa:	8000                	0x8000
 3fc:	2552                	fld	fa0,272(sp)
 3fe:	8000                	0x8000
 400:	255c                	fld	fa5,136(a0)
 402:	8000                	0x8000
 404:	2560                	fld	fs0,200(a0)
 406:	8000                	0x8000
 408:	2568                	fld	fa0,200(a0)
 40a:	8000                	0x8000
 40c:	25b2                	fld	fa1,264(sp)
 40e:	8000                	0x8000
 410:	25b4                	fld	fa3,72(a1)
 412:	8000                	0x8000
 414:	25b8                	fld	fa4,72(a1)
 416:	8000                	0x8000
 418:	25d0                	fld	fa2,136(a1)
 41a:	8000                	0x8000
 41c:	25d4                	fld	fa3,136(a1)
 41e:	8000                	0x8000
 420:	26d8                	fld	fa4,136(a3)
 422:	8000                	0x8000
 424:	26ec                	fld	fa1,200(a3)
 426:	8000                	0x8000
	...
 430:	25b2                	fld	fa1,264(sp)
 432:	8000                	0x8000
 434:	25b4                	fld	fa3,72(a1)
 436:	8000                	0x8000
 438:	25b8                	fld	fa4,72(a1)
 43a:	8000                	0x8000
 43c:	25d0                	fld	fa2,136(a1)
 43e:	8000                	0x8000
 440:	25d4                	fld	fa3,136(a1)
 442:	8000                	0x8000
 444:	2604                	fld	fs1,8(a2)
 446:	8000                	0x8000
 448:	2610                	fld	fa2,8(a2)
 44a:	8000                	0x8000
 44c:	2614                	fld	fa3,8(a2)
 44e:	8000                	0x8000
	...
 458:	261c                	fld	fa5,8(a2)
 45a:	8000                	0x8000
 45c:	2628                	fld	fa0,72(a2)
 45e:	8000                	0x8000
 460:	262c                	fld	fa1,72(a2)
 462:	8000                	0x8000
 464:	2630                	fld	fa2,72(a2)
 466:	8000                	0x8000
 468:	2636                	fld	fa2,328(sp)
 46a:	8000                	0x8000
 46c:	263a                	fld	fa2,392(sp)
 46e:	8000                	0x8000
 470:	263e                	fld	fa2,456(sp)
 472:	8000                	0x8000
 474:	268c                	fld	fa1,8(a3)
 476:	8000                	0x8000
	...
 480:	236e                	fld	ft6,216(sp)
 482:	8000                	0x8000
 484:	26fa                	fld	fa3,408(sp)
 486:	8000                	0x8000
	...

Disassembly of section .debug_line:

00000000 <.debug_line>:
   0:	0344                	addi	s1,sp,388
   2:	0000                	unimp
   4:	0002                	c.slli	zero,0x0
   6:	0152                	slli	sp,sp,0x14
   8:	0000                	unimp
   a:	0101                	addi	sp,sp,0
   c:	000d0efb          	0xd0efb
  10:	0101                	addi	sp,sp,0
  12:	0101                	addi	sp,sp,0
  14:	0000                	unimp
  16:	0100                	addi	s0,sp,128
  18:	0000                	unimp
  1a:	2f01                	jal	72a <_tbss_end+0x6e6>
  1c:	6f48                	flw	fa0,28(a4)
  1e:	572f7473          	csrrci	s0,0x572,30
  22:	2f6b726f          	jal	tp,b7318 <_tbss_end+0xb72d4>
  26:	6972                	flw	fs2,28(sp)
  28:	2d766373          	csrrsi	t1,0x2d7,12
  2c:	6f6e                	flw	ft10,216(sp)
  2e:	656e                	flw	fa0,216(sp)
  30:	672d                	lui	a4,0xb
  32:	722f6363          	bltu	t5,sp,758 <_tbss_end+0x714>
  36:	7369                	lui	t1,0xffffa
  38:	6e2d7663          	bleu	sp,s10,724 <_tbss_end+0x6e0>
  3c:	2d656e6f          	jal	t3,56312 <_tbss_end+0x562ce>
  40:	2d636367          	0x2d636367
  44:	2e322e37          	lui	t3,0x2e322
  48:	2d30                	fld	fa2,88(a0)
  4a:	2d32                	fld	fs10,264(sp)
  4c:	3032                	fld	ft0,296(sp)
  4e:	3831                	jal	fffff86a <__global_pointer$+0x6ffff06a>
  50:	3130                	fld	fa2,96(a0)
  52:	3031                	jal	fffff85e <__global_pointer$+0x6ffff05e>
  54:	62696c2f          	0x62696c2f
  58:	00636367          	0x636367
  5c:	736f482f          	0x736f482f
  60:	2f74                	fld	fa3,216(a4)
  62:	6b726f57          	0x6b726f57
  66:	7369722f          	0x7369722f
  6a:	6e2d7663          	bleu	sp,s10,756 <_tbss_end+0x712>
  6e:	2d656e6f          	jal	t3,56344 <_tbss_end+0x56300>
  72:	2f636367          	0x2f636367
  76:	6972                	flw	fs2,28(sp)
  78:	2d766373          	csrrsi	t1,0x2d7,12
  7c:	6f6e                	flw	ft10,216(sp)
  7e:	656e                	flw	fa0,216(sp)
  80:	672d                	lui	a4,0xb
  82:	372d6363          	bltu	s10,s2,3e8 <_tbss_end+0x3a4>
  86:	322e                	fld	ft4,232(sp)
  88:	302e                	fld	ft0,232(sp)
  8a:	322d                	jal	fffff9b4 <__global_pointer$+0x6ffff1b4>
  8c:	322d                	jal	fffff9b6 <__global_pointer$+0x6ffff1b6>
  8e:	3130                	fld	fa2,96(a0)
  90:	3038                	fld	fa4,96(s0)
  92:	3131                	jal	fffffc9e <__global_pointer$+0x6ffff49e>
  94:	2f30                	fld	fa2,88(a4)
  96:	696c                	flw	fa1,84(a0)
  98:	6762                	flw	fa4,24(sp)
  9a:	2e2f6363          	bltu	t5,sp,380 <_tbss_end+0x33c>
  9e:	2f2e                	fld	ft10,200(sp)
  a0:	6e69                	lui	t3,0x1a
  a2:	64756c63          	bltu	a0,t2,6fa <_tbss_end+0x6b6>
  a6:	0065                	c.nop	25
  a8:	736f482f          	0x736f482f
  ac:	2f74                	fld	fa3,216(a4)
  ae:	6b726f57          	0x6b726f57
  b2:	7369722f          	0x7369722f
  b6:	6e2d7663          	bleu	sp,s10,7a2 <_tbss_end+0x75e>
  ba:	2d656e6f          	jal	t3,56390 <_tbss_end+0x5634c>
  be:	2f636367          	0x2f636367
  c2:	6972                	flw	fs2,28(sp)
  c4:	2d766373          	csrrsi	t1,0x2d7,12
  c8:	6f6e                	flw	ft10,216(sp)
  ca:	656e                	flw	fa0,216(sp)
  cc:	672d                	lui	a4,0xb
  ce:	372d6363          	bltu	s10,s2,434 <_tbss_end+0x3f0>
  d2:	322e                	fld	ft4,232(sp)
  d4:	302e                	fld	ft0,232(sp)
  d6:	322d                	jal	fffffa00 <__global_pointer$+0x6ffff200>
  d8:	322d                	jal	fffffa02 <__global_pointer$+0x6ffff202>
  da:	3130                	fld	fa2,96(a0)
  dc:	3038                	fld	fa4,96(s0)
  de:	3131                	jal	fffffcea <__global_pointer$+0x6ffff4ea>
  e0:	2f30                	fld	fa2,88(a4)
  e2:	696c                	flw	fa1,84(a0)
  e4:	6762                	flw	fa4,24(sp)
  e6:	2e2f6363          	bltu	t5,sp,3cc <_tbss_end+0x388>
  ea:	2f2e                	fld	ft10,200(sp)
  ec:	2f636367          	0x2f636367
  f0:	666e6f63          	bltu	t3,t1,76e <_tbss_end+0x72a>
  f4:	6769                	lui	a4,0x1a
  f6:	7369722f          	0x7369722f
  fa:	2e007663          	bleu	zero,zero,3e6 <_tbss_end+0x3a2>
  fe:	2f2e                	fld	ft10,200(sp)
 100:	2e2e                	fld	ft8,200(sp)
 102:	2f2e2e2f          	0x2f2e2e2f
 106:	2e2e                	fld	ft8,200(sp)
 108:	672f2e2f          	amoand.w.aqrl	t3,s2,(t5)
 10c:	00006363          	bltu	zero,zero,112 <_tbss_end+0xce>
 110:	696c                	flw	fa1,84(a0)
 112:	6762                	flw	fa4,24(sp)
 114:	2e326363          	bltu	tp,gp,3fa <_tbss_end+0x3b6>
 118:	00010063          	beqz	sp,118 <_tbss_end+0xd4>
 11c:	6800                	flw	fs0,16(s0)
 11e:	7361                	lui	t1,0xffff8
 120:	7468                	flw	fa0,108(s0)
 122:	6261                	lui	tp,0x18
 124:	682e                	flw	fa6,200(sp)
 126:	0200                	addi	s0,sp,256
 128:	0000                	unimp
 12a:	6972                	flw	fs2,28(sp)
 12c:	2d766373          	csrrsi	t1,0x2d7,12
 130:	7374706f          	j	48066 <_tbss_end+0x48022>
 134:	682e                	flw	fa6,200(sp)
 136:	0300                	addi	s0,sp,384
 138:	0000                	unimp
 13a:	6e69                	lui	t3,0x1a
 13c:	632d6e73          	csrrsi	t3,0x632,26
 140:	74736e6f          	jal	t3,37086 <_tbss_end+0x37042>
 144:	6e61                	lui	t3,0x18
 146:	7374                	flw	fa3,100(a4)
 148:	682e                	flw	fa6,200(sp)
 14a:	0400                	addi	s0,sp,512
 14c:	0000                	unimp
 14e:	696c                	flw	fa1,84(a0)
 150:	6762                	flw	fa4,24(sp)
 152:	2e326363          	bltu	tp,gp,438 <_tbss_end+0x3f4>
 156:	0068                	addi	a0,sp,12
 158:	0001                	nop
 15a:	0000                	unimp
 15c:	0500                	addi	s0,sp,640
 15e:	fa02                	fsw	ft0,52(sp)
 160:	0380001b          	0x380001b
 164:	09e6                	slli	s3,s3,0x19
 166:	0301                	addi	t1,t1,0
 168:	0901                	addi	s2,s2,0
 16a:	0000                	unimp
 16c:	0301                	addi	t1,t1,0
 16e:	0905                	addi	s2,s2,1
 170:	0002                	c.slli	zero,0x0
 172:	0301                	addi	t1,t1,0
 174:	00040903          	lb	s2,0(s0) # ffff7000 <__global_pointer$+0x6fff6800>
 178:	0301                	addi	t1,t1,0
 17a:	0901                	addi	s2,s2,0
 17c:	0004                	0x4
 17e:	0301                	addi	t1,t1,0
 180:	0e097e8f          	0xe097e8f
 184:	0100                	addi	s0,sp,128
 186:	02097f03          	0x2097f03
 18a:	0100                	addi	s0,sp,128
 18c:	02090203          	lb	tp,32(s2) # 1b020 <_tbss_end+0x1afdc>
 190:	0100                	addi	s0,sp,128
 192:	02090103          	lb	sp,32(s2)
 196:	0100                	addi	s0,sp,128
 198:	02092503          	lw	a0,32(s2)
 19c:	0100                	addi	s0,sp,128
 19e:	02090203          	lb	tp,32(s2)
 1a2:	0100                	addi	s0,sp,128
 1a4:	04090403          	lb	s0,64(s2)
 1a8:	0100                	addi	s0,sp,128
 1aa:	2c090203          	lb	tp,704(s2)
 1ae:	0100                	addi	s0,sp,128
 1b0:	04090603          	lb	a2,64(s2)
 1b4:	0100                	addi	s0,sp,128
 1b6:	08097f03          	0x8097f03
 1ba:	0100                	addi	s0,sp,128
 1bc:	04090103          	lb	sp,64(s2)
 1c0:	0100                	addi	s0,sp,128
 1c2:	04090103          	lb	sp,64(s2)
 1c6:	0100                	addi	s0,sp,128
 1c8:	04090303          	lb	t1,64(s2)
 1cc:	0100                	addi	s0,sp,128
 1ce:	4a092a03          	lw	s4,1184(s2)
 1d2:	0100                	addi	s0,sp,128
 1d4:	04090703          	lb	a4,64(s2)
 1d8:	0100                	addi	s0,sp,128
 1da:	04090203          	lb	tp,64(s2)
 1de:	0100                	addi	s0,sp,128
 1e0:	09018803          	lb	a6,144(gp) # 90000890 <__global_pointer$+0x90>
 1e4:	0002                	c.slli	zero,0x0
 1e6:	0301                	addi	t1,t1,0
 1e8:	0901                	addi	s2,s2,0
 1ea:	0004                	0x4
 1ec:	0301                	addi	t1,t1,0
 1ee:	000e0903          	lb	s2,0(t3) # 18000 <_tbss_end+0x17fbc>
 1f2:	0301                	addi	t1,t1,0
 1f4:	02097efb          	0x2097efb
 1f8:	0100                	addi	s0,sp,128
 1fa:	04091303          	lh	t1,64(s2)
 1fe:	0100                	addi	s0,sp,128
 200:	2c090103          	lb	sp,704(s2)
 204:	0100                	addi	s0,sp,128
 206:	04090a03          	lb	s4,64(s2)
 20a:	0100                	addi	s0,sp,128
 20c:	0a090303          	lb	t1,160(s2)
 210:	0100                	addi	s0,sp,128
 212:	0e090b03          	lb	s6,224(s2)
 216:	0100                	addi	s0,sp,128
 218:	0900d003          	lhu	zero,144(ra)
 21c:	0006                	c.slli	zero,0x1
 21e:	0301                	addi	t1,t1,0
 220:	097f                	0x97f
 222:	000e                	c.slli	zero,0x3
 224:	0301                	addi	t1,t1,0
 226:	7ed4                	flw	fa3,60(a3)
 228:	0409                	addi	s0,s0,2
 22a:	0100                	addi	s0,sp,128
 22c:	02090103          	lb	sp,32(s2)
 230:	0100                	addi	s0,sp,128
 232:	06090203          	lb	tp,96(s2)
 236:	0100                	addi	s0,sp,128
 238:	2c090203          	lb	tp,704(s2)
 23c:	0100                	addi	s0,sp,128
 23e:	08090903          	lb	s2,128(s2)
 242:	0100                	addi	s0,sp,128
 244:	0c091303          	lh	t1,192(s2)
 248:	0100                	addi	s0,sp,128
 24a:	50090703          	lb	a4,1280(s2)
 24e:	0100                	addi	s0,sp,128
 250:	04090203          	lb	tp,64(s2)
 254:	0100                	addi	s0,sp,128
 256:	04095903          	lhu	s2,64(s2)
 25a:	0100                	addi	s0,sp,128
 25c:	12096803          	0x12096803
 260:	0100                	addi	s0,sp,128
 262:	0900d903          	lhu	s2,144(ra)
 266:	0012                	c.slli	zero,0x4
 268:	0301                	addi	t1,t1,0
 26a:	00100953          	fadd.s	fs2,ft0,ft1,rne
 26e:	0301                	addi	t1,t1,0
 270:	0901                	addi	s2,s2,0
 272:	0004                	0x4
 274:	0301                	addi	t1,t1,0
 276:	0904                	addi	s1,sp,144
 278:	0004                	0x4
 27a:	0301                	addi	t1,t1,0
 27c:	097d                	addi	s2,s2,31
 27e:	000c                	0xc
 280:	0301                	addi	t1,t1,0
 282:	00040903          	lb	s2,0(s0)
 286:	0301                	addi	t1,t1,0
 288:	097d                	addi	s2,s2,31
 28a:	0004                	0x4
 28c:	0301                	addi	t1,t1,0
 28e:	00060903          	lb	s2,0(a2)
 292:	0301                	addi	t1,t1,0
 294:	097e                	slli	s2,s2,0x1f
 296:	0004                	0x4
 298:	0301                	addi	t1,t1,0
 29a:	0902                	slli	s2,s2,0x0
 29c:	0004                	0x4
 29e:	0301                	addi	t1,t1,0
 2a0:	4e0900cb          	fnmsub.q	ft1,fs2,ft0,fs1,rne
 2a4:	0100                	addi	s0,sp,128
 2a6:	0c090203          	lb	tp,192(s2)
 2aa:	0100                	addi	s0,sp,128
 2ac:	04090403          	lb	s0,64(s2)
 2b0:	0100                	addi	s0,sp,128
 2b2:	10097d03          	0x10097d03
 2b6:	0100                	addi	s0,sp,128
 2b8:	0a090303          	lb	t1,160(s2)
 2bc:	0100                	addi	s0,sp,128
 2be:	04097b03          	0x4097b03
 2c2:	0100                	addi	s0,sp,128
 2c4:	04090303          	lb	t1,64(s2)
 2c8:	0100                	addi	s0,sp,128
 2ca:	04090203          	lb	tp,64(s2)
 2ce:	0100                	addi	s0,sp,128
 2d0:	56090103          	lb	sp,1376(s2)
 2d4:	0100                	addi	s0,sp,128
 2d6:	02097f03          	0x2097f03
 2da:	0100                	addi	s0,sp,128
 2dc:	04090103          	lb	sp,64(s2)
 2e0:	0100                	addi	s0,sp,128
 2e2:	18097f03          	0x18097f03
 2e6:	0100                	addi	s0,sp,128
 2e8:	04090103          	lb	sp,64(s2)
 2ec:	0100                	addi	s0,sp,128
 2ee:	30090203          	lb	tp,768(s2)
 2f2:	0100                	addi	s0,sp,128
 2f4:	0c097e03          	0xc097e03
 2f8:	0100                	addi	s0,sp,128
 2fa:	04090503          	lb	a0,64(s2)
 2fe:	0100                	addi	s0,sp,128
 300:	12090803          	lb	a6,288(s2)
 304:	0100                	addi	s0,sp,128
 306:	0a090103          	lb	sp,160(s2)
 30a:	0100                	addi	s0,sp,128
 30c:	08090203          	lb	tp,128(s2)
 310:	0100                	addi	s0,sp,128
 312:	097f8503          	lb	a0,151(t6)
 316:	000e                	c.slli	zero,0x3
 318:	0301                	addi	t1,t1,0
 31a:	00c1                	addi	ra,ra,16
 31c:	0809                	addi	a6,a6,2
 31e:	0100                	addi	s0,sp,128
 320:	097fa703          	lw	a4,151(t6)
 324:	0008                	0x8
 326:	0301                	addi	t1,t1,0
 328:	00d9                	addi	ra,ra,22
 32a:	0409                	addi	s0,s0,2
 32c:	0100                	addi	s0,sp,128
 32e:	06092903          	lw	s2,96(s2)
 332:	0100                	addi	s0,sp,128
 334:	097fb403          	0x97fb403
 338:	0008                	0x8
 33a:	0301                	addi	t1,t1,0
 33c:	040900cf          	0x40900cf
 340:	0100                	addi	s0,sp,128
 342:	0a09                	addi	s4,s4,2
 344:	0000                	unimp
 346:	0101                	addi	sp,sp,0
 348:	0334                	addi	a3,sp,392
 34a:	0000                	unimp
 34c:	0002                	c.slli	zero,0x0
 34e:	0152                	slli	sp,sp,0x14
 350:	0000                	unimp
 352:	0101                	addi	sp,sp,0
 354:	000d0efb          	0xd0efb
 358:	0101                	addi	sp,sp,0
 35a:	0101                	addi	sp,sp,0
 35c:	0000                	unimp
 35e:	0100                	addi	s0,sp,128
 360:	0000                	unimp
 362:	2f01                	jal	a72 <_tbss_end+0xa2e>
 364:	6f48                	flw	fa0,28(a4)
 366:	572f7473          	csrrci	s0,0x572,30
 36a:	2f6b726f          	jal	tp,b7660 <_tbss_end+0xb761c>
 36e:	6972                	flw	fs2,28(sp)
 370:	2d766373          	csrrsi	t1,0x2d7,12
 374:	6f6e                	flw	ft10,216(sp)
 376:	656e                	flw	fa0,216(sp)
 378:	672d                	lui	a4,0xb
 37a:	722f6363          	bltu	t5,sp,aa0 <_tbss_end+0xa5c>
 37e:	7369                	lui	t1,0xffffa
 380:	6e2d7663          	bleu	sp,s10,a6c <_tbss_end+0xa28>
 384:	2d656e6f          	jal	t3,5665a <_tbss_end+0x56616>
 388:	2d636367          	0x2d636367
 38c:	2e322e37          	lui	t3,0x2e322
 390:	2d30                	fld	fa2,88(a0)
 392:	2d32                	fld	fs10,264(sp)
 394:	3032                	fld	ft0,296(sp)
 396:	3831                	jal	fffffbb2 <__global_pointer$+0x6ffff3b2>
 398:	3130                	fld	fa2,96(a0)
 39a:	3031                	jal	fffffba6 <__global_pointer$+0x6ffff3a6>
 39c:	62696c2f          	0x62696c2f
 3a0:	00636367          	0x636367
 3a4:	736f482f          	0x736f482f
 3a8:	2f74                	fld	fa3,216(a4)
 3aa:	6b726f57          	0x6b726f57
 3ae:	7369722f          	0x7369722f
 3b2:	6e2d7663          	bleu	sp,s10,a9e <_tbss_end+0xa5a>
 3b6:	2d656e6f          	jal	t3,5668c <_tbss_end+0x56648>
 3ba:	2f636367          	0x2f636367
 3be:	6972                	flw	fs2,28(sp)
 3c0:	2d766373          	csrrsi	t1,0x2d7,12
 3c4:	6f6e                	flw	ft10,216(sp)
 3c6:	656e                	flw	fa0,216(sp)
 3c8:	672d                	lui	a4,0xb
 3ca:	372d6363          	bltu	s10,s2,730 <_tbss_end+0x6ec>
 3ce:	322e                	fld	ft4,232(sp)
 3d0:	302e                	fld	ft0,232(sp)
 3d2:	322d                	jal	fffffcfc <__global_pointer$+0x6ffff4fc>
 3d4:	322d                	jal	fffffcfe <__global_pointer$+0x6ffff4fe>
 3d6:	3130                	fld	fa2,96(a0)
 3d8:	3038                	fld	fa4,96(s0)
 3da:	3131                	jal	ffffffe6 <__global_pointer$+0x6ffff7e6>
 3dc:	2f30                	fld	fa2,88(a4)
 3de:	696c                	flw	fa1,84(a0)
 3e0:	6762                	flw	fa4,24(sp)
 3e2:	2e2f6363          	bltu	t5,sp,6c8 <_tbss_end+0x684>
 3e6:	2f2e                	fld	ft10,200(sp)
 3e8:	6e69                	lui	t3,0x1a
 3ea:	64756c63          	bltu	a0,t2,a42 <_tbss_end+0x9fe>
 3ee:	0065                	c.nop	25
 3f0:	736f482f          	0x736f482f
 3f4:	2f74                	fld	fa3,216(a4)
 3f6:	6b726f57          	0x6b726f57
 3fa:	7369722f          	0x7369722f
 3fe:	6e2d7663          	bleu	sp,s10,aea <_tbss_end+0xaa6>
 402:	2d656e6f          	jal	t3,566d8 <_tbss_end+0x56694>
 406:	2f636367          	0x2f636367
 40a:	6972                	flw	fs2,28(sp)
 40c:	2d766373          	csrrsi	t1,0x2d7,12
 410:	6f6e                	flw	ft10,216(sp)
 412:	656e                	flw	fa0,216(sp)
 414:	672d                	lui	a4,0xb
 416:	372d6363          	bltu	s10,s2,77c <_tbss_end+0x738>
 41a:	322e                	fld	ft4,232(sp)
 41c:	302e                	fld	ft0,232(sp)
 41e:	322d                	jal	fffffd48 <__global_pointer$+0x6ffff548>
 420:	322d                	jal	fffffd4a <__global_pointer$+0x6ffff54a>
 422:	3130                	fld	fa2,96(a0)
 424:	3038                	fld	fa4,96(s0)
 426:	3131                	jal	32 <_tdata_begin+0x32>
 428:	2f30                	fld	fa2,88(a4)
 42a:	696c                	flw	fa1,84(a0)
 42c:	6762                	flw	fa4,24(sp)
 42e:	2e2f6363          	bltu	t5,sp,714 <_tbss_end+0x6d0>
 432:	2f2e                	fld	ft10,200(sp)
 434:	2f636367          	0x2f636367
 438:	666e6f63          	bltu	t3,t1,ab6 <_tbss_end+0xa72>
 43c:	6769                	lui	a4,0x1a
 43e:	7369722f          	0x7369722f
 442:	2e007663          	bleu	zero,zero,72e <_tbss_end+0x6ea>
 446:	2f2e                	fld	ft10,200(sp)
 448:	2e2e                	fld	ft8,200(sp)
 44a:	2f2e2e2f          	0x2f2e2e2f
 44e:	2e2e                	fld	ft8,200(sp)
 450:	672f2e2f          	amoand.w.aqrl	t3,s2,(t5)
 454:	00006363          	bltu	zero,zero,45a <_tbss_end+0x416>
 458:	696c                	flw	fa1,84(a0)
 45a:	6762                	flw	fa4,24(sp)
 45c:	2e326363          	bltu	tp,gp,742 <_tbss_end+0x6fe>
 460:	00010063          	beqz	sp,460 <_tbss_end+0x41c>
 464:	6800                	flw	fs0,16(s0)
 466:	7361                	lui	t1,0xffff8
 468:	7468                	flw	fa0,108(s0)
 46a:	6261                	lui	tp,0x18
 46c:	682e                	flw	fa6,200(sp)
 46e:	0200                	addi	s0,sp,256
 470:	0000                	unimp
 472:	6972                	flw	fs2,28(sp)
 474:	2d766373          	csrrsi	t1,0x2d7,12
 478:	7374706f          	j	483ae <_tbss_end+0x4836a>
 47c:	682e                	flw	fa6,200(sp)
 47e:	0300                	addi	s0,sp,384
 480:	0000                	unimp
 482:	6e69                	lui	t3,0x1a
 484:	632d6e73          	csrrsi	t3,0x632,26
 488:	74736e6f          	jal	t3,373ce <_tbss_end+0x3738a>
 48c:	6e61                	lui	t3,0x18
 48e:	7374                	flw	fa3,100(a4)
 490:	682e                	flw	fa6,200(sp)
 492:	0400                	addi	s0,sp,512
 494:	0000                	unimp
 496:	696c                	flw	fa1,84(a0)
 498:	6762                	flw	fa4,24(sp)
 49a:	2e326363          	bltu	tp,gp,780 <_tbss_end+0x73c>
 49e:	0068                	addi	a0,sp,12
 4a0:	0001                	nop
 4a2:	0000                	unimp
 4a4:	0500                	addi	s0,sp,640
 4a6:	cc02                	sw	zero,24(sp)
 4a8:	001f 0380 0aa5      	0xaa50380001f
 4ae:	0301                	addi	t1,t1,0
 4b0:	7dda                	flw	fs11,180(sp)
 4b2:	0009                	c.nop	2
 4b4:	0100                	addi	s0,sp,128
 4b6:	02097f03          	0x2097f03
 4ba:	0100                	addi	s0,sp,128
 4bc:	02090203          	lb	tp,32(s2)
 4c0:	0100                	addi	s0,sp,128
 4c2:	02090103          	lb	sp,32(s2)
 4c6:	0100                	addi	s0,sp,128
 4c8:	02092503          	lw	a0,32(s2)
 4cc:	0100                	addi	s0,sp,128
 4ce:	02090203          	lb	tp,32(s2)
 4d2:	0100                	addi	s0,sp,128
 4d4:	04090403          	lb	s0,64(s2)
 4d8:	0100                	addi	s0,sp,128
 4da:	2a090203          	lb	tp,672(s2)
 4de:	0100                	addi	s0,sp,128
 4e0:	02090603          	lb	a2,32(s2)
 4e4:	0100                	addi	s0,sp,128
 4e6:	08097f03          	0x8097f03
 4ea:	0100                	addi	s0,sp,128
 4ec:	04090103          	lb	sp,64(s2)
 4f0:	0100                	addi	s0,sp,128
 4f2:	04090103          	lb	sp,64(s2)
 4f6:	0100                	addi	s0,sp,128
 4f8:	04090303          	lb	t1,64(s2)
 4fc:	0100                	addi	s0,sp,128
 4fe:	0901ef03          	0x901ef03
 502:	006a                	c.slli	zero,0x1a
 504:	0301                	addi	t1,t1,0
 506:	02097ecb          	fnmsub.d	ft9,fs2,ft0,ft0
 50a:	0100                	addi	s0,sp,128
 50c:	04091303          	lh	t1,64(s2)
 510:	0100                	addi	s0,sp,128
 512:	2c090103          	lb	sp,704(s2)
 516:	0100                	addi	s0,sp,128
 518:	04090a03          	lb	s4,64(s2)
 51c:	0100                	addi	s0,sp,128
 51e:	09019703          	lh	a4,144(gp) # 90000890 <__global_pointer$+0x90>
 522:	000e                	c.slli	zero,0x3
 524:	0301                	addi	t1,t1,0
 526:	7e9a                	flw	ft9,164(sp)
 528:	0209                	addi	tp,tp,2
 52a:	0100                	addi	s0,sp,128
 52c:	02090103          	lb	sp,32(s2)
 530:	0100                	addi	s0,sp,128
 532:	06090203          	lb	tp,96(s2)
 536:	0100                	addi	s0,sp,128
 538:	2c090203          	lb	tp,704(s2)
 53c:	0100                	addi	s0,sp,128
 53e:	08090903          	lb	s2,128(s2)
 542:	0100                	addi	s0,sp,128
 544:	0e091303          	lh	t1,224(s2)
 548:	0100                	addi	s0,sp,128
 54a:	0901c503          	lbu	a0,144(gp) # 90000890 <__global_pointer$+0x90>
 54e:	005a                	c.slli	zero,0x16
 550:	0301                	addi	t1,t1,0
 552:	02097ecb          	fnmsub.d	ft9,fs2,ft0,ft0
 556:	0100                	addi	s0,sp,128
 558:	0901b503          	0x901b503
 55c:	0004                	0x4
 55e:	0301                	addi	t1,t1,0
 560:	7ede                	flw	ft9,244(sp)
 562:	0209                	addi	tp,tp,2
 564:	0100                	addi	s0,sp,128
 566:	097fbf03          	0x97fbf03
 56a:	0010                	0x10
 56c:	0301                	addi	t1,t1,0
 56e:	0968                	addi	a0,sp,156
 570:	0012                	c.slli	zero,0x4
 572:	0301                	addi	t1,t1,0
 574:	090c                	addi	a1,sp,144
 576:	0012                	c.slli	zero,0x4
 578:	0301                	addi	t1,t1,0
 57a:	092a                	slli	s2,s2,0xa
 57c:	0004                	0x4
 57e:	0301                	addi	t1,t1,0
 580:	00c6                	slli	ra,ra,0x11
 582:	0409                	addi	s0,s0,2
 584:	0100                	addi	s0,sp,128
 586:	0a090203          	lb	tp,160(s2)
 58a:	0100                	addi	s0,sp,128
 58c:	04090403          	lb	s0,64(s2)
 590:	0100                	addi	s0,sp,128
 592:	10097d03          	0x10097d03
 596:	0100                	addi	s0,sp,128
 598:	0c090303          	lb	t1,192(s2)
 59c:	0100                	addi	s0,sp,128
 59e:	04097b03          	0x4097b03
 5a2:	0100                	addi	s0,sp,128
 5a4:	04090503          	lb	a0,64(s2)
 5a8:	0100                	addi	s0,sp,128
 5aa:	4a090103          	lb	sp,1184(s2)
 5ae:	0100                	addi	s0,sp,128
 5b0:	02097f03          	0x2097f03
 5b4:	0100                	addi	s0,sp,128
 5b6:	04090103          	lb	sp,64(s2)
 5ba:	0100                	addi	s0,sp,128
 5bc:	14097f03          	0x14097f03
 5c0:	0100                	addi	s0,sp,128
 5c2:	04090103          	lb	sp,64(s2)
 5c6:	0100                	addi	s0,sp,128
 5c8:	20090203          	lb	tp,512(s2)
 5cc:	0100                	addi	s0,sp,128
 5ce:	0900f603          	0x900f603
 5d2:	000c                	0xc
 5d4:	0301                	addi	t1,t1,0
 5d6:	7eb1                	lui	t4,0xfffec
 5d8:	0209                	addi	tp,tp,2
 5da:	0100                	addi	s0,sp,128
 5dc:	04090103          	lb	sp,64(s2)
 5e0:	0100                	addi	s0,sp,128
 5e2:	04090403          	lb	s0,64(s2)
 5e6:	0100                	addi	s0,sp,128
 5e8:	08097d03          	0x8097d03
 5ec:	0100                	addi	s0,sp,128
 5ee:	04090303          	lb	t1,64(s2)
 5f2:	0100                	addi	s0,sp,128
 5f4:	04097d03          	0x4097d03
 5f8:	0100                	addi	s0,sp,128
 5fa:	04090303          	lb	t1,64(s2)
 5fe:	0100                	addi	s0,sp,128
 600:	04097d03          	0x4097d03
 604:	0100                	addi	s0,sp,128
 606:	02090303          	lb	t1,32(s2)
 60a:	0100                	addi	s0,sp,128
 60c:	04097e03          	0x4097e03
 610:	0100                	addi	s0,sp,128
 612:	04090203          	lb	tp,64(s2)
 616:	0100                	addi	s0,sp,128
 618:	0900d203          	lhu	tp,144(ra)
 61c:	0060                	addi	s0,sp,12
 61e:	0301                	addi	t1,t1,0
 620:	097d                	addi	s2,s2,31
 622:	000c                	0xc
 624:	0301                	addi	t1,t1,0
 626:	00040903          	lb	s2,0(s0)
 62a:	0301                	addi	t1,t1,0
 62c:	0902                	slli	s2,s2,0x0
 62e:	0002                	c.slli	zero,0x0
 630:	0301                	addi	t1,t1,0
 632:	0902                	slli	s2,s2,0x0
 634:	0004                	0x4
 636:	0301                	addi	t1,t1,0
 638:	00f4                	addi	a3,sp,76
 63a:	0609                	addi	a2,a2,2
 63c:	0100                	addi	s0,sp,128
 63e:	097ede03          	lhu	t3,151(t4) # fffec097 <__global_pointer$+0x6ffeb897>
 642:	0006                	c.slli	zero,0x1
 644:	0301                	addi	t1,t1,0
 646:	0e097fbf 68030100 	0x680301000e097fbf
 64e:	0809                	addi	a6,a6,2
 650:	0100                	addi	s0,sp,128
 652:	0900e403          	0x900e403
 656:	0004                	0x4
 658:	0301                	addi	t1,t1,0
 65a:	04090197          	auipc	gp,0x4090
 65e:	0100                	addi	s0,sp,128
 660:	097f8703          	lb	a4,151(t6)
 664:	0002                	c.slli	zero,0x0
 666:	0301                	addi	t1,t1,0
 668:	14097faf          	0x14097faf
 66c:	0100                	addi	s0,sp,128
 66e:	08095b03          	lhu	s6,128(s2)
 672:	0100                	addi	s0,sp,128
 674:	06092a03          	lw	s4,96(s2)
 678:	0100                	addi	s0,sp,128
 67a:	0609                	addi	a2,a2,2
 67c:	0000                	unimp
 67e:	0101                	addi	sp,sp,0
 680:	0310                	addi	a2,sp,384
 682:	0000                	unimp
 684:	0002                	c.slli	zero,0x0
 686:	0152                	slli	sp,sp,0x14
 688:	0000                	unimp
 68a:	0101                	addi	sp,sp,0
 68c:	000d0efb          	0xd0efb
 690:	0101                	addi	sp,sp,0
 692:	0101                	addi	sp,sp,0
 694:	0000                	unimp
 696:	0100                	addi	s0,sp,128
 698:	0000                	unimp
 69a:	2f01                	jal	daa <_tbss_end+0xd66>
 69c:	6f48                	flw	fa0,28(a4)
 69e:	572f7473          	csrrci	s0,0x572,30
 6a2:	2f6b726f          	jal	tp,b7998 <_tbss_end+0xb7954>
 6a6:	6972                	flw	fs2,28(sp)
 6a8:	2d766373          	csrrsi	t1,0x2d7,12
 6ac:	6f6e                	flw	ft10,216(sp)
 6ae:	656e                	flw	fa0,216(sp)
 6b0:	672d                	lui	a4,0xb
 6b2:	722f6363          	bltu	t5,sp,dd8 <_tbss_end+0xd94>
 6b6:	7369                	lui	t1,0xffffa
 6b8:	6e2d7663          	bleu	sp,s10,da4 <_tbss_end+0xd60>
 6bc:	2d656e6f          	jal	t3,56992 <_tbss_end+0x5694e>
 6c0:	2d636367          	0x2d636367
 6c4:	2e322e37          	lui	t3,0x2e322
 6c8:	2d30                	fld	fa2,88(a0)
 6ca:	2d32                	fld	fs10,264(sp)
 6cc:	3032                	fld	ft0,296(sp)
 6ce:	3831                	jal	fffffeea <__global_pointer$+0x6ffff6ea>
 6d0:	3130                	fld	fa2,96(a0)
 6d2:	3031                	jal	fffffede <__global_pointer$+0x6ffff6de>
 6d4:	62696c2f          	0x62696c2f
 6d8:	00636367          	0x636367
 6dc:	736f482f          	0x736f482f
 6e0:	2f74                	fld	fa3,216(a4)
 6e2:	6b726f57          	0x6b726f57
 6e6:	7369722f          	0x7369722f
 6ea:	6e2d7663          	bleu	sp,s10,dd6 <_tbss_end+0xd92>
 6ee:	2d656e6f          	jal	t3,569c4 <_tbss_end+0x56980>
 6f2:	2f636367          	0x2f636367
 6f6:	6972                	flw	fs2,28(sp)
 6f8:	2d766373          	csrrsi	t1,0x2d7,12
 6fc:	6f6e                	flw	ft10,216(sp)
 6fe:	656e                	flw	fa0,216(sp)
 700:	672d                	lui	a4,0xb
 702:	372d6363          	bltu	s10,s2,a68 <_tbss_end+0xa24>
 706:	322e                	fld	ft4,232(sp)
 708:	302e                	fld	ft0,232(sp)
 70a:	322d                	jal	34 <_tdata_begin+0x34>
 70c:	322d                	jal	36 <_tdata_begin+0x36>
 70e:	3130                	fld	fa2,96(a0)
 710:	3038                	fld	fa4,96(s0)
 712:	3131                	jal	31e <_tbss_end+0x2da>
 714:	2f30                	fld	fa2,88(a4)
 716:	696c                	flw	fa1,84(a0)
 718:	6762                	flw	fa4,24(sp)
 71a:	2e2f6363          	bltu	t5,sp,a00 <_tbss_end+0x9bc>
 71e:	2f2e                	fld	ft10,200(sp)
 720:	6e69                	lui	t3,0x1a
 722:	64756c63          	bltu	a0,t2,d7a <_tbss_end+0xd36>
 726:	0065                	c.nop	25
 728:	736f482f          	0x736f482f
 72c:	2f74                	fld	fa3,216(a4)
 72e:	6b726f57          	0x6b726f57
 732:	7369722f          	0x7369722f
 736:	6e2d7663          	bleu	sp,s10,e22 <_tbss_end+0xdde>
 73a:	2d656e6f          	jal	t3,56a10 <_tbss_end+0x569cc>
 73e:	2f636367          	0x2f636367
 742:	6972                	flw	fs2,28(sp)
 744:	2d766373          	csrrsi	t1,0x2d7,12
 748:	6f6e                	flw	ft10,216(sp)
 74a:	656e                	flw	fa0,216(sp)
 74c:	672d                	lui	a4,0xb
 74e:	372d6363          	bltu	s10,s2,ab4 <_tbss_end+0xa70>
 752:	322e                	fld	ft4,232(sp)
 754:	302e                	fld	ft0,232(sp)
 756:	322d                	jal	80 <_tbss_end+0x3c>
 758:	322d                	jal	82 <_tbss_end+0x3e>
 75a:	3130                	fld	fa2,96(a0)
 75c:	3038                	fld	fa4,96(s0)
 75e:	3131                	jal	36a <_tbss_end+0x326>
 760:	2f30                	fld	fa2,88(a4)
 762:	696c                	flw	fa1,84(a0)
 764:	6762                	flw	fa4,24(sp)
 766:	2e2f6363          	bltu	t5,sp,a4c <_tbss_end+0xa08>
 76a:	2f2e                	fld	ft10,200(sp)
 76c:	2f636367          	0x2f636367
 770:	666e6f63          	bltu	t3,t1,dee <_tbss_end+0xdaa>
 774:	6769                	lui	a4,0x1a
 776:	7369722f          	0x7369722f
 77a:	2e007663          	bleu	zero,zero,a66 <_tbss_end+0xa22>
 77e:	2f2e                	fld	ft10,200(sp)
 780:	2e2e                	fld	ft8,200(sp)
 782:	2f2e2e2f          	0x2f2e2e2f
 786:	2e2e                	fld	ft8,200(sp)
 788:	672f2e2f          	amoand.w.aqrl	t3,s2,(t5)
 78c:	00006363          	bltu	zero,zero,792 <_tbss_end+0x74e>
 790:	696c                	flw	fa1,84(a0)
 792:	6762                	flw	fa4,24(sp)
 794:	2e326363          	bltu	tp,gp,a7a <_tbss_end+0xa36>
 798:	00010063          	beqz	sp,798 <_tbss_end+0x754>
 79c:	6800                	flw	fs0,16(s0)
 79e:	7361                	lui	t1,0xffff8
 7a0:	7468                	flw	fa0,108(s0)
 7a2:	6261                	lui	tp,0x18
 7a4:	682e                	flw	fa6,200(sp)
 7a6:	0200                	addi	s0,sp,256
 7a8:	0000                	unimp
 7aa:	6972                	flw	fs2,28(sp)
 7ac:	2d766373          	csrrsi	t1,0x2d7,12
 7b0:	7374706f          	j	486e6 <_tbss_end+0x486a2>
 7b4:	682e                	flw	fa6,200(sp)
 7b6:	0300                	addi	s0,sp,384
 7b8:	0000                	unimp
 7ba:	6e69                	lui	t3,0x1a
 7bc:	632d6e73          	csrrsi	t3,0x632,26
 7c0:	74736e6f          	jal	t3,37706 <_tbss_end+0x376c2>
 7c4:	6e61                	lui	t3,0x18
 7c6:	7374                	flw	fa3,100(a4)
 7c8:	682e                	flw	fa6,200(sp)
 7ca:	0400                	addi	s0,sp,512
 7cc:	0000                	unimp
 7ce:	696c                	flw	fa1,84(a0)
 7d0:	6762                	flw	fa4,24(sp)
 7d2:	2e326363          	bltu	tp,gp,ab8 <_tbss_end+0xa74>
 7d6:	0068                	addi	a0,sp,12
 7d8:	0001                	nop
 7da:	0000                	unimp
 7dc:	0500                	addi	s0,sp,640
 7de:	6e02                	flw	ft8,0(sp)
 7e0:	03800023          	sb	s8,32(zero) # 20 <_tdata_begin+0x20>
 7e4:	0a99                	addi	s5,s5,6
 7e6:	0301                	addi	t1,t1,0
 7e8:	7de6                	flw	fs11,120(sp)
 7ea:	0009                	c.nop	2
 7ec:	0100                	addi	s0,sp,128
 7ee:	02097f03          	0x2097f03
 7f2:	0100                	addi	s0,sp,128
 7f4:	02090203          	lb	tp,32(s2)
 7f8:	0100                	addi	s0,sp,128
 7fa:	02090103          	lb	sp,32(s2)
 7fe:	0100                	addi	s0,sp,128
 800:	02092503          	lw	a0,32(s2)
 804:	0100                	addi	s0,sp,128
 806:	02090203          	lb	tp,32(s2)
 80a:	0100                	addi	s0,sp,128
 80c:	04090403          	lb	s0,64(s2)
 810:	0100                	addi	s0,sp,128
 812:	2e090203          	lb	tp,736(s2)
 816:	0100                	addi	s0,sp,128
 818:	04090603          	lb	a2,64(s2)
 81c:	0100                	addi	s0,sp,128
 81e:	08097f03          	0x8097f03
 822:	0100                	addi	s0,sp,128
 824:	04090103          	lb	sp,64(s2)
 828:	0100                	addi	s0,sp,128
 82a:	04090103          	lb	sp,64(s2)
 82e:	0100                	addi	s0,sp,128
 830:	04090303          	lb	t1,64(s2)
 834:	0100                	addi	s0,sp,128
 836:	48092a03          	lw	s4,1152(s2)
 83a:	0100                	addi	s0,sp,128
 83c:	10090703          	lb	a4,256(s2)
 840:	0100                	addi	s0,sp,128
 842:	04090203          	lb	tp,64(s2)
 846:	0100                	addi	s0,sp,128
 848:	0901b403          	0x901b403
 84c:	0002                	c.slli	zero,0x0
 84e:	0301                	addi	t1,t1,0
 850:	02097ed3          	fadd.d	ft9,fs2,ft0
 854:	0100                	addi	s0,sp,128
 856:	04091303          	lh	t1,64(s2)
 85a:	0100                	addi	s0,sp,128
 85c:	2c090103          	lb	sp,704(s2)
 860:	0100                	addi	s0,sp,128
 862:	04090a03          	lb	s4,64(s2)
 866:	0100                	addi	s0,sp,128
 868:	0a090303          	lb	t1,160(s2)
 86c:	0100                	addi	s0,sp,128
 86e:	0e090b03          	lb	s6,224(s2)
 872:	0100                	addi	s0,sp,128
 874:	09018103          	lb	sp,144(gp) # 40906ea <_tbss_end+0x40906a6>
 878:	0004                	0x4
 87a:	0301                	addi	t1,t1,0
 87c:	7ea2                	flw	ft9,40(sp)
 87e:	0209                	addi	tp,tp,2
 880:	0100                	addi	s0,sp,128
 882:	02090103          	lb	sp,32(s2)
 886:	0100                	addi	s0,sp,128
 888:	06090203          	lb	tp,96(s2)
 88c:	0100                	addi	s0,sp,128
 88e:	2c090203          	lb	tp,704(s2)
 892:	0100                	addi	s0,sp,128
 894:	08090903          	lb	s2,128(s2)
 898:	0100                	addi	s0,sp,128
 89a:	0c091303          	lh	t1,192(s2)
 89e:	0100                	addi	s0,sp,128
 8a0:	44092303          	lw	t1,1088(s2)
 8a4:	0100                	addi	s0,sp,128
 8a6:	097fbf03          	0x97fbf03
 8aa:	0010                	0x10
 8ac:	0301                	addi	t1,t1,0
 8ae:	0968                	addi	a0,sp,156
 8b0:	0012                	c.slli	zero,0x4
 8b2:	0301                	addi	t1,t1,0
 8b4:	00fc                	addi	a5,sp,76
 8b6:	1009                	c.nop	-30
 8b8:	0100                	addi	s0,sp,128
 8ba:	0c090203          	lb	tp,192(s2)
 8be:	0100                	addi	s0,sp,128
 8c0:	04090403          	lb	s0,64(s2)
 8c4:	0100                	addi	s0,sp,128
 8c6:	10097d03          	0x10097d03
 8ca:	0100                	addi	s0,sp,128
 8cc:	0a090303          	lb	t1,160(s2)
 8d0:	0100                	addi	s0,sp,128
 8d2:	04097b03          	0x4097b03
 8d6:	0100                	addi	s0,sp,128
 8d8:	04090303          	lb	t1,64(s2)
 8dc:	0100                	addi	s0,sp,128
 8de:	04090203          	lb	tp,64(s2)
 8e2:	0100                	addi	s0,sp,128
 8e4:	4a090103          	lb	sp,1184(s2)
 8e8:	0100                	addi	s0,sp,128
 8ea:	02097f03          	0x2097f03
 8ee:	0100                	addi	s0,sp,128
 8f0:	04090103          	lb	sp,64(s2)
 8f4:	0100                	addi	s0,sp,128
 8f6:	18097f03          	0x18097f03
 8fa:	0100                	addi	s0,sp,128
 8fc:	04090103          	lb	sp,64(s2)
 900:	0100                	addi	s0,sp,128
 902:	30090203          	lb	tp,768(s2)
 906:	0100                	addi	s0,sp,128
 908:	0c097e03          	0xc097e03
 90c:	0100                	addi	s0,sp,128
 90e:	097fa903          	lw	s2,151(t6)
 912:	0004                	0x4
 914:	0301                	addi	t1,t1,0
 916:	0901                	addi	s2,s2,0
 918:	0004                	0x4
 91a:	0301                	addi	t1,t1,0
 91c:	0904                	addi	s1,sp,144
 91e:	0004                	0x4
 920:	0301                	addi	t1,t1,0
 922:	097d                	addi	s2,s2,31
 924:	000c                	0xc
 926:	0301                	addi	t1,t1,0
 928:	00040903          	lb	s2,0(s0)
 92c:	0301                	addi	t1,t1,0
 92e:	097d                	addi	s2,s2,31
 930:	0004                	0x4
 932:	0301                	addi	t1,t1,0
 934:	00060903          	lb	s2,0(a2)
 938:	0301                	addi	t1,t1,0
 93a:	097e                	slli	s2,s2,0x1f
 93c:	0004                	0x4
 93e:	0301                	addi	t1,t1,0
 940:	0902                	slli	s2,s2,0x0
 942:	0004                	0x4
 944:	0301                	addi	t1,t1,0
 946:	4e0900d7          	0x4e0900d7
 94a:	0100                	addi	s0,sp,128
 94c:	12090803          	lb	a6,288(s2)
 950:	0100                	addi	s0,sp,128
 952:	0a090103          	lb	sp,160(s2)
 956:	0100                	addi	s0,sp,128
 958:	08090203          	lb	tp,128(s2)
 95c:	0100                	addi	s0,sp,128
 95e:	0900e003          	0x900e003
 962:	0008                	0x8
 964:	0301                	addi	t1,t1,0
 966:	7ee6                	flw	ft9,120(sp)
 968:	0609                	addi	a2,a2,2
 96a:	0100                	addi	s0,sp,128
 96c:	097fbf03          	0x97fbf03
 970:	000e                	c.slli	zero,0x3
 972:	0301                	addi	t1,t1,0
 974:	0968                	addi	a0,sp,156
 976:	0008                	0x8
 978:	0301                	addi	t1,t1,0
 97a:	0182                	slli	gp,gp,0x0
 97c:	0409                	addi	s0,s0,2
 97e:	0100                	addi	s0,sp,128
 980:	097f8a03          	lb	s4,151(t6)
 984:	0014                	0x14
 986:	0301                	addi	t1,t1,0
 988:	00f9                	addi	ra,ra,30
 98a:	0409                	addi	s0,s0,2
 98c:	0100                	addi	s0,sp,128
 98e:	0a09                	addi	s4,s4,2
 990:	0000                	unimp
 992:	0101                	addi	sp,sp,0
 994:	0158                	addi	a4,sp,132
 996:	0000                	unimp
 998:	0002                	c.slli	zero,0x0
 99a:	0152                	slli	sp,sp,0x14
 99c:	0000                	unimp
 99e:	0101                	addi	sp,sp,0
 9a0:	000d0efb          	0xd0efb
 9a4:	0101                	addi	sp,sp,0
 9a6:	0101                	addi	sp,sp,0
 9a8:	0000                	unimp
 9aa:	0100                	addi	s0,sp,128
 9ac:	0000                	unimp
 9ae:	2f01                	jal	10be <_tbss_end+0x107a>
 9b0:	6f48                	flw	fa0,28(a4)
 9b2:	572f7473          	csrrci	s0,0x572,30
 9b6:	2f6b726f          	jal	tp,b7cac <_tbss_end+0xb7c68>
 9ba:	6972                	flw	fs2,28(sp)
 9bc:	2d766373          	csrrsi	t1,0x2d7,12
 9c0:	6f6e                	flw	ft10,216(sp)
 9c2:	656e                	flw	fa0,216(sp)
 9c4:	672d                	lui	a4,0xb
 9c6:	722f6363          	bltu	t5,sp,10ec <_tbss_end+0x10a8>
 9ca:	7369                	lui	t1,0xffffa
 9cc:	6e2d7663          	bleu	sp,s10,10b8 <_tbss_end+0x1074>
 9d0:	2d656e6f          	jal	t3,56ca6 <_tbss_end+0x56c62>
 9d4:	2d636367          	0x2d636367
 9d8:	2e322e37          	lui	t3,0x2e322
 9dc:	2d30                	fld	fa2,88(a0)
 9de:	2d32                	fld	fs10,264(sp)
 9e0:	3032                	fld	ft0,296(sp)
 9e2:	3831                	jal	1fe <_tbss_end+0x1ba>
 9e4:	3130                	fld	fa2,96(a0)
 9e6:	3031                	jal	1f2 <_tbss_end+0x1ae>
 9e8:	62696c2f          	0x62696c2f
 9ec:	2f636367          	0x2f636367
 9f0:	2e2e                	fld	ft8,200(sp)
 9f2:	636e692f          	0x636e692f
 9f6:	756c                	flw	fa1,108(a0)
 9f8:	6564                	flw	fs1,76(a0)
 9fa:	2f00                	fld	fs0,24(a4)
 9fc:	6f48                	flw	fa0,28(a4)
 9fe:	572f7473          	csrrci	s0,0x572,30
 a02:	2f6b726f          	jal	tp,b7cf8 <_tbss_end+0xb7cb4>
 a06:	6972                	flw	fs2,28(sp)
 a08:	2d766373          	csrrsi	t1,0x2d7,12
 a0c:	6f6e                	flw	ft10,216(sp)
 a0e:	656e                	flw	fa0,216(sp)
 a10:	672d                	lui	a4,0xb
 a12:	722f6363          	bltu	t5,sp,1138 <_tbss_end+0x10f4>
 a16:	7369                	lui	t1,0xffffa
 a18:	6e2d7663          	bleu	sp,s10,1104 <_tbss_end+0x10c0>
 a1c:	2d656e6f          	jal	t3,56cf2 <_tbss_end+0x56cae>
 a20:	2d636367          	0x2d636367
 a24:	2e322e37          	lui	t3,0x2e322
 a28:	2d30                	fld	fa2,88(a0)
 a2a:	2d32                	fld	fs10,264(sp)
 a2c:	3032                	fld	ft0,296(sp)
 a2e:	3831                	jal	24a <_tbss_end+0x206>
 a30:	3130                	fld	fa2,96(a0)
 a32:	3031                	jal	23e <_tbss_end+0x1fa>
 a34:	62696c2f          	0x62696c2f
 a38:	2f636367          	0x2f636367
 a3c:	2e2e                	fld	ft8,200(sp)
 a3e:	6363672f          	0x6363672f
 a42:	6e6f632f          	0x6e6f632f
 a46:	6966                	flw	fs2,88(sp)
 a48:	69722f67          	0x69722f67
 a4c:	00766373          	csrrsi	t1,0x7,12
 a50:	2e2e                	fld	ft8,200(sp)
 a52:	2f2e2e2f          	0x2f2e2e2f
 a56:	2e2e                	fld	ft8,200(sp)
 a58:	2f2e2e2f          	0x2f2e2e2f
 a5c:	2f2e                	fld	ft10,200(sp)
 a5e:	00636367          	0x636367
 a62:	736f482f          	0x736f482f
 a66:	2f74                	fld	fa3,216(a4)
 a68:	6b726f57          	0x6b726f57
 a6c:	7369722f          	0x7369722f
 a70:	6e2d7663          	bleu	sp,s10,115c <_tbss_end+0x1118>
 a74:	2d656e6f          	jal	t3,56d4a <_tbss_end+0x56d06>
 a78:	2f636367          	0x2f636367
 a7c:	6972                	flw	fs2,28(sp)
 a7e:	2d766373          	csrrsi	t1,0x2d7,12
 a82:	6f6e                	flw	ft10,216(sp)
 a84:	656e                	flw	fa0,216(sp)
 a86:	672d                	lui	a4,0xb
 a88:	372d6363          	bltu	s10,s2,dee <_tbss_end+0xdaa>
 a8c:	322e                	fld	ft4,232(sp)
 a8e:	302e                	fld	ft0,232(sp)
 a90:	322d                	jal	3ba <_tbss_end+0x376>
 a92:	322d                	jal	3bc <_tbss_end+0x378>
 a94:	3130                	fld	fa2,96(a0)
 a96:	3038                	fld	fa4,96(s0)
 a98:	3131                	jal	6a4 <_tbss_end+0x660>
 a9a:	2f30                	fld	fa2,88(a4)
 a9c:	696c                	flw	fa1,84(a0)
 a9e:	6762                	flw	fa4,24(sp)
 aa0:	00006363          	bltu	zero,zero,aa6 <_tbss_end+0xa62>
 aa4:	6168                	flw	fa0,68(a0)
 aa6:	61746873          	csrrsi	a6,0x617,8
 aaa:	2e62                	fld	ft8,24(sp)
 aac:	0068                	addi	a0,sp,12
 aae:	0001                	nop
 ab0:	7200                	flw	fs0,32(a2)
 ab2:	7369                	lui	t1,0xffffa
 ab4:	6f2d7663          	bleu	s2,s10,11a0 <_tbss_end+0x115c>
 ab8:	7470                	flw	fa2,108(s0)
 aba:	00682e73          	csrrs	t3,0x6,a6
 abe:	0002                	c.slli	zero,0x0
 ac0:	6900                	flw	fs0,16(a0)
 ac2:	736e                	flw	ft6,248(sp)
 ac4:	2d6e                	fld	fs10,216(sp)
 ac6:	736e6f63          	bltu	t3,s6,1204 <_tbss_end+0x11c0>
 aca:	6174                	flw	fa3,68(a0)
 acc:	746e                	flw	fs0,248(sp)
 ace:	00682e73          	csrrs	t3,0x6,a6
 ad2:	6c000003          	lb	zero,1728(zero) # 6c0 <_tbss_end+0x67c>
 ad6:	6269                	lui	tp,0x1a
 ad8:	32636367          	0x32636367
 adc:	682e                	flw	fa6,200(sp)
 ade:	0400                	addi	s0,sp,512
 ae0:	0000                	unimp
 ae2:	696c                	flw	fa1,84(a0)
 ae4:	6762                	flw	fa4,24(sp)
 ae6:	2e326363          	bltu	tp,gp,dcc <_tbss_end+0xd88>
 aea:	00040063          	beqz	s0,aea <_tbss_end+0xaa6>
	...

Disassembly of section .debug_str:

00000000 <.debug_str>:
   0:	5744                	lw	s1,44(a4)
   2:	75727473          	csrrci	s0,0x757,4
   6:	63007463          	bleu	a6,zero,62e <_tbss_end+0x5ea>
   a:	6c706d6f          	jal	s10,6ed0 <_tbss_end+0x6e8c>
   e:	7865                	lui	a6,0xffff9
  10:	6620                	flw	fs0,72(a2)
  12:	6f6c                	flw	fa1,92(a4)
  14:	7461                	lui	s0,0xffff8
  16:	6800                	flw	fs0,16(s0)
  18:	6174                	flw	fa3,68(a0)
  1a:	5f62                	lw	t5,56(sp)
  1c:	7165                	addi	sp,sp,-400
  1e:	705f 696f 746e      	0x746e696f705f
  24:	7265                	lui	tp,0xffff9
  26:	4700                	lw	s0,8(a4)
  28:	554e                	lw	a0,240(sp)
  2a:	4320                	lw	s0,64(a4)
  2c:	3131                	jal	fffffc38 <__global_pointer$+0x6ffff438>
  2e:	3720                	fld	fs0,104(a4)
  30:	322e                	fld	ft4,232(sp)
  32:	302e                	fld	ft0,232(sp)
  34:	2d20                	fld	fs0,88(a0)
  36:	636d                	lui	t1,0x1b
  38:	6f6d                	lui	t5,0x1b
  3a:	6564                	flw	fs1,76(a0)
  3c:	3d6c                	fld	fa1,248(a0)
  3e:	656d                	lui	a0,0x1b
  40:	6164                	flw	fs1,68(a0)
  42:	796e                	flw	fs2,248(sp)
  44:	2d20                	fld	fs0,88(a0)
  46:	616d                	addi	sp,sp,240
  48:	6372                	flw	ft6,28(sp)
  4a:	3d68                	fld	fa0,248(a0)
  4c:	7672                	flw	fa2,60(sp)
  4e:	6d693233          	0x6d693233
  52:	6661                	lui	a2,0x18
  54:	6d2d2063          	0x6d2d2063
  58:	6261                	lui	tp,0x18
  5a:	3d69                	jal	fffffef4 <__global_pointer$+0x6ffff6f4>
  5c:	6c69                	lui	s8,0x1a
  5e:	3370                	fld	fa2,224(a4)
  60:	6632                	flw	fa2,12(sp)
  62:	2d20                	fld	fs0,88(a0)
  64:	636d                	lui	t1,0x1b
  66:	6f6d                	lui	t5,0x1b
  68:	6564                	flw	fs1,76(a0)
  6a:	3d6c                	fld	fa1,248(a0)
  6c:	656d                	lui	a0,0x1b
  6e:	6164                	flw	fs1,68(a0)
  70:	796e                	flw	fs2,248(sp)
  72:	2d20                	fld	fs0,88(a0)
  74:	4f2d2067          	0x4f2d2067
  78:	2032                	fld	ft0,264(sp)
  7a:	4f2d                	li	t5,11
  7c:	2032                	fld	ft0,264(sp)
  7e:	4f2d                	li	t5,11
  80:	2032                	fld	ft0,264(sp)
  82:	662d                	lui	a2,0xb
  84:	7566                	flw	fa0,120(sp)
  86:	636e                	flw	ft6,216(sp)
  88:	6974                	flw	fa3,84(a0)
  8a:	732d6e6f          	jal	t3,d67bc <_tbss_end+0xd6778>
  8e:	6365                	lui	t1,0x19
  90:	6974                	flw	fa3,84(a0)
  92:	20736e6f          	jal	t3,36a98 <_tbss_end+0x36a54>
  96:	662d                	lui	a2,0xb
  98:	6164                	flw	fs1,68(a0)
  9a:	6174                	flw	fa3,68(a0)
  9c:	732d                	lui	t1,0xfffeb
  9e:	6365                	lui	t1,0x19
  a0:	6974                	flw	fa3,84(a0)
  a2:	20736e6f          	jal	t3,36aa8 <_tbss_end+0x36a64>
  a6:	662d                	lui	a2,0xb
  a8:	7562                	flw	fa0,56(sp)
  aa:	6c69                	lui	s8,0x1a
  ac:	6964                	flw	fs1,84(a0)
  ae:	676e                	flw	fa4,216(sp)
  b0:	6c2d                	lui	s8,0xb
  b2:	6269                	lui	tp,0x1a
  b4:	20636367          	0x20636367
  b8:	662d                	lui	a2,0xb
  ba:	6f6e                	flw	ft10,216(sp)
  bc:	732d                	lui	t1,0xfffeb
  be:	6174                	flw	fa3,68(a0)
  c0:	702d6b63          	bltu	s10,sp,7d6 <_tbss_end+0x792>
  c4:	6f72                	flw	ft10,28(sp)
  c6:	6574                	flw	fa3,76(a0)
  c8:	726f7463          	bleu	t1,t5,7f0 <_tbss_end+0x7ac>
  cc:	2d20                	fld	fs0,88(a0)
  ce:	6566                	flw	fa0,88(sp)
  d0:	6378                	flw	fa4,68(a4)
  d2:	7065                	c.lui	zero,0xffff9
  d4:	6974                	flw	fa3,84(a0)
  d6:	20736e6f          	jal	t3,36adc <_tbss_end+0x36a98>
  da:	662d                	lui	a2,0xb
  dc:	6f6e                	flw	ft10,216(sp)
  de:	2d6e                	fld	fs10,216(sp)
  e0:	6c6c6163          	bltu	s8,t1,7a2 <_tbss_end+0x75e>
  e4:	652d                	lui	a0,0xb
  e6:	6378                	flw	fa4,68(a4)
  e8:	7065                	c.lui	zero,0xffff9
  ea:	6974                	flw	fa3,84(a0)
  ec:	20736e6f          	jal	t3,36af2 <_tbss_end+0x36aae>
  f0:	662d                	lui	a2,0xb
  f2:	6976                	flw	fs2,92(sp)
  f4:	69626973          	csrrsi	s2,0x696,4
  f8:	696c                	flw	fa1,84(a0)
  fa:	7974                	flw	fa3,116(a0)
  fc:	683d                	lui	a6,0xf
  fe:	6469                	lui	s0,0x1a
 100:	6564                	flw	fs1,76(a0)
 102:	006e                	c.slli	zero,0x1b
 104:	726f6873          	csrrsi	a6,0x726,30
 108:	2074                	fld	fa3,192(s0)
 10a:	6e69                	lui	t3,0x1a
 10c:	0074                	addi	a3,sp,12
 10e:	6968                	flw	fa0,84(a0)
 110:	44006867          	0x44006867
 114:	696e7557          	0x696e7557
 118:	72006e6f          	jal	t3,6838 <_tbss_end+0x67f4>
 11c:	7369                	lui	t1,0xffffa
 11e:	615f7663          	bleu	s5,t5,72a <_tbss_end+0x6e6>
 122:	6962                	flw	fs2,24(sp)
 124:	745f 7079 0065      	0x657079745f
 12a:	6f6c                	flw	fa1,92(a4)
 12c:	676e                	flw	fa4,216(sp)
 12e:	6c20                	flw	fs0,88(s0)
 130:	20676e6f          	jal	t3,76336 <_tbss_end+0x762f2>
 134:	6e69                	lui	t3,0x1a
 136:	0074                	addi	a3,sp,12
 138:	5f5f 3064 5f00      	0x5f0030645f5f
 13e:	645f 0031 4241      	0x42410031645f
 144:	5f49                	li	t5,-14
 146:	504c                	lw	a1,36(s0)
 148:	3436                	fld	fs0,360(sp)
 14a:	6300                	flw	fs0,0(a4)
 14c:	6c706d6f          	jal	s10,7012 <_tbss_end+0x6fce>
 150:	7865                	lui	a6,0xffff9
 152:	6420                	flw	fs0,72(s0)
 154:	6c62756f          	jal	a0,2781a <_tbss_end+0x277d6>
 158:	0065                	c.nop	25
 15a:	5f5f 6876 4100      	0x410068765f5f
 160:	4942                	lw	s2,16(sp)
 162:	495f 504c 3233      	0x3233504c495f
 168:	0046                	c.slli	zero,0x11
 16a:	5f5f 6c76 7200      	0x72006c765f5f
 170:	7369                	lui	t1,0xffffa
 172:	635f7663          	bleu	s5,t5,79e <_tbss_end+0x75a>
 176:	5f65646f          	jal	s0,5676c <_tbss_end+0x56728>
 17a:	6f6d                	lui	t5,0x1b
 17c:	6564                	flw	fs1,76(a0)
 17e:	006c                	addi	a1,sp,12
 180:	6e75                	lui	t3,0x1d
 182:	63657073          	csrci	0x636,10
 186:	735f 7274 6e69      	0x6e697274735f
 18c:	43007367          	0x43007367
 190:	5f4d                	li	t5,-13
 192:	454d                	li	a0,19
 194:	4c44                	lw	s1,28(s0)
 196:	6800574f          	fnmadd.s	fa4,ft0,ft0,fa3,unknown
 19a:	6174                	flw	fa3,68(a0)
 19c:	5f62                	lw	t5,56(sp)
 19e:	6168                	flw	fa0,68(a0)
 1a0:	6c006873          	csrrsi	a6,0x6c0,0
 1a4:	20676e6f          	jal	t3,763aa <_tbss_end+0x76366>
 1a8:	6f6c                	flw	fa1,92(a4)
 1aa:	676e                	flw	fa4,216(sp)
 1ac:	7520                	flw	fs0,104(a0)
 1ae:	736e                	flw	ft6,248(sp)
 1b0:	6769                	lui	a4,0x1a
 1b2:	656e                	flw	fa0,216(sp)
 1b4:	2064                	fld	fs1,192(s0)
 1b6:	6e69                	lui	t3,0x1a
 1b8:	0074                	addi	a3,sp,12
 1ba:	6972                	flw	fs2,28(sp)
 1bc:	5f766373          	csrrsi	t1,0x5f7,12
 1c0:	6261                	lui	tp,0x18
 1c2:	0069                	c.nop	26
 1c4:	4241                	li	tp,16
 1c6:	5f49                	li	t5,-14
 1c8:	504c                	lw	a1,36(s0)
 1ca:	3436                	fld	fs0,360(sp)
 1cc:	0044                	addi	s1,sp,4
 1ce:	4241                	li	tp,16
 1d0:	5f49                	li	t5,-14
 1d2:	504c                	lw	a1,36(s0)
 1d4:	3436                	fld	fs0,360(sp)
 1d6:	0046                	c.slli	zero,0x11
 1d8:	5f5f 6c63 5f7a      	0x5f7a6c635f5f
 1de:	6174                	flw	fa3,68(a0)
 1e0:	0062                	c.slli	zero,0x18
 1e2:	4241                	li	tp,16
 1e4:	5f49                	li	t5,-14
 1e6:	4c49                	li	s8,18
 1e8:	3350                	fld	fa2,160(a4)
 1ea:	4432                	lw	s0,12(sp)
 1ec:	5f00                	lw	s0,56(a4)
 1ee:	705f 706f 6f63      	0x6f63706f705f
 1f4:	6e75                	lui	t3,0x1d
 1f6:	5f74                	lw	a3,124(a4)
 1f8:	6174                	flw	fa3,68(a0)
 1fa:	0062                	c.slli	zero,0x18
 1fc:	505f4d43          	fmadd.s	fs10,ft10,ft5,fa0,rmm
 200:	4349                	li	t1,18
 202:	7500                	flw	fs0,40(a0)
 204:	736e                	flw	ft6,248(sp)
 206:	6769                	lui	a4,0x1a
 208:	656e                	flw	fa0,216(sp)
 20a:	2064                	fld	fs1,192(s0)
 20c:	72616863          	bltu	sp,t1,93c <_tbss_end+0x8f8>
 210:	7500                	flw	fs0,40(a0)
 212:	736e                	flw	ft6,248(sp)
 214:	6570                	flw	fa2,76(a0)
 216:	735f7663          	bleu	s5,t5,942 <_tbss_end+0x8fe>
 21a:	7274                	flw	fa3,100(a2)
 21c:	6e69                	lui	t3,0x1a
 21e:	72007367          	0x72007367
 222:	7369                	lui	t1,0xffffa
 224:	635f7663          	bleu	s5,t5,850 <_tbss_end+0x80c>
 228:	6f6d                	lui	t5,0x1b
 22a:	6564                	flw	fs1,76(a0)
 22c:	006c                	addi	a1,sp,12
 22e:	5f5f 3078 5f00      	0x5f0030785f5f
 234:	785f 0031 5f5f      	0x5f5f0031785f
 23a:	3278                	fld	fa4,224(a2)
 23c:	5f00                	lw	s0,56(a4)
 23e:	785f 0033 5155      	0x51550033785f
 244:	7449                	lui	s0,0xffff2
 246:	7079                	c.lui	zero,0xffffe
 248:	0065                	c.nop	25
 24a:	7468                	flw	fa0,108(s0)
 24c:	6261                	lui	tp,0x18
 24e:	685f 7361 5f68      	0x5f687361685f
 254:	6f70                	flw	fa2,92(a4)
 256:	6e69                	lui	t3,0x1a
 258:	6574                	flw	fa3,76(a0)
 25a:	0072                	c.slli	zero,0x1c
 25c:	726f6873          	csrrsi	a6,0x726,30
 260:	2074                	fld	fa3,192(s0)
 262:	6e75                	lui	t3,0x1d
 264:	6e676973          	csrrsi	s2,0x6e6,14
 268:	6465                	lui	s0,0x19
 26a:	6920                	flw	fs0,80(a0)
 26c:	746e                	flw	fs0,248(sp)
 26e:	5f00                	lw	s0,56(a4)
 270:	6d5f 646f 6964      	0x6964646f6d5f
 276:	53550033          	0x53550033
 27a:	7449                	lui	s0,0xffff2
 27c:	7079                	c.lui	zero,0xffffe
 27e:	0065                	c.nop	25
 280:	736f482f          	0x736f482f
 284:	2f74                	fld	fa3,216(a4)
 286:	6b726f57          	0x6b726f57
 28a:	7369722f          	0x7369722f
 28e:	6e2d7663          	bleu	sp,s10,97a <_tbss_end+0x936>
 292:	2d656e6f          	jal	t3,56568 <_tbss_end+0x56524>
 296:	2f636367          	0x2f636367
 29a:	6972                	flw	fs2,28(sp)
 29c:	2d766373          	csrrsi	t1,0x2d7,12
 2a0:	6f6e                	flw	ft10,216(sp)
 2a2:	656e                	flw	fa0,216(sp)
 2a4:	672d                	lui	a4,0xb
 2a6:	372d6363          	bltu	s10,s2,60c <_tbss_end+0x5c8>
 2aa:	322e                	fld	ft4,232(sp)
 2ac:	302e                	fld	ft0,232(sp)
 2ae:	322d                	jal	fffffbd8 <__global_pointer$+0x6ffff3d8>
 2b0:	322d                	jal	fffffbda <__global_pointer$+0x6ffff3da>
 2b2:	3130                	fld	fa2,96(a0)
 2b4:	3038                	fld	fa4,96(s0)
 2b6:	3131                	jal	fffffec2 <__global_pointer$+0x6ffff6c2>
 2b8:	2f30                	fld	fa2,88(a4)
 2ba:	696c                	flw	fa1,84(a0)
 2bc:	6762                	flw	fa4,24(sp)
 2be:	6c2f6363          	bltu	t5,sp,984 <_tbss_end+0x940>
 2c2:	6269                	lui	tp,0x1a
 2c4:	32636367          	0x32636367
 2c8:	632e                	flw	ft6,200(sp)
 2ca:	5f00                	lw	s0,56(a4)
 2cc:	715f 0030 5f5f      	0x5f5f0030715f
 2d2:	3171                	jal	ffffff5e <__global_pointer$+0x6ffff75e>
 2d4:	6800                	flw	fs0,16(s0)
 2d6:	7361                	lui	t1,0xffff8
 2d8:	7668                	flw	fa0,108(a2)
 2da:	6c61                	lui	s8,0x18
 2dc:	745f 5500 4944      	0x49445500745f
 2e2:	7974                	flw	fa3,116(a0)
 2e4:	6570                	flw	fa2,76(a0)
 2e6:	5f00                	lw	s0,56(a4)
 2e8:	785f 0072 5f5f      	0x5f5f0072785f
 2ee:	6475                	lui	s0,0x1d
 2f0:	7669                	lui	a2,0xffffa
 2f2:	6f6d                	lui	t5,0x1b
 2f4:	6464                	flw	fs1,76(s0)
 2f6:	3469                	jal	fffffd80 <__global_pointer$+0x6ffff580>
 2f8:	6300                	flw	fs0,0(a4)
 2fa:	6c706d6f          	jal	s10,71c0 <_tbss_end+0x717c>
 2fe:	7865                	lui	a6,0xffff9
 300:	6c20                	flw	fs0,88(s0)
 302:	20676e6f          	jal	t3,76508 <_tbss_end+0x764c4>
 306:	6f64                	flw	fs1,92(a4)
 308:	6275                	lui	tp,0x1d
 30a:	656c                	flw	fa1,76(a0)
 30c:	5f00                	lw	s0,56(a4)
 30e:	725f 0030 5f5f      	0x5f5f0030725f
 314:	3172                	fld	ft2,312(sp)
 316:	5f00                	lw	s0,56(a4)
 318:	755f 0068 4241      	0x42410068755f
 31e:	5f49                	li	t5,-14
 320:	4c49                	li	s8,18
 322:	3350                	fld	fa2,160(a4)
 324:	0032                	c.slli	zero,0xc
 326:	5f5f 6c75 2f00      	0x2f006c755f5f
 32c:	6d74                	flw	fa3,92(a0)
 32e:	2f70                	fld	fa2,216(a4)
 330:	7562                	flw	fa0,56(sp)
 332:	6c69                	lui	s8,0x1a
 334:	2f64                	fld	fs1,216(a4)
 336:	746e6563          	bltu	t3,t1,a80 <_tbss_end+0xa3c>
 33a:	3436736f          	jal	t1,67e7c <_tbss_end+0x67e38>
 33e:	6363672f          	0x6363672f
 342:	662d                	lui	a2,0xb
 344:	6e69                	lui	t3,0x1a
 346:	6c61                	lui	s8,0x18
 348:	7369722f          	0x7369722f
 34c:	6e2d7663          	bleu	sp,s10,a38 <_tbss_end+0x9f4>
 350:	2d656e6f          	jal	t3,56626 <_tbss_end+0x565e2>
 354:	6d65                	lui	s10,0x19
 356:	6562                	flw	fa0,24(sp)
 358:	2f64                	fld	fs1,216(a4)
 35a:	7672                	flw	fa2,60(sp)
 35c:	6d693233          	0x6d693233
 360:	6661                	lui	a2,0x18
 362:	6c692f63          	0x6c692f63
 366:	3370                	fld	fa2,224(a4)
 368:	6632                	flw	fa2,12(sp)
 36a:	62696c2f          	0x62696c2f
 36e:	00636367          	0x636367
 372:	7468                	flw	fa0,108(s0)
 374:	6261                	lui	tp,0x18
 376:	655f 0071 4d43      	0x4d430071655f
 37c:	4d5f 4445 4e41      	0x4e4144454d5f
 382:	0059                	c.nop	22
 384:	5f5f 6475 7669      	0x766964755f5f
 38a:	6964                	flw	fs1,84(a0)
 38c:	5f5f0033          	0x5f5f0033
 390:	6d75                	lui	s10,0x1d
 392:	6964646f          	jal	s0,46a28 <_tbss_end+0x469e4>
 396:	4e470033          	0x4e470033
 39a:	2055                	jal	43e <_tbss_end+0x3fa>
 39c:	20313143          	fmadd.s	ft2,ft2,ft3,ft4,rup
 3a0:	2e322e37          	lui	t3,0x2e322
 3a4:	2030                	fld	fa2,64(s0)
 3a6:	6d2d                	lui	s10,0xb
 3a8:	646f6d63          	bltu	t5,t1,a02 <_tbss_end+0x9be>
 3ac:	6c65                	lui	s8,0x19
 3ae:	6d3d                	lui	s10,0xf
 3b0:	6465                	lui	s0,0x19
 3b2:	6e61                	lui	t3,0x18
 3b4:	2079                	jal	442 <_tbss_end+0x3fe>
 3b6:	6d2d                	lui	s10,0xb
 3b8:	7261                	lui	tp,0xffff8
 3ba:	723d6863          	bltu	s10,gp,aea <_tbss_end+0xaa6>
 3be:	3376                	fld	ft6,376(sp)
 3c0:	6932                	flw	fs2,12(sp)
 3c2:	616d                	addi	sp,sp,240
 3c4:	6366                	flw	ft6,88(sp)
 3c6:	2d20                	fld	fs0,88(a0)
 3c8:	616d                	addi	sp,sp,240
 3ca:	6962                	flw	fs2,24(sp)
 3cc:	693d                	lui	s2,0xf
 3ce:	706c                	flw	fa1,100(s0)
 3d0:	20663233          	0x20663233
 3d4:	6d2d                	lui	s10,0xb
 3d6:	646f6d63          	bltu	t5,t1,a30 <_tbss_end+0x9ec>
 3da:	6c65                	lui	s8,0x19
 3dc:	6d3d                	lui	s10,0xf
 3de:	6465                	lui	s0,0x19
 3e0:	6e61                	lui	t3,0x18
 3e2:	2079                	jal	470 <_tbss_end+0x42c>
 3e4:	672d                	lui	a4,0xb
 3e6:	2d20                	fld	fs0,88(a0)
 3e8:	2d20324f          	0x2d20324f
 3ec:	2d20324f          	0x2d20324f
 3f0:	2d20324f          	0x2d20324f
 3f4:	6666                	flw	fa2,88(sp)
 3f6:	6e75                	lui	t3,0x1d
 3f8:	6f697463          	bleu	s6,s2,ae0 <_tbss_end+0xa9c>
 3fc:	2d6e                	fld	fs10,216(sp)
 3fe:	74636573          	csrrsi	a0,0x746,6
 402:	6f69                	lui	t5,0x1a
 404:	736e                	flw	ft6,248(sp)
 406:	2d20                	fld	fs0,88(a0)
 408:	6466                	flw	fs0,88(sp)
 40a:	7461                	lui	s0,0xffff8
 40c:	2d61                	jal	aa4 <_tbss_end+0xa60>
 40e:	74636573          	csrrsi	a0,0x746,6
 412:	6f69                	lui	t5,0x1a
 414:	736e                	flw	ft6,248(sp)
 416:	2d20                	fld	fs0,88(a0)
 418:	6266                	flw	ft4,88(sp)
 41a:	6975                	lui	s2,0x1d
 41c:	646c                	flw	fa1,76(s0)
 41e:	6e69                	lui	t3,0x1a
 420:	696c2d67          	0x696c2d67
 424:	6762                	flw	fa4,24(sp)
 426:	2d206363          	bltu	zero,s2,6ec <_tbss_end+0x6a8>
 42a:	6e66                	flw	ft8,88(sp)
 42c:	74732d6f          	jal	s10,33372 <_tbss_end+0x3332e>
 430:	6361                	lui	t1,0x18
 432:	72702d6b          	0x72702d6b
 436:	6365746f          	jal	s0,57a6c <_tbss_end+0x57a28>
 43a:	6f74                	flw	fa3,92(a4)
 43c:	2072                	fld	ft0,280(sp)
 43e:	662d                	lui	a2,0xb
 440:	6976                	flw	fs2,92(sp)
 442:	69626973          	csrrsi	s2,0x696,4
 446:	696c                	flw	fa1,84(a0)
 448:	7974                	flw	fa3,116(a0)
 44a:	683d                	lui	a6,0xf
 44c:	6469                	lui	s0,0x1a
 44e:	6564                	flw	fs1,76(a0)
 450:	006e                	c.slli	zero,0x1b
